ARM GAS  C:\Users\10542\AppData\Local\Temp\ccyRZrEs.s 			page 1


   1              		.cpu cortex-m4
   2              		.arch armv7e-m
   3              		.fpu fpv4-sp-d16
   4              		.eabi_attribute 27, 1
   5              		.eabi_attribute 28, 1
   6              		.eabi_attribute 20, 1
   7              		.eabi_attribute 21, 1
   8              		.eabi_attribute 23, 3
   9              		.eabi_attribute 24, 1
  10              		.eabi_attribute 25, 1
  11              		.eabi_attribute 26, 1
  12              		.eabi_attribute 30, 1
  13              		.eabi_attribute 34, 1
  14              		.eabi_attribute 18, 4
  15              		.file	"chassis.c"
  16              		.text
  17              	.Ltext0:
  18              		.cfi_sections	.debug_frame
  19              		.file 1 "application/chassis/chassis.c"
  20              		.section	.text.RudderShortPath,"ax",%progbits
  21              		.align	1
  22              		.syntax unified
  23              		.thumb
  24              		.thumb_func
  26              	RudderShortPath:
  27              	.LVL0:
  28              	.LFB279:
   1:application/chassis/chassis.c **** /**
   2:application/chassis/chassis.c ****  * @file chassis.c
   3:application/chassis/chassis.c ****  * @author Zero 1433026627@qq.com
   4:application/chassis/chassis.c ****  * @brief ه؛•ç›که؛”ç”¨,è´ںè´£وژ¥و”¶robot_cmdçڑ„وژ§هˆ¶ه‘½ن»¤ه¹¶و ¹وچ®ه‘½ن»¤è؟›è،Œè؟گهٹ¨ه­¦è§£ç®—,ه¾—
   5:application/chassis/chassis.c ****  *        و³¨و„ڈه؛•ç›کé‡‡هڈ–هڈ³و‰‹ç³»,ه¯¹ن؛ژه¹³é‌¢è§†ه›¾,ه؛•ç›کç؛µهگ‘è؟گهٹ¨çڑ„و­£ه‰چو–¹ن¸؛xو­£و–¹هگ
   6:application/chassis/chassis.c ****  *
   7:application/chassis/chassis.c ****  * @version 0.1
   8:application/chassis/chassis.c ****  * @date 2024-11-18
   9:application/chassis/chassis.c ****  *
  10:application/chassis/chassis.c ****  * @copyright Copyright (c) 2022 Team JiaoLong-SJTU
  11:application/chassis/chassis.c ****  *
  12:application/chassis/chassis.c ****  */
  13:application/chassis/chassis.c **** 
  14:application/chassis/chassis.c **** #include "chassis.h"
  15:application/chassis/chassis.c **** #include "robot_def.h"
  16:application/chassis/chassis.c **** #include "dji_motor.h"
  17:application/chassis/chassis.c **** #include "super_cap.h"
  18:application/chassis/chassis.c **** #include "power_manager.h"   
  19:application/chassis/chassis.c **** #include "message_center.h"
  20:application/chassis/chassis.c **** #include "user_lib.h"
  21:application/chassis/chassis.c **** 
  22:application/chassis/chassis.c **** #include "general_def.h"
  23:application/chassis/chassis.c **** #include "bsp_dwt.h"
  24:application/chassis/chassis.c **** #include "arm_math.h"
  25:application/chassis/chassis.c **** 
  26:application/chassis/chassis.c **** static Chassis_Config_s *chassis_config;
  27:application/chassis/chassis.c **** 
  28:application/chassis/chassis.c **** /* ه؛•ç›که؛”ç”¨هŒ…هگ«çڑ„و¨،ه‌—ه’Œن؟،وپ¯ه­که‚¨,ه؛•ç›کوک¯هچ•ن¾‹و¨،ه¼ڈ,ه› و­¤ن¸چéœ€è¦پن¸؛ه؛•ç›که»؛ç«‹ه
  29:application/chassis/chassis.c **** #ifdef CHASSIS_BOARD // ه¦‚و‍œوک¯ه؛•ç›کو‌؟,ن½؟ç”¨و‌؟è½½IMUèژ·هڈ–ه؛•ç›کè½¬هٹ¨è§’é€ںه؛¦
  30:application/chassis/chassis.c **** #include "can_comm.h"
ARM GAS  C:\Users\10542\AppData\Local\Temp\ccyRZrEs.s 			page 2


  31:application/chassis/chassis.c **** #include "ins_task.h"
  32:application/chassis/chassis.c **** static CANCommInstance *chasiss_can_comm; // هڈŒو‌؟é€ڑن؟،CAN comm
  33:application/chassis/chassis.c **** attitude_t *Chassis_IMU_data;
  34:application/chassis/chassis.c **** #endif // CHASSIS_BOARD
  35:application/chassis/chassis.c **** #ifdef ONE_BOARD
  36:application/chassis/chassis.c **** static Publisher_t *chassis_pub;                    // ç”¨ن؛ژهڈ‘ه¸ƒه؛•ç›کçڑ„و•°وچ®
  37:application/chassis/chassis.c **** static Subscriber_t *chassis_sub;                   // ç”¨ن؛ژè®¢éک…ه؛•ç›کçڑ„وژ§هˆ¶ه‘½ن»¤
  38:application/chassis/chassis.c **** #endif                                              // !ONE_BOARD
  39:application/chassis/chassis.c **** static Chassis_Ctrl_Cmd_s chassis_cmd_recv;         // ه؛•ç›کوژ¥و”¶هˆ°çڑ„وژ§هˆ¶ه‘½ن»¤
  40:application/chassis/chassis.c **** static Chassis_Upload_Data_s chassis_feedback_data; // ه؛•ç›که›‍ن¼ çڑ„هڈچé¦ˆو•°وچ®
  41:application/chassis/chassis.c **** 
  42:application/chassis/chassis.c **** static SuperCapInstance *cap;                                       // è¶…ç؛§ç”µه®¹
  43:application/chassis/chassis.c **** static DJIMotorInstance *motor_lf, *motor_rf, *motor_lb, *motor_rb; // left right forward back
  44:application/chassis/chassis.c **** static DJIMotorInstance *rudder_lf, *rudder_rf, *rudder_lb, *rudder_rb; //èˆµè½®ç”µوœ؛ه®‍ن¾‹ left r
  45:application/chassis/chassis.c **** static PowerManagerInstance *power_manager;                         // هٹںçژ‡ç®،çگ†
  46:application/chassis/chassis.c **** 
  47:application/chassis/chassis.c **** /* ç§پوœ‰هڈکé‡ڈç”¨ن؛ژه؛•ç›کو—‹è½¬çڑ„وœ؛و¢°هڈ‚و•°ه¸¸é‡ڈ */
  48:application/chassis/chassis.c **** static float lf_center, rf_center, lb_center, rb_center; // ه·¦هڈ³ه‰چهگژè½®ه­گن¸­ه؟ƒ
  49:application/chassis/chassis.c **** static float rpm_2_wheel_vector;
  50:application/chassis/chassis.c **** /* ç”¨ن؛ژè‡ھو—‹هڈکé€ںç­–ç•¥çڑ„و—¶é—´هڈکé‡ڈ */
  51:application/chassis/chassis.c **** // static float t;
  52:application/chassis/chassis.c **** 
  53:application/chassis/chassis.c **** /* ç§پوœ‰ه‡½و•°è®،ç®—çڑ„ن¸­ن»‹هڈکé‡ڈ,è®¾ن¸؛é‌™و€پéپ؟ه…چهڈ‚و•°ن¼ é€’çڑ„ه¼€é”€ */
  54:application/chassis/chassis.c **** static float chassis_vx, chassis_vy;                 // ه°†ن؛‘هڈ°ç³»çڑ„é€ںه؛¦وٹ•ه½±هˆ°ه؛•ç›ک
  55:application/chassis/chassis.c **** static float vt_lf, vt_rf, vt_lb, vt_rb;             // ه؛•ç›کé€ںه؛¦è§£ç®—هگژçڑ„è¾“ه‡؛
  56:application/chassis/chassis.c **** static float theta_lf, theta_rf, theta_lb, theta_rb; // è½®ه­گè½¬هٹ¨çڑ„ه¼§ه؛¦
  57:application/chassis/chassis.c **** static float theta_lf_deg , theta_lb_deg , theta_rf_deg , theta_rb_deg;//è½®ه­گè½¬هٹ¨çڑ„è§’ه؛¦
  58:application/chassis/chassis.c **** static float rl_vt_lf, rl_vt_rf, rl_vt_lb, rl_vt_rb; // ه؛•ç›کçœںه®‍é€ںه؛¦ m/s
  59:application/chassis/chassis.c **** //èˆµè½®هœ¨xم€پyو–¹هگ‘çڑ„و—‹è½¬ç³»و•°è®،ç®—
  60:application/chassis/chassis.c **** static float lf_x_coeff, lf_y_coeff; 
  61:application/chassis/chassis.c **** static float rf_x_coeff, rf_y_coeff;
  62:application/chassis/chassis.c **** static float lb_x_coeff, lb_y_coeff;
  63:application/chassis/chassis.c **** static float rb_x_coeff, rb_y_coeff;
  64:application/chassis/chassis.c **** // static DRMotorInstance *drmotor;
  65:application/chassis/chassis.c **** //èˆµè½®ن¸­ن½چ
  66:application/chassis/chassis.c **** #define LF_RUDDER_ECD 3100 
  67:application/chassis/chassis.c **** #define RF_RUDDER_ECD 1654
  68:application/chassis/chassis.c **** #define RB_RUDDER_ECD 1170
  69:application/chassis/chassis.c **** #define LB_RUDDER_ECD 195
  70:application/chassis/chassis.c **** 
  71:application/chassis/chassis.c **** #ifndef GIMBAL_BOARD
  72:application/chassis/chassis.c **** void ChassisInit()
  73:application/chassis/chassis.c **** {
  74:application/chassis/chassis.c ****     static float half_wheel_base, half_track_width, perimeter_wheel;    // هچٹè½´è·‌,هچٹè½®è·‌,è½®ه
  75:application/chassis/chassis.c ****     static float center_gimbal_offset_x, center_gimbal_offset_y;        // ن¸­ه؟ƒن؛‘هڈ°هپڈç§»é‡ڈ
  76:application/chassis/chassis.c ****     static float reduction_ratio_wheel;                                 // è½®ه­گه‡ڈé€ںو¯”
  77:application/chassis/chassis.c **** 
  78:application/chassis/chassis.c ****     chassis_config = ChassisConfigFeed();
  79:application/chassis/chassis.c **** 
  80:application/chassis/chassis.c ****     half_wheel_base = (chassis_config->wheel_measure.wheel_base / 2.0f);
  81:application/chassis/chassis.c ****     half_track_width = (chassis_config->wheel_measure.track_width / 2.0f);
  82:application/chassis/chassis.c ****     perimeter_wheel = (chassis_config->wheel_measure.radius_wheel * 2 * PI);
  83:application/chassis/chassis.c ****     center_gimbal_offset_x = chassis_config->wheel_measure.center_gimbal_offset_x;
  84:application/chassis/chassis.c ****     center_gimbal_offset_y = chassis_config->wheel_measure.center_gimbal_offset_y;
  85:application/chassis/chassis.c ****     reduction_ratio_wheel = chassis_config->wheel_measure.reduction_ratio_wheel;
  86:application/chassis/chassis.c **** 
  87:application/chassis/chassis.c ****     lf_center = ((half_track_width + center_gimbal_offset_x + half_wheel_base - center_gimbal_offse
ARM GAS  C:\Users\10542\AppData\Local\Temp\ccyRZrEs.s 			page 3


  88:application/chassis/chassis.c ****     rf_center = ((half_track_width - center_gimbal_offset_x + half_wheel_base - center_gimbal_offse
  89:application/chassis/chassis.c ****     lb_center = ((half_track_width + center_gimbal_offset_x + half_wheel_base + center_gimbal_offse
  90:application/chassis/chassis.c ****     rb_center = ((half_track_width - center_gimbal_offset_x + half_wheel_base + center_gimbal_offse
  91:application/chassis/chassis.c ****     rpm_2_wheel_vector = (ANGLE_2_RPM_PER_MIN * (perimeter_wheel * MM_2_M) / (reduction_ratio_wheel
  92:application/chassis/chassis.c **** 
  93:application/chassis/chassis.c ****     //ç”±ن؛ژهڈ–و¶ˆن؛†è½®è·‌ه’Œè½´è·‌çڑ„ه®ڈه®ڑن¹‰ï¼Œوœ‰ه…³èˆµè½®هˆ†é‡ڈè®،ç®—و”¾هœ¨هˆ‌ه§‹هŒ–ه‡½و•°ن¸­
  94:application/chassis/chassis.c ****     lf_x_coeff =  (half_track_width + center_gimbal_offset_x); // r_y
  95:application/chassis/chassis.c ****     lf_y_coeff =  (half_wheel_base - center_gimbal_offset_y);  // r_x
  96:application/chassis/chassis.c **** 
  97:application/chassis/chassis.c ****     rf_x_coeff = -(half_track_width + center_gimbal_offset_x);
  98:application/chassis/chassis.c ****     rf_y_coeff =  (half_wheel_base - center_gimbal_offset_y);
  99:application/chassis/chassis.c **** 
 100:application/chassis/chassis.c ****     lb_x_coeff =  (half_track_width + center_gimbal_offset_x);
 101:application/chassis/chassis.c ****     lb_y_coeff = -(half_wheel_base + center_gimbal_offset_y);
 102:application/chassis/chassis.c **** 
 103:application/chassis/chassis.c ****     rb_x_coeff = -(half_track_width + center_gimbal_offset_x);
 104:application/chassis/chassis.c ****     rb_y_coeff = -(half_wheel_base + center_gimbal_offset_y);
 105:application/chassis/chassis.c **** 
 106:application/chassis/chassis.c **** 
 107:application/chassis/chassis.c ****     // ه››ن¸ھè½®ه­گçڑ„هڈ‚و•°ن¸€و ·,و”¹tx_idه’Œهڈچè½¬و ‡ه؟—ن½چهچ³هڈ¯
 108:application/chassis/chassis.c ****     chassis_config->chassis_motor_config.can_init_config.tx_id = chassis_config->chassis_motor_id[M
 109:application/chassis/chassis.c ****     chassis_config->chassis_motor_config.controller_setting_init_config.motor_reverse_flag = MOTOR_
 110:application/chassis/chassis.c ****     motor_lf = DJIMotorInit(&chassis_config->chassis_motor_config);     
 111:application/chassis/chassis.c **** 
 112:application/chassis/chassis.c ****     chassis_config->chassis_motor_config.can_init_config.tx_id = chassis_config->chassis_motor_id[M
 113:application/chassis/chassis.c ****     chassis_config->chassis_motor_config.controller_setting_init_config.motor_reverse_flag = MOTOR_
 114:application/chassis/chassis.c ****     motor_rf = DJIMotorInit(&chassis_config->chassis_motor_config);
 115:application/chassis/chassis.c **** 
 116:application/chassis/chassis.c ****     chassis_config->chassis_motor_config.can_init_config.tx_id = chassis_config->chassis_motor_id[M
 117:application/chassis/chassis.c ****     chassis_config->chassis_motor_config.controller_setting_init_config.motor_reverse_flag = MOTOR_
 118:application/chassis/chassis.c ****     motor_lb = DJIMotorInit(&chassis_config->chassis_motor_config);
 119:application/chassis/chassis.c **** 
 120:application/chassis/chassis.c ****     chassis_config->chassis_motor_config.can_init_config.tx_id = chassis_config->chassis_motor_id[M
 121:application/chassis/chassis.c ****     chassis_config->chassis_motor_config.controller_setting_init_config.motor_reverse_flag = MOTOR_
 122:application/chassis/chassis.c ****     motor_rb = DJIMotorInit(&chassis_config->chassis_motor_config);
 123:application/chassis/chassis.c **** 
 124:application/chassis/chassis.c ****     //èˆµè½®ç”µوœ؛هˆ‌ه§‹هŒ–
 125:application/chassis/chassis.c ****     chassis_config->rudder_motor_config.can_init_config.tx_id = chassis_config->chassis_motor_id[MO
 126:application/chassis/chassis.c ****     chassis_config->rudder_motor_config.controller_setting_init_config.motor_reverse_flag = MOTOR_D
 127:application/chassis/chassis.c ****     rudder_rf = DJIMotorInit(&chassis_config->rudder_motor_config);     
 128:application/chassis/chassis.c **** 
 129:application/chassis/chassis.c ****     chassis_config->rudder_motor_config.can_init_config.tx_id = chassis_config->chassis_motor_id[MO
 130:application/chassis/chassis.c ****     chassis_config->rudder_motor_config.controller_setting_init_config.motor_reverse_flag = MOTOR_D
 131:application/chassis/chassis.c ****     rudder_lf = DJIMotorInit(&chassis_config->rudder_motor_config);
 132:application/chassis/chassis.c **** 
 133:application/chassis/chassis.c ****     chassis_config->rudder_motor_config.can_init_config.tx_id = chassis_config->chassis_motor_id[MO
 134:application/chassis/chassis.c ****     chassis_config->rudder_motor_config.controller_setting_init_config.motor_reverse_flag = MOTOR_D
 135:application/chassis/chassis.c ****     rudder_lb = DJIMotorInit(&chassis_config->rudder_motor_config);
 136:application/chassis/chassis.c **** 
 137:application/chassis/chassis.c ****     chassis_config->rudder_motor_config.can_init_config.tx_id = chassis_config->chassis_motor_id[MO
 138:application/chassis/chassis.c ****     chassis_config->rudder_motor_config.controller_setting_init_config.motor_reverse_flag = MOTOR_D
 139:application/chassis/chassis.c ****     rudder_rb = DJIMotorInit(&chassis_config->rudder_motor_config);
 140:application/chassis/chassis.c **** 
 141:application/chassis/chassis.c ****     SuperCap_Init_Config_s cap_conf = {
 142:application/chassis/chassis.c ****         .can_config = {
 143:application/chassis/chassis.c ****             .can_handle = &hcan2,
 144:application/chassis/chassis.c ****             .tx_id = 0x302, // è¶…ç؛§ç”µه®¹é»کè®¤وژ¥و”¶id
ARM GAS  C:\Users\10542\AppData\Local\Temp\ccyRZrEs.s 			page 4


 145:application/chassis/chassis.c ****             .rx_id = 0x301, // è¶…ç؛§ç”µه®¹é»کè®¤هڈ‘é€پid,و³¨و„ڈtxه’Œrxهœ¨ه…¶ن»–ن؛؛çœ‹و‌¥وک¯هڈچçڑ„
 146:application/chassis/chassis.c ****         }};
 147:application/chassis/chassis.c ****     cap = SuperCapInit(&cap_conf); // è¶…ç؛§ç”µه®¹هˆ‌ه§‹هŒ–
 148:application/chassis/chassis.c **** 
 149:application/chassis/chassis.c ****     PowerManager_Init_Config_s power_manager_conf = {
 150:application/chassis/chassis.c ****         .k1 = 0.015,    // è¶ٹه¤§هٹںçژ‡é™گهˆ¶و‌ƒé‡چè¶ٹه¤§  // 0.03
 151:application/chassis/chassis.c ****         .k2 = 5.23,     // 5.23
 152:application/chassis/chassis.c ****         .k3 = 0.82,     // 0.82
 153:application/chassis/chassis.c ****         };
 154:application/chassis/chassis.c ****     power_manager = PowerControlInit(&power_manager_conf); // هٹںçژ‡ç®،çگ†هˆ‌ه§‹هŒ– 
 155:application/chassis/chassis.c **** 
 156:application/chassis/chassis.c ****     // هڈ‘ه¸ƒè®¢éک…هˆ‌ه§‹هŒ–,ه¦‚و‍œن¸؛هڈŒو‌؟,هˆ™éœ€è¦پcan commو‌¥ن¼ é€’و¶ˆوپ¯
 157:application/chassis/chassis.c **** #ifdef CHASSIS_BOARD
 158:application/chassis/chassis.c ****     Chassis_IMU_data = INS_Init(); // ه؛•ç›کIMUهˆ‌ه§‹هŒ–
 159:application/chassis/chassis.c **** 
 160:application/chassis/chassis.c ****     CANComm_Init_Config_s comm_conf = {
 161:application/chassis/chassis.c ****         .can_config = {
 162:application/chassis/chassis.c ****             .can_handle = &hcan2,
 163:application/chassis/chassis.c ****             .tx_id = 0x311,
 164:application/chassis/chassis.c ****             .rx_id = 0x312,
 165:application/chassis/chassis.c ****         },
 166:application/chassis/chassis.c ****         .recv_data_len = sizeof(Chassis_Ctrl_Cmd_s),
 167:application/chassis/chassis.c ****         .send_data_len = sizeof(Chassis_Upload_Data_s),
 168:application/chassis/chassis.c ****     };
 169:application/chassis/chassis.c ****     chasiss_can_comm = CANCommInit(&comm_conf); // can commهˆ‌ه§‹هŒ–
 170:application/chassis/chassis.c **** #endif                                          // CHASSIS_BOARD
 171:application/chassis/chassis.c **** 
 172:application/chassis/chassis.c **** #ifdef ONE_BOARD // هچ•و‌؟وژ§هˆ¶و•´è½¦,هˆ™é€ڑè؟‡pubsubو‌¥ن¼ é€’و¶ˆوپ¯
 173:application/chassis/chassis.c ****     chassis_sub = SubRegister("chassis_cmd", sizeof(Chassis_Ctrl_Cmd_s));
 174:application/chassis/chassis.c ****     chassis_pub = PubRegister("chassis_feed", sizeof(Chassis_Upload_Data_s));
 175:application/chassis/chassis.c **** #endif // ONE_BOARD
 176:application/chassis/chassis.c **** }
 177:application/chassis/chassis.c **** 
 178:application/chassis/chassis.c **** /**
 179:application/chassis/chassis.c ****  * @brief è®،ç®—و¯ڈن¸ھè½®و¯‚ç”µوœ؛çڑ„è¾“ه‡؛,و­£è؟گهٹ¨ه­¦è§£ç®—
 180:application/chassis/chassis.c ****  *        ç”¨ه®ڈè؟›è،Œé¢„و›؟وچ¢ه‡ڈه°ڈه¼€é”€,è؟گهٹ¨è§£ç®—ه…·ن½“è؟‡ç¨‹هڈ‚è€ƒو•™ç¨‹
 181:application/chassis/chassis.c ****  */
 182:application/chassis/chassis.c **** static void MecanumCalculate()
 183:application/chassis/chassis.c **** {
 184:application/chassis/chassis.c ****     switch (chassis_config->wheel_type)
 185:application/chassis/chassis.c ****     {
 186:application/chassis/chassis.c ****     case MECANUM_WHEEL:
 187:application/chassis/chassis.c ****         // é؛¦è½®è§£ç®—é€†è؟گهٹ¨ه­¦و¨،ه‍‹
 188:application/chassis/chassis.c ****         vt_lf = -chassis_vx - chassis_vy - chassis_cmd_recv.wz * lf_center;
 189:application/chassis/chassis.c ****         vt_rf = -chassis_vx + chassis_vy - chassis_cmd_recv.wz * rf_center;
 190:application/chassis/chassis.c ****         vt_lb = chassis_vx - chassis_vy - chassis_cmd_recv.wz * lb_center;
 191:application/chassis/chassis.c ****         vt_rb = chassis_vx + chassis_vy - chassis_cmd_recv.wz * rb_center;
 192:application/chassis/chassis.c ****         break;
 193:application/chassis/chassis.c ****     case OMNI_WHEEL:
 194:application/chassis/chassis.c ****         // ه…¨هگ‘è½®è§£ç®—é€†è؟گهٹ¨ه­¦و¨،ه‍‹
 195:application/chassis/chassis.c ****         vt_lf = -sqrtf(2) / 2.0f * chassis_vx - sqrtf(2) / 2.0f * chassis_vy - chassis_cmd_recv.wz 
 196:application/chassis/chassis.c ****         vt_rf = -sqrtf(2) / 2.0f * chassis_vx + sqrtf(2) / 2.0f * chassis_vy - chassis_cmd_recv.wz 
 197:application/chassis/chassis.c ****         vt_lb = sqrtf(2) / 2.0f * chassis_vx + sqrtf(2) / 2.0f * chassis_vy - chassis_cmd_recv.wz *
 198:application/chassis/chassis.c ****         vt_rb = sqrtf(2) / 2.0f * chassis_vx - sqrtf(2) / 2.0f * chassis_vy - chassis_cmd_recv.wz *
 199:application/chassis/chassis.c ****         break;
 200:application/chassis/chassis.c ****     case STEER_WHEEL:
 201:application/chassis/chassis.c ****         // èˆµè½®è§£ç®—é€†è؟گهٹ¨ه­¦و¨،ه‍‹  éœ€è¦پهˆ†è§£هˆ°è½®هگ‘ç”µوœ؛ه’Œèˆµهگ‘ç”µوœ؛
ARM GAS  C:\Users\10542\AppData\Local\Temp\ccyRZrEs.s 			page 5


 202:application/chassis/chassis.c ****     float vx_lf = chassis_cmd_recv.vx + chassis_cmd_recv.wz * lf_x_coeff;//è§£ç®—xو–¹هگ‘هˆ†é€ںه؛¦
 203:application/chassis/chassis.c ****     float vy_lf = chassis_cmd_recv.vy + chassis_cmd_recv.wz * lf_y_coeff;//è§£ç®—yو–¹هگ‘هˆ†é€ںه؛¦
 204:application/chassis/chassis.c ****     vt_lf = sqrtf( vx_lf*vx_lf + vy_lf*vy_lf ) ;//è§£ç®—هگˆé€ںه؛¦
 205:application/chassis/chassis.c ****     theta_lf = atan2f( vy_lf , vx_lf )  ; //è§£ç®—ه¼§ه؛¦
 206:application/chassis/chassis.c ****     theta_lf_deg = (theta_lf * 180.0f / PI + LF_RUDDER_ECD * ECD_ANGLE_COEF_DJI);//ه¼§ه؛¦è½¬هŒ–ن¸؛è
 207:application/chassis/chassis.c ****     //وœ‰هڈ¯èƒ½وک¯è؟™ن¸ھç”µوœ؛وœ‰é—®é¢کï¼Œéœ€è¦پو›´وچ¢
 208:application/chassis/chassis.c ****     float vx_rf = chassis_vx + chassis_cmd_recv.wz  * rf_x_coeff;
 209:application/chassis/chassis.c ****     float vy_rf = chassis_vy + chassis_cmd_recv.wz  * rf_y_coeff;
 210:application/chassis/chassis.c ****     vt_rf = sqrtf( vx_rf*vx_rf + vy_rf*vy_rf ) ;
 211:application/chassis/chassis.c ****     theta_rf =  atan2f( vy_rf , vx_rf ) ;
 212:application/chassis/chassis.c ****     theta_rf_deg =  (theta_rf * 180.0f / PI + RF_RUDDER_ECD * ECD_ANGLE_COEF_DJI);
 213:application/chassis/chassis.c ****    
 214:application/chassis/chassis.c ****     float vx_lb = chassis_cmd_recv.vx + chassis_cmd_recv.wz  * lb_x_coeff;
 215:application/chassis/chassis.c ****     float vy_lb = chassis_cmd_recv.vy + chassis_cmd_recv.wz  * lb_y_coeff;
 216:application/chassis/chassis.c ****     vt_lb = sqrtf( vx_lb*vx_lb + vy_lb*vy_lb ) ;
 217:application/chassis/chassis.c ****     theta_lb = atan2f( vy_lb , vx_lb ) ;
 218:application/chassis/chassis.c ****     theta_lb_deg = theta_lb * 180.0f / PI + LB_RUDDER_ECD * ECD_ANGLE_COEF_DJI;
 219:application/chassis/chassis.c ****    
 220:application/chassis/chassis.c ****     float vx_rb = chassis_vx + chassis_cmd_recv.wz * rb_x_coeff;
 221:application/chassis/chassis.c ****     float vy_rb = chassis_vy + chassis_cmd_recv.wz * rb_y_coeff;
 222:application/chassis/chassis.c ****     vt_rb = sqrtf( vx_rb*vx_rb + vy_rb*vy_rb ) ;
 223:application/chassis/chassis.c ****     theta_rb = atan2f( vy_rb , vx_rb );
 224:application/chassis/chassis.c ****     theta_rb_deg = theta_rb * 180.0f / PI + RB_RUDDER_ECD * ECD_ANGLE_COEF_DJI;
 225:application/chassis/chassis.c ****         break;
 226:application/chassis/chassis.c ****     }
 227:application/chassis/chassis.c **** }
 228:application/chassis/chassis.c **** 
 229:application/chassis/chassis.c **** /**
 230:application/chassis/chassis.c ****  * @brief و ¹وچ®è£پهˆ¤ç³»ç»ںه’Œç”µه®¹ه‰©ن½™ه®¹é‡ڈه¯¹è¾“ه‡؛è؟›è،Œé™گهˆ¶ه¹¶è®¾ç½®ç”µوœ؛هڈ‚è€ƒه€¼
 231:application/chassis/chassis.c ****  *
 232:application/chassis/chassis.c ****  */
 233:application/chassis/chassis.c **** static void LimitChassisOutput()
 234:application/chassis/chassis.c **** {
 235:application/chassis/chassis.c ****     // ه؛•ç›کç”µوœ؛é،؛ه؛ڈه’Œé™گهˆ¶é€ںه؛¦ç”µوœ؛é،؛ه؛ڈن¸€è‡´ï¼Œé€ڑè؟‡وŒ‡é’ˆè®؟é—®ه‡ڈه°‘ه†…ه­کوµھè´¹
 236:application/chassis/chassis.c ****     static Motor_Controller_s *motor_controller;   // ç”µوœ؛وژ§هˆ¶ه™¨وŒ‡é’ˆ
 237:application/chassis/chassis.c ****     static DJI_Motor_Measure_s *measure;           // ç”µوœ؛وµ‹é‡ڈه€¼وŒ‡é’ˆ    
 238:application/chassis/chassis.c ****     DJIMotorInstance *motor[4] = {motor_lf, motor_rf, motor_lb, motor_rb};
 239:application/chassis/chassis.c ****     float limit_vt[4] = {vt_lf, vt_rf, vt_lb, vt_rb};
 240:application/chassis/chassis.c **** 
 241:application/chassis/chassis.c ****     float currentPower[4];
 242:application/chassis/chassis.c ****     float error[4];
 243:application/chassis/chassis.c ****     float allocatablePower, sumPowerRequired, sumCurrentPower, sumError;
 244:application/chassis/chassis.c ****     float errorConfidence, powerWeight_Error, powerWeight_Prop, powerWeight, delta;
 245:application/chassis/chassis.c **** 
 246:application/chassis/chassis.c ****     // è£پهˆ¤ç³»ç»ںèژ·ه¾—çڑ„هٹںçژ‡é™گهˆ¶ه€¼
 247:application/chassis/chassis.c ****     allocatablePower = chassis_cmd_recv.power_limit;
 248:application/chassis/chassis.c ****     for (int i = 0; i < 4; i++)
 249:application/chassis/chassis.c ****     {   
 250:application/chassis/chassis.c ****         // ن¸چç”¨é€ںه؛¦é—­çژ¯ï¼Œه¼€هگ¯ه¼€çژ¯وژ§هˆ¶و–¹ن¾؟ç›´وژ¥è¾“ه‡؛ç”µوµپه€¼
 251:application/chassis/chassis.c ****         DJIMotorOuterLoop(motor[i], OPEN_LOOP);
 252:application/chassis/chassis.c ****         DJIMotorCloseLoop(motor[i], OPEN_LOOP);        
 253:application/chassis/chassis.c **** 
 254:application/chassis/chassis.c ****         measure = &motor[i]->measure;
 255:application/chassis/chassis.c ****         motor_controller = &motor[i]->motor_controller;   
 256:application/chassis/chassis.c **** 
 257:application/chassis/chassis.c ****         if (motor[i]->motor_settings.motor_reverse_flag == MOTOR_DIRECTION_REVERSE)
 258:application/chassis/chassis.c ****             limit_vt[i] *= -1;
ARM GAS  C:\Users\10542\AppData\Local\Temp\ccyRZrEs.s 			page 6


 259:application/chassis/chassis.c **** 
 260:application/chassis/chassis.c ****         // ه®‍و—¶è®،ç®—é€ںه؛¦çژ¯PIDè¾“ه‡؛
 261:application/chassis/chassis.c ****         limit_vt[i] = PIDCalculate(&motor_controller->speed_PID, measure->speed_aps, limit_vt[i]);
 262:application/chassis/chassis.c ****         limit_vt[i] = PIDCalculate(&motor_controller->current_PID, measure->real_current, limit_vt[
 263:application/chassis/chassis.c **** 
 264:application/chassis/chassis.c ****         currentPower[i] = motor_controller->current_PID.Output * TOQUE_COEFFICIENT_3508 * measure->
 265:application/chassis/chassis.c ****                         power_manager->k2 * motor_controller->current_PID.Output * TOQUE_COEFFICIEN
 266:application/chassis/chassis.c ****         error[i] = fabs(motor_controller->speed_PID.Ref - measure->speed_aps); 
 267:application/chassis/chassis.c ****         sumCurrentPower += currentPower[i]; 
 268:application/chassis/chassis.c **** 
 269:application/chassis/chassis.c **** 
 270:application/chassis/chassis.c ****         if (floatEqual(currentPower[i], 0.0f) || currentPower[i] < 0.0f) 
 271:application/chassis/chassis.c ****         {
 272:application/chassis/chassis.c ****             allocatablePower += -currentPower[i];
 273:application/chassis/chassis.c ****         }
 274:application/chassis/chassis.c ****         else
 275:application/chassis/chassis.c ****         {
 276:application/chassis/chassis.c ****             sumPowerRequired += currentPower[i];
 277:application/chassis/chassis.c ****             sumError += error[i];
 278:application/chassis/chassis.c ****         }                
 279:application/chassis/chassis.c ****     }  
 280:application/chassis/chassis.c **** 
 281:application/chassis/chassis.c ****     // ه½“ه‰چهٹںçژ‡ه¤§ن؛ژوœ€ه¤§هٹںçژ‡و—¶è؟›è،Œهٹںçژ‡هˆ†é…چ
 282:application/chassis/chassis.c ****     if (sumCurrentPower > chassis_cmd_recv.power_limit)
 283:application/chassis/chassis.c ****     {
 284:application/chassis/chassis.c ****         // ç­‰و¯”ç¼©و”¾ن؟‌è¯پو¯ڈن¸ھè½®ه­گè¾“ه‡؛é™گهˆ¶هٹںçژ‡ن¸‹وœ€ه¤§هٹںçژ‡
 285:application/chassis/chassis.c ****         if (sumError > ERROR_POWERDISTRIBUTE)
 286:application/chassis/chassis.c ****             errorConfidence = 1.0f;
 287:application/chassis/chassis.c ****         else if (sumError > PROP_POWERDISTRIBUTE)
 288:application/chassis/chassis.c ****             errorConfidence = float_constrain((sumError - PROP_POWERDISTRIBUTE) / (ERROR_POWERDISTR
 289:application/chassis/chassis.c ****         else
 290:application/chassis/chassis.c ****             errorConfidence = 0.0f;
 291:application/chassis/chassis.c ****             
 292:application/chassis/chassis.c ****         for (int i = 0; i < 4; i++)
 293:application/chassis/chassis.c ****         { 
 294:application/chassis/chassis.c ****             measure = &motor[i]->measure;
 295:application/chassis/chassis.c ****             motor_controller = &motor[i]->motor_controller;              
 296:application/chassis/chassis.c **** 
 297:application/chassis/chassis.c ****             if (floatEqual(currentPower[i], 0.0f) || currentPower[i] < 0.0f)
 298:application/chassis/chassis.c ****                 continue;
 299:application/chassis/chassis.c **** 
 300:application/chassis/chassis.c ****             // هٹںçژ‡هˆ†é…چéپ؟ه…چèµ·و­¥و—¶و— و³•èµ°ç›´ç؛؟ï¼ŒهگŒو—¶ن؛‘هڈ°è·ںéڑڈن¹ںهڈ¯ن»¥éپ؟ه…چو­¤é—®
 301:application/chassis/chassis.c ****             powerWeight_Error = fabs(motor_controller->speed_PID.Ref - measure->speed_aps) / sumErr
 302:application/chassis/chassis.c ****             powerWeight_Prop  = currentPower[i] / sumPowerRequired;
 303:application/chassis/chassis.c ****             powerWeight       = errorConfidence * powerWeight_Error + (1.0f - errorConfidence) * po
 304:application/chassis/chassis.c ****             delta             = measure->speed_aps * DEGREE_2_RAD * measure->speed_aps * DEGREE_2_R
 305:application/chassis/chassis.c ****                         4.0f * power_manager->k2 * (power_manager->k1 * fabs(measure->speed_aps) * 
 306:application/chassis/chassis.c ****             // و±‚è§£ه‡؛هٹ›çں©ه¹¶ن¸”è½¬وچ¢وˆگç”µوµپه€¼
 307:application/chassis/chassis.c ****             if (floatEqual(delta, 0.0f))  
 308:application/chassis/chassis.c ****                 limit_vt[i] = (((-measure->speed_aps * DEGREE_2_RAD)) / (2.0f * power_manager->k2))
 309:application/chassis/chassis.c ****             else if (delta > 0.0f)  
 310:application/chassis/chassis.c ****                 limit_vt[i] = motor_controller->current_PID.Output > 0.0f ? ((-measure->speed_aps *
 311:application/chassis/chassis.c ****                                 : (((-measure->speed_aps * DEGREE_2_RAD - sqrtf(delta))) / (2.0f * 
 312:application/chassis/chassis.c ****             else  
 313:application/chassis/chassis.c ****                 limit_vt[i] = (((-measure->speed_aps * DEGREE_2_RAD)) / (2.0f * power_manager->k2))
 314:application/chassis/chassis.c ****         }                
 315:application/chassis/chassis.c ****     }  
ARM GAS  C:\Users\10542\AppData\Local\Temp\ccyRZrEs.s 			page 7


 316:application/chassis/chassis.c **** 
 317:application/chassis/chassis.c ****     // è¾“ه‡؛هٹںçژ‡é™گهˆ¶هگژç”µوµپه€¼
 318:application/chassis/chassis.c ****     DJIMotorSetRef(motor_lf, limit_vt[0]);
 319:application/chassis/chassis.c ****     DJIMotorSetRef(motor_rf, limit_vt[1]);
 320:application/chassis/chassis.c ****     DJIMotorSetRef(motor_lb, limit_vt[2]);
 321:application/chassis/chassis.c ****     DJIMotorSetRef(motor_rb, limit_vt[3]);           
 322:application/chassis/chassis.c **** }
 323:application/chassis/chassis.c **** 
 324:application/chassis/chassis.c **** static float RudderShortPath(DJIMotorInstance *motor , float TargetAngle , float *speed)//وœ€çں­è·¯
 325:application/chassis/chassis.c **** {   
  29              		.loc 1 325 1 view -0
  30              		.cfi_startproc
  31              		@ args = 0, pretend = 0, frame = 0
  32              		@ frame_needed = 0, uses_anonymous_args = 0
  33              		@ link register save eliminated.
 326:application/chassis/chassis.c ****     float SendAngle = 0.0f;
  34              		.loc 1 326 5 view .LVU1
 327:application/chassis/chassis.c ****     float current_total_angle = motor -> measure.total_angle;
  35              		.loc 1 327 5 view .LVU2
  36              		.loc 1 327 11 is_stmt 0 view .LVU3
  37 0000 D0ED047A 		vldr.32	s15, [r0, #16]
  38              	.LVL1:
 328:application/chassis/chassis.c ****     float angle_diff = TargetAngle - current_total_angle;
  39              		.loc 1 328 5 is_stmt 1 view .LVU4
  40              		.loc 1 328 11 is_stmt 0 view .LVU5
  41 0004 30EE670A 		vsub.f32	s0, s0, s15
  42              	.LVL2:
 329:application/chassis/chassis.c ****     if (angle_diff > 180.0f)
  43              		.loc 1 329 5 is_stmt 1 view .LVU6
  44              		.loc 1 329 8 is_stmt 0 view .LVU7
  45 0008 9FED1E7A 		vldr.32	s14, .L16
  46 000c B4EEC70A 		vcmpe.f32	s0, s14
  47 0010 F1EE10FA 		vmrs	APSR_nzcv, FPSCR
  48 0014 17DD     		ble	.L14
 330:application/chassis/chassis.c ****     {
 331:application/chassis/chassis.c ****         angle_diff -= 360.0f;
  49              		.loc 1 331 9 is_stmt 1 view .LVU8
  50              		.loc 1 331 20 is_stmt 0 view .LVU9
  51 0016 9FED1C7A 		vldr.32	s14, .L16+4
  52 001a 30EE470A 		vsub.f32	s0, s0, s14
  53              	.LVL3:
  54              	.L4:
 332:application/chassis/chassis.c ****       /* è§’ه؛¦ه·®ه¤§ن؛ژ180ه؛¦ */
 333:application/chassis/chassis.c ****     }
 334:application/chassis/chassis.c ****     else if (angle_diff < -180.0f)
 335:application/chassis/chassis.c ****     {
 336:application/chassis/chassis.c ****         angle_diff += 360.0f;
 337:application/chassis/chassis.c ****       /* è§’ه؛¦ه·®ه°ڈن؛ژ-180ه؛¦ */
 338:application/chassis/chassis.c ****     }
 339:application/chassis/chassis.c ****     if(angle_diff > 90.0f)
  55              		.loc 1 339 5 is_stmt 1 view .LVU10
  56              		.loc 1 339 7 is_stmt 0 view .LVU11
  57 001e 9FED1B7A 		vldr.32	s14, .L16+8
  58 0022 B4EEC70A 		vcmpe.f32	s0, s14
  59 0026 F1EE10FA 		vmrs	APSR_nzcv, FPSCR
  60 002a 18DD     		ble	.L15
 340:application/chassis/chassis.c ****     {
ARM GAS  C:\Users\10542\AppData\Local\Temp\ccyRZrEs.s 			page 8


 341:application/chassis/chassis.c ****         angle_diff -= 180.0f ;
  61              		.loc 1 341 9 is_stmt 1 view .LVU12
  62              		.loc 1 341 20 is_stmt 0 view .LVU13
  63 002c 9FED157A 		vldr.32	s14, .L16
  64 0030 30EE470A 		vsub.f32	s0, s0, s14
  65              	.LVL4:
 342:application/chassis/chassis.c ****         *speed = -(*speed);
  66              		.loc 1 342 9 is_stmt 1 view .LVU14
  67              		.loc 1 342 20 is_stmt 0 view .LVU15
  68 0034 91ED007A 		vldr.32	s14, [r1]
  69              		.loc 1 342 18 view .LVU16
  70 0038 B1EE477A 		vneg.f32	s14, s14
  71              		.loc 1 342 16 view .LVU17
  72 003c 81ED007A 		vstr.32	s14, [r1]
  73              	.L8:
 343:application/chassis/chassis.c ****     }
 344:application/chassis/chassis.c ****     else if (angle_diff < -90.0f)
 345:application/chassis/chassis.c ****     {
 346:application/chassis/chassis.c ****         angle_diff += 180.0f ;
 347:application/chassis/chassis.c ****         *speed = -(*speed);
 348:application/chassis/chassis.c ****     }
 349:application/chassis/chassis.c ****     SendAngle = current_total_angle + angle_diff;
  74              		.loc 1 349 5 is_stmt 1 view .LVU18
  75              	.LVL5:
 350:application/chassis/chassis.c ****     return SendAngle;
  76              		.loc 1 350 5 view .LVU19
 351:application/chassis/chassis.c ****   }
  77              		.loc 1 351 3 is_stmt 0 view .LVU20
  78 0040 30EE270A 		vadd.f32	s0, s0, s15
  79              	.LVL6:
  80              		.loc 1 351 3 view .LVU21
  81 0044 7047     		bx	lr
  82              	.LVL7:
  83              	.L14:
 334:application/chassis/chassis.c ****     {
  84              		.loc 1 334 10 is_stmt 1 view .LVU22
 334:application/chassis/chassis.c ****     {
  85              		.loc 1 334 13 is_stmt 0 view .LVU23
  86 0046 9FED127A 		vldr.32	s14, .L16+12
  87 004a B4EEC70A 		vcmpe.f32	s0, s14
  88 004e F1EE10FA 		vmrs	APSR_nzcv, FPSCR
  89 0052 E4D5     		bpl	.L4
 336:application/chassis/chassis.c ****       /* è§’ه؛¦ه·®ه°ڈن؛ژ-180ه؛¦ */
  90              		.loc 1 336 9 is_stmt 1 view .LVU24
 336:application/chassis/chassis.c ****       /* è§’ه؛¦ه·®ه°ڈن؛ژ-180ه؛¦ */
  91              		.loc 1 336 20 is_stmt 0 view .LVU25
  92 0054 9FED0C7A 		vldr.32	s14, .L16+4
  93 0058 30EE070A 		vadd.f32	s0, s0, s14
  94              	.LVL8:
 336:application/chassis/chassis.c ****       /* è§’ه؛¦ه·®ه°ڈن؛ژ-180ه؛¦ */
  95              		.loc 1 336 20 view .LVU26
  96 005c DFE7     		b	.L4
  97              	.L15:
 344:application/chassis/chassis.c ****     {
  98              		.loc 1 344 10 is_stmt 1 view .LVU27
 344:application/chassis/chassis.c ****     {
  99              		.loc 1 344 13 is_stmt 0 view .LVU28
ARM GAS  C:\Users\10542\AppData\Local\Temp\ccyRZrEs.s 			page 9


 100 005e 9FED0D7A 		vldr.32	s14, .L16+16
 101 0062 B4EEC70A 		vcmpe.f32	s0, s14
 102 0066 F1EE10FA 		vmrs	APSR_nzcv, FPSCR
 103 006a E9D5     		bpl	.L8
 346:application/chassis/chassis.c ****         *speed = -(*speed);
 104              		.loc 1 346 9 is_stmt 1 view .LVU29
 346:application/chassis/chassis.c ****         *speed = -(*speed);
 105              		.loc 1 346 20 is_stmt 0 view .LVU30
 106 006c 9FED057A 		vldr.32	s14, .L16
 107 0070 30EE070A 		vadd.f32	s0, s0, s14
 108              	.LVL9:
 347:application/chassis/chassis.c ****     }
 109              		.loc 1 347 9 is_stmt 1 view .LVU31
 347:application/chassis/chassis.c ****     }
 110              		.loc 1 347 20 is_stmt 0 view .LVU32
 111 0074 91ED007A 		vldr.32	s14, [r1]
 347:application/chassis/chassis.c ****     }
 112              		.loc 1 347 18 view .LVU33
 113 0078 B1EE477A 		vneg.f32	s14, s14
 347:application/chassis/chassis.c ****     }
 114              		.loc 1 347 16 view .LVU34
 115 007c 81ED007A 		vstr.32	s14, [r1]
 116 0080 DEE7     		b	.L8
 117              	.L17:
 118 0082 00BF     		.align	2
 119              	.L16:
 120 0084 00003443 		.word	1127481344
 121 0088 0000B443 		.word	1135869952
 122 008c 0000B442 		.word	1119092736
 123 0090 000034C3 		.word	-1020002304
 124 0094 0000B4C2 		.word	-1028390912
 125              		.cfi_endproc
 126              	.LFE279:
 128              		.section	.text.MecanumCalculate,"ax",%progbits
 129              		.align	1
 130              		.syntax unified
 131              		.thumb
 132              		.thumb_func
 134              	MecanumCalculate:
 135              	.LFB277:
 183:application/chassis/chassis.c ****     switch (chassis_config->wheel_type)
 136              		.loc 1 183 1 is_stmt 1 view -0
 137              		.cfi_startproc
 138              		@ args = 0, pretend = 0, frame = 0
 139              		@ frame_needed = 0, uses_anonymous_args = 0
 140 0000 08B5     		push	{r3, lr}
 141              	.LCFI0:
 142              		.cfi_def_cfa_offset 8
 143              		.cfi_offset 3, -8
 144              		.cfi_offset 14, -4
 145 0002 2DED0A8B 		vpush.64	{d8, d9, d10, d11, d12}
 146              	.LCFI1:
 147              		.cfi_def_cfa_offset 48
 148              		.cfi_offset 80, -48
 149              		.cfi_offset 81, -44
 150              		.cfi_offset 82, -40
 151              		.cfi_offset 83, -36
ARM GAS  C:\Users\10542\AppData\Local\Temp\ccyRZrEs.s 			page 10


 152              		.cfi_offset 84, -32
 153              		.cfi_offset 85, -28
 154              		.cfi_offset 86, -24
 155              		.cfi_offset 87, -20
 156              		.cfi_offset 88, -16
 157              		.cfi_offset 89, -12
 184:application/chassis/chassis.c ****     {
 158              		.loc 1 184 5 view .LVU36
 184:application/chassis/chassis.c ****     {
 159              		.loc 1 184 27 is_stmt 0 view .LVU37
 160 0006 A94B     		ldr	r3, .L23
 161 0008 1B68     		ldr	r3, [r3]
 162 000a 1B78     		ldrb	r3, [r3]	@ zero_extendqisi2
 184:application/chassis/chassis.c ****     {
 163              		.loc 1 184 5 view .LVU38
 164 000c 012B     		cmp	r3, #1
 165 000e 42D0     		beq	.L19
 166 0010 022B     		cmp	r3, #2
 167 0012 00F08480 		beq	.L20
 168 0016 002B     		cmp	r3, #0
 169 0018 3AD1     		bne	.L18
 170              	.LBB2:
 188:application/chassis/chassis.c ****         vt_rf = -chassis_vx + chassis_vy - chassis_cmd_recv.wz * rf_center;
 171              		.loc 1 188 9 is_stmt 1 view .LVU39
 188:application/chassis/chassis.c ****         vt_rf = -chassis_vx + chassis_vy - chassis_cmd_recv.wz * rf_center;
 172              		.loc 1 188 17 is_stmt 0 view .LVU40
 173 001a A54B     		ldr	r3, .L23+4
 174 001c D3ED007A 		vldr.32	s15, [r3]
 175 0020 F1EE676A 		vneg.f32	s13, s15
 188:application/chassis/chassis.c ****         vt_rf = -chassis_vx + chassis_vy - chassis_cmd_recv.wz * rf_center;
 176              		.loc 1 188 29 view .LVU41
 177 0024 A34B     		ldr	r3, .L23+8
 178 0026 93ED006A 		vldr.32	s12, [r3]
 179 002a 76EEC66A 		vsub.f32	s13, s13, s12
 188:application/chassis/chassis.c ****         vt_rf = -chassis_vx + chassis_vy - chassis_cmd_recv.wz * rf_center;
 180              		.loc 1 188 60 view .LVU42
 181 002e A24B     		ldr	r3, .L23+12
 182 0030 93ED027A 		vldr.32	s14, [r3, #8]
 188:application/chassis/chassis.c ****         vt_rf = -chassis_vx + chassis_vy - chassis_cmd_recv.wz * rf_center;
 183              		.loc 1 188 64 view .LVU43
 184 0034 A14B     		ldr	r3, .L23+16
 185 0036 D3ED005A 		vldr.32	s11, [r3]
 186 003a 67EE255A 		vmul.f32	s11, s14, s11
 188:application/chassis/chassis.c ****         vt_rf = -chassis_vx + chassis_vy - chassis_cmd_recv.wz * rf_center;
 187              		.loc 1 188 42 view .LVU44
 188 003e 76EEE56A 		vsub.f32	s13, s13, s11
 188:application/chassis/chassis.c ****         vt_rf = -chassis_vx + chassis_vy - chassis_cmd_recv.wz * rf_center;
 189              		.loc 1 188 15 view .LVU45
 190 0042 9F4B     		ldr	r3, .L23+20
 191 0044 C3ED006A 		vstr.32	s13, [r3]
 189:application/chassis/chassis.c ****         vt_lb = chassis_vx - chassis_vy - chassis_cmd_recv.wz * lb_center;
 192              		.loc 1 189 9 is_stmt 1 view .LVU46
 189:application/chassis/chassis.c ****         vt_lb = chassis_vx - chassis_vy - chassis_cmd_recv.wz * lb_center;
 193              		.loc 1 189 29 is_stmt 0 view .LVU47
 194 0048 76EE676A 		vsub.f32	s13, s12, s15
 189:application/chassis/chassis.c ****         vt_lb = chassis_vx - chassis_vy - chassis_cmd_recv.wz * lb_center;
 195              		.loc 1 189 64 view .LVU48
ARM GAS  C:\Users\10542\AppData\Local\Temp\ccyRZrEs.s 			page 11


 196 004c 9D4B     		ldr	r3, .L23+24
 197 004e D3ED005A 		vldr.32	s11, [r3]
 198 0052 67EE255A 		vmul.f32	s11, s14, s11
 189:application/chassis/chassis.c ****         vt_lb = chassis_vx - chassis_vy - chassis_cmd_recv.wz * lb_center;
 199              		.loc 1 189 42 view .LVU49
 200 0056 76EEE56A 		vsub.f32	s13, s13, s11
 189:application/chassis/chassis.c ****         vt_lb = chassis_vx - chassis_vy - chassis_cmd_recv.wz * lb_center;
 201              		.loc 1 189 15 view .LVU50
 202 005a 9B4B     		ldr	r3, .L23+28
 203 005c C3ED006A 		vstr.32	s13, [r3]
 190:application/chassis/chassis.c ****         vt_rb = chassis_vx + chassis_vy - chassis_cmd_recv.wz * rb_center;
 204              		.loc 1 190 9 is_stmt 1 view .LVU51
 190:application/chassis/chassis.c ****         vt_rb = chassis_vx + chassis_vy - chassis_cmd_recv.wz * rb_center;
 205              		.loc 1 190 28 is_stmt 0 view .LVU52
 206 0060 77EEC66A 		vsub.f32	s13, s15, s12
 190:application/chassis/chassis.c ****         vt_rb = chassis_vx + chassis_vy - chassis_cmd_recv.wz * rb_center;
 207              		.loc 1 190 63 view .LVU53
 208 0064 994B     		ldr	r3, .L23+32
 209 0066 D3ED005A 		vldr.32	s11, [r3]
 210 006a 67EE255A 		vmul.f32	s11, s14, s11
 190:application/chassis/chassis.c ****         vt_rb = chassis_vx + chassis_vy - chassis_cmd_recv.wz * rb_center;
 211              		.loc 1 190 41 view .LVU54
 212 006e 76EEE56A 		vsub.f32	s13, s13, s11
 190:application/chassis/chassis.c ****         vt_rb = chassis_vx + chassis_vy - chassis_cmd_recv.wz * rb_center;
 213              		.loc 1 190 15 view .LVU55
 214 0072 974B     		ldr	r3, .L23+36
 215 0074 C3ED006A 		vstr.32	s13, [r3]
 191:application/chassis/chassis.c ****         break;
 216              		.loc 1 191 9 is_stmt 1 view .LVU56
 191:application/chassis/chassis.c ****         break;
 217              		.loc 1 191 28 is_stmt 0 view .LVU57
 218 0078 77EE867A 		vadd.f32	s15, s15, s12
 191:application/chassis/chassis.c ****         break;
 219              		.loc 1 191 63 view .LVU58
 220 007c 954B     		ldr	r3, .L23+40
 221 007e D3ED006A 		vldr.32	s13, [r3]
 222 0082 27EE267A 		vmul.f32	s14, s14, s13
 191:application/chassis/chassis.c ****         break;
 223              		.loc 1 191 41 view .LVU59
 224 0086 77EEC77A 		vsub.f32	s15, s15, s14
 191:application/chassis/chassis.c ****         break;
 225              		.loc 1 191 15 view .LVU60
 226 008a 934B     		ldr	r3, .L23+44
 227 008c C3ED007A 		vstr.32	s15, [r3]
 192:application/chassis/chassis.c ****     case OMNI_WHEEL:
 228              		.loc 1 192 9 is_stmt 1 view .LVU61
 229              	.L18:
 230              	.LBE2:
 227:application/chassis/chassis.c **** 
 231              		.loc 1 227 1 is_stmt 0 view .LVU62
 232 0090 BDEC0A8B 		vldm	sp!, {d8-d12}
 233              	.LCFI2:
 234              		.cfi_remember_state
 235              		.cfi_restore 88
 236              		.cfi_restore 89
 237              		.cfi_restore 86
 238              		.cfi_restore 87
ARM GAS  C:\Users\10542\AppData\Local\Temp\ccyRZrEs.s 			page 12


 239              		.cfi_restore 84
 240              		.cfi_restore 85
 241              		.cfi_restore 82
 242              		.cfi_restore 83
 243              		.cfi_restore 80
 244              		.cfi_restore 81
 245              		.cfi_def_cfa_offset 8
 246 0094 08BD     		pop	{r3, pc}
 247              	.L19:
 248              	.LCFI3:
 249              		.cfi_restore_state
 250              	.LBB3:
 195:application/chassis/chassis.c ****         vt_rf = -sqrtf(2) / 2.0f * chassis_vx + sqrtf(2) / 2.0f * chassis_vy - chassis_cmd_recv.wz 
 251              		.loc 1 195 9 is_stmt 1 view .LVU63
 195:application/chassis/chassis.c ****         vt_rf = -sqrtf(2) / 2.0f * chassis_vx + sqrtf(2) / 2.0f * chassis_vy - chassis_cmd_recv.wz 
 252              		.loc 1 195 34 is_stmt 0 view .LVU64
 253 0096 864B     		ldr	r3, .L23+4
 254 0098 D3ED007A 		vldr.32	s15, [r3]
 255 009c 9FED8F7A 		vldr.32	s14, .L23+48
 256 00a0 67EE877A 		vmul.f32	s15, s15, s14
 195:application/chassis/chassis.c ****         vt_rf = -sqrtf(2) / 2.0f * chassis_vx + sqrtf(2) / 2.0f * chassis_vy - chassis_cmd_recv.wz 
 257              		.loc 1 195 65 view .LVU65
 258 00a4 834B     		ldr	r3, .L23+8
 259 00a6 D3ED006A 		vldr.32	s13, [r3]
 260 00aa 9FED8D7A 		vldr.32	s14, .L23+52
 261 00ae 66EE876A 		vmul.f32	s13, s13, s14
 195:application/chassis/chassis.c ****         vt_rf = -sqrtf(2) / 2.0f * chassis_vx + sqrtf(2) / 2.0f * chassis_vy - chassis_cmd_recv.wz 
 262              		.loc 1 195 47 view .LVU66
 263 00b2 37EEE66A 		vsub.f32	s12, s15, s13
 195:application/chassis/chassis.c ****         vt_rf = -sqrtf(2) / 2.0f * chassis_vx + sqrtf(2) / 2.0f * chassis_vy - chassis_cmd_recv.wz 
 264              		.loc 1 195 96 view .LVU67
 265 00b6 804B     		ldr	r3, .L23+12
 266 00b8 93ED027A 		vldr.32	s14, [r3, #8]
 195:application/chassis/chassis.c ****         vt_rf = -sqrtf(2) / 2.0f * chassis_vx + sqrtf(2) / 2.0f * chassis_vy - chassis_cmd_recv.wz 
 267              		.loc 1 195 100 view .LVU68
 268 00bc 7F4B     		ldr	r3, .L23+16
 269 00be D3ED005A 		vldr.32	s11, [r3]
 270 00c2 67EE255A 		vmul.f32	s11, s14, s11
 195:application/chassis/chassis.c ****         vt_rf = -sqrtf(2) / 2.0f * chassis_vx + sqrtf(2) / 2.0f * chassis_vy - chassis_cmd_recv.wz 
 271              		.loc 1 195 78 view .LVU69
 272 00c6 36EE656A 		vsub.f32	s12, s12, s11
 195:application/chassis/chassis.c ****         vt_rf = -sqrtf(2) / 2.0f * chassis_vx + sqrtf(2) / 2.0f * chassis_vy - chassis_cmd_recv.wz 
 273              		.loc 1 195 15 view .LVU70
 274 00ca 7D4B     		ldr	r3, .L23+20
 275 00cc 83ED006A 		vstr.32	s12, [r3]
 196:application/chassis/chassis.c ****         vt_lb = sqrtf(2) / 2.0f * chassis_vx + sqrtf(2) / 2.0f * chassis_vy - chassis_cmd_recv.wz *
 276              		.loc 1 196 9 is_stmt 1 view .LVU71
 196:application/chassis/chassis.c ****         vt_lb = sqrtf(2) / 2.0f * chassis_vx + sqrtf(2) / 2.0f * chassis_vy - chassis_cmd_recv.wz *
 277              		.loc 1 196 47 is_stmt 0 view .LVU72
 278 00d0 37EEA66A 		vadd.f32	s12, s15, s13
 196:application/chassis/chassis.c ****         vt_lb = sqrtf(2) / 2.0f * chassis_vx + sqrtf(2) / 2.0f * chassis_vy - chassis_cmd_recv.wz *
 279              		.loc 1 196 100 view .LVU73
 280 00d4 7B4B     		ldr	r3, .L23+24
 281 00d6 D3ED005A 		vldr.32	s11, [r3]
 282 00da 67EE255A 		vmul.f32	s11, s14, s11
 196:application/chassis/chassis.c ****         vt_lb = sqrtf(2) / 2.0f * chassis_vx + sqrtf(2) / 2.0f * chassis_vy - chassis_cmd_recv.wz *
 283              		.loc 1 196 78 view .LVU74
ARM GAS  C:\Users\10542\AppData\Local\Temp\ccyRZrEs.s 			page 13


 284 00de 36EE656A 		vsub.f32	s12, s12, s11
 196:application/chassis/chassis.c ****         vt_lb = sqrtf(2) / 2.0f * chassis_vx + sqrtf(2) / 2.0f * chassis_vy - chassis_cmd_recv.wz *
 285              		.loc 1 196 15 view .LVU75
 286 00e2 794B     		ldr	r3, .L23+28
 287 00e4 83ED006A 		vstr.32	s12, [r3]
 197:application/chassis/chassis.c ****         vt_rb = sqrtf(2) / 2.0f * chassis_vx - sqrtf(2) / 2.0f * chassis_vy - chassis_cmd_recv.wz *
 288              		.loc 1 197 9 is_stmt 1 view .LVU76
 197:application/chassis/chassis.c ****         vt_rb = sqrtf(2) / 2.0f * chassis_vx - sqrtf(2) / 2.0f * chassis_vy - chassis_cmd_recv.wz *
 289              		.loc 1 197 99 is_stmt 0 view .LVU77
 290 00e8 784B     		ldr	r3, .L23+32
 291 00ea D3ED005A 		vldr.32	s11, [r3]
 292 00ee 67EE255A 		vmul.f32	s11, s14, s11
 197:application/chassis/chassis.c ****         vt_rb = sqrtf(2) / 2.0f * chassis_vx - sqrtf(2) / 2.0f * chassis_vy - chassis_cmd_recv.wz *
 293              		.loc 1 197 77 view .LVU78
 294 00f2 36EEE76A 		vsub.f32	s12, s13, s15
 295 00f6 36EE656A 		vsub.f32	s12, s12, s11
 197:application/chassis/chassis.c ****         vt_rb = sqrtf(2) / 2.0f * chassis_vx - sqrtf(2) / 2.0f * chassis_vy - chassis_cmd_recv.wz *
 296              		.loc 1 197 15 view .LVU79
 297 00fa 754B     		ldr	r3, .L23+36
 298 00fc 83ED006A 		vstr.32	s12, [r3]
 198:application/chassis/chassis.c ****         break;
 299              		.loc 1 198 9 is_stmt 1 view .LVU80
 198:application/chassis/chassis.c ****         break;
 300              		.loc 1 198 46 is_stmt 0 view .LVU81
 301 0100 F1EE677A 		vneg.f32	s15, s15
 302 0104 77EEE67A 		vsub.f32	s15, s15, s13
 198:application/chassis/chassis.c ****         break;
 303              		.loc 1 198 99 view .LVU82
 304 0108 724B     		ldr	r3, .L23+40
 305 010a D3ED006A 		vldr.32	s13, [r3]
 306 010e 27EE267A 		vmul.f32	s14, s14, s13
 198:application/chassis/chassis.c ****         break;
 307              		.loc 1 198 77 view .LVU83
 308 0112 77EEC77A 		vsub.f32	s15, s15, s14
 198:application/chassis/chassis.c ****         break;
 309              		.loc 1 198 15 view .LVU84
 310 0116 704B     		ldr	r3, .L23+44
 311 0118 C3ED007A 		vstr.32	s15, [r3]
 199:application/chassis/chassis.c ****     case STEER_WHEEL:
 312              		.loc 1 199 9 is_stmt 1 view .LVU85
 313 011c B8E7     		b	.L18
 314              	.L20:
 202:application/chassis/chassis.c ****     float vy_lf = chassis_cmd_recv.vy + chassis_cmd_recv.wz * lf_y_coeff;//è§£ç®—yو–¹هگ‘هˆ†é€ںه؛¦
 315              		.loc 1 202 5 view .LVU86
 202:application/chassis/chassis.c ****     float vy_lf = chassis_cmd_recv.vy + chassis_cmd_recv.wz * lf_y_coeff;//è§£ç®—yو–¹هگ‘هˆ†é€ںه؛¦
 316              		.loc 1 202 35 is_stmt 0 view .LVU87
 317 011e 664B     		ldr	r3, .L23+12
 318 0120 93ED00AA 		vldr.32	s20, [r3]
 202:application/chassis/chassis.c ****     float vy_lf = chassis_cmd_recv.vy + chassis_cmd_recv.wz * lf_y_coeff;//è§£ç®—yو–¹هگ‘هˆ†é€ںه؛¦
 319              		.loc 1 202 57 view .LVU88
 320 0124 93ED028A 		vldr.32	s16, [r3, #8]
 202:application/chassis/chassis.c ****     float vy_lf = chassis_cmd_recv.vy + chassis_cmd_recv.wz * lf_y_coeff;//è§£ç®—yو–¹هگ‘هˆ†é€ںه؛¦
 321              		.loc 1 202 61 view .LVU89
 322 0128 6E4A     		ldr	r2, .L23+56
 323 012a 92ED009A 		vldr.32	s18, [r2]
 324 012e 28EE099A 		vmul.f32	s18, s16, s18
 202:application/chassis/chassis.c ****     float vy_lf = chassis_cmd_recv.vy + chassis_cmd_recv.wz * lf_y_coeff;//è§£ç®—yو–¹هگ‘هˆ†é€ںه؛¦
ARM GAS  C:\Users\10542\AppData\Local\Temp\ccyRZrEs.s 			page 14


 325              		.loc 1 202 11 view .LVU90
 326 0132 3AEE099A 		vadd.f32	s18, s20, s18
 327              	.LVL10:
 203:application/chassis/chassis.c ****     vt_lf = sqrtf( vx_lf*vx_lf + vy_lf*vy_lf ) ;//è§£ç®—هگˆé€ںه؛¦
 328              		.loc 1 203 5 is_stmt 1 view .LVU91
 203:application/chassis/chassis.c ****     vt_lf = sqrtf( vx_lf*vx_lf + vy_lf*vy_lf ) ;//è§£ç®—هگˆé€ںه؛¦
 329              		.loc 1 203 35 is_stmt 0 view .LVU92
 330 0136 D3ED01BA 		vldr.32	s23, [r3, #4]
 203:application/chassis/chassis.c ****     vt_lf = sqrtf( vx_lf*vx_lf + vy_lf*vy_lf ) ;//è§£ç®—هگˆé€ںه؛¦
 331              		.loc 1 203 61 view .LVU93
 332 013a 6B4B     		ldr	r3, .L23+60
 333 013c D3ED008A 		vldr.32	s17, [r3]
 334 0140 68EE288A 		vmul.f32	s17, s16, s17
 203:application/chassis/chassis.c ****     vt_lf = sqrtf( vx_lf*vx_lf + vy_lf*vy_lf ) ;//è§£ç®—هگˆé€ںه؛¦
 335              		.loc 1 203 11 view .LVU94
 336 0144 7BEEA88A 		vadd.f32	s17, s23, s17
 337              	.LVL11:
 204:application/chassis/chassis.c ****     theta_lf = atan2f( vy_lf , vx_lf )  ; //è§£ç®—ه¼§ه؛¦
 338              		.loc 1 204 5 is_stmt 1 view .LVU95
 204:application/chassis/chassis.c ****     theta_lf = atan2f( vy_lf , vx_lf )  ; //è§£ç®—ه¼§ه؛¦
 339              		.loc 1 204 25 is_stmt 0 view .LVU96
 340 0148 29EE090A 		vmul.f32	s0, s18, s18
 204:application/chassis/chassis.c ****     theta_lf = atan2f( vy_lf , vx_lf )  ; //è§£ç®—ه¼§ه؛¦
 341              		.loc 1 204 39 view .LVU97
 342 014c 68EEA87A 		vmul.f32	s15, s17, s17
 204:application/chassis/chassis.c ****     theta_lf = atan2f( vy_lf , vx_lf )  ; //è§£ç®—ه¼§ه؛¦
 343              		.loc 1 204 13 view .LVU98
 344 0150 30EE270A 		vadd.f32	s0, s0, s15
 345 0154 FFF7FEFF 		bl	sqrtf
 346              	.LVL12:
 204:application/chassis/chassis.c ****     theta_lf = atan2f( vy_lf , vx_lf )  ; //è§£ç®—ه¼§ه؛¦
 347              		.loc 1 204 11 discriminator 1 view .LVU99
 348 0158 594B     		ldr	r3, .L23+20
 349 015a 83ED000A 		vstr.32	s0, [r3]
 205:application/chassis/chassis.c ****     theta_lf_deg = (theta_lf * 180.0f / PI + LF_RUDDER_ECD * ECD_ANGLE_COEF_DJI);//ه¼§ه؛¦è½¬هŒ–ن¸؛è
 350              		.loc 1 205 5 is_stmt 1 view .LVU100
 205:application/chassis/chassis.c ****     theta_lf_deg = (theta_lf * 180.0f / PI + LF_RUDDER_ECD * ECD_ANGLE_COEF_DJI);//ه¼§ه؛¦è½¬هŒ–ن¸؛è
 351              		.loc 1 205 16 is_stmt 0 view .LVU101
 352 015e F0EE490A 		vmov.f32	s1, s18
 353 0162 B0EE680A 		vmov.f32	s0, s17
 354 0166 FFF7FEFF 		bl	atan2f
 355              	.LVL13:
 205:application/chassis/chassis.c ****     theta_lf_deg = (theta_lf * 180.0f / PI + LF_RUDDER_ECD * ECD_ANGLE_COEF_DJI);//ه¼§ه؛¦è½¬هŒ–ن¸؛è
 356              		.loc 1 205 14 discriminator 1 view .LVU102
 357 016a 604B     		ldr	r3, .L23+64
 358 016c 83ED000A 		vstr.32	s0, [r3]
 206:application/chassis/chassis.c ****     //وœ‰هڈ¯èƒ½وک¯è؟™ن¸ھç”µوœ؛وœ‰é—®é¢کï¼Œéœ€è¦پو›´وچ¢
 359              		.loc 1 206 5 is_stmt 1 view .LVU103
 206:application/chassis/chassis.c ****     //وœ‰هڈ¯èƒ½وک¯è؟™ن¸ھç”µوœ؛وœ‰é—®é¢کï¼Œéœ€è¦پو›´وچ¢
 360              		.loc 1 206 30 is_stmt 0 view .LVU104
 361 0170 9FED5FBA 		vldr.32	s22, .L23+68
 362 0174 20EE0B0A 		vmul.f32	s0, s0, s22
 206:application/chassis/chassis.c ****     //وœ‰هڈ¯èƒ½وک¯è؟™ن¸ھç”µوœ؛وœ‰é—®é¢کï¼Œéœ€è¦پو›´وچ¢
 363              		.loc 1 206 39 view .LVU105
 364 0178 DFED5EAA 		vldr.32	s21, .L23+72
 365 017c C0EE2A7A 		vdiv.f32	s15, s0, s21
 206:application/chassis/chassis.c ****     //وœ‰هڈ¯èƒ½وک¯è؟™ن¸ھç”µوœ؛وœ‰é—®é¢کï¼Œéœ€è¦پو›´وچ¢
ARM GAS  C:\Users\10542\AppData\Local\Temp\ccyRZrEs.s 			page 15


 366              		.loc 1 206 44 view .LVU106
 367 0180 9FED5D7A 		vldr.32	s14, .L23+76
 368 0184 77EE877A 		vadd.f32	s15, s15, s14
 206:application/chassis/chassis.c ****     //وœ‰هڈ¯èƒ½وک¯è؟™ن¸ھç”µوœ؛وœ‰é—®é¢کï¼Œéœ€è¦پو›´وچ¢
 369              		.loc 1 206 18 view .LVU107
 370 0188 5C4B     		ldr	r3, .L23+80
 371 018a C3ED007A 		vstr.32	s15, [r3]
 208:application/chassis/chassis.c ****     float vy_rf = chassis_vy + chassis_cmd_recv.wz  * rf_y_coeff;
 372              		.loc 1 208 5 is_stmt 1 view .LVU108
 208:application/chassis/chassis.c ****     float vy_rf = chassis_vy + chassis_cmd_recv.wz  * rf_y_coeff;
 373              		.loc 1 208 53 is_stmt 0 view .LVU109
 374 018e 5C4B     		ldr	r3, .L23+84
 375 0190 93ED009A 		vldr.32	s18, [r3]
 376              	.LVL14:
 208:application/chassis/chassis.c ****     float vy_rf = chassis_vy + chassis_cmd_recv.wz  * rf_y_coeff;
 377              		.loc 1 208 53 view .LVU110
 378 0194 28EE099A 		vmul.f32	s18, s16, s18
 208:application/chassis/chassis.c ****     float vy_rf = chassis_vy + chassis_cmd_recv.wz  * rf_y_coeff;
 379              		.loc 1 208 30 view .LVU111
 380 0198 454B     		ldr	r3, .L23+4
 381 019a 93ED00CA 		vldr.32	s24, [r3]
 208:application/chassis/chassis.c ****     float vy_rf = chassis_vy + chassis_cmd_recv.wz  * rf_y_coeff;
 382              		.loc 1 208 11 view .LVU112
 383 019e 39EE0C9A 		vadd.f32	s18, s18, s24
 384              	.LVL15:
 209:application/chassis/chassis.c ****     vt_rf = sqrtf( vx_rf*vx_rf + vy_rf*vy_rf ) ;
 385              		.loc 1 209 5 is_stmt 1 view .LVU113
 209:application/chassis/chassis.c ****     vt_rf = sqrtf( vx_rf*vx_rf + vy_rf*vy_rf ) ;
 386              		.loc 1 209 53 is_stmt 0 view .LVU114
 387 01a2 584B     		ldr	r3, .L23+88
 388 01a4 D3ED008A 		vldr.32	s17, [r3]
 389              	.LVL16:
 209:application/chassis/chassis.c ****     vt_rf = sqrtf( vx_rf*vx_rf + vy_rf*vy_rf ) ;
 390              		.loc 1 209 53 view .LVU115
 391 01a8 68EE288A 		vmul.f32	s17, s16, s17
 209:application/chassis/chassis.c ****     vt_rf = sqrtf( vx_rf*vx_rf + vy_rf*vy_rf ) ;
 392              		.loc 1 209 30 view .LVU116
 393 01ac 414B     		ldr	r3, .L23+8
 394 01ae D3ED009A 		vldr.32	s19, [r3]
 209:application/chassis/chassis.c ****     vt_rf = sqrtf( vx_rf*vx_rf + vy_rf*vy_rf ) ;
 395              		.loc 1 209 11 view .LVU117
 396 01b2 78EEA98A 		vadd.f32	s17, s17, s19
 397              	.LVL17:
 210:application/chassis/chassis.c ****     theta_rf =  atan2f( vy_rf , vx_rf ) ;
 398              		.loc 1 210 5 is_stmt 1 view .LVU118
 210:application/chassis/chassis.c ****     theta_rf =  atan2f( vy_rf , vx_rf ) ;
 399              		.loc 1 210 25 is_stmt 0 view .LVU119
 400 01b6 29EE090A 		vmul.f32	s0, s18, s18
 210:application/chassis/chassis.c ****     theta_rf =  atan2f( vy_rf , vx_rf ) ;
 401              		.loc 1 210 39 view .LVU120
 402 01ba 68EEA87A 		vmul.f32	s15, s17, s17
 210:application/chassis/chassis.c ****     theta_rf =  atan2f( vy_rf , vx_rf ) ;
 403              		.loc 1 210 13 view .LVU121
 404 01be 30EE270A 		vadd.f32	s0, s0, s15
 405 01c2 FFF7FEFF 		bl	sqrtf
 406              	.LVL18:
 210:application/chassis/chassis.c ****     theta_rf =  atan2f( vy_rf , vx_rf ) ;
ARM GAS  C:\Users\10542\AppData\Local\Temp\ccyRZrEs.s 			page 16


 407              		.loc 1 210 11 discriminator 1 view .LVU122
 408 01c6 404B     		ldr	r3, .L23+28
 409 01c8 83ED000A 		vstr.32	s0, [r3]
 211:application/chassis/chassis.c ****     theta_rf_deg =  (theta_rf * 180.0f / PI + RF_RUDDER_ECD * ECD_ANGLE_COEF_DJI);
 410              		.loc 1 211 5 is_stmt 1 view .LVU123
 211:application/chassis/chassis.c ****     theta_rf_deg =  (theta_rf * 180.0f / PI + RF_RUDDER_ECD * ECD_ANGLE_COEF_DJI);
 411              		.loc 1 211 17 is_stmt 0 view .LVU124
 412 01cc F0EE490A 		vmov.f32	s1, s18
 413 01d0 B0EE680A 		vmov.f32	s0, s17
 414 01d4 FFF7FEFF 		bl	atan2f
 415              	.LVL19:
 211:application/chassis/chassis.c ****     theta_rf_deg =  (theta_rf * 180.0f / PI + RF_RUDDER_ECD * ECD_ANGLE_COEF_DJI);
 416              		.loc 1 211 14 discriminator 1 view .LVU125
 417 01d8 4B4B     		ldr	r3, .L23+92
 418 01da 83ED000A 		vstr.32	s0, [r3]
 212:application/chassis/chassis.c ****    
 419              		.loc 1 212 5 is_stmt 1 view .LVU126
 212:application/chassis/chassis.c ****    
 420              		.loc 1 212 31 is_stmt 0 view .LVU127
 421 01de 20EE0B0A 		vmul.f32	s0, s0, s22
 212:application/chassis/chassis.c ****    
 422              		.loc 1 212 40 view .LVU128
 423 01e2 C0EE2A7A 		vdiv.f32	s15, s0, s21
 212:application/chassis/chassis.c ****    
 424              		.loc 1 212 45 view .LVU129
 425 01e6 9FED497A 		vldr.32	s14, .L23+96
 426 01ea 77EE877A 		vadd.f32	s15, s15, s14
 212:application/chassis/chassis.c ****    
 427              		.loc 1 212 18 view .LVU130
 428 01ee 484B     		ldr	r3, .L23+100
 429 01f0 C3ED007A 		vstr.32	s15, [r3]
 214:application/chassis/chassis.c ****     float vy_lb = chassis_cmd_recv.vy + chassis_cmd_recv.wz  * lb_y_coeff;
 430              		.loc 1 214 5 is_stmt 1 view .LVU131
 214:application/chassis/chassis.c ****     float vy_lb = chassis_cmd_recv.vy + chassis_cmd_recv.wz  * lb_y_coeff;
 431              		.loc 1 214 62 is_stmt 0 view .LVU132
 432 01f4 474B     		ldr	r3, .L23+104
 433 01f6 D3ED007A 		vldr.32	s15, [r3]
 434 01fa 68EE277A 		vmul.f32	s15, s16, s15
 214:application/chassis/chassis.c ****     float vy_lb = chassis_cmd_recv.vy + chassis_cmd_recv.wz  * lb_y_coeff;
 435              		.loc 1 214 11 view .LVU133
 436 01fe 3AEE27AA 		vadd.f32	s20, s20, s15
 437              	.LVL20:
 215:application/chassis/chassis.c ****     vt_lb = sqrtf( vx_lb*vx_lb + vy_lb*vy_lb ) ;
 438              		.loc 1 215 5 is_stmt 1 view .LVU134
 215:application/chassis/chassis.c ****     vt_lb = sqrtf( vx_lb*vx_lb + vy_lb*vy_lb ) ;
 439              		.loc 1 215 62 is_stmt 0 view .LVU135
 440 0202 454B     		ldr	r3, .L23+108
 441 0204 D3ED007A 		vldr.32	s15, [r3]
 442 0208 68EE277A 		vmul.f32	s15, s16, s15
 215:application/chassis/chassis.c ****     vt_lb = sqrtf( vx_lb*vx_lb + vy_lb*vy_lb ) ;
 443              		.loc 1 215 11 view .LVU136
 444 020c 7BEEA7BA 		vadd.f32	s23, s23, s15
 445              	.LVL21:
 216:application/chassis/chassis.c ****     theta_lb = atan2f( vy_lb , vx_lb ) ;
 446              		.loc 1 216 5 is_stmt 1 view .LVU137
 216:application/chassis/chassis.c ****     theta_lb = atan2f( vy_lb , vx_lb ) ;
 447              		.loc 1 216 25 is_stmt 0 view .LVU138
ARM GAS  C:\Users\10542\AppData\Local\Temp\ccyRZrEs.s 			page 17


 448 0210 2AEE0A0A 		vmul.f32	s0, s20, s20
 216:application/chassis/chassis.c ****     theta_lb = atan2f( vy_lb , vx_lb ) ;
 449              		.loc 1 216 39 view .LVU139
 450 0214 6BEEAB7A 		vmul.f32	s15, s23, s23
 216:application/chassis/chassis.c ****     theta_lb = atan2f( vy_lb , vx_lb ) ;
 451              		.loc 1 216 13 view .LVU140
 452 0218 30EE270A 		vadd.f32	s0, s0, s15
 453 021c FFF7FEFF 		bl	sqrtf
 454              	.LVL22:
 216:application/chassis/chassis.c ****     theta_lb = atan2f( vy_lb , vx_lb ) ;
 455              		.loc 1 216 11 discriminator 1 view .LVU141
 456 0220 2B4B     		ldr	r3, .L23+36
 457 0222 83ED000A 		vstr.32	s0, [r3]
 217:application/chassis/chassis.c ****     theta_lb_deg = theta_lb * 180.0f / PI + LB_RUDDER_ECD * ECD_ANGLE_COEF_DJI;
 458              		.loc 1 217 5 is_stmt 1 view .LVU142
 217:application/chassis/chassis.c ****     theta_lb_deg = theta_lb * 180.0f / PI + LB_RUDDER_ECD * ECD_ANGLE_COEF_DJI;
 459              		.loc 1 217 16 is_stmt 0 view .LVU143
 460 0226 F0EE4A0A 		vmov.f32	s1, s20
 461 022a B0EE6B0A 		vmov.f32	s0, s23
 462 022e FFF7FEFF 		bl	atan2f
 463              	.LVL23:
 217:application/chassis/chassis.c ****     theta_lb_deg = theta_lb * 180.0f / PI + LB_RUDDER_ECD * ECD_ANGLE_COEF_DJI;
 464              		.loc 1 217 14 discriminator 1 view .LVU144
 465 0232 3A4B     		ldr	r3, .L23+112
 466 0234 83ED000A 		vstr.32	s0, [r3]
 218:application/chassis/chassis.c ****    
 467              		.loc 1 218 5 is_stmt 1 view .LVU145
 218:application/chassis/chassis.c ****    
 468              		.loc 1 218 29 is_stmt 0 view .LVU146
 469 0238 20EE0B0A 		vmul.f32	s0, s0, s22
 218:application/chassis/chassis.c ****    
 470              		.loc 1 218 38 view .LVU147
 471 023c C0EE2A7A 		vdiv.f32	s15, s0, s21
 218:application/chassis/chassis.c ****    
 472              		.loc 1 218 43 view .LVU148
 473 0240 9FED377A 		vldr.32	s14, .L23+116
 474 0244 77EE877A 		vadd.f32	s15, s15, s14
 218:application/chassis/chassis.c ****    
 475              		.loc 1 218 18 view .LVU149
 476 0248 364B     		ldr	r3, .L23+120
 477 024a C3ED007A 		vstr.32	s15, [r3]
 220:application/chassis/chassis.c ****     float vy_rb = chassis_vy + chassis_cmd_recv.wz * rb_y_coeff;
 478              		.loc 1 220 5 is_stmt 1 view .LVU150
 220:application/chassis/chassis.c ****     float vy_rb = chassis_vy + chassis_cmd_recv.wz * rb_y_coeff;
 479              		.loc 1 220 52 is_stmt 0 view .LVU151
 480 024e 364B     		ldr	r3, .L23+124
 481 0250 D3ED007A 		vldr.32	s15, [r3]
 482 0254 68EE277A 		vmul.f32	s15, s16, s15
 220:application/chassis/chassis.c ****     float vy_rb = chassis_vy + chassis_cmd_recv.wz * rb_y_coeff;
 483              		.loc 1 220 11 view .LVU152
 484 0258 3CEE27CA 		vadd.f32	s24, s24, s15
 485              	.LVL24:
 221:application/chassis/chassis.c ****     vt_rb = sqrtf( vx_rb*vx_rb + vy_rb*vy_rb ) ;
 486              		.loc 1 221 5 is_stmt 1 view .LVU153
 221:application/chassis/chassis.c ****     vt_rb = sqrtf( vx_rb*vx_rb + vy_rb*vy_rb ) ;
 487              		.loc 1 221 52 is_stmt 0 view .LVU154
 488 025c 334B     		ldr	r3, .L23+128
ARM GAS  C:\Users\10542\AppData\Local\Temp\ccyRZrEs.s 			page 18


 489 025e D3ED007A 		vldr.32	s15, [r3]
 490 0262 28EE278A 		vmul.f32	s16, s16, s15
 221:application/chassis/chassis.c ****     vt_rb = sqrtf( vx_rb*vx_rb + vy_rb*vy_rb ) ;
 491              		.loc 1 221 11 view .LVU155
 492 0266 39EE888A 		vadd.f32	s16, s19, s16
 493              	.LVL25:
 222:application/chassis/chassis.c ****     theta_rb = atan2f( vy_rb , vx_rb );
 494              		.loc 1 222 5 is_stmt 1 view .LVU156
 222:application/chassis/chassis.c ****     theta_rb = atan2f( vy_rb , vx_rb );
 495              		.loc 1 222 25 is_stmt 0 view .LVU157
 496 026a 2CEE0C0A 		vmul.f32	s0, s24, s24
 222:application/chassis/chassis.c ****     theta_rb = atan2f( vy_rb , vx_rb );
 497              		.loc 1 222 39 view .LVU158
 498 026e 68EE087A 		vmul.f32	s15, s16, s16
 222:application/chassis/chassis.c ****     theta_rb = atan2f( vy_rb , vx_rb );
 499              		.loc 1 222 13 view .LVU159
 500 0272 30EE270A 		vadd.f32	s0, s0, s15
 501 0276 FFF7FEFF 		bl	sqrtf
 502              	.LVL26:
 222:application/chassis/chassis.c ****     theta_rb = atan2f( vy_rb , vx_rb );
 503              		.loc 1 222 11 discriminator 1 view .LVU160
 504 027a 174B     		ldr	r3, .L23+44
 505 027c 83ED000A 		vstr.32	s0, [r3]
 223:application/chassis/chassis.c ****     theta_rb_deg = theta_rb * 180.0f / PI + RB_RUDDER_ECD * ECD_ANGLE_COEF_DJI;
 506              		.loc 1 223 5 is_stmt 1 view .LVU161
 223:application/chassis/chassis.c ****     theta_rb_deg = theta_rb * 180.0f / PI + RB_RUDDER_ECD * ECD_ANGLE_COEF_DJI;
 507              		.loc 1 223 16 is_stmt 0 view .LVU162
 508 0280 F0EE4C0A 		vmov.f32	s1, s24
 509 0284 B0EE480A 		vmov.f32	s0, s16
 510 0288 FFF7FEFF 		bl	atan2f
 511              	.LVL27:
 223:application/chassis/chassis.c ****     theta_rb_deg = theta_rb * 180.0f / PI + RB_RUDDER_ECD * ECD_ANGLE_COEF_DJI;
 512              		.loc 1 223 14 discriminator 1 view .LVU163
 513 028c 284B     		ldr	r3, .L23+132
 514 028e 83ED000A 		vstr.32	s0, [r3]
 224:application/chassis/chassis.c ****         break;
 515              		.loc 1 224 5 is_stmt 1 view .LVU164
 224:application/chassis/chassis.c ****         break;
 516              		.loc 1 224 29 is_stmt 0 view .LVU165
 517 0292 20EE0B0A 		vmul.f32	s0, s0, s22
 224:application/chassis/chassis.c ****         break;
 518              		.loc 1 224 38 view .LVU166
 519 0296 C0EE2A7A 		vdiv.f32	s15, s0, s21
 224:application/chassis/chassis.c ****         break;
 520              		.loc 1 224 43 view .LVU167
 521 029a 9FED267A 		vldr.32	s14, .L23+136
 522 029e 77EE877A 		vadd.f32	s15, s15, s14
 224:application/chassis/chassis.c ****         break;
 523              		.loc 1 224 18 view .LVU168
 524 02a2 254B     		ldr	r3, .L23+140
 525 02a4 C3ED007A 		vstr.32	s15, [r3]
 225:application/chassis/chassis.c ****     }
 526              		.loc 1 225 9 is_stmt 1 view .LVU169
 527              	.LBE3:
 227:application/chassis/chassis.c **** 
 528              		.loc 1 227 1 is_stmt 0 view .LVU170
 529 02a8 F2E6     		b	.L18
ARM GAS  C:\Users\10542\AppData\Local\Temp\ccyRZrEs.s 			page 19


 530              	.L24:
 531 02aa 00BF     		.align	2
 532              	.L23:
 533 02ac 00000000 		.word	chassis_config
 534 02b0 00000000 		.word	chassis_vx
 535 02b4 00000000 		.word	chassis_vy
 536 02b8 00000000 		.word	chassis_cmd_recv
 537 02bc 00000000 		.word	lf_center
 538 02c0 00000000 		.word	vt_lf
 539 02c4 00000000 		.word	rf_center
 540 02c8 00000000 		.word	vt_rf
 541 02cc 00000000 		.word	lb_center
 542 02d0 00000000 		.word	vt_lb
 543 02d4 00000000 		.word	rb_center
 544 02d8 00000000 		.word	vt_rb
 545 02dc F30435BF 		.word	-1087044365
 546 02e0 F304353F 		.word	1060439283
 547 02e4 00000000 		.word	lf_x_coeff
 548 02e8 00000000 		.word	lf_y_coeff
 549 02ec 00000000 		.word	theta_lf
 550 02f0 00003443 		.word	1127481344
 551 02f4 DB0F4940 		.word	1078530011
 552 02f8 C03A0843 		.word	1124612800
 553 02fc 00000000 		.word	theta_lf_deg
 554 0300 00000000 		.word	rf_x_coeff
 555 0304 00000000 		.word	rf_y_coeff
 556 0308 00000000 		.word	theta_rf
 557 030c BC5E9142 		.word	1116823228
 558 0310 00000000 		.word	theta_rf_deg
 559 0314 00000000 		.word	lb_x_coeff
 560 0318 00000000 		.word	lb_y_coeff
 561 031c 00000000 		.word	theta_lb
 562 0320 C01B0941 		.word	1091115968
 563 0324 00000000 		.word	theta_lb_deg
 564 0328 00000000 		.word	rb_x_coeff
 565 032c 00000000 		.word	rb_y_coeff
 566 0330 00000000 		.word	theta_rb
 567 0334 A0A94D42 		.word	1112385952
 568 0338 00000000 		.word	theta_rb_deg
 569              		.cfi_endproc
 570              	.LFE277:
 572              		.section	.text.RudderControl,"ax",%progbits
 573              		.align	1
 574              		.syntax unified
 575              		.thumb
 576              		.thumb_func
 578              	RudderControl:
 579              	.LFB280:
 352:application/chassis/chassis.c **** static void RudderControl()
 353:application/chassis/chassis.c **** {
 580              		.loc 1 353 1 is_stmt 1 view -0
 581              		.cfi_startproc
 582              		@ args = 0, pretend = 0, frame = 0
 583              		@ frame_needed = 0, uses_anonymous_args = 0
 584 0000 2DE9F041 		push	{r4, r5, r6, r7, r8, lr}
 585              	.LCFI4:
 586              		.cfi_def_cfa_offset 24
ARM GAS  C:\Users\10542\AppData\Local\Temp\ccyRZrEs.s 			page 20


 587              		.cfi_offset 4, -24
 588              		.cfi_offset 5, -20
 589              		.cfi_offset 6, -16
 590              		.cfi_offset 7, -12
 591              		.cfi_offset 8, -8
 592              		.cfi_offset 14, -4
 354:application/chassis/chassis.c ****     DJIMotorSetRef(rudder_lf, RudderShortPath(rudder_lf, theta_lf_deg, &vt_lf));
 593              		.loc 1 354 5 view .LVU172
 594 0004 274B     		ldr	r3, .L27
 595 0006 1C68     		ldr	r4, [r3]
 596 0008 274F     		ldr	r7, .L27+4
 597 000a 3946     		mov	r1, r7
 598 000c 274B     		ldr	r3, .L27+8
 599 000e 93ED000A 		vldr.32	s0, [r3]
 600 0012 2046     		mov	r0, r4
 601 0014 FFF7FEFF 		bl	RudderShortPath
 602              	.LVL28:
 603              		.loc 1 354 5 is_stmt 0 discriminator 1 view .LVU173
 604 0018 2046     		mov	r0, r4
 605 001a FFF7FEFF 		bl	DJIMotorSetRef
 606              	.LVL29:
 355:application/chassis/chassis.c ****     DJIMotorSetRef(rudder_rf, RudderShortPath(rudder_rf, theta_rf_deg, &vt_rf));
 607              		.loc 1 355 5 is_stmt 1 view .LVU174
 608 001e 244B     		ldr	r3, .L27+12
 609 0020 1C68     		ldr	r4, [r3]
 610 0022 244E     		ldr	r6, .L27+16
 611 0024 3146     		mov	r1, r6
 612 0026 244B     		ldr	r3, .L27+20
 613 0028 93ED000A 		vldr.32	s0, [r3]
 614 002c 2046     		mov	r0, r4
 615 002e FFF7FEFF 		bl	RudderShortPath
 616              	.LVL30:
 617              		.loc 1 355 5 is_stmt 0 discriminator 1 view .LVU175
 618 0032 2046     		mov	r0, r4
 619 0034 FFF7FEFF 		bl	DJIMotorSetRef
 620              	.LVL31:
 356:application/chassis/chassis.c ****     DJIMotorSetRef(rudder_lb, RudderShortPath(rudder_lb, theta_lb_deg, &vt_lb));
 621              		.loc 1 356 5 is_stmt 1 view .LVU176
 622 0038 204B     		ldr	r3, .L27+24
 623 003a 1C68     		ldr	r4, [r3]
 624 003c 204D     		ldr	r5, .L27+28
 625 003e 2946     		mov	r1, r5
 626 0040 204B     		ldr	r3, .L27+32
 627 0042 93ED000A 		vldr.32	s0, [r3]
 628 0046 2046     		mov	r0, r4
 629 0048 FFF7FEFF 		bl	RudderShortPath
 630              	.LVL32:
 631              		.loc 1 356 5 is_stmt 0 discriminator 1 view .LVU177
 632 004c 2046     		mov	r0, r4
 633 004e FFF7FEFF 		bl	DJIMotorSetRef
 634              	.LVL33:
 357:application/chassis/chassis.c ****     DJIMotorSetRef(rudder_rb, RudderShortPath(rudder_rb, theta_rb_deg, &vt_rb)); 
 635              		.loc 1 357 5 is_stmt 1 view .LVU178
 636 0052 1D4B     		ldr	r3, .L27+36
 637 0054 D3F80080 		ldr	r8, [r3]
 638 0058 1C4C     		ldr	r4, .L27+40
 639 005a 2146     		mov	r1, r4
ARM GAS  C:\Users\10542\AppData\Local\Temp\ccyRZrEs.s 			page 21


 640 005c 1C4B     		ldr	r3, .L27+44
 641 005e 93ED000A 		vldr.32	s0, [r3]
 642 0062 4046     		mov	r0, r8
 643 0064 FFF7FEFF 		bl	RudderShortPath
 644              	.LVL34:
 645              		.loc 1 357 5 is_stmt 0 discriminator 1 view .LVU179
 646 0068 4046     		mov	r0, r8
 647 006a FFF7FEFF 		bl	DJIMotorSetRef
 648              	.LVL35:
 358:application/chassis/chassis.c **** 
 359:application/chassis/chassis.c ****     DJIMotorSetRef(motor_lf, vt_lf);
 649              		.loc 1 359 5 is_stmt 1 view .LVU180
 650 006e 97ED000A 		vldr.32	s0, [r7]
 651 0072 184B     		ldr	r3, .L27+48
 652 0074 1868     		ldr	r0, [r3]
 653 0076 FFF7FEFF 		bl	DJIMotorSetRef
 654              	.LVL36:
 360:application/chassis/chassis.c ****     DJIMotorSetRef(motor_rf, vt_rf);
 655              		.loc 1 360 5 view .LVU181
 656 007a 96ED000A 		vldr.32	s0, [r6]
 657 007e 164B     		ldr	r3, .L27+52
 658 0080 1868     		ldr	r0, [r3]
 659 0082 FFF7FEFF 		bl	DJIMotorSetRef
 660              	.LVL37:
 361:application/chassis/chassis.c ****     DJIMotorSetRef(motor_lb, vt_lb);
 661              		.loc 1 361 5 view .LVU182
 662 0086 95ED000A 		vldr.32	s0, [r5]
 663 008a 144B     		ldr	r3, .L27+56
 664 008c 1868     		ldr	r0, [r3]
 665 008e FFF7FEFF 		bl	DJIMotorSetRef
 666              	.LVL38:
 362:application/chassis/chassis.c ****     DJIMotorSetRef(motor_rb, vt_rb); 
 667              		.loc 1 362 5 view .LVU183
 668 0092 94ED000A 		vldr.32	s0, [r4]
 669 0096 124B     		ldr	r3, .L27+60
 670 0098 1868     		ldr	r0, [r3]
 671 009a FFF7FEFF 		bl	DJIMotorSetRef
 672              	.LVL39:
 363:application/chassis/chassis.c ****     
 364:application/chassis/chassis.c **** 
 365:application/chassis/chassis.c **** }
 673              		.loc 1 365 1 is_stmt 0 view .LVU184
 674 009e BDE8F081 		pop	{r4, r5, r6, r7, r8, pc}
 675              	.L28:
 676 00a2 00BF     		.align	2
 677              	.L27:
 678 00a4 00000000 		.word	rudder_lf
 679 00a8 00000000 		.word	vt_lf
 680 00ac 00000000 		.word	theta_lf_deg
 681 00b0 00000000 		.word	rudder_rf
 682 00b4 00000000 		.word	vt_rf
 683 00b8 00000000 		.word	theta_rf_deg
 684 00bc 00000000 		.word	rudder_lb
 685 00c0 00000000 		.word	vt_lb
 686 00c4 00000000 		.word	theta_lb_deg
 687 00c8 00000000 		.word	rudder_rb
 688 00cc 00000000 		.word	vt_rb
ARM GAS  C:\Users\10542\AppData\Local\Temp\ccyRZrEs.s 			page 22


 689 00d0 00000000 		.word	theta_rb_deg
 690 00d4 00000000 		.word	motor_lf
 691 00d8 00000000 		.word	motor_rf
 692 00dc 00000000 		.word	motor_lb
 693 00e0 00000000 		.word	motor_rb
 694              		.cfi_endproc
 695              	.LFE280:
 697              		.section	.rodata.ChassisInit.str1.4,"aMS",%progbits,1
 698              		.align	2
 699              	.LC1:
 700 0000 63686173 		.ascii	"chassis_cmd\000"
 700      7369735F 
 700      636D6400 
 701              		.align	2
 702              	.LC2:
 703 000c 63686173 		.ascii	"chassis_feed\000"
 703      7369735F 
 703      66656564 
 703      00
 704              		.section	.text.ChassisInit,"ax",%progbits
 705              		.align	1
 706              		.global	ChassisInit
 707              		.syntax unified
 708              		.thumb
 709              		.thumb_func
 711              	ChassisInit:
 712              	.LFB276:
  73:application/chassis/chassis.c ****     static float half_wheel_base, half_track_width, perimeter_wheel;    // هچٹè½´è·‌,هچٹè½®è·‌,è½®ه
 713              		.loc 1 73 1 is_stmt 1 view -0
 714              		.cfi_startproc
 715              		@ args = 0, pretend = 0, frame = 40
 716              		@ frame_needed = 0, uses_anonymous_args = 0
 717 0000 70B5     		push	{r4, r5, r6, lr}
 718              	.LCFI5:
 719              		.cfi_def_cfa_offset 16
 720              		.cfi_offset 4, -16
 721              		.cfi_offset 5, -12
 722              		.cfi_offset 6, -8
 723              		.cfi_offset 14, -4
 724 0002 8AB0     		sub	sp, sp, #40
 725              	.LCFI6:
 726              		.cfi_def_cfa_offset 56
  74:application/chassis/chassis.c ****     static float center_gimbal_offset_x, center_gimbal_offset_y;        // ن¸­ه؟ƒن؛‘هڈ°هپڈç§»é‡ڈ
 727              		.loc 1 74 5 view .LVU186
  75:application/chassis/chassis.c ****     static float reduction_ratio_wheel;                                 // è½®ه­گه‡ڈé€ںو¯”
 728              		.loc 1 75 5 view .LVU187
  76:application/chassis/chassis.c **** 
 729              		.loc 1 76 5 view .LVU188
  78:application/chassis/chassis.c **** 
 730              		.loc 1 78 5 view .LVU189
  78:application/chassis/chassis.c **** 
 731              		.loc 1 78 22 is_stmt 0 view .LVU190
 732 0004 FFF7FEFF 		bl	ChassisConfigFeed
 733              	.LVL40:
  78:application/chassis/chassis.c **** 
 734              		.loc 1 78 20 discriminator 1 view .LVU191
 735 0008 874D     		ldr	r5, .L31
ARM GAS  C:\Users\10542\AppData\Local\Temp\ccyRZrEs.s 			page 23


 736 000a 2860     		str	r0, [r5]
  80:application/chassis/chassis.c ****     half_track_width = (chassis_config->wheel_measure.track_width / 2.0f);
 737              		.loc 1 80 5 is_stmt 1 view .LVU192
  80:application/chassis/chassis.c ****     half_track_width = (chassis_config->wheel_measure.track_width / 2.0f);
 738              		.loc 1 80 53 is_stmt 0 view .LVU193
 739 000c 90ED037A 		vldr.32	s14, [r0, #12]
  80:application/chassis/chassis.c ****     half_track_width = (chassis_config->wheel_measure.track_width / 2.0f);
 740              		.loc 1 80 65 view .LVU194
 741 0010 F6EE006A 		vmov.f32	s13, #5.0e-1
 742 0014 27EE267A 		vmul.f32	s14, s14, s13
  80:application/chassis/chassis.c ****     half_track_width = (chassis_config->wheel_measure.track_width / 2.0f);
 743              		.loc 1 80 21 view .LVU195
 744 0018 844B     		ldr	r3, .L31+4
 745 001a 83ED007A 		vstr.32	s14, [r3]
  81:application/chassis/chassis.c ****     perimeter_wheel = (chassis_config->wheel_measure.radius_wheel * 2 * PI);
 746              		.loc 1 81 5 is_stmt 1 view .LVU196
  81:application/chassis/chassis.c ****     perimeter_wheel = (chassis_config->wheel_measure.radius_wheel * 2 * PI);
 747              		.loc 1 81 54 is_stmt 0 view .LVU197
 748 001e D0ED047A 		vldr.32	s15, [r0, #16]
  81:application/chassis/chassis.c ****     perimeter_wheel = (chassis_config->wheel_measure.radius_wheel * 2 * PI);
 749              		.loc 1 81 67 view .LVU198
 750 0022 67EEA67A 		vmul.f32	s15, s15, s13
  81:application/chassis/chassis.c ****     perimeter_wheel = (chassis_config->wheel_measure.radius_wheel * 2 * PI);
 751              		.loc 1 81 22 view .LVU199
 752 0026 824B     		ldr	r3, .L31+8
 753 0028 C3ED007A 		vstr.32	s15, [r3]
  82:application/chassis/chassis.c ****     center_gimbal_offset_x = chassis_config->wheel_measure.center_gimbal_offset_x;
 754              		.loc 1 82 5 is_stmt 1 view .LVU200
  82:application/chassis/chassis.c ****     center_gimbal_offset_x = chassis_config->wheel_measure.center_gimbal_offset_x;
 755              		.loc 1 82 53 is_stmt 0 view .LVU201
 756 002c D0ED056A 		vldr.32	s13, [r0, #20]
  82:application/chassis/chassis.c ****     center_gimbal_offset_x = chassis_config->wheel_measure.center_gimbal_offset_x;
 757              		.loc 1 82 67 view .LVU202
 758 0030 76EEA66A 		vadd.f32	s13, s13, s13
  82:application/chassis/chassis.c ****     center_gimbal_offset_x = chassis_config->wheel_measure.center_gimbal_offset_x;
 759              		.loc 1 82 71 view .LVU203
 760 0034 9FED7F6A 		vldr.32	s12, .L31+12
 761 0038 66EE866A 		vmul.f32	s13, s13, s12
  82:application/chassis/chassis.c ****     center_gimbal_offset_x = chassis_config->wheel_measure.center_gimbal_offset_x;
 762              		.loc 1 82 21 view .LVU204
 763 003c 7E4B     		ldr	r3, .L31+16
 764 003e C3ED006A 		vstr.32	s13, [r3]
  83:application/chassis/chassis.c ****     center_gimbal_offset_y = chassis_config->wheel_measure.center_gimbal_offset_y;
 765              		.loc 1 83 5 is_stmt 1 view .LVU205
  83:application/chassis/chassis.c ****     center_gimbal_offset_y = chassis_config->wheel_measure.center_gimbal_offset_y;
 766              		.loc 1 83 59 is_stmt 0 view .LVU206
 767 0042 D0ED013A 		vldr.32	s7, [r0, #4]
  83:application/chassis/chassis.c ****     center_gimbal_offset_y = chassis_config->wheel_measure.center_gimbal_offset_y;
 768              		.loc 1 83 28 view .LVU207
 769 0046 7D4B     		ldr	r3, .L31+20
 770 0048 C3ED003A 		vstr.32	s7, [r3]
  84:application/chassis/chassis.c ****     reduction_ratio_wheel = chassis_config->wheel_measure.reduction_ratio_wheel;
 771              		.loc 1 84 5 is_stmt 1 view .LVU208
  84:application/chassis/chassis.c ****     reduction_ratio_wheel = chassis_config->wheel_measure.reduction_ratio_wheel;
 772              		.loc 1 84 59 is_stmt 0 view .LVU209
 773 004c 90ED026A 		vldr.32	s12, [r0, #8]
  84:application/chassis/chassis.c ****     reduction_ratio_wheel = chassis_config->wheel_measure.reduction_ratio_wheel;
ARM GAS  C:\Users\10542\AppData\Local\Temp\ccyRZrEs.s 			page 24


 774              		.loc 1 84 28 view .LVU210
 775 0050 7B4B     		ldr	r3, .L31+24
 776 0052 83ED006A 		vstr.32	s12, [r3]
  85:application/chassis/chassis.c **** 
 777              		.loc 1 85 5 is_stmt 1 view .LVU211
  85:application/chassis/chassis.c **** 
 778              		.loc 1 85 58 is_stmt 0 view .LVU212
 779 0056 D0ED064A 		vldr.32	s9, [r0, #24]
  85:application/chassis/chassis.c **** 
 780              		.loc 1 85 27 view .LVU213
 781 005a 7A4B     		ldr	r3, .L31+28
 782 005c C3ED004A 		vstr.32	s9, [r3]
  87:application/chassis/chassis.c ****     rf_center = ((half_track_width - center_gimbal_offset_x + half_wheel_base - center_gimbal_offse
 783              		.loc 1 87 5 is_stmt 1 view .LVU214
  87:application/chassis/chassis.c ****     rf_center = ((half_track_width - center_gimbal_offset_x + half_wheel_base - center_gimbal_offse
 784              		.loc 1 87 36 is_stmt 0 view .LVU215
 785 0060 37EEA35A 		vadd.f32	s10, s15, s7
  87:application/chassis/chassis.c ****     rf_center = ((half_track_width - center_gimbal_offset_x + half_wheel_base - center_gimbal_offse
 786              		.loc 1 87 61 view .LVU216
 787 0064 77EE055A 		vadd.f32	s11, s14, s10
  87:application/chassis/chassis.c ****     rf_center = ((half_track_width - center_gimbal_offset_x + half_wheel_base - center_gimbal_offse
 788              		.loc 1 87 79 view .LVU217
 789 0068 35EEC63A 		vsub.f32	s6, s11, s12
  87:application/chassis/chassis.c ****     rf_center = ((half_track_width - center_gimbal_offset_x + half_wheel_base - center_gimbal_offse
 790              		.loc 1 87 105 view .LVU218
 791 006c 9FED764A 		vldr.32	s8, .L31+32
 792 0070 23EE043A 		vmul.f32	s6, s6, s8
  87:application/chassis/chassis.c ****     rf_center = ((half_track_width - center_gimbal_offset_x + half_wheel_base - center_gimbal_offse
 793              		.loc 1 87 15 view .LVU219
 794 0074 754B     		ldr	r3, .L31+36
 795 0076 83ED003A 		vstr.32	s6, [r3]
  88:application/chassis/chassis.c ****     lb_center = ((half_track_width + center_gimbal_offset_x + half_wheel_base + center_gimbal_offse
 796              		.loc 1 88 5 is_stmt 1 view .LVU220
  88:application/chassis/chassis.c ****     lb_center = ((half_track_width + center_gimbal_offset_x + half_wheel_base + center_gimbal_offse
 797              		.loc 1 88 36 is_stmt 0 view .LVU221
 798 007a 77EEE37A 		vsub.f32	s15, s15, s7
  88:application/chassis/chassis.c ****     lb_center = ((half_track_width + center_gimbal_offset_x + half_wheel_base + center_gimbal_offse
 799              		.loc 1 88 61 view .LVU222
 800 007e 77EE277A 		vadd.f32	s15, s14, s15
  88:application/chassis/chassis.c ****     lb_center = ((half_track_width + center_gimbal_offset_x + half_wheel_base + center_gimbal_offse
 801              		.loc 1 88 79 view .LVU223
 802 0082 77EEC63A 		vsub.f32	s7, s15, s12
  88:application/chassis/chassis.c ****     lb_center = ((half_track_width + center_gimbal_offset_x + half_wheel_base + center_gimbal_offse
 803              		.loc 1 88 105 view .LVU224
 804 0086 63EE843A 		vmul.f32	s7, s7, s8
  88:application/chassis/chassis.c ****     lb_center = ((half_track_width + center_gimbal_offset_x + half_wheel_base + center_gimbal_offse
 805              		.loc 1 88 15 view .LVU225
 806 008a 714B     		ldr	r3, .L31+40
 807 008c C3ED003A 		vstr.32	s7, [r3]
  89:application/chassis/chassis.c ****     rb_center = ((half_track_width - center_gimbal_offset_x + half_wheel_base + center_gimbal_offse
 808              		.loc 1 89 5 is_stmt 1 view .LVU226
  89:application/chassis/chassis.c ****     rb_center = ((half_track_width - center_gimbal_offset_x + half_wheel_base + center_gimbal_offse
 809              		.loc 1 89 79 is_stmt 0 view .LVU227
 810 0090 76EE255A 		vadd.f32	s11, s12, s11
  89:application/chassis/chassis.c ****     rb_center = ((half_track_width - center_gimbal_offset_x + half_wheel_base + center_gimbal_offse
 811              		.loc 1 89 105 view .LVU228
 812 0094 65EE845A 		vmul.f32	s11, s11, s8
ARM GAS  C:\Users\10542\AppData\Local\Temp\ccyRZrEs.s 			page 25


  89:application/chassis/chassis.c ****     rb_center = ((half_track_width - center_gimbal_offset_x + half_wheel_base + center_gimbal_offse
 813              		.loc 1 89 15 view .LVU229
 814 0098 6E4B     		ldr	r3, .L31+44
 815 009a C3ED005A 		vstr.32	s11, [r3]
  90:application/chassis/chassis.c ****     rpm_2_wheel_vector = (ANGLE_2_RPM_PER_MIN * (perimeter_wheel * MM_2_M) / (reduction_ratio_wheel
 816              		.loc 1 90 5 is_stmt 1 view .LVU230
  90:application/chassis/chassis.c ****     rpm_2_wheel_vector = (ANGLE_2_RPM_PER_MIN * (perimeter_wheel * MM_2_M) / (reduction_ratio_wheel
 817              		.loc 1 90 79 is_stmt 0 view .LVU231
 818 009e 76EE277A 		vadd.f32	s15, s12, s15
  90:application/chassis/chassis.c ****     rpm_2_wheel_vector = (ANGLE_2_RPM_PER_MIN * (perimeter_wheel * MM_2_M) / (reduction_ratio_wheel
 819              		.loc 1 90 105 view .LVU232
 820 00a2 67EE847A 		vmul.f32	s15, s15, s8
  90:application/chassis/chassis.c ****     rpm_2_wheel_vector = (ANGLE_2_RPM_PER_MIN * (perimeter_wheel * MM_2_M) / (reduction_ratio_wheel
 821              		.loc 1 90 15 view .LVU233
 822 00a6 6C4B     		ldr	r3, .L31+48
 823 00a8 C3ED007A 		vstr.32	s15, [r3]
  91:application/chassis/chassis.c **** 
 824              		.loc 1 91 5 is_stmt 1 view .LVU234
  91:application/chassis/chassis.c **** 
 825              		.loc 1 91 66 is_stmt 0 view .LVU235
 826 00ac DFED6B7A 		vldr.32	s15, .L31+52
 827 00b0 66EEA76A 		vmul.f32	s13, s13, s15
  91:application/chassis/chassis.c **** 
 828              		.loc 1 91 47 view .LVU236
 829 00b4 DFED6A7A 		vldr.32	s15, .L31+56
 830 00b8 66EEA76A 		vmul.f32	s13, s13, s15
  91:application/chassis/chassis.c **** 
 831              		.loc 1 91 101 view .LVU237
 832 00bc DFED697A 		vldr.32	s15, .L31+60
 833 00c0 64EEA74A 		vmul.f32	s9, s9, s15
  91:application/chassis/chassis.c **** 
 834              		.loc 1 91 76 view .LVU238
 835 00c4 C6EEA47A 		vdiv.f32	s15, s13, s9
  91:application/chassis/chassis.c **** 
 836              		.loc 1 91 24 view .LVU239
 837 00c8 674B     		ldr	r3, .L31+64
 838 00ca C3ED007A 		vstr.32	s15, [r3]
  94:application/chassis/chassis.c ****     lf_y_coeff =  (half_wheel_base - center_gimbal_offset_y);  // r_x
 839              		.loc 1 94 5 is_stmt 1 view .LVU240
  94:application/chassis/chassis.c ****     lf_y_coeff =  (half_wheel_base - center_gimbal_offset_y);  // r_x
 840              		.loc 1 94 16 is_stmt 0 view .LVU241
 841 00ce 674B     		ldr	r3, .L31+68
 842 00d0 83ED005A 		vstr.32	s10, [r3]
  95:application/chassis/chassis.c **** 
 843              		.loc 1 95 5 is_stmt 1 view .LVU242
  95:application/chassis/chassis.c **** 
 844              		.loc 1 95 36 is_stmt 0 view .LVU243
 845 00d4 77EE466A 		vsub.f32	s13, s14, s12
  95:application/chassis/chassis.c **** 
 846              		.loc 1 95 16 view .LVU244
 847 00d8 654B     		ldr	r3, .L31+72
 848 00da C3ED006A 		vstr.32	s13, [r3]
  97:application/chassis/chassis.c ****     rf_y_coeff =  (half_wheel_base - center_gimbal_offset_y);
 849              		.loc 1 97 5 is_stmt 1 view .LVU245
  97:application/chassis/chassis.c ****     rf_y_coeff =  (half_wheel_base - center_gimbal_offset_y);
 850              		.loc 1 97 18 is_stmt 0 view .LVU246
 851 00de F1EE457A 		vneg.f32	s15, s10
ARM GAS  C:\Users\10542\AppData\Local\Temp\ccyRZrEs.s 			page 26


  97:application/chassis/chassis.c ****     rf_y_coeff =  (half_wheel_base - center_gimbal_offset_y);
 852              		.loc 1 97 16 view .LVU247
 853 00e2 644B     		ldr	r3, .L31+76
 854 00e4 C3ED007A 		vstr.32	s15, [r3]
  98:application/chassis/chassis.c **** 
 855              		.loc 1 98 5 is_stmt 1 view .LVU248
  98:application/chassis/chassis.c **** 
 856              		.loc 1 98 16 is_stmt 0 view .LVU249
 857 00e8 634B     		ldr	r3, .L31+80
 858 00ea C3ED006A 		vstr.32	s13, [r3]
 100:application/chassis/chassis.c ****     lb_y_coeff = -(half_wheel_base + center_gimbal_offset_y);
 859              		.loc 1 100 5 is_stmt 1 view .LVU250
 100:application/chassis/chassis.c ****     lb_y_coeff = -(half_wheel_base + center_gimbal_offset_y);
 860              		.loc 1 100 16 is_stmt 0 view .LVU251
 861 00ee 634B     		ldr	r3, .L31+84
 862 00f0 83ED005A 		vstr.32	s10, [r3]
 101:application/chassis/chassis.c **** 
 863              		.loc 1 101 5 is_stmt 1 view .LVU252
 101:application/chassis/chassis.c **** 
 864              		.loc 1 101 36 is_stmt 0 view .LVU253
 865 00f4 37EE067A 		vadd.f32	s14, s14, s12
 101:application/chassis/chassis.c **** 
 866              		.loc 1 101 18 view .LVU254
 867 00f8 B1EE477A 		vneg.f32	s14, s14
 101:application/chassis/chassis.c **** 
 868              		.loc 1 101 16 view .LVU255
 869 00fc 604B     		ldr	r3, .L31+88
 870 00fe 83ED007A 		vstr.32	s14, [r3]
 103:application/chassis/chassis.c ****     rb_y_coeff = -(half_wheel_base + center_gimbal_offset_y);
 871              		.loc 1 103 5 is_stmt 1 view .LVU256
 103:application/chassis/chassis.c ****     rb_y_coeff = -(half_wheel_base + center_gimbal_offset_y);
 872              		.loc 1 103 16 is_stmt 0 view .LVU257
 873 0102 604B     		ldr	r3, .L31+92
 874 0104 C3ED007A 		vstr.32	s15, [r3]
 104:application/chassis/chassis.c **** 
 875              		.loc 1 104 5 is_stmt 1 view .LVU258
 104:application/chassis/chassis.c **** 
 876              		.loc 1 104 16 is_stmt 0 view .LVU259
 877 0108 5F4B     		ldr	r3, .L31+96
 878 010a 83ED007A 		vstr.32	s14, [r3]
 108:application/chassis/chassis.c ****     chassis_config->chassis_motor_config.controller_setting_init_config.motor_reverse_flag = MOTOR_
 879              		.loc 1 108 5 is_stmt 1 view .LVU260
 108:application/chassis/chassis.c ****     chassis_config->chassis_motor_config.controller_setting_init_config.motor_reverse_flag = MOTOR_
 880              		.loc 1 108 98 is_stmt 0 view .LVU261
 881 010e 90F89531 		ldrb	r3, [r0, #405]	@ zero_extendqisi2
 108:application/chassis/chassis.c ****     chassis_config->chassis_motor_config.controller_setting_init_config.motor_reverse_flag = MOTOR_
 882              		.loc 1 108 64 view .LVU262
 883 0112 C0F87C31 		str	r3, [r0, #380]
 109:application/chassis/chassis.c ****     motor_lf = DJIMotorInit(&chassis_config->chassis_motor_config);     
 884              		.loc 1 109 5 is_stmt 1 view .LVU263
 109:application/chassis/chassis.c ****     motor_lf = DJIMotorInit(&chassis_config->chassis_motor_config);     
 885              		.loc 1 109 92 is_stmt 0 view .LVU264
 886 0116 0126     		movs	r6, #1
 887 0118 80F86E61 		strb	r6, [r0, #366]
 110:application/chassis/chassis.c **** 
 888              		.loc 1 110 5 is_stmt 1 view .LVU265
 110:application/chassis/chassis.c **** 
ARM GAS  C:\Users\10542\AppData\Local\Temp\ccyRZrEs.s 			page 27


 889              		.loc 1 110 16 is_stmt 0 view .LVU266
 890 011c D830     		adds	r0, r0, #216
 891 011e FFF7FEFF 		bl	DJIMotorInit
 892              	.LVL41:
 110:application/chassis/chassis.c **** 
 893              		.loc 1 110 14 discriminator 1 view .LVU267
 894 0122 5A4B     		ldr	r3, .L31+100
 895 0124 1860     		str	r0, [r3]
 112:application/chassis/chassis.c ****     chassis_config->chassis_motor_config.controller_setting_init_config.motor_reverse_flag = MOTOR_
 896              		.loc 1 112 5 is_stmt 1 view .LVU268
 112:application/chassis/chassis.c ****     chassis_config->chassis_motor_config.controller_setting_init_config.motor_reverse_flag = MOTOR_
 897              		.loc 1 112 80 is_stmt 0 view .LVU269
 898 0126 2868     		ldr	r0, [r5]
 112:application/chassis/chassis.c ****     chassis_config->chassis_motor_config.controller_setting_init_config.motor_reverse_flag = MOTOR_
 899              		.loc 1 112 98 view .LVU270
 900 0128 90F89631 		ldrb	r3, [r0, #406]	@ zero_extendqisi2
 112:application/chassis/chassis.c ****     chassis_config->chassis_motor_config.controller_setting_init_config.motor_reverse_flag = MOTOR_
 901              		.loc 1 112 64 view .LVU271
 902 012c C0F87C31 		str	r3, [r0, #380]
 113:application/chassis/chassis.c ****     motor_rf = DJIMotorInit(&chassis_config->chassis_motor_config);
 903              		.loc 1 113 5 is_stmt 1 view .LVU272
 113:application/chassis/chassis.c ****     motor_rf = DJIMotorInit(&chassis_config->chassis_motor_config);
 904              		.loc 1 113 92 is_stmt 0 view .LVU273
 905 0130 80F86E61 		strb	r6, [r0, #366]
 114:application/chassis/chassis.c **** 
 906              		.loc 1 114 5 is_stmt 1 view .LVU274
 114:application/chassis/chassis.c **** 
 907              		.loc 1 114 16 is_stmt 0 view .LVU275
 908 0134 D830     		adds	r0, r0, #216
 909 0136 FFF7FEFF 		bl	DJIMotorInit
 910              	.LVL42:
 114:application/chassis/chassis.c **** 
 911              		.loc 1 114 14 discriminator 1 view .LVU276
 912 013a 554B     		ldr	r3, .L31+104
 913 013c 1860     		str	r0, [r3]
 116:application/chassis/chassis.c ****     chassis_config->chassis_motor_config.controller_setting_init_config.motor_reverse_flag = MOTOR_
 914              		.loc 1 116 5 is_stmt 1 view .LVU277
 116:application/chassis/chassis.c ****     chassis_config->chassis_motor_config.controller_setting_init_config.motor_reverse_flag = MOTOR_
 915              		.loc 1 116 80 is_stmt 0 view .LVU278
 916 013e 2868     		ldr	r0, [r5]
 116:application/chassis/chassis.c ****     chassis_config->chassis_motor_config.controller_setting_init_config.motor_reverse_flag = MOTOR_
 917              		.loc 1 116 98 view .LVU279
 918 0140 90F89831 		ldrb	r3, [r0, #408]	@ zero_extendqisi2
 116:application/chassis/chassis.c ****     chassis_config->chassis_motor_config.controller_setting_init_config.motor_reverse_flag = MOTOR_
 919              		.loc 1 116 64 view .LVU280
 920 0144 C0F87C31 		str	r3, [r0, #380]
 117:application/chassis/chassis.c ****     motor_lb = DJIMotorInit(&chassis_config->chassis_motor_config);
 921              		.loc 1 117 5 is_stmt 1 view .LVU281
 117:application/chassis/chassis.c ****     motor_lb = DJIMotorInit(&chassis_config->chassis_motor_config);
 922              		.loc 1 117 92 is_stmt 0 view .LVU282
 923 0148 80F86E61 		strb	r6, [r0, #366]
 118:application/chassis/chassis.c **** 
 924              		.loc 1 118 5 is_stmt 1 view .LVU283
 118:application/chassis/chassis.c **** 
 925              		.loc 1 118 16 is_stmt 0 view .LVU284
 926 014c D830     		adds	r0, r0, #216
 927 014e FFF7FEFF 		bl	DJIMotorInit
ARM GAS  C:\Users\10542\AppData\Local\Temp\ccyRZrEs.s 			page 28


 928              	.LVL43:
 118:application/chassis/chassis.c **** 
 929              		.loc 1 118 14 discriminator 1 view .LVU285
 930 0152 504B     		ldr	r3, .L31+108
 931 0154 1860     		str	r0, [r3]
 120:application/chassis/chassis.c ****     chassis_config->chassis_motor_config.controller_setting_init_config.motor_reverse_flag = MOTOR_
 932              		.loc 1 120 5 is_stmt 1 view .LVU286
 120:application/chassis/chassis.c ****     chassis_config->chassis_motor_config.controller_setting_init_config.motor_reverse_flag = MOTOR_
 933              		.loc 1 120 80 is_stmt 0 view .LVU287
 934 0156 2868     		ldr	r0, [r5]
 120:application/chassis/chassis.c ****     chassis_config->chassis_motor_config.controller_setting_init_config.motor_reverse_flag = MOTOR_
 935              		.loc 1 120 98 view .LVU288
 936 0158 90F89731 		ldrb	r3, [r0, #407]	@ zero_extendqisi2
 120:application/chassis/chassis.c ****     chassis_config->chassis_motor_config.controller_setting_init_config.motor_reverse_flag = MOTOR_
 937              		.loc 1 120 64 view .LVU289
 938 015c C0F87C31 		str	r3, [r0, #380]
 121:application/chassis/chassis.c ****     motor_rb = DJIMotorInit(&chassis_config->chassis_motor_config);
 939              		.loc 1 121 5 is_stmt 1 view .LVU290
 121:application/chassis/chassis.c ****     motor_rb = DJIMotorInit(&chassis_config->chassis_motor_config);
 940              		.loc 1 121 92 is_stmt 0 view .LVU291
 941 0160 80F86E61 		strb	r6, [r0, #366]
 122:application/chassis/chassis.c **** 
 942              		.loc 1 122 5 is_stmt 1 view .LVU292
 122:application/chassis/chassis.c **** 
 943              		.loc 1 122 16 is_stmt 0 view .LVU293
 944 0164 D830     		adds	r0, r0, #216
 945 0166 FFF7FEFF 		bl	DJIMotorInit
 946              	.LVL44:
 122:application/chassis/chassis.c **** 
 947              		.loc 1 122 14 discriminator 1 view .LVU294
 948 016a 4B4B     		ldr	r3, .L31+112
 949 016c 1860     		str	r0, [r3]
 125:application/chassis/chassis.c ****     chassis_config->rudder_motor_config.controller_setting_init_config.motor_reverse_flag = MOTOR_D
 950              		.loc 1 125 5 is_stmt 1 view .LVU295
 125:application/chassis/chassis.c ****     chassis_config->rudder_motor_config.controller_setting_init_config.motor_reverse_flag = MOTOR_D
 951              		.loc 1 125 79 is_stmt 0 view .LVU296
 952 016e 2868     		ldr	r0, [r5]
 125:application/chassis/chassis.c ****     chassis_config->rudder_motor_config.controller_setting_init_config.motor_reverse_flag = MOTOR_D
 953              		.loc 1 125 97 view .LVU297
 954 0170 90F89A31 		ldrb	r3, [r0, #410]	@ zero_extendqisi2
 125:application/chassis/chassis.c ****     chassis_config->rudder_motor_config.controller_setting_init_config.motor_reverse_flag = MOTOR_D
 955              		.loc 1 125 63 view .LVU298
 956 0174 C0F8C030 		str	r3, [r0, #192]
 126:application/chassis/chassis.c ****     rudder_rf = DJIMotorInit(&chassis_config->rudder_motor_config);     
 957              		.loc 1 126 5 is_stmt 1 view .LVU299
 126:application/chassis/chassis.c ****     rudder_rf = DJIMotorInit(&chassis_config->rudder_motor_config);     
 958              		.loc 1 126 91 is_stmt 0 view .LVU300
 959 0178 0024     		movs	r4, #0
 960 017a 80F8B240 		strb	r4, [r0, #178]
 127:application/chassis/chassis.c **** 
 961              		.loc 1 127 5 is_stmt 1 view .LVU301
 127:application/chassis/chassis.c **** 
 962              		.loc 1 127 17 is_stmt 0 view .LVU302
 963 017e 1C30     		adds	r0, r0, #28
 964 0180 FFF7FEFF 		bl	DJIMotorInit
 965              	.LVL45:
 127:application/chassis/chassis.c **** 
ARM GAS  C:\Users\10542\AppData\Local\Temp\ccyRZrEs.s 			page 29


 966              		.loc 1 127 15 discriminator 1 view .LVU303
 967 0184 454B     		ldr	r3, .L31+116
 968 0186 1860     		str	r0, [r3]
 129:application/chassis/chassis.c ****     chassis_config->rudder_motor_config.controller_setting_init_config.motor_reverse_flag = MOTOR_D
 969              		.loc 1 129 5 is_stmt 1 view .LVU304
 129:application/chassis/chassis.c ****     chassis_config->rudder_motor_config.controller_setting_init_config.motor_reverse_flag = MOTOR_D
 970              		.loc 1 129 79 is_stmt 0 view .LVU305
 971 0188 2868     		ldr	r0, [r5]
 129:application/chassis/chassis.c ****     chassis_config->rudder_motor_config.controller_setting_init_config.motor_reverse_flag = MOTOR_D
 972              		.loc 1 129 97 view .LVU306
 973 018a 90F89931 		ldrb	r3, [r0, #409]	@ zero_extendqisi2
 129:application/chassis/chassis.c ****     chassis_config->rudder_motor_config.controller_setting_init_config.motor_reverse_flag = MOTOR_D
 974              		.loc 1 129 63 view .LVU307
 975 018e C0F8C030 		str	r3, [r0, #192]
 130:application/chassis/chassis.c ****     rudder_lf = DJIMotorInit(&chassis_config->rudder_motor_config);
 976              		.loc 1 130 5 is_stmt 1 view .LVU308
 130:application/chassis/chassis.c ****     rudder_lf = DJIMotorInit(&chassis_config->rudder_motor_config);
 977              		.loc 1 130 91 is_stmt 0 view .LVU309
 978 0192 80F8B260 		strb	r6, [r0, #178]
 131:application/chassis/chassis.c **** 
 979              		.loc 1 131 5 is_stmt 1 view .LVU310
 131:application/chassis/chassis.c **** 
 980              		.loc 1 131 17 is_stmt 0 view .LVU311
 981 0196 1C30     		adds	r0, r0, #28
 982 0198 FFF7FEFF 		bl	DJIMotorInit
 983              	.LVL46:
 131:application/chassis/chassis.c **** 
 984              		.loc 1 131 15 discriminator 1 view .LVU312
 985 019c 404B     		ldr	r3, .L31+120
 986 019e 1860     		str	r0, [r3]
 133:application/chassis/chassis.c ****     chassis_config->rudder_motor_config.controller_setting_init_config.motor_reverse_flag = MOTOR_D
 987              		.loc 1 133 5 is_stmt 1 view .LVU313
 133:application/chassis/chassis.c ****     chassis_config->rudder_motor_config.controller_setting_init_config.motor_reverse_flag = MOTOR_D
 988              		.loc 1 133 79 is_stmt 0 view .LVU314
 989 01a0 2868     		ldr	r0, [r5]
 133:application/chassis/chassis.c ****     chassis_config->rudder_motor_config.controller_setting_init_config.motor_reverse_flag = MOTOR_D
 990              		.loc 1 133 97 view .LVU315
 991 01a2 90F89B31 		ldrb	r3, [r0, #411]	@ zero_extendqisi2
 133:application/chassis/chassis.c ****     chassis_config->rudder_motor_config.controller_setting_init_config.motor_reverse_flag = MOTOR_D
 992              		.loc 1 133 63 view .LVU316
 993 01a6 C0F8C030 		str	r3, [r0, #192]
 134:application/chassis/chassis.c ****     rudder_lb = DJIMotorInit(&chassis_config->rudder_motor_config);
 994              		.loc 1 134 5 is_stmt 1 view .LVU317
 134:application/chassis/chassis.c ****     rudder_lb = DJIMotorInit(&chassis_config->rudder_motor_config);
 995              		.loc 1 134 91 is_stmt 0 view .LVU318
 996 01aa 80F8B260 		strb	r6, [r0, #178]
 135:application/chassis/chassis.c **** 
 997              		.loc 1 135 5 is_stmt 1 view .LVU319
 135:application/chassis/chassis.c **** 
 998              		.loc 1 135 17 is_stmt 0 view .LVU320
 999 01ae 1C30     		adds	r0, r0, #28
 1000 01b0 FFF7FEFF 		bl	DJIMotorInit
 1001              	.LVL47:
 135:application/chassis/chassis.c **** 
 1002              		.loc 1 135 15 discriminator 1 view .LVU321
 1003 01b4 3B4B     		ldr	r3, .L31+124
 1004 01b6 1860     		str	r0, [r3]
ARM GAS  C:\Users\10542\AppData\Local\Temp\ccyRZrEs.s 			page 30


 137:application/chassis/chassis.c ****     chassis_config->rudder_motor_config.controller_setting_init_config.motor_reverse_flag = MOTOR_D
 1005              		.loc 1 137 5 is_stmt 1 view .LVU322
 137:application/chassis/chassis.c ****     chassis_config->rudder_motor_config.controller_setting_init_config.motor_reverse_flag = MOTOR_D
 1006              		.loc 1 137 79 is_stmt 0 view .LVU323
 1007 01b8 2868     		ldr	r0, [r5]
 137:application/chassis/chassis.c ****     chassis_config->rudder_motor_config.controller_setting_init_config.motor_reverse_flag = MOTOR_D
 1008              		.loc 1 137 97 view .LVU324
 1009 01ba 90F89C31 		ldrb	r3, [r0, #412]	@ zero_extendqisi2
 137:application/chassis/chassis.c ****     chassis_config->rudder_motor_config.controller_setting_init_config.motor_reverse_flag = MOTOR_D
 1010              		.loc 1 137 63 view .LVU325
 1011 01be C0F8C030 		str	r3, [r0, #192]
 138:application/chassis/chassis.c ****     rudder_rb = DJIMotorInit(&chassis_config->rudder_motor_config);
 1012              		.loc 1 138 5 is_stmt 1 view .LVU326
 138:application/chassis/chassis.c ****     rudder_rb = DJIMotorInit(&chassis_config->rudder_motor_config);
 1013              		.loc 1 138 91 is_stmt 0 view .LVU327
 1014 01c2 80F8B240 		strb	r4, [r0, #178]
 139:application/chassis/chassis.c **** 
 1015              		.loc 1 139 5 is_stmt 1 view .LVU328
 139:application/chassis/chassis.c **** 
 1016              		.loc 1 139 17 is_stmt 0 view .LVU329
 1017 01c6 1C30     		adds	r0, r0, #28
 1018 01c8 FFF7FEFF 		bl	DJIMotorInit
 1019              	.LVL48:
 139:application/chassis/chassis.c **** 
 1020              		.loc 1 139 15 discriminator 1 view .LVU330
 1021 01cc 364B     		ldr	r3, .L31+128
 1022 01ce 1860     		str	r0, [r3]
 141:application/chassis/chassis.c ****         .can_config = {
 1023              		.loc 1 141 5 is_stmt 1 view .LVU331
 141:application/chassis/chassis.c ****         .can_config = {
 1024              		.loc 1 141 28 is_stmt 0 view .LVU332
 1025 01d0 0394     		str	r4, [sp, #12]
 1026 01d2 0494     		str	r4, [sp, #16]
 1027 01d4 0594     		str	r4, [sp, #20]
 1028 01d6 0694     		str	r4, [sp, #24]
 1029 01d8 0794     		str	r4, [sp, #28]
 1030 01da 0894     		str	r4, [sp, #32]
 1031 01dc 0994     		str	r4, [sp, #36]
 1032 01de 334B     		ldr	r3, .L31+132
 1033 01e0 0393     		str	r3, [sp, #12]
 1034 01e2 40F20233 		movw	r3, #770
 1035 01e6 0493     		str	r3, [sp, #16]
 1036 01e8 40F20133 		movw	r3, #769
 1037 01ec 0593     		str	r3, [sp, #20]
 147:application/chassis/chassis.c **** 
 1038              		.loc 1 147 5 is_stmt 1 view .LVU333
 147:application/chassis/chassis.c **** 
 1039              		.loc 1 147 11 is_stmt 0 view .LVU334
 1040 01ee 03A8     		add	r0, sp, #12
 1041 01f0 FFF7FEFF 		bl	SuperCapInit
 1042              	.LVL49:
 147:application/chassis/chassis.c **** 
 1043              		.loc 1 147 9 discriminator 1 view .LVU335
 1044 01f4 2E4B     		ldr	r3, .L31+136
 1045 01f6 1860     		str	r0, [r3]
 149:application/chassis/chassis.c ****         .k1 = 0.015,    // è¶ٹه¤§هٹںçژ‡é™گهˆ¶و‌ƒé‡چè¶ٹه¤§  // 0.03
 1046              		.loc 1 149 5 is_stmt 1 view .LVU336
ARM GAS  C:\Users\10542\AppData\Local\Temp\ccyRZrEs.s 			page 31


 149:application/chassis/chassis.c ****         .k1 = 0.015,    // è¶ٹه¤§هٹںçژ‡é™گهˆ¶و‌ƒé‡چè¶ٹه¤§  // 0.03
 1047              		.loc 1 149 32 is_stmt 0 view .LVU337
 1048 01f8 2E4A     		ldr	r2, .L31+140
 1049 01fa 6B46     		mov	r3, sp
 1050 01fc 07CA     		ldm	r2, {r0, r1, r2}
 1051 01fe 83E80700 		stm	r3, {r0, r1, r2}
 154:application/chassis/chassis.c **** 
 1052              		.loc 1 154 5 is_stmt 1 view .LVU338
 154:application/chassis/chassis.c **** 
 1053              		.loc 1 154 21 is_stmt 0 view .LVU339
 1054 0202 1846     		mov	r0, r3
 1055 0204 FFF7FEFF 		bl	PowerControlInit
 1056              	.LVL50:
 154:application/chassis/chassis.c **** 
 1057              		.loc 1 154 19 discriminator 1 view .LVU340
 1058 0208 2B4B     		ldr	r3, .L31+144
 1059 020a 1860     		str	r0, [r3]
 173:application/chassis/chassis.c ****     chassis_pub = PubRegister("chassis_feed", sizeof(Chassis_Upload_Data_s));
 1060              		.loc 1 173 5 is_stmt 1 view .LVU341
 173:application/chassis/chassis.c ****     chassis_pub = PubRegister("chassis_feed", sizeof(Chassis_Upload_Data_s));
 1061              		.loc 1 173 19 is_stmt 0 view .LVU342
 1062 020c 1921     		movs	r1, #25
 1063 020e 2B48     		ldr	r0, .L31+148
 1064 0210 FFF7FEFF 		bl	SubRegister
 1065              	.LVL51:
 173:application/chassis/chassis.c ****     chassis_pub = PubRegister("chassis_feed", sizeof(Chassis_Upload_Data_s));
 1066              		.loc 1 173 17 discriminator 1 view .LVU343
 1067 0214 2A4B     		ldr	r3, .L31+152
 1068 0216 1860     		str	r0, [r3]
 174:application/chassis/chassis.c **** #endif // ONE_BOARD
 1069              		.loc 1 174 5 is_stmt 1 view .LVU344
 174:application/chassis/chassis.c **** #endif // ONE_BOARD
 1070              		.loc 1 174 19 is_stmt 0 view .LVU345
 1071 0218 0E21     		movs	r1, #14
 1072 021a 2A48     		ldr	r0, .L31+156
 1073 021c FFF7FEFF 		bl	PubRegister
 1074              	.LVL52:
 174:application/chassis/chassis.c **** #endif // ONE_BOARD
 1075              		.loc 1 174 17 discriminator 1 view .LVU346
 1076 0220 294B     		ldr	r3, .L31+160
 1077 0222 1860     		str	r0, [r3]
 176:application/chassis/chassis.c **** 
 1078              		.loc 1 176 1 view .LVU347
 1079 0224 0AB0     		add	sp, sp, #40
 1080              	.LCFI7:
 1081              		.cfi_def_cfa_offset 16
 1082              		@ sp needed
 1083 0226 70BD     		pop	{r4, r5, r6, pc}
 1084              	.L32:
 1085              		.align	2
 1086              	.L31:
 1087 0228 00000000 		.word	chassis_config
 1088 022c 00000000 		.word	half_wheel_base.7
 1089 0230 00000000 		.word	half_track_width.6
 1090 0234 DB0F4940 		.word	1078530011
 1091 0238 00000000 		.word	perimeter_wheel.5
 1092 023c 00000000 		.word	center_gimbal_offset_x.4
ARM GAS  C:\Users\10542\AppData\Local\Temp\ccyRZrEs.s 			page 32


 1093 0240 00000000 		.word	center_gimbal_offset_y.3
 1094 0244 00000000 		.word	reduction_ratio_wheel.2
 1095 0248 35FA8E3C 		.word	1016003125
 1096 024c 00000000 		.word	lf_center
 1097 0250 00000000 		.word	rf_center
 1098 0254 00000000 		.word	lb_center
 1099 0258 00000000 		.word	rb_center
 1100 025c 6F12833A 		.word	981668463
 1101 0260 A6AA2A3E 		.word	1042983590
 1102 0264 00007042 		.word	1114636288
 1103 0268 00000000 		.word	rpm_2_wheel_vector
 1104 026c 00000000 		.word	lf_x_coeff
 1105 0270 00000000 		.word	lf_y_coeff
 1106 0274 00000000 		.word	rf_x_coeff
 1107 0278 00000000 		.word	rf_y_coeff
 1108 027c 00000000 		.word	lb_x_coeff
 1109 0280 00000000 		.word	lb_y_coeff
 1110 0284 00000000 		.word	rb_x_coeff
 1111 0288 00000000 		.word	rb_y_coeff
 1112 028c 00000000 		.word	motor_lf
 1113 0290 00000000 		.word	motor_rf
 1114 0294 00000000 		.word	motor_lb
 1115 0298 00000000 		.word	motor_rb
 1116 029c 00000000 		.word	rudder_rf
 1117 02a0 00000000 		.word	rudder_lf
 1118 02a4 00000000 		.word	rudder_lb
 1119 02a8 00000000 		.word	rudder_rb
 1120 02ac 00000000 		.word	hcan2
 1121 02b0 00000000 		.word	cap
 1122 02b4 00000000 		.word	.LANCHOR0
 1123 02b8 00000000 		.word	power_manager
 1124 02bc 00000000 		.word	.LC1
 1125 02c0 00000000 		.word	chassis_sub
 1126 02c4 0C000000 		.word	.LC2
 1127 02c8 00000000 		.word	chassis_pub
 1128              		.cfi_endproc
 1129              	.LFE276:
 1131              		.section	.text.ChassisTask,"ax",%progbits
 1132              		.align	1
 1133              		.global	ChassisTask
 1134              		.syntax unified
 1135              		.thumb
 1136              		.thumb_func
 1138              	ChassisTask:
 1139              	.LFB282:
 366:application/chassis/chassis.c **** 
 367:application/chassis/chassis.c **** #define RPM_2_VECTOR (ANGLE_2_RPM_PER_MIN * RPM_2_WHEEL_VECTOR)
 368:application/chassis/chassis.c **** /**
 369:application/chassis/chassis.c ****  * @brief و ¹وچ®و¯ڈن¸ھè½®ه­گçڑ„é€ںه؛¦هڈچé¦ˆ,è®،ç®—ه؛•ç›کçڑ„ه®‍é™…è؟گهٹ¨é€ںه؛¦,é€†è؟گهٹ¨è§£ç®—
 370:application/chassis/chassis.c ****  *        ه¯¹ن؛ژهڈŒو‌؟çڑ„وƒ…ه†µ,è€ƒè™‘ه¢‍هٹ و‌¥è‡ھه؛•ç›کو‌؟IMUçڑ„و•°وچ®
 371:application/chassis/chassis.c ****  *
 372:application/chassis/chassis.c ****  */
 373:application/chassis/chassis.c **** static void EstimateSpeed()
 374:application/chassis/chassis.c **** {
 375:application/chassis/chassis.c ****     // // و ¹وچ®ç”µوœ؛é€ںه؛¦ه’Œé™€è‍؛ن»ھçڑ„è§’é€ںه؛¦è؟›è،Œè§£ç®—,è؟کهڈ¯ن»¥هˆ©ç”¨هٹ é€ںه؛¦è®،هˆ¤و–­و
 376:application/chassis/chassis.c ****     // //و­£è؟گهٹ¨ه­¦و¨،ه‍‹
 377:application/chassis/chassis.c ****     // rl_vt_lf = motor_lf->measure.speed_aps * RPM_2_VECTOR;
ARM GAS  C:\Users\10542\AppData\Local\Temp\ccyRZrEs.s 			page 33


 378:application/chassis/chassis.c ****     // rl_vt_rf = -motor_rf->measure.speed_aps * RPM_2_VECTOR;
 379:application/chassis/chassis.c ****     // rl_vt_lb = motor_lb->measure.speed_aps * RPM_2_VECTOR;
 380:application/chassis/chassis.c ****     // rl_vt_rb = -motor_rb->measure.speed_aps * RPM_2_VECTOR;
 381:application/chassis/chassis.c **** 
 382:application/chassis/chassis.c ****     // //ه؛•ç›کهگ‘ه‰چن¸؛و­£و–¹هگ‘,هگ‘ه·¦ن¸؛و­£و–¹هگ‘,هچ•ن½چm/s
 383:application/chassis/chassis.c ****     // chassis_feedback_data.real_vx = (rl_vt_lb + rl_vt_rb) / 2.0f;
 384:application/chassis/chassis.c ****     // chassis_feedback_data.real_vy = (rl_vt_lb - rl_vt_lf) / 2.0f;
 385:application/chassis/chassis.c **** 
 386:application/chassis/chassis.c ****     // //ه؛•ç›کé€†و—¶é’ˆو—‹è½¬ن¸؛و­£و–¹هگ‘,هچ•ن½چrad/s
 387:application/chassis/chassis.c ****     // chassis_feedback_data.real_wz = (rl_vt_rf - rl_vt_lb) / (2.0f * (HALF_WHEEL_BASE * MM_2_M + 
 388:application/chassis/chassis.c **** }
 389:application/chassis/chassis.c **** /* وœ؛ه™¨ن؛؛ه؛•ç›کوژ§هˆ¶و ¸ه؟ƒن»»هٹ، */
 390:application/chassis/chassis.c **** void ChassisTask()
 391:application/chassis/chassis.c **** {
 1140              		.loc 1 391 1 is_stmt 1 view -0
 1141              		.cfi_startproc
 1142              		@ args = 0, pretend = 0, frame = 0
 1143              		@ frame_needed = 0, uses_anonymous_args = 0
 1144 0000 38B5     		push	{r3, r4, r5, lr}
 1145              	.LCFI8:
 1146              		.cfi_def_cfa_offset 16
 1147              		.cfi_offset 3, -16
 1148              		.cfi_offset 4, -12
 1149              		.cfi_offset 5, -8
 1150              		.cfi_offset 14, -4
 1151 0002 2DED028B 		vpush.64	{d8}
 1152              	.LCFI9:
 1153              		.cfi_def_cfa_offset 24
 1154              		.cfi_offset 80, -24
 1155              		.cfi_offset 81, -20
 392:application/chassis/chassis.c ****     // هگژç»­ه¢‍هٹ و²،و”¶هˆ°و¶ˆوپ¯çڑ„ه¤„çگ†(هڈŒو‌؟çڑ„وƒ…ه†µ)
 393:application/chassis/chassis.c ****     // èژ·هڈ–و–°çڑ„وژ§هˆ¶ن؟،وپ¯
 394:application/chassis/chassis.c **** #ifdef ONE_BOARD
 395:application/chassis/chassis.c ****     SubGetMessage(chassis_sub, &chassis_cmd_recv);
 1156              		.loc 1 395 5 view .LVU349
 1157 0006 674C     		ldr	r4, .L46
 1158 0008 2146     		mov	r1, r4
 1159 000a 674B     		ldr	r3, .L46+4
 1160 000c 1868     		ldr	r0, [r3]
 1161 000e FFF7FEFF 		bl	SubGetMessage
 1162              	.LVL53:
 396:application/chassis/chassis.c **** #endif
 397:application/chassis/chassis.c **** #ifdef CHASSIS_BOARD
 398:application/chassis/chassis.c ****     chassis_cmd_recv = *(Chassis_Ctrl_Cmd_s *)CANCommGet(chasiss_can_comm);
 399:application/chassis/chassis.c **** #endif // CHASSIS_BOARD
 400:application/chassis/chassis.c **** 
 401:application/chassis/chassis.c ****     if (chassis_cmd_recv.chassis_mode == CHASSIS_ZERO_FORCE)
 1163              		.loc 1 401 5 view .LVU350
 1164              		.loc 1 401 25 is_stmt 0 view .LVU351
 1165 0012 237D     		ldrb	r3, [r4, #20]	@ zero_extendqisi2
 1166              		.loc 1 401 8 view .LVU352
 1167 0014 002B     		cmp	r3, #0
 1168 0016 2BD1     		bne	.L34
 402:application/chassis/chassis.c ****     { // ه¦‚و‍œه‡؛çژ°é‡چè¦پو¨،ه‌—ç¦»ç؛؟وˆ–éپ¥وژ§ه™¨è®¾ç½®ن¸؛و€¥هپœ,è®©ç”µوœ؛هپœو­¢
 403:application/chassis/chassis.c ****         DJIMotorStop(motor_lf);
 1169              		.loc 1 403 9 is_stmt 1 view .LVU353
 1170 0018 644B     		ldr	r3, .L46+8
ARM GAS  C:\Users\10542\AppData\Local\Temp\ccyRZrEs.s 			page 34


 1171 001a 1868     		ldr	r0, [r3]
 1172 001c FFF7FEFF 		bl	DJIMotorStop
 1173              	.LVL54:
 404:application/chassis/chassis.c ****         DJIMotorStop(motor_rf);
 1174              		.loc 1 404 9 view .LVU354
 1175 0020 634B     		ldr	r3, .L46+12
 1176 0022 1868     		ldr	r0, [r3]
 1177 0024 FFF7FEFF 		bl	DJIMotorStop
 1178              	.LVL55:
 405:application/chassis/chassis.c ****         DJIMotorStop(motor_lb);
 1179              		.loc 1 405 9 view .LVU355
 1180 0028 624B     		ldr	r3, .L46+16
 1181 002a 1868     		ldr	r0, [r3]
 1182 002c FFF7FEFF 		bl	DJIMotorStop
 1183              	.LVL56:
 406:application/chassis/chassis.c ****         DJIMotorStop(motor_rb);
 1184              		.loc 1 406 9 view .LVU356
 1185 0030 614B     		ldr	r3, .L46+20
 1186 0032 1868     		ldr	r0, [r3]
 1187 0034 FFF7FEFF 		bl	DJIMotorStop
 1188              	.LVL57:
 407:application/chassis/chassis.c **** 
 408:application/chassis/chassis.c ****         DJIMotorStop(rudder_lf);
 1189              		.loc 1 408 9 view .LVU357
 1190 0038 604B     		ldr	r3, .L46+24
 1191 003a 1868     		ldr	r0, [r3]
 1192 003c FFF7FEFF 		bl	DJIMotorStop
 1193              	.LVL58:
 409:application/chassis/chassis.c ****         DJIMotorStop(rudder_rf);
 1194              		.loc 1 409 9 view .LVU358
 1195 0040 5F4B     		ldr	r3, .L46+28
 1196 0042 1868     		ldr	r0, [r3]
 1197 0044 FFF7FEFF 		bl	DJIMotorStop
 1198              	.LVL59:
 410:application/chassis/chassis.c ****         DJIMotorStop(rudder_lb);
 1199              		.loc 1 410 9 view .LVU359
 1200 0048 5E4B     		ldr	r3, .L46+32
 1201 004a 1868     		ldr	r0, [r3]
 1202 004c FFF7FEFF 		bl	DJIMotorStop
 1203              	.LVL60:
 411:application/chassis/chassis.c ****         DJIMotorStop(rudder_rb);
 1204              		.loc 1 411 9 view .LVU360
 1205 0050 5D4B     		ldr	r3, .L46+36
 1206 0052 1868     		ldr	r0, [r3]
 1207 0054 FFF7FEFF 		bl	DJIMotorStop
 1208              	.LVL61:
 1209              	.L35:
 412:application/chassis/chassis.c **** 
 413:application/chassis/chassis.c ****     }
 414:application/chassis/chassis.c ****     else
 415:application/chassis/chassis.c ****     { // و­£ه¸¸ه·¥ن½œ
 416:application/chassis/chassis.c ****         DJIMotorEnable(motor_lf);
 417:application/chassis/chassis.c ****         DJIMotorEnable(motor_rf);
 418:application/chassis/chassis.c ****         DJIMotorEnable(motor_lb);
 419:application/chassis/chassis.c ****         DJIMotorEnable(motor_rb);
 420:application/chassis/chassis.c **** 
 421:application/chassis/chassis.c ****         DJIMotorEnable(rudder_lf);
ARM GAS  C:\Users\10542\AppData\Local\Temp\ccyRZrEs.s 			page 35


 422:application/chassis/chassis.c ****         DJIMotorEnable(rudder_rf);
 423:application/chassis/chassis.c ****         DJIMotorEnable(rudder_lb);
 424:application/chassis/chassis.c ****         DJIMotorEnable(rudder_rb);
 425:application/chassis/chassis.c ****     }
 426:application/chassis/chassis.c ****     // و ¹وچ®وژ§هˆ¶و¨،ه¼ڈè®¾ه®ڑو—‹è½¬é€ںه؛¦
 427:application/chassis/chassis.c ****     switch (chassis_cmd_recv.chassis_mode)
 1210              		.loc 1 427 5 view .LVU361
 1211              		.loc 1 427 29 is_stmt 0 view .LVU362
 1212 0058 524B     		ldr	r3, .L46
 1213 005a 1B7D     		ldrb	r3, [r3, #20]	@ zero_extendqisi2
 1214              		.loc 1 427 5 view .LVU363
 1215 005c 022B     		cmp	r3, #2
 1216 005e 28D0     		beq	.L36
 1217 0060 032B     		cmp	r3, #3
 1218 0062 70D0     		beq	.L37
 1219 0064 012B     		cmp	r3, #1
 1220 0066 2ED1     		bne	.L39
 428:application/chassis/chassis.c ****     {
 429:application/chassis/chassis.c ****     case CHASSIS_NO_FOLLOW: // ه؛•ç›کن¸چو—‹è½¬,ن½†ç»´وŒپه…¨هگ‘وœ؛هٹ¨,ن¸€èˆ¬ç”¨ن؛ژè°ƒو•´ن؛‘هڈ°ه§؟و€پ
 430:application/chassis/chassis.c ****         chassis_cmd_recv.wz = chassis_cmd_recv.wz / rpm_2_wheel_vector;
 431:application/chassis/chassis.c **** 
 432:application/chassis/chassis.c ****         break;     
 433:application/chassis/chassis.c ****     case CHASSIS_FOLLOW_GIMBAL_YAW: // è·ںéڑڈن؛‘هڈ°,ن¸چهچ•ç‹¬è®¾ç½®pid,ن»¥è¯¯ه·®è§’ه؛¦ه¹³و–¹ن¸؛é€ںه
 434:application/chassis/chassis.c ****         if (chassis_config->chassis_follow_gimbal_flag)
 435:application/chassis/chassis.c ****             chassis_cmd_recv.wz = 1.5f * chassis_cmd_recv.offset_angle * abs(chassis_cmd_recv.offse
 436:application/chassis/chassis.c ****         else
 437:application/chassis/chassis.c ****             chassis_cmd_recv.wz = -1.5f * chassis_cmd_recv.offset_angle * abs(chassis_cmd_recv.offs
 438:application/chassis/chassis.c ****         break;
 439:application/chassis/chassis.c ****     case CHASSIS_ROTATE: // è‡ھو—‹,هگŒو—¶ن؟‌وŒپه…¨هگ‘وœ؛هٹ¨;ه½“ه‰چwzç»´وŒپه®ڑه€¼,هگژç»­ه¢‍هٹ ن¸چè§„
 440:application/chassis/chassis.c ****         chassis_cmd_recv.wz = 2000;
 1221              		.loc 1 440 9 is_stmt 1 view .LVU364
 1222              		.loc 1 440 29 is_stmt 0 view .LVU365
 1223 0068 4E4B     		ldr	r3, .L46
 1224 006a 584A     		ldr	r2, .L46+40
 1225 006c 9A60     		str	r2, [r3, #8]	@ float
 441:application/chassis/chassis.c ****         break;
 1226              		.loc 1 441 9 is_stmt 1 view .LVU366
 1227 006e 2AE0     		b	.L39
 1228              	.L34:
 416:application/chassis/chassis.c ****         DJIMotorEnable(motor_rf);
 1229              		.loc 1 416 9 view .LVU367
 1230 0070 4E4B     		ldr	r3, .L46+8
 1231 0072 1868     		ldr	r0, [r3]
 1232 0074 FFF7FEFF 		bl	DJIMotorEnable
 1233              	.LVL62:
 417:application/chassis/chassis.c ****         DJIMotorEnable(motor_lb);
 1234              		.loc 1 417 9 view .LVU368
 1235 0078 4D4B     		ldr	r3, .L46+12
 1236 007a 1868     		ldr	r0, [r3]
 1237 007c FFF7FEFF 		bl	DJIMotorEnable
 1238              	.LVL63:
 418:application/chassis/chassis.c ****         DJIMotorEnable(motor_rb);
 1239              		.loc 1 418 9 view .LVU369
 1240 0080 4C4B     		ldr	r3, .L46+16
 1241 0082 1868     		ldr	r0, [r3]
 1242 0084 FFF7FEFF 		bl	DJIMotorEnable
 1243              	.LVL64:
ARM GAS  C:\Users\10542\AppData\Local\Temp\ccyRZrEs.s 			page 36


 419:application/chassis/chassis.c **** 
 1244              		.loc 1 419 9 view .LVU370
 1245 0088 4B4B     		ldr	r3, .L46+20
 1246 008a 1868     		ldr	r0, [r3]
 1247 008c FFF7FEFF 		bl	DJIMotorEnable
 1248              	.LVL65:
 421:application/chassis/chassis.c ****         DJIMotorEnable(rudder_rf);
 1249              		.loc 1 421 9 view .LVU371
 1250 0090 4A4B     		ldr	r3, .L46+24
 1251 0092 1868     		ldr	r0, [r3]
 1252 0094 FFF7FEFF 		bl	DJIMotorEnable
 1253              	.LVL66:
 422:application/chassis/chassis.c ****         DJIMotorEnable(rudder_lb);
 1254              		.loc 1 422 9 view .LVU372
 1255 0098 494B     		ldr	r3, .L46+28
 1256 009a 1868     		ldr	r0, [r3]
 1257 009c FFF7FEFF 		bl	DJIMotorEnable
 1258              	.LVL67:
 423:application/chassis/chassis.c ****         DJIMotorEnable(rudder_rb);
 1259              		.loc 1 423 9 view .LVU373
 1260 00a0 484B     		ldr	r3, .L46+32
 1261 00a2 1868     		ldr	r0, [r3]
 1262 00a4 FFF7FEFF 		bl	DJIMotorEnable
 1263              	.LVL68:
 424:application/chassis/chassis.c ****     }
 1264              		.loc 1 424 9 view .LVU374
 1265 00a8 474B     		ldr	r3, .L46+36
 1266 00aa 1868     		ldr	r0, [r3]
 1267 00ac FFF7FEFF 		bl	DJIMotorEnable
 1268              	.LVL69:
 1269 00b0 D2E7     		b	.L35
 1270              	.L36:
 430:application/chassis/chassis.c **** 
 1271              		.loc 1 430 9 view .LVU375
 430:application/chassis/chassis.c **** 
 1272              		.loc 1 430 47 is_stmt 0 view .LVU376
 1273 00b2 3C4B     		ldr	r3, .L46
 1274 00b4 D3ED026A 		vldr.32	s13, [r3, #8]
 430:application/chassis/chassis.c **** 
 1275              		.loc 1 430 51 view .LVU377
 1276 00b8 454A     		ldr	r2, .L46+44
 1277 00ba 92ED007A 		vldr.32	s14, [r2]
 1278 00be C6EE877A 		vdiv.f32	s15, s13, s14
 430:application/chassis/chassis.c **** 
 1279              		.loc 1 430 29 view .LVU378
 1280 00c2 C3ED027A 		vstr.32	s15, [r3, #8]
 432:application/chassis/chassis.c ****     case CHASSIS_FOLLOW_GIMBAL_YAW: // è·ںéڑڈن؛‘هڈ°,ن¸چهچ•ç‹¬è®¾ç½®pid,ن»¥è¯¯ه·®è§’ه؛¦ه¹³و–¹ن¸؛é€ںه
 1281              		.loc 1 432 9 is_stmt 1 view .LVU379
 1282              	.L39:
 442:application/chassis/chassis.c ****     default:
 443:application/chassis/chassis.c ****         break;
 444:application/chassis/chassis.c ****     }
 445:application/chassis/chassis.c **** 
 446:application/chassis/chassis.c ****     // و ¹وچ®ن؛‘هڈ°ه’Œه؛•ç›کçڑ„è§’ه؛¦offsetه°†وژ§هˆ¶é‡ڈوک ه°„هˆ°ه؛•ç›که‌گو ‡ç³»ن¸ٹ
 447:application/chassis/chassis.c ****     // ه؛•ç›کé€†و—¶é’ˆو—‹è½¬ن¸؛è§’ه؛¦و­£و–¹هگ‘;ن؛‘هڈ°ه‘½ن»¤çڑ„و–¹هگ‘ن»¥ن؛‘هڈ°وŒ‡هگ‘çڑ„و–¹هگ‘ن¸؛x,é‡
 448:application/chassis/chassis.c ****     static float sin_theta, cos_theta;
 1283              		.loc 1 448 5 view .LVU380
ARM GAS  C:\Users\10542\AppData\Local\Temp\ccyRZrEs.s 			page 37


 449:application/chassis/chassis.c ****     cos_theta = arm_cos_f32(-chassis_cmd_recv.offset_angle * DEGREE_2_RAD);
 1284              		.loc 1 449 5 view .LVU381
 1285              		.loc 1 449 46 is_stmt 0 view .LVU382
 1286 00c6 374C     		ldr	r4, .L46
 1287 00c8 94ED030A 		vldr.32	s0, [r4, #12]
 1288              		.loc 1 449 17 view .LVU383
 1289 00cc 9FED418A 		vldr.32	s16, .L46+48
 1290 00d0 20EE480A 		vnmul.f32	s0, s0, s16
 1291 00d4 FFF7FEFF 		bl	arm_cos_f32
 1292              	.LVL70:
 1293              		.loc 1 449 15 discriminator 1 view .LVU384
 1294 00d8 3F4D     		ldr	r5, .L46+52
 1295 00da 85ED000A 		vstr.32	s0, [r5]
 450:application/chassis/chassis.c ****     sin_theta = arm_sin_f32(-chassis_cmd_recv.offset_angle * DEGREE_2_RAD);
 1296              		.loc 1 450 5 is_stmt 1 view .LVU385
 1297              		.loc 1 450 46 is_stmt 0 view .LVU386
 1298 00de 94ED030A 		vldr.32	s0, [r4, #12]
 1299              		.loc 1 450 17 view .LVU387
 1300 00e2 20EE480A 		vnmul.f32	s0, s0, s16
 1301 00e6 FFF7FEFF 		bl	arm_sin_f32
 1302              	.LVL71:
 1303              		.loc 1 450 15 discriminator 1 view .LVU388
 1304 00ea 3C4B     		ldr	r3, .L46+56
 1305 00ec 83ED000A 		vstr.32	s0, [r3]
 451:application/chassis/chassis.c ****     chassis_vx = (chassis_cmd_recv.vx * cos_theta - chassis_cmd_recv.vy * sin_theta) / rpm_2_wheel_
 1306              		.loc 1 451 5 is_stmt 1 view .LVU389
 1307              		.loc 1 451 35 is_stmt 0 view .LVU390
 1308 00f0 D4ED005A 		vldr.32	s11, [r4]
 1309              		.loc 1 451 39 view .LVU391
 1310 00f4 D5ED007A 		vldr.32	s15, [r5]
 1311 00f8 25EEA77A 		vmul.f32	s14, s11, s15
 1312              		.loc 1 451 69 view .LVU392
 1313 00fc 94ED016A 		vldr.32	s12, [r4, #4]
 1314              		.loc 1 451 73 view .LVU393
 1315 0100 60EE066A 		vmul.f32	s13, s0, s12
 1316              		.loc 1 451 51 view .LVU394
 1317 0104 37EE667A 		vsub.f32	s14, s14, s13
 1318              		.loc 1 451 86 view .LVU395
 1319 0108 314B     		ldr	r3, .L46+44
 1320 010a D3ED006A 		vldr.32	s13, [r3]
 1321 010e 87EE265A 		vdiv.f32	s10, s14, s13
 1322              		.loc 1 451 16 view .LVU396
 1323 0112 334B     		ldr	r3, .L46+60
 1324 0114 83ED005A 		vstr.32	s10, [r3]
 452:application/chassis/chassis.c ****     chassis_vy = (chassis_cmd_recv.vx * sin_theta + chassis_cmd_recv.vy * cos_theta) / rpm_2_wheel_
 1325              		.loc 1 452 5 is_stmt 1 view .LVU397
 1326              		.loc 1 452 39 is_stmt 0 view .LVU398
 1327 0118 20EE250A 		vmul.f32	s0, s0, s11
 1328              		.loc 1 452 73 view .LVU399
 1329 011c 67EE867A 		vmul.f32	s15, s15, s12
 1330              		.loc 1 452 51 view .LVU400
 1331 0120 30EE270A 		vadd.f32	s0, s0, s15
 1332              		.loc 1 452 86 view .LVU401
 1333 0124 C0EE267A 		vdiv.f32	s15, s0, s13
 1334              		.loc 1 452 16 view .LVU402
 1335 0128 2E4B     		ldr	r3, .L46+64
 1336 012a C3ED007A 		vstr.32	s15, [r3]
ARM GAS  C:\Users\10542\AppData\Local\Temp\ccyRZrEs.s 			page 38


 453:application/chassis/chassis.c ****    
 454:application/chassis/chassis.c ****     // و ¹وچ®وژ§هˆ¶و¨،ه¼ڈè؟›è،Œو­£è؟گهٹ¨ه­¦è§£ç®—,è®،ç®—ه؛•ç›کè¾“ه‡؛
 455:application/chassis/chassis.c ****     MecanumCalculate();
 1337              		.loc 1 455 5 is_stmt 1 view .LVU403
 1338 012e FFF7FEFF 		bl	MecanumCalculate
 1339              	.LVL72:
 456:application/chassis/chassis.c **** 
 457:application/chassis/chassis.c ****     // و ¹وچ®è£پهˆ¤ç³»ç»ںçڑ„هڈچé¦ˆو•°وچ®ه’Œç”µه®¹و•°وچ®ه¯¹è¾“ه‡؛é™گه¹…ه¹¶è®¾ه®ڑé—­çژ¯هڈ‚è€ƒه€¼
 458:application/chassis/chassis.c ****     //LimitChassisOutput();
 459:application/chassis/chassis.c **** 
 460:application/chassis/chassis.c ****     // و ¹وچ®ç”µوœ؛çڑ„هڈچé¦ˆé€ںه؛¦ه’ŒIMU(ه¦‚و‍œوœ‰)è®،ç®—çœںه®‍é€ںه؛¦
 461:application/chassis/chassis.c ****     //EstimateSpeed();
 462:application/chassis/chassis.c **** 
 463:application/chassis/chassis.c ****     //èˆµè½®وژ§هˆ¶ه‡½و•°ï¼Œه¾…هˆ†ç¦»è½®هگ‘é€ںه؛¦
 464:application/chassis/chassis.c ****     RudderControl();
 1340              		.loc 1 464 5 view .LVU404
 1341 0132 FFF7FEFF 		bl	RudderControl
 1342              	.LVL73:
 465:application/chassis/chassis.c **** 
 466:application/chassis/chassis.c **** // #ifdef ONE_BOARD
 467:application/chassis/chassis.c **** //     // و ¹وچ®ç”µوœ؛çٹ¶و€پهڈچé¦ˆوک¯هگ¦ç¦»ç؛؟
 468:application/chassis/chassis.c **** //     DJIMotorIsOnline(motor_lf);
 469:application/chassis/chassis.c **** //     DJIMotorIsOnline(motor_rf);
 470:application/chassis/chassis.c **** //     DJIMotorIsOnline(motor_lb);
 471:application/chassis/chassis.c **** //     DJIMotorIsOnline(motor_rb);
 472:application/chassis/chassis.c **** //     // هڈچé¦ˆç”µوœ؛ç¦»ç؛؟و•°é‡ڈ
 473:application/chassis/chassis.c **** //     if (motor_lf->online_flag || motor_rf->online_flag || motor_lb->online_flag || motor_rb->onl
 474:application/chassis/chassis.c **** //     {
 475:application/chassis/chassis.c **** //         chassis_feedback_data.motor_offline_count = motor_lf->online_flag + motor_rf->online_fla
 476:application/chassis/chassis.c **** //         chassis_feedback_data.motor_state = CHASSIS_MOTOR_OFFLINE;
 477:application/chassis/chassis.c **** //     }
 478:application/chassis/chassis.c **** //     else
 479:application/chassis/chassis.c **** //     {
 480:application/chassis/chassis.c **** //         chassis_feedback_data.motor_offline_count = 0;
 481:application/chassis/chassis.c **** //         chassis_feedback_data.motor_state = CHASSIS_MOTOR_ONLINE;
 482:application/chassis/chassis.c **** //     }
 483:application/chassis/chassis.c **** 
 484:application/chassis/chassis.c **** // #endif
 485:application/chassis/chassis.c **** #ifdef CHASSIS_BOARD
 486:application/chassis/chassis.c ****     ;
 487:application/chassis/chassis.c **** #endif // CHASSIS_BOARD
 488:application/chassis/chassis.c **** 
 489:application/chassis/chassis.c ****     // وژ¨é€پهڈچé¦ˆو¶ˆوپ¯
 490:application/chassis/chassis.c **** #ifdef ONE_BOARD
 491:application/chassis/chassis.c ****     PubPushMessage(chassis_pub, (void *)&chassis_feedback_data);
 1343              		.loc 1 491 5 view .LVU405
 1344 0136 2C49     		ldr	r1, .L46+68
 1345 0138 2C4B     		ldr	r3, .L46+72
 1346 013a 1868     		ldr	r0, [r3]
 1347 013c FFF7FEFF 		bl	PubPushMessage
 1348              	.LVL74:
 492:application/chassis/chassis.c **** #endif
 493:application/chassis/chassis.c **** #ifdef CHASSIS_BOARD
 494:application/chassis/chassis.c ****     CANCommSend(chasiss_can_comm, (void *)&chassis_feedback_data);
 495:application/chassis/chassis.c **** #endif // CHASSIS_BOARD
 496:application/chassis/chassis.c **** }
 1349              		.loc 1 496 1 is_stmt 0 view .LVU406
ARM GAS  C:\Users\10542\AppData\Local\Temp\ccyRZrEs.s 			page 39


 1350 0140 BDEC028B 		vldm	sp!, {d8}
 1351              	.LCFI10:
 1352              		.cfi_remember_state
 1353              		.cfi_restore 80
 1354              		.cfi_restore 81
 1355              		.cfi_def_cfa_offset 16
 1356 0144 38BD     		pop	{r3, r4, r5, pc}
 1357              	.L37:
 1358              	.LCFI11:
 1359              		.cfi_restore_state
 434:application/chassis/chassis.c ****             chassis_cmd_recv.wz = 1.5f * chassis_cmd_recv.offset_angle * abs(chassis_cmd_recv.offse
 1360              		.loc 1 434 9 is_stmt 1 view .LVU407
 434:application/chassis/chassis.c ****             chassis_cmd_recv.wz = 1.5f * chassis_cmd_recv.offset_angle * abs(chassis_cmd_recv.offse
 1361              		.loc 1 434 27 is_stmt 0 view .LVU408
 1362 0146 2A4B     		ldr	r3, .L46+76
 1363 0148 1B68     		ldr	r3, [r3]
 1364 014a 93F89431 		ldrb	r3, [r3, #404]	@ zero_extendqisi2
 434:application/chassis/chassis.c ****             chassis_cmd_recv.wz = 1.5f * chassis_cmd_recv.offset_angle * abs(chassis_cmd_recv.offse
 1365              		.loc 1 434 12 view .LVU409
 1366 014e A3B1     		cbz	r3, .L40
 435:application/chassis/chassis.c ****         else
 1367              		.loc 1 435 13 is_stmt 1 view .LVU410
 435:application/chassis/chassis.c ****         else
 1368              		.loc 1 435 58 is_stmt 0 view .LVU411
 1369 0150 144B     		ldr	r3, .L46
 1370 0152 93ED037A 		vldr.32	s14, [r3, #12]
 435:application/chassis/chassis.c ****         else
 1371              		.loc 1 435 40 view .LVU412
 1372 0156 F7EE087A 		vmov.f32	s15, #1.5e+0
 1373 015a 67EE277A 		vmul.f32	s15, s14, s15
 435:application/chassis/chassis.c ****         else
 1374              		.loc 1 435 74 view .LVU413
 1375 015e B5EEC07A 		vcmpe.f32	s14, #0
 1376 0162 F1EE10FA 		vmrs	APSR_nzcv, FPSCR
 1377 0166 05DD     		ble	.L44
 1378              	.L41:
 435:application/chassis/chassis.c ****         else
 1379              		.loc 1 435 72 discriminator 4 view .LVU414
 1380 0168 67EE877A 		vmul.f32	s15, s15, s14
 435:application/chassis/chassis.c ****         else
 1381              		.loc 1 435 33 discriminator 4 view .LVU415
 1382 016c 0D4B     		ldr	r3, .L46
 1383 016e C3ED027A 		vstr.32	s15, [r3, #8]
 1384 0172 A8E7     		b	.L39
 1385              	.L44:
 435:application/chassis/chassis.c ****         else
 1386              		.loc 1 435 74 discriminator 2 view .LVU416
 1387 0174 B1EE477A 		vneg.f32	s14, s14
 1388 0178 F6E7     		b	.L41
 1389              	.L40:
 437:application/chassis/chassis.c ****         break;
 1390              		.loc 1 437 13 is_stmt 1 view .LVU417
 437:application/chassis/chassis.c ****         break;
 1391              		.loc 1 437 59 is_stmt 0 view .LVU418
 1392 017a 0A4B     		ldr	r3, .L46
 1393 017c 93ED037A 		vldr.32	s14, [r3, #12]
 437:application/chassis/chassis.c ****         break;
ARM GAS  C:\Users\10542\AppData\Local\Temp\ccyRZrEs.s 			page 40


 1394              		.loc 1 437 41 view .LVU419
 1395 0180 FFEE087A 		vmov.f32	s15, #-1.5e+0
 1396 0184 67EE277A 		vmul.f32	s15, s14, s15
 437:application/chassis/chassis.c ****         break;
 1397              		.loc 1 437 75 view .LVU420
 1398 0188 B5EEC07A 		vcmpe.f32	s14, #0
 1399 018c F1EE10FA 		vmrs	APSR_nzcv, FPSCR
 1400 0190 05DD     		ble	.L45
 1401              	.L42:
 437:application/chassis/chassis.c ****         break;
 1402              		.loc 1 437 73 discriminator 4 view .LVU421
 1403 0192 67EE877A 		vmul.f32	s15, s15, s14
 437:application/chassis/chassis.c ****         break;
 1404              		.loc 1 437 33 discriminator 4 view .LVU422
 1405 0196 034B     		ldr	r3, .L46
 1406 0198 C3ED027A 		vstr.32	s15, [r3, #8]
 1407 019c 93E7     		b	.L39
 1408              	.L45:
 437:application/chassis/chassis.c ****         break;
 1409              		.loc 1 437 75 discriminator 2 view .LVU423
 1410 019e B1EE477A 		vneg.f32	s14, s14
 1411 01a2 F6E7     		b	.L42
 1412              	.L47:
 1413              		.align	2
 1414              	.L46:
 1415 01a4 00000000 		.word	chassis_cmd_recv
 1416 01a8 00000000 		.word	chassis_sub
 1417 01ac 00000000 		.word	motor_lf
 1418 01b0 00000000 		.word	motor_rf
 1419 01b4 00000000 		.word	motor_lb
 1420 01b8 00000000 		.word	motor_rb
 1421 01bc 00000000 		.word	rudder_lf
 1422 01c0 00000000 		.word	rudder_rf
 1423 01c4 00000000 		.word	rudder_lb
 1424 01c8 00000000 		.word	rudder_rb
 1425 01cc 0000FA44 		.word	1157234688
 1426 01d0 00000000 		.word	rpm_2_wheel_vector
 1427 01d4 35FA8E3C 		.word	1016003125
 1428 01d8 00000000 		.word	cos_theta.1
 1429 01dc 00000000 		.word	sin_theta.0
 1430 01e0 00000000 		.word	chassis_vx
 1431 01e4 00000000 		.word	chassis_vy
 1432 01e8 00000000 		.word	chassis_feedback_data
 1433 01ec 00000000 		.word	chassis_pub
 1434 01f0 00000000 		.word	chassis_config
 1435              		.cfi_endproc
 1436              	.LFE282:
 1438              		.section	.bss.sin_theta.0,"aw",%nobits
 1439              		.align	2
 1442              	sin_theta.0:
 1443 0000 00000000 		.space	4
 1444              		.section	.bss.cos_theta.1,"aw",%nobits
 1445              		.align	2
 1448              	cos_theta.1:
 1449 0000 00000000 		.space	4
 1450              		.section	.bss.reduction_ratio_wheel.2,"aw",%nobits
 1451              		.align	2
ARM GAS  C:\Users\10542\AppData\Local\Temp\ccyRZrEs.s 			page 41


 1454              	reduction_ratio_wheel.2:
 1455 0000 00000000 		.space	4
 1456              		.section	.bss.center_gimbal_offset_y.3,"aw",%nobits
 1457              		.align	2
 1460              	center_gimbal_offset_y.3:
 1461 0000 00000000 		.space	4
 1462              		.section	.bss.center_gimbal_offset_x.4,"aw",%nobits
 1463              		.align	2
 1466              	center_gimbal_offset_x.4:
 1467 0000 00000000 		.space	4
 1468              		.section	.bss.perimeter_wheel.5,"aw",%nobits
 1469              		.align	2
 1472              	perimeter_wheel.5:
 1473 0000 00000000 		.space	4
 1474              		.section	.bss.half_track_width.6,"aw",%nobits
 1475              		.align	2
 1478              	half_track_width.6:
 1479 0000 00000000 		.space	4
 1480              		.section	.bss.half_wheel_base.7,"aw",%nobits
 1481              		.align	2
 1484              	half_wheel_base.7:
 1485 0000 00000000 		.space	4
 1486              		.section	.bss.rb_y_coeff,"aw",%nobits
 1487              		.align	2
 1490              	rb_y_coeff:
 1491 0000 00000000 		.space	4
 1492              		.section	.bss.rb_x_coeff,"aw",%nobits
 1493              		.align	2
 1496              	rb_x_coeff:
 1497 0000 00000000 		.space	4
 1498              		.section	.bss.lb_y_coeff,"aw",%nobits
 1499              		.align	2
 1502              	lb_y_coeff:
 1503 0000 00000000 		.space	4
 1504              		.section	.bss.lb_x_coeff,"aw",%nobits
 1505              		.align	2
 1508              	lb_x_coeff:
 1509 0000 00000000 		.space	4
 1510              		.section	.bss.rf_y_coeff,"aw",%nobits
 1511              		.align	2
 1514              	rf_y_coeff:
 1515 0000 00000000 		.space	4
 1516              		.section	.bss.rf_x_coeff,"aw",%nobits
 1517              		.align	2
 1520              	rf_x_coeff:
 1521 0000 00000000 		.space	4
 1522              		.section	.bss.lf_y_coeff,"aw",%nobits
 1523              		.align	2
 1526              	lf_y_coeff:
 1527 0000 00000000 		.space	4
 1528              		.section	.bss.lf_x_coeff,"aw",%nobits
 1529              		.align	2
 1532              	lf_x_coeff:
 1533 0000 00000000 		.space	4
 1534              		.section	.bss.theta_rb_deg,"aw",%nobits
 1535              		.align	2
 1538              	theta_rb_deg:
ARM GAS  C:\Users\10542\AppData\Local\Temp\ccyRZrEs.s 			page 42


 1539 0000 00000000 		.space	4
 1540              		.section	.bss.theta_rf_deg,"aw",%nobits
 1541              		.align	2
 1544              	theta_rf_deg:
 1545 0000 00000000 		.space	4
 1546              		.section	.bss.theta_lb_deg,"aw",%nobits
 1547              		.align	2
 1550              	theta_lb_deg:
 1551 0000 00000000 		.space	4
 1552              		.section	.bss.theta_lf_deg,"aw",%nobits
 1553              		.align	2
 1556              	theta_lf_deg:
 1557 0000 00000000 		.space	4
 1558              		.section	.bss.theta_rb,"aw",%nobits
 1559              		.align	2
 1562              	theta_rb:
 1563 0000 00000000 		.space	4
 1564              		.section	.bss.theta_lb,"aw",%nobits
 1565              		.align	2
 1568              	theta_lb:
 1569 0000 00000000 		.space	4
 1570              		.section	.bss.theta_rf,"aw",%nobits
 1571              		.align	2
 1574              	theta_rf:
 1575 0000 00000000 		.space	4
 1576              		.section	.bss.theta_lf,"aw",%nobits
 1577              		.align	2
 1580              	theta_lf:
 1581 0000 00000000 		.space	4
 1582              		.section	.bss.vt_rb,"aw",%nobits
 1583              		.align	2
 1586              	vt_rb:
 1587 0000 00000000 		.space	4
 1588              		.section	.bss.vt_lb,"aw",%nobits
 1589              		.align	2
 1592              	vt_lb:
 1593 0000 00000000 		.space	4
 1594              		.section	.bss.vt_rf,"aw",%nobits
 1595              		.align	2
 1598              	vt_rf:
 1599 0000 00000000 		.space	4
 1600              		.section	.bss.vt_lf,"aw",%nobits
 1601              		.align	2
 1604              	vt_lf:
 1605 0000 00000000 		.space	4
 1606              		.section	.bss.chassis_vy,"aw",%nobits
 1607              		.align	2
 1610              	chassis_vy:
 1611 0000 00000000 		.space	4
 1612              		.section	.bss.chassis_vx,"aw",%nobits
 1613              		.align	2
 1616              	chassis_vx:
 1617 0000 00000000 		.space	4
 1618              		.section	.bss.rpm_2_wheel_vector,"aw",%nobits
 1619              		.align	2
 1622              	rpm_2_wheel_vector:
 1623 0000 00000000 		.space	4
ARM GAS  C:\Users\10542\AppData\Local\Temp\ccyRZrEs.s 			page 43


 1624              		.section	.bss.rb_center,"aw",%nobits
 1625              		.align	2
 1628              	rb_center:
 1629 0000 00000000 		.space	4
 1630              		.section	.bss.lb_center,"aw",%nobits
 1631              		.align	2
 1634              	lb_center:
 1635 0000 00000000 		.space	4
 1636              		.section	.bss.rf_center,"aw",%nobits
 1637              		.align	2
 1640              	rf_center:
 1641 0000 00000000 		.space	4
 1642              		.section	.bss.lf_center,"aw",%nobits
 1643              		.align	2
 1646              	lf_center:
 1647 0000 00000000 		.space	4
 1648              		.section	.bss.power_manager,"aw",%nobits
 1649              		.align	2
 1652              	power_manager:
 1653 0000 00000000 		.space	4
 1654              		.section	.bss.rudder_rb,"aw",%nobits
 1655              		.align	2
 1658              	rudder_rb:
 1659 0000 00000000 		.space	4
 1660              		.section	.bss.rudder_lb,"aw",%nobits
 1661              		.align	2
 1664              	rudder_lb:
 1665 0000 00000000 		.space	4
 1666              		.section	.bss.rudder_rf,"aw",%nobits
 1667              		.align	2
 1670              	rudder_rf:
 1671 0000 00000000 		.space	4
 1672              		.section	.bss.rudder_lf,"aw",%nobits
 1673              		.align	2
 1676              	rudder_lf:
 1677 0000 00000000 		.space	4
 1678              		.section	.bss.motor_rb,"aw",%nobits
 1679              		.align	2
 1682              	motor_rb:
 1683 0000 00000000 		.space	4
 1684              		.section	.bss.motor_lb,"aw",%nobits
 1685              		.align	2
 1688              	motor_lb:
 1689 0000 00000000 		.space	4
 1690              		.section	.bss.motor_rf,"aw",%nobits
 1691              		.align	2
 1694              	motor_rf:
 1695 0000 00000000 		.space	4
 1696              		.section	.bss.motor_lf,"aw",%nobits
 1697              		.align	2
 1700              	motor_lf:
 1701 0000 00000000 		.space	4
 1702              		.section	.bss.cap,"aw",%nobits
 1703              		.align	2
 1706              	cap:
 1707 0000 00000000 		.space	4
 1708              		.section	.bss.chassis_feedback_data,"aw",%nobits
ARM GAS  C:\Users\10542\AppData\Local\Temp\ccyRZrEs.s 			page 44


 1709              		.align	2
 1712              	chassis_feedback_data:
 1713 0000 00000000 		.space	14
 1713      00000000 
 1713      00000000 
 1713      0000
 1714              		.section	.bss.chassis_cmd_recv,"aw",%nobits
 1715              		.align	2
 1718              	chassis_cmd_recv:
 1719 0000 00000000 		.space	25
 1719      00000000 
 1719      00000000 
 1719      00000000 
 1719      00000000 
 1720              		.section	.bss.chassis_sub,"aw",%nobits
 1721              		.align	2
 1724              	chassis_sub:
 1725 0000 00000000 		.space	4
 1726              		.section	.bss.chassis_pub,"aw",%nobits
 1727              		.align	2
 1730              	chassis_pub:
 1731 0000 00000000 		.space	4
 1732              		.section	.bss.chassis_config,"aw",%nobits
 1733              		.align	2
 1736              	chassis_config:
 1737 0000 00000000 		.space	4
 1738              		.section	.rodata
 1739              		.align	2
 1740              		.set	.LANCHOR0,. + 0
 1741              	.LC0:
 1742 0000 8FC2753C 		.word	1014350479
 1743 0004 295CA740 		.word	1084709929
 1744 0008 85EB513F 		.word	1062333317
 1745              		.text
 1746              	.Letext0:
 1747              		.file 2 "E:/MSYS2/mingw64/arm-none-eabi/include/machine/_default_types.h"
 1748              		.file 3 "E:/MSYS2/mingw64/arm-none-eabi/include/sys/_stdint.h"
 1749              		.file 4 "Drivers/CMSIS/Device/ST/STM32F4xx/Include/stm32f407xx.h"
 1750              		.file 5 "Drivers/CMSIS/Device/ST/STM32F4xx/Include/stm32f4xx.h"
 1751              		.file 6 "Drivers/STM32F4xx_HAL_Driver/Inc/stm32f4xx_hal_can.h"
 1752              		.file 7 "Middlewares/ST/ARM/DSP/Include/arm_math_types.h"
 1753              		.file 8 "bsp/can/bsp_can.h"
 1754              		.file 9 "modules/algorithm/controller.h"
 1755              		.file 10 "modules/motor/motor_def.h"
 1756              		.file 11 "application/config/config.h"
 1757              		.file 12 "application/robot_def.h"
 1758              		.file 13 "modules/daemon/daemon.h"
 1759              		.file 14 "modules/motor/DJImotor/dji_motor.h"
 1760              		.file 15 "modules/power/super_cap.h"
 1761              		.file 16 "modules/power/power_manager.h"
 1762              		.file 17 "modules/message_center/message_center.h"
 1763              		.file 18 "E:/MSYS2/mingw64/arm-none-eabi/include/math.h"
 1764              		.file 19 "Middlewares/ST/ARM/DSP/Include/dsp/fast_math_functions.h"
 1765              		.file 20 "Inc/can.h"
ARM GAS  C:\Users\10542\AppData\Local\Temp\ccyRZrEs.s 			page 45

