ARM GAS  C:\Users\ADMINI~1\AppData\Local\Temp\ccJz9NTh.s 			page 1


   1              		.cpu cortex-m4
   2              		.arch armv7e-m
   3              		.fpu fpv4-sp-d16
   4              		.eabi_attribute 27, 1
   5              		.eabi_attribute 28, 1
   6              		.eabi_attribute 20, 1
   7              		.eabi_attribute 21, 1
   8              		.eabi_attribute 23, 3
   9              		.eabi_attribute 24, 1
  10              		.eabi_attribute 25, 1
  11              		.eabi_attribute 26, 1
  12              		.eabi_attribute 30, 1
  13              		.eabi_attribute 34, 1
  14              		.eabi_attribute 18, 4
  15              		.file	"crc16.c"
  16              		.text
  17              	.Ltext0:
  18              		.cfi_sections	.debug_frame
  19              		.file 1 "modules/algorithm/crc16.c"
  20              		.section	.text.init_crc16_tab,"ax",%progbits
  21              		.align	1
  22              		.global	init_crc16_tab
  23              		.syntax unified
  24              		.thumb
  25              		.thumb_func
  27              	init_crc16_tab:
  28              	.LFB238:
   1:modules/algorithm/crc16.c **** #include "crc16.h"
   2:modules/algorithm/crc16.c **** 
   3:modules/algorithm/crc16.c **** static uint8_t crc_tab16_init = 0;
   4:modules/algorithm/crc16.c **** static uint16_t crc_tab16[256];
   5:modules/algorithm/crc16.c **** 
   6:modules/algorithm/crc16.c **** /*
   7:modules/algorithm/crc16.c ****  * uint16_t crc_16( const unsigned char *input_str, size_t num_bytes );
   8:modules/algorithm/crc16.c ****  *
   9:modules/algorithm/crc16.c ****  *函数crc_16()一次计算一个字节的16位CRC16
  10:modules/algorithm/crc16.c ****  *其开头已传递给函数的字符串。的数量
  11:modules/algorithm/crc16.c ****  *要检查的字节也是一个参数。字符串中的字节数为
  12:modules/algorithm/crc16.c ****  *受恒定大小最大值的限制。
  13:modules/algorithm/crc16.c ****  */
  14:modules/algorithm/crc16.c **** uint16_t crc_16(const uint8_t *input_str, uint16_t num_bytes)
  15:modules/algorithm/crc16.c **** {
  16:modules/algorithm/crc16.c ****     uint16_t crc;
  17:modules/algorithm/crc16.c ****     const uint8_t *ptr;
  18:modules/algorithm/crc16.c ****     uint16_t a;
  19:modules/algorithm/crc16.c ****     if (!crc_tab16_init)
  20:modules/algorithm/crc16.c ****         init_crc16_tab();
  21:modules/algorithm/crc16.c ****     crc = CRC_START_16;
  22:modules/algorithm/crc16.c ****     ptr = input_str;
  23:modules/algorithm/crc16.c ****     if (ptr != NULL)
  24:modules/algorithm/crc16.c ****         for (a = 0; a < num_bytes; a++)
  25:modules/algorithm/crc16.c ****         {
  26:modules/algorithm/crc16.c ****             crc = (crc >> 8) ^ crc_tab16[(crc ^ (uint16_t)*ptr++) & 0x00FF];
  27:modules/algorithm/crc16.c ****         }
  28:modules/algorithm/crc16.c ****     return crc;
  29:modules/algorithm/crc16.c **** }
  30:modules/algorithm/crc16.c **** 
ARM GAS  C:\Users\ADMINI~1\AppData\Local\Temp\ccJz9NTh.s 			page 2


  31:modules/algorithm/crc16.c **** /*
  32:modules/algorithm/crc16.c ****  * uint16_t crc_modbus( const unsigned char *input_str, size_t num_bytes );
  33:modules/algorithm/crc16.c ****  *
  34:modules/algorithm/crc16.c ****  *函数crc_modbus()一次计算16位modbus循环冗余校验
  35:modules/algorithm/crc16.c ****  *一个字节字符串，其开头已被传递给函数。这
  36:modules/algorithm/crc16.c ****  *要检查的字节数也是一个参数。
  37:modules/algorithm/crc16.c ****  */
  38:modules/algorithm/crc16.c **** 
  39:modules/algorithm/crc16.c **** uint16_t crc_modbus(const uint8_t *input_str, uint16_t num_bytes)
  40:modules/algorithm/crc16.c **** {
  41:modules/algorithm/crc16.c ****     uint16_t crc;
  42:modules/algorithm/crc16.c ****     const uint8_t *ptr;
  43:modules/algorithm/crc16.c ****     uint16_t a;
  44:modules/algorithm/crc16.c **** 
  45:modules/algorithm/crc16.c ****     if (!crc_tab16_init)
  46:modules/algorithm/crc16.c ****         init_crc16_tab();
  47:modules/algorithm/crc16.c **** 
  48:modules/algorithm/crc16.c ****     crc = CRC_START_MODBUS;
  49:modules/algorithm/crc16.c ****     ptr = input_str;
  50:modules/algorithm/crc16.c ****     if (ptr != NULL)
  51:modules/algorithm/crc16.c ****         for (a = 0; a < num_bytes; a++)
  52:modules/algorithm/crc16.c ****         {
  53:modules/algorithm/crc16.c **** 
  54:modules/algorithm/crc16.c ****             crc = (crc >> 8) ^ crc_tab16[(crc ^ (uint16_t)*ptr++) & 0x00FF];
  55:modules/algorithm/crc16.c ****         }
  56:modules/algorithm/crc16.c ****     return crc;
  57:modules/algorithm/crc16.c **** }
  58:modules/algorithm/crc16.c **** 
  59:modules/algorithm/crc16.c **** /*
  60:modules/algorithm/crc16.c ****  * uint16_t update_crc_16( uint16_t crc, unsigned char c );
  61:modules/algorithm/crc16.c ****  *
  62:modules/algorithm/crc16.c ****  *函数update_crc_16()根据
  63:modules/algorithm/crc16.c ****  *前一个循环冗余校验值和下一个要检查的数据字节。
  64:modules/algorithm/crc16.c ****  */
  65:modules/algorithm/crc16.c **** uint16_t update_crc_16(uint16_t crc, uint8_t c)
  66:modules/algorithm/crc16.c **** {
  67:modules/algorithm/crc16.c ****     if (!crc_tab16_init)
  68:modules/algorithm/crc16.c ****         init_crc16_tab();
  69:modules/algorithm/crc16.c ****     return (crc >> 8) ^ crc_tab16[(crc ^ (uint16_t)c) & 0x00FF];
  70:modules/algorithm/crc16.c **** }
  71:modules/algorithm/crc16.c **** 
  72:modules/algorithm/crc16.c **** /*
  73:modules/algorithm/crc16.c ****  * static void init_crc16_tab( void );
  74:modules/algorithm/crc16.c ****  *
  75:modules/algorithm/crc16.c ****  *为了获得最佳性能，使用CRC16例程查找带有值的表
  76:modules/algorithm/crc16.c ****  *可以直接在异或算法中使用的算法。
  77:modules/algorithm/crc16.c ****  *查找表首次由init_crc16_tab()例程计算
  78:modules/algorithm/crc16.c ****  *调用循环冗余校验函数。
  79:modules/algorithm/crc16.c ****  */
  80:modules/algorithm/crc16.c **** void init_crc16_tab(void)
  81:modules/algorithm/crc16.c **** {
  29              		.loc 1 81 1 view -0
  30              		.cfi_startproc
  31              		@ args = 0, pretend = 0, frame = 0
  32              		@ frame_needed = 0, uses_anonymous_args = 0
  33              		@ link register save eliminated.
  82:modules/algorithm/crc16.c ****     uint16_t i;
ARM GAS  C:\Users\ADMINI~1\AppData\Local\Temp\ccJz9NTh.s 			page 3


  34              		.loc 1 82 5 view .LVU1
  83:modules/algorithm/crc16.c ****     uint16_t j;
  35              		.loc 1 83 5 view .LVU2
  84:modules/algorithm/crc16.c ****     uint16_t crc;
  36              		.loc 1 84 5 view .LVU3
  85:modules/algorithm/crc16.c ****     uint16_t c;
  37              		.loc 1 85 5 view .LVU4
  86:modules/algorithm/crc16.c ****     for (i = 0; i < 256; i++)
  38              		.loc 1 86 5 view .LVU5
  39              	.LVL0:
  40              		.loc 1 86 12 is_stmt 0 view .LVU6
  41 0000 4FF0000C 		mov	ip, #0
  42              		.loc 1 86 5 view .LVU7
  43 0004 17E0     		b	.L2
  44              	.LVL1:
  45              	.L3:
  87:modules/algorithm/crc16.c ****     {
  88:modules/algorithm/crc16.c ****         crc = 0;
  89:modules/algorithm/crc16.c ****         c = i;
  90:modules/algorithm/crc16.c ****         for (j = 0; j < 8; j++)
  91:modules/algorithm/crc16.c ****         {
  92:modules/algorithm/crc16.c ****             if ((crc ^ c) & 0x0001)
  93:modules/algorithm/crc16.c ****                 crc = (crc >> 1) ^ CRC_POLY_16;
  94:modules/algorithm/crc16.c ****             else
  95:modules/algorithm/crc16.c ****                 crc = crc >> 1;
  46              		.loc 1 95 17 is_stmt 1 view .LVU8
  47              		.loc 1 95 21 is_stmt 0 view .LVU9
  48 0006 5208     		lsrs	r2, r2, #1
  49              	.LVL2:
  50              	.L4:
  96:modules/algorithm/crc16.c ****             c = c >> 1;
  51              		.loc 1 96 13 is_stmt 1 view .LVU10
  52              		.loc 1 96 15 is_stmt 0 view .LVU11
  53 0008 C1F34F01 		ubfx	r1, r1, #1, #16
  54              	.LVL3:
  90:modules/algorithm/crc16.c ****         {
  55              		.loc 1 90 29 is_stmt 1 discriminator 2 view .LVU12
  56 000c 0133     		adds	r3, r3, #1
  57              	.LVL4:
  90:modules/algorithm/crc16.c ****         {
  58              		.loc 1 90 29 is_stmt 0 discriminator 2 view .LVU13
  59 000e 9BB2     		uxth	r3, r3
  60              	.LVL5:
  61              	.L6:
  90:modules/algorithm/crc16.c ****         {
  62              		.loc 1 90 23 is_stmt 1 discriminator 1 view .LVU14
  63 0010 072B     		cmp	r3, #7
  64 0012 09D8     		bhi	.L8
  92:modules/algorithm/crc16.c ****                 crc = (crc >> 1) ^ CRC_POLY_16;
  65              		.loc 1 92 13 view .LVU15
  92:modules/algorithm/crc16.c ****                 crc = (crc >> 1) ^ CRC_POLY_16;
  66              		.loc 1 92 27 is_stmt 0 view .LVU16
  67 0014 82EA0100 		eor	r0, r2, r1
  92:modules/algorithm/crc16.c ****                 crc = (crc >> 1) ^ CRC_POLY_16;
  68              		.loc 1 92 16 view .LVU17
  69 0018 10F0010F 		tst	r0, #1
  70 001c F3D0     		beq	.L3
ARM GAS  C:\Users\ADMINI~1\AppData\Local\Temp\ccJz9NTh.s 			page 4


  93:modules/algorithm/crc16.c ****             else
  71              		.loc 1 93 17 is_stmt 1 view .LVU18
  93:modules/algorithm/crc16.c ****             else
  72              		.loc 1 93 21 is_stmt 0 view .LVU19
  73 001e 4AF20100 		movw	r0, #40961
  74 0022 80EA5202 		eor	r2, r0, r2, lsr #1
  75              	.LVL6:
  93:modules/algorithm/crc16.c ****             else
  76              		.loc 1 93 21 view .LVU20
  77 0026 EFE7     		b	.L4
  78              	.L8:
  97:modules/algorithm/crc16.c ****         }
  98:modules/algorithm/crc16.c ****         crc_tab16[i] = crc;
  79              		.loc 1 98 9 is_stmt 1 view .LVU21
  80              		.loc 1 98 22 is_stmt 0 view .LVU22
  81 0028 084B     		ldr	r3, .L10
  82              	.LVL7:
  83              		.loc 1 98 22 view .LVU23
  84 002a 23F81C20 		strh	r2, [r3, ip, lsl #1]	@ movhi
  86:modules/algorithm/crc16.c ****     {
  85              		.loc 1 86 27 is_stmt 1 discriminator 2 view .LVU24
  86 002e 0CF1010C 		add	ip, ip, #1
  87              	.LVL8:
  86:modules/algorithm/crc16.c ****     {
  88              		.loc 1 86 27 is_stmt 0 discriminator 2 view .LVU25
  89 0032 1FFA8CFC 		uxth	ip, ip
  90              	.LVL9:
  91              	.L2:
  86:modules/algorithm/crc16.c ****     {
  92              		.loc 1 86 19 is_stmt 1 discriminator 1 view .LVU26
  93 0036 BCF1FF0F 		cmp	ip, #255
  94 003a 03D8     		bhi	.L9
  89:modules/algorithm/crc16.c ****         for (j = 0; j < 8; j++)
  95              		.loc 1 89 11 is_stmt 0 view .LVU27
  96 003c 6146     		mov	r1, ip
  88:modules/algorithm/crc16.c ****         c = i;
  97              		.loc 1 88 13 view .LVU28
  98 003e 0022     		movs	r2, #0
  90:modules/algorithm/crc16.c ****         {
  99              		.loc 1 90 16 view .LVU29
 100 0040 1346     		mov	r3, r2
 101 0042 E5E7     		b	.L6
 102              	.L9:
  99:modules/algorithm/crc16.c ****     }
 100:modules/algorithm/crc16.c ****     crc_tab16_init = 1;
 103              		.loc 1 100 5 is_stmt 1 view .LVU30
 104              		.loc 1 100 20 is_stmt 0 view .LVU31
 105 0044 024B     		ldr	r3, .L10+4
 106 0046 0122     		movs	r2, #1
 107 0048 1A70     		strb	r2, [r3]
 101:modules/algorithm/crc16.c **** }
 108              		.loc 1 101 1 view .LVU32
 109 004a 7047     		bx	lr
 110              	.L11:
 111              		.align	2
 112              	.L10:
 113 004c 00000000 		.word	crc_tab16
ARM GAS  C:\Users\ADMINI~1\AppData\Local\Temp\ccJz9NTh.s 			page 5


 114 0050 00000000 		.word	crc_tab16_init
 115              		.cfi_endproc
 116              	.LFE238:
 118              		.section	.text.crc_16,"ax",%progbits
 119              		.align	1
 120              		.global	crc_16
 121              		.syntax unified
 122              		.thumb
 123              		.thumb_func
 125              	crc_16:
 126              	.LVL10:
 127              	.LFB235:
  15:modules/algorithm/crc16.c ****     uint16_t crc;
 128              		.loc 1 15 1 is_stmt 1 view -0
 129              		.cfi_startproc
 130              		@ args = 0, pretend = 0, frame = 0
 131              		@ frame_needed = 0, uses_anonymous_args = 0
  15:modules/algorithm/crc16.c ****     uint16_t crc;
 132              		.loc 1 15 1 is_stmt 0 view .LVU34
 133 0000 38B5     		push	{r3, r4, r5, lr}
 134              	.LCFI0:
 135              		.cfi_def_cfa_offset 16
 136              		.cfi_offset 3, -16
 137              		.cfi_offset 4, -12
 138              		.cfi_offset 5, -8
 139              		.cfi_offset 14, -4
 140 0002 0446     		mov	r4, r0
 141 0004 0D46     		mov	r5, r1
  16:modules/algorithm/crc16.c ****     const uint8_t *ptr;
 142              		.loc 1 16 5 is_stmt 1 view .LVU35
  17:modules/algorithm/crc16.c ****     uint16_t a;
 143              		.loc 1 17 5 view .LVU36
  18:modules/algorithm/crc16.c ****     if (!crc_tab16_init)
 144              		.loc 1 18 5 view .LVU37
  19:modules/algorithm/crc16.c ****         init_crc16_tab();
 145              		.loc 1 19 5 view .LVU38
  19:modules/algorithm/crc16.c ****         init_crc16_tab();
 146              		.loc 1 19 9 is_stmt 0 view .LVU39
 147 0006 104B     		ldr	r3, .L21
 148 0008 1B78     		ldrb	r3, [r3]	@ zero_extendqisi2
  19:modules/algorithm/crc16.c ****         init_crc16_tab();
 149              		.loc 1 19 8 view .LVU40
 150 000a 2BB1     		cbz	r3, .L19
 151              	.LVL11:
 152              	.L13:
  21:modules/algorithm/crc16.c ****     ptr = input_str;
 153              		.loc 1 21 5 is_stmt 1 view .LVU41
  22:modules/algorithm/crc16.c ****     if (ptr != NULL)
 154              		.loc 1 22 5 view .LVU42
  23:modules/algorithm/crc16.c ****         for (a = 0; a < num_bytes; a++)
 155              		.loc 1 23 5 view .LVU43
  23:modules/algorithm/crc16.c ****         for (a = 0; a < num_bytes; a++)
 156              		.loc 1 23 8 is_stmt 0 view .LVU44
 157 000c 3CB1     		cbz	r4, .L20
  24:modules/algorithm/crc16.c ****         {
 158              		.loc 1 24 16 view .LVU45
 159 000e 4FF0000C 		mov	ip, #0
ARM GAS  C:\Users\ADMINI~1\AppData\Local\Temp\ccJz9NTh.s 			page 6


  21:modules/algorithm/crc16.c ****     ptr = input_str;
 160              		.loc 1 21 9 view .LVU46
 161 0012 4FF6FF70 		movw	r0, #65535
 162 0016 14E0     		b	.L14
 163              	.LVL12:
 164              	.L19:
  20:modules/algorithm/crc16.c ****     crc = CRC_START_16;
 165              		.loc 1 20 9 is_stmt 1 view .LVU47
 166 0018 FFF7FEFF 		bl	init_crc16_tab
 167              	.LVL13:
  20:modules/algorithm/crc16.c ****     crc = CRC_START_16;
 168              		.loc 1 20 9 is_stmt 0 view .LVU48
 169 001c F6E7     		b	.L13
 170              	.LVL14:
 171              	.L20:
  21:modules/algorithm/crc16.c ****     ptr = input_str;
 172              		.loc 1 21 9 view .LVU49
 173 001e 4FF6FF70 		movw	r0, #65535
 174 0022 10E0     		b	.L15
 175              	.LVL15:
 176              	.L16:
  26:modules/algorithm/crc16.c ****         }
 177              		.loc 1 26 13 is_stmt 1 view .LVU50
  26:modules/algorithm/crc16.c ****         }
 178              		.loc 1 26 63 is_stmt 0 view .LVU51
 179 0024 2346     		mov	r3, r4
 180              	.LVL16:
  26:modules/algorithm/crc16.c ****         }
 181              		.loc 1 26 59 view .LVU52
 182 0026 13F8012B 		ldrb	r2, [r3], #1	@ zero_extendqisi2
 183              	.LVL17:
  26:modules/algorithm/crc16.c ****         }
 184              		.loc 1 26 47 view .LVU53
 185 002a 4240     		eors	r2, r2, r0
  26:modules/algorithm/crc16.c ****         }
 186              		.loc 1 26 67 view .LVU54
 187 002c D2B2     		uxtb	r2, r2
  26:modules/algorithm/crc16.c ****         }
 188              		.loc 1 26 41 view .LVU55
 189 002e 0749     		ldr	r1, .L21+4
 190 0030 31F81220 		ldrh	r2, [r1, r2, lsl #1]
  26:modules/algorithm/crc16.c ****         }
 191              		.loc 1 26 17 view .LVU56
 192 0034 82EA1020 		eor	r0, r2, r0, lsr #8
 193              	.LVL18:
  24:modules/algorithm/crc16.c ****         {
 194              		.loc 1 24 37 is_stmt 1 discriminator 3 view .LVU57
 195 0038 0CF1010C 		add	ip, ip, #1
 196              	.LVL19:
  24:modules/algorithm/crc16.c ****         {
 197              		.loc 1 24 37 is_stmt 0 discriminator 3 view .LVU58
 198 003c 1FFA8CFC 		uxth	ip, ip
 199              	.LVL20:
  26:modules/algorithm/crc16.c ****         }
 200              		.loc 1 26 63 view .LVU59
 201 0040 1C46     		mov	r4, r3
 202              	.LVL21:
ARM GAS  C:\Users\ADMINI~1\AppData\Local\Temp\ccJz9NTh.s 			page 7


 203              	.L14:
  24:modules/algorithm/crc16.c ****         {
 204              		.loc 1 24 23 is_stmt 1 discriminator 1 view .LVU60
 205 0042 AC45     		cmp	ip, r5
 206 0044 EED3     		bcc	.L16
 207              	.LVL22:
 208              	.L15:
  28:modules/algorithm/crc16.c **** }
 209              		.loc 1 28 5 view .LVU61
  29:modules/algorithm/crc16.c **** 
 210              		.loc 1 29 1 is_stmt 0 view .LVU62
 211 0046 38BD     		pop	{r3, r4, r5, pc}
 212              	.LVL23:
 213              	.L22:
  29:modules/algorithm/crc16.c **** 
 214              		.loc 1 29 1 view .LVU63
 215              		.align	2
 216              	.L21:
 217 0048 00000000 		.word	crc_tab16_init
 218 004c 00000000 		.word	crc_tab16
 219              		.cfi_endproc
 220              	.LFE235:
 222              		.section	.text.crc_modbus,"ax",%progbits
 223              		.align	1
 224              		.global	crc_modbus
 225              		.syntax unified
 226              		.thumb
 227              		.thumb_func
 229              	crc_modbus:
 230              	.LVL24:
 231              	.LFB236:
  40:modules/algorithm/crc16.c ****     uint16_t crc;
 232              		.loc 1 40 1 is_stmt 1 view -0
 233              		.cfi_startproc
 234              		@ args = 0, pretend = 0, frame = 0
 235              		@ frame_needed = 0, uses_anonymous_args = 0
  40:modules/algorithm/crc16.c ****     uint16_t crc;
 236              		.loc 1 40 1 is_stmt 0 view .LVU65
 237 0000 38B5     		push	{r3, r4, r5, lr}
 238              	.LCFI1:
 239              		.cfi_def_cfa_offset 16
 240              		.cfi_offset 3, -16
 241              		.cfi_offset 4, -12
 242              		.cfi_offset 5, -8
 243              		.cfi_offset 14, -4
 244 0002 0446     		mov	r4, r0
 245 0004 0D46     		mov	r5, r1
  41:modules/algorithm/crc16.c ****     const uint8_t *ptr;
 246              		.loc 1 41 5 is_stmt 1 view .LVU66
  42:modules/algorithm/crc16.c ****     uint16_t a;
 247              		.loc 1 42 5 view .LVU67
  43:modules/algorithm/crc16.c **** 
 248              		.loc 1 43 5 view .LVU68
  45:modules/algorithm/crc16.c ****         init_crc16_tab();
 249              		.loc 1 45 5 view .LVU69
  45:modules/algorithm/crc16.c ****         init_crc16_tab();
 250              		.loc 1 45 9 is_stmt 0 view .LVU70
ARM GAS  C:\Users\ADMINI~1\AppData\Local\Temp\ccJz9NTh.s 			page 8


 251 0006 104B     		ldr	r3, .L32
 252 0008 1B78     		ldrb	r3, [r3]	@ zero_extendqisi2
  45:modules/algorithm/crc16.c ****         init_crc16_tab();
 253              		.loc 1 45 8 view .LVU71
 254 000a 2BB1     		cbz	r3, .L30
 255              	.LVL25:
 256              	.L24:
  48:modules/algorithm/crc16.c ****     ptr = input_str;
 257              		.loc 1 48 5 is_stmt 1 view .LVU72
  49:modules/algorithm/crc16.c ****     if (ptr != NULL)
 258              		.loc 1 49 5 view .LVU73
  50:modules/algorithm/crc16.c ****         for (a = 0; a < num_bytes; a++)
 259              		.loc 1 50 5 view .LVU74
  50:modules/algorithm/crc16.c ****         for (a = 0; a < num_bytes; a++)
 260              		.loc 1 50 8 is_stmt 0 view .LVU75
 261 000c 3CB1     		cbz	r4, .L31
  51:modules/algorithm/crc16.c ****         {
 262              		.loc 1 51 16 view .LVU76
 263 000e 4FF0000C 		mov	ip, #0
  48:modules/algorithm/crc16.c ****     ptr = input_str;
 264              		.loc 1 48 9 view .LVU77
 265 0012 4FF6FF70 		movw	r0, #65535
 266 0016 14E0     		b	.L25
 267              	.LVL26:
 268              	.L30:
  46:modules/algorithm/crc16.c **** 
 269              		.loc 1 46 9 is_stmt 1 view .LVU78
 270 0018 FFF7FEFF 		bl	init_crc16_tab
 271              	.LVL27:
  46:modules/algorithm/crc16.c **** 
 272              		.loc 1 46 9 is_stmt 0 view .LVU79
 273 001c F6E7     		b	.L24
 274              	.LVL28:
 275              	.L31:
  48:modules/algorithm/crc16.c ****     ptr = input_str;
 276              		.loc 1 48 9 view .LVU80
 277 001e 4FF6FF70 		movw	r0, #65535
 278 0022 10E0     		b	.L26
 279              	.LVL29:
 280              	.L27:
  54:modules/algorithm/crc16.c ****         }
 281              		.loc 1 54 13 is_stmt 1 view .LVU81
  54:modules/algorithm/crc16.c ****         }
 282              		.loc 1 54 63 is_stmt 0 view .LVU82
 283 0024 2346     		mov	r3, r4
 284              	.LVL30:
  54:modules/algorithm/crc16.c ****         }
 285              		.loc 1 54 59 view .LVU83
 286 0026 13F8012B 		ldrb	r2, [r3], #1	@ zero_extendqisi2
 287              	.LVL31:
  54:modules/algorithm/crc16.c ****         }
 288              		.loc 1 54 47 view .LVU84
 289 002a 4240     		eors	r2, r2, r0
  54:modules/algorithm/crc16.c ****         }
 290              		.loc 1 54 67 view .LVU85
 291 002c D2B2     		uxtb	r2, r2
  54:modules/algorithm/crc16.c ****         }
ARM GAS  C:\Users\ADMINI~1\AppData\Local\Temp\ccJz9NTh.s 			page 9


 292              		.loc 1 54 41 view .LVU86
 293 002e 0749     		ldr	r1, .L32+4
 294 0030 31F81220 		ldrh	r2, [r1, r2, lsl #1]
  54:modules/algorithm/crc16.c ****         }
 295              		.loc 1 54 17 view .LVU87
 296 0034 82EA1020 		eor	r0, r2, r0, lsr #8
 297              	.LVL32:
  51:modules/algorithm/crc16.c ****         {
 298              		.loc 1 51 37 is_stmt 1 discriminator 3 view .LVU88
 299 0038 0CF1010C 		add	ip, ip, #1
 300              	.LVL33:
  51:modules/algorithm/crc16.c ****         {
 301              		.loc 1 51 37 is_stmt 0 discriminator 3 view .LVU89
 302 003c 1FFA8CFC 		uxth	ip, ip
 303              	.LVL34:
  54:modules/algorithm/crc16.c ****         }
 304              		.loc 1 54 63 view .LVU90
 305 0040 1C46     		mov	r4, r3
 306              	.LVL35:
 307              	.L25:
  51:modules/algorithm/crc16.c ****         {
 308              		.loc 1 51 23 is_stmt 1 discriminator 1 view .LVU91
 309 0042 AC45     		cmp	ip, r5
 310 0044 EED3     		bcc	.L27
 311              	.LVL36:
 312              	.L26:
  56:modules/algorithm/crc16.c **** }
 313              		.loc 1 56 5 view .LVU92
  57:modules/algorithm/crc16.c **** 
 314              		.loc 1 57 1 is_stmt 0 view .LVU93
 315 0046 38BD     		pop	{r3, r4, r5, pc}
 316              	.LVL37:
 317              	.L33:
  57:modules/algorithm/crc16.c **** 
 318              		.loc 1 57 1 view .LVU94
 319              		.align	2
 320              	.L32:
 321 0048 00000000 		.word	crc_tab16_init
 322 004c 00000000 		.word	crc_tab16
 323              		.cfi_endproc
 324              	.LFE236:
 326              		.section	.text.update_crc_16,"ax",%progbits
 327              		.align	1
 328              		.global	update_crc_16
 329              		.syntax unified
 330              		.thumb
 331              		.thumb_func
 333              	update_crc_16:
 334              	.LVL38:
 335              	.LFB237:
  66:modules/algorithm/crc16.c ****     if (!crc_tab16_init)
 336              		.loc 1 66 1 is_stmt 1 view -0
 337              		.cfi_startproc
 338              		@ args = 0, pretend = 0, frame = 0
 339              		@ frame_needed = 0, uses_anonymous_args = 0
  66:modules/algorithm/crc16.c ****     if (!crc_tab16_init)
 340              		.loc 1 66 1 is_stmt 0 view .LVU96
ARM GAS  C:\Users\ADMINI~1\AppData\Local\Temp\ccJz9NTh.s 			page 10


 341 0000 38B5     		push	{r3, r4, r5, lr}
 342              	.LCFI2:
 343              		.cfi_def_cfa_offset 16
 344              		.cfi_offset 3, -16
 345              		.cfi_offset 4, -12
 346              		.cfi_offset 5, -8
 347              		.cfi_offset 14, -4
 348 0002 0546     		mov	r5, r0
 349 0004 0C46     		mov	r4, r1
  67:modules/algorithm/crc16.c ****         init_crc16_tab();
 350              		.loc 1 67 5 is_stmt 1 view .LVU97
  67:modules/algorithm/crc16.c ****         init_crc16_tab();
 351              		.loc 1 67 9 is_stmt 0 view .LVU98
 352 0006 074B     		ldr	r3, .L38
 353 0008 1B78     		ldrb	r3, [r3]	@ zero_extendqisi2
  67:modules/algorithm/crc16.c ****         init_crc16_tab();
 354              		.loc 1 67 8 view .LVU99
 355 000a 3BB1     		cbz	r3, .L37
 356              	.LVL39:
 357              	.L35:
  69:modules/algorithm/crc16.c **** }
 358              		.loc 1 69 5 is_stmt 1 view .LVU100
  69:modules/algorithm/crc16.c **** }
 359              		.loc 1 69 40 is_stmt 0 view .LVU101
 360 000c 6C40     		eors	r4, r4, r5
 361              	.LVL40:
  69:modules/algorithm/crc16.c **** }
 362              		.loc 1 69 55 view .LVU102
 363 000e E4B2     		uxtb	r4, r4
  69:modules/algorithm/crc16.c **** }
 364              		.loc 1 69 34 view .LVU103
 365 0010 054B     		ldr	r3, .L38+4
 366 0012 33F81400 		ldrh	r0, [r3, r4, lsl #1]
  70:modules/algorithm/crc16.c **** 
 367              		.loc 1 70 1 view .LVU104
 368 0016 80EA1520 		eor	r0, r0, r5, lsr #8
 369 001a 38BD     		pop	{r3, r4, r5, pc}
 370              	.LVL41:
 371              	.L37:
  68:modules/algorithm/crc16.c ****     return (crc >> 8) ^ crc_tab16[(crc ^ (uint16_t)c) & 0x00FF];
 372              		.loc 1 68 9 is_stmt 1 view .LVU105
 373 001c FFF7FEFF 		bl	init_crc16_tab
 374              	.LVL42:
  68:modules/algorithm/crc16.c ****     return (crc >> 8) ^ crc_tab16[(crc ^ (uint16_t)c) & 0x00FF];
 375              		.loc 1 68 9 is_stmt 0 view .LVU106
 376 0020 F4E7     		b	.L35
 377              	.L39:
 378 0022 00BF     		.align	2
 379              	.L38:
 380 0024 00000000 		.word	crc_tab16_init
 381 0028 00000000 		.word	crc_tab16
 382              		.cfi_endproc
 383              	.LFE237:
 385              		.section	.bss.crc_tab16,"aw",%nobits
 386              		.align	2
 389              	crc_tab16:
 390 0000 00000000 		.space	512
ARM GAS  C:\Users\ADMINI~1\AppData\Local\Temp\ccJz9NTh.s 			page 11


 390      00000000 
 390      00000000 
 390      00000000 
 390      00000000 
 391              		.section	.bss.crc_tab16_init,"aw",%nobits
 394              	crc_tab16_init:
 395 0000 00       		.space	1
 396              		.text
 397              	.Letext0:
 398              		.file 2 "D:/Msys2/mingw64/arm-none-eabi/include/machine/_default_types.h"
 399              		.file 3 "D:/Msys2/mingw64/arm-none-eabi/include/sys/_stdint.h"
ARM GAS  C:\Users\ADMINI~1\AppData\Local\Temp\ccJz9NTh.s 			page 12

