ARM GAS  C:\Users\ADMINI~1\AppData\Local\Temp\ccC7P2iN.s 			page 1


   1              		.cpu cortex-m4
   2              		.arch armv7e-m
   3              		.fpu fpv4-sp-d16
   4              		.eabi_attribute 27, 1
   5              		.eabi_attribute 28, 1
   6              		.eabi_attribute 20, 1
   7              		.eabi_attribute 21, 1
   8              		.eabi_attribute 23, 3
   9              		.eabi_attribute 24, 1
  10              		.eabi_attribute 25, 1
  11              		.eabi_attribute 26, 1
  12              		.eabi_attribute 30, 1
  13              		.eabi_attribute 34, 1
  14              		.eabi_attribute 18, 4
  15              		.file	"dji_motor.c"
  16              		.text
  17              	.Ltext0:
  18              		.cfi_sections	.debug_frame
  19              		.file 1 "modules/motor/DJImotor/dji_motor.c"
  20              		.section	.text.MotorSenderGrouping,"ax",%progbits
  21              		.align	1
  22              		.syntax unified
  23              		.thumb
  24              		.thumb_func
  26              	MotorSenderGrouping:
  27              	.LVL0:
  28              	.LFB271:
   1:modules/motor/DJImotor/dji_motor.c **** #include "dji_motor.h"
   2:modules/motor/DJImotor/dji_motor.c **** #include "general_def.h"
   3:modules/motor/DJImotor/dji_motor.c **** #include "bsp_dwt.h"
   4:modules/motor/DJImotor/dji_motor.c **** #include "bsp_log.h"
   5:modules/motor/DJImotor/dji_motor.c **** 
   6:modules/motor/DJImotor/dji_motor.c **** static uint8_t idx = 0; // register idx,жҳҜиҜҘж–Үд»¶зҡ„е…ЁеұҖз”өжңәзҙўеј•,еңЁжіЁеҶҢж—¶дҪҝз”Ё
   7:modules/motor/DJImotor/dji_motor.c **** /* DJIз”өжңәзҡ„е®һдҫӢ,жӯӨеӨ„д»…дҝқеӯҳжҢҮй’Ҳ,еҶ…еӯҳзҡ„еҲҶй…Қе°ҶйҖҡиҝҮз”өжңәе®һдҫӢеҲқе§ӢеҢ–ж—¶йҖҡиҝҮm
   8:modules/motor/DJImotor/dji_motor.c **** static DJIMotorInstance *dji_motor_instance[DJI_MOTOR_CNT] = {NULL}; // дјҡеңЁcontrolд»»еҠЎдёӯйҒҚеҺ
   9:modules/motor/DJImotor/dji_motor.c **** /**
  10:modules/motor/DJImotor/dji_motor.c ****  * @brief з”ұдәҺDJIз”өжңәеҸ‘йҖҒд»ҘеӣӣдёӘдёҖз»„зҡ„еҪўејҸиҝӣиЎҢ,ж•…еҜ№е…¶иҝӣиЎҢзү№ж®ҠеӨ„зҗҶ,з”Ё6дёӘ(2
  11:modules/motor/DJImotor/dji_motor.c ****  *        иҜҘеҸҳйҮҸе°ҶеңЁ DJIMotorControl() дёӯдҪҝз”Ё,еҲҶз»„еңЁ MotorSenderGrouping()дёӯиҝӣиЎҢ
  12:modules/motor/DJImotor/dji_motor.c ****  *
  13:modules/motor/DJImotor/dji_motor.c ****  * @note  еӣ дёәеҸӘз”ЁдәҺеҸ‘йҖҒ,жүҖд»ҘдёҚйңҖиҰҒеңЁbsp_canдёӯжіЁеҶҢ
  14:modules/motor/DJImotor/dji_motor.c ****  *
  15:modules/motor/DJImotor/dji_motor.c ****  * C610(m2006)/C620(m3508):0x1ff,0x200;
  16:modules/motor/DJImotor/dji_motor.c ****  * GM6020:0x1ff,0x2ff
  17:modules/motor/DJImotor/dji_motor.c ****  * еҸҚйҰҲ(rx_id): GM6020: 0x204+id ; C610/C620: 0x200+id
  18:modules/motor/DJImotor/dji_motor.c ****  * can1: [0]:0x1FF,[1]:0x200,[2]:0x2FF
  19:modules/motor/DJImotor/dji_motor.c ****  * can2: [3]:0x1FF,[4]:0x200,[5]:0x2FF
  20:modules/motor/DJImotor/dji_motor.c ****  */
  21:modules/motor/DJImotor/dji_motor.c **** static CANInstance sender_assignment[6] = {
  22:modules/motor/DJImotor/dji_motor.c ****     [0] = {.can_handle = &hcan1, .txconf.StdId = 0x1ff, .txconf.IDE = CAN_ID_STD, .txconf.RTR = CAN
  23:modules/motor/DJImotor/dji_motor.c ****     [1] = {.can_handle = &hcan1, .txconf.StdId = 0x200, .txconf.IDE = CAN_ID_STD, .txconf.RTR = CAN
  24:modules/motor/DJImotor/dji_motor.c ****     [2] = {.can_handle = &hcan1, .txconf.StdId = 0x2ff, .txconf.IDE = CAN_ID_STD, .txconf.RTR = CAN
  25:modules/motor/DJImotor/dji_motor.c ****     [3] = {.can_handle = &hcan2, .txconf.StdId = 0x1ff, .txconf.IDE = CAN_ID_STD, .txconf.RTR = CAN
  26:modules/motor/DJImotor/dji_motor.c ****     [4] = {.can_handle = &hcan2, .txconf.StdId = 0x200, .txconf.IDE = CAN_ID_STD, .txconf.RTR = CAN
  27:modules/motor/DJImotor/dji_motor.c ****     [5] = {.can_handle = &hcan2, .txconf.StdId = 0x2ff, .txconf.IDE = CAN_ID_STD, .txconf.RTR = CAN
  28:modules/motor/DJImotor/dji_motor.c **** };
  29:modules/motor/DJImotor/dji_motor.c **** 
  30:modules/motor/DJImotor/dji_motor.c **** /**
ARM GAS  C:\Users\ADMINI~1\AppData\Local\Temp\ccC7P2iN.s 			page 2


  31:modules/motor/DJImotor/dji_motor.c ****  * @brief 6дёӘз”ЁдәҺзЎ®и®ӨжҳҜеҗҰжңүз”өжңәжіЁеҶҢеҲ°sender_assignmentдёӯзҡ„ж Үеҝ—дҪҚ,йҳІжӯўеҸ‘йҖҒз©әе
  32:modules/motor/DJImotor/dji_motor.c ****  *        flagзҡ„еҲқе§ӢеҢ–еңЁ MotorSenderGrouping()дёӯиҝӣиЎҢ
  33:modules/motor/DJImotor/dji_motor.c ****  */
  34:modules/motor/DJImotor/dji_motor.c **** static uint8_t sender_enable_flag[6] = {0};
  35:modules/motor/DJImotor/dji_motor.c **** 
  36:modules/motor/DJImotor/dji_motor.c **** /**
  37:modules/motor/DJImotor/dji_motor.c ****  * @brief ж №жҚ®з”өи°ғ/жӢЁз ҒејҖе…ідёҠзҡ„ID,ж №жҚ®иҜҙжҳҺд№Ұзҡ„й»ҳи®ӨidеҲҶй…Қж–№ејҸи®Ўз®—еҸ‘йҖҒIDе’Ң
  38:modules/motor/DJImotor/dji_motor.c ****  *        е№¶еҜ№з”өжңәиҝӣиЎҢеҲҶз»„д»ҘдҫҝеӨ„зҗҶеӨҡз”өжңәжҺ§еҲ¶е‘Ҫд»Ө
  39:modules/motor/DJImotor/dji_motor.c ****  */
  40:modules/motor/DJImotor/dji_motor.c **** static void MotorSenderGrouping(DJIMotorInstance *motor, CAN_Init_Config_s *config)
  41:modules/motor/DJImotor/dji_motor.c **** {
  29              		.loc 1 41 1 view -0
  30              		.cfi_startproc
  31              		@ args = 0, pretend = 0, frame = 0
  32              		@ frame_needed = 0, uses_anonymous_args = 0
  33              		@ link register save eliminated.
  34              		.loc 1 41 1 is_stmt 0 view .LVU1
  35 0000 30B4     		push	{r4, r5}
  36              	.LCFI0:
  37              		.cfi_def_cfa_offset 8
  38              		.cfi_offset 4, -8
  39              		.cfi_offset 5, -4
  42:modules/motor/DJImotor/dji_motor.c ****     uint8_t motor_id = config->tx_id - 1; // дёӢж Үд»Һйӣ¶ејҖе§Ӣ,е…ҲеҮҸдёҖж–№дҫҝиөӢеҖј
  40              		.loc 1 42 5 is_stmt 1 view .LVU2
  41              		.loc 1 42 38 is_stmt 0 view .LVU3
  42 0002 91F804C0 		ldrb	ip, [r1, #4]	@ zero_extendqisi2
  43              		.loc 1 42 13 view .LVU4
  44 0006 0CF1FF33 		add	r3, ip, #-1
  45 000a DBB2     		uxtb	r3, r3
  46              	.LVL1:
  43:modules/motor/DJImotor/dji_motor.c ****     uint8_t motor_send_num;
  47              		.loc 1 43 5 is_stmt 1 view .LVU5
  44:modules/motor/DJImotor/dji_motor.c ****     uint8_t motor_grouping;
  48              		.loc 1 44 5 view .LVU6
  45:modules/motor/DJImotor/dji_motor.c **** 
  46:modules/motor/DJImotor/dji_motor.c ****     switch (motor->motor_type)
  49              		.loc 1 46 5 view .LVU7
  50              		.loc 1 46 18 is_stmt 0 view .LVU8
  51 000c 90F8A621 		ldrb	r2, [r0, #422]	@ zero_extendqisi2
  52              		.loc 1 46 5 view .LVU9
  53 0010 012A     		cmp	r2, #1
  54 0012 3ED0     		beq	.L2
  55 0014 54B2     		sxtb	r4, r2
  56 0016 002C     		cmp	r4, #0
  57 0018 73D0     		beq	.L3
  58 001a 023A     		subs	r2, r2, #2
  59 001c D2B2     		uxtb	r2, r2
  60 001e 012A     		cmp	r2, #1
  61 0020 6FD8     		bhi	.L3
  47:modules/motor/DJImotor/dji_motor.c ****     {
  48:modules/motor/DJImotor/dji_motor.c ****     case M2006:
  49:modules/motor/DJImotor/dji_motor.c ****     case M3508:
  50:modules/motor/DJImotor/dji_motor.c ****         if (motor_id < 4) // ж №жҚ®IDеҲҶз»„
  62              		.loc 1 50 9 is_stmt 1 view .LVU10
  63              		.loc 1 50 12 is_stmt 0 view .LVU11
  64 0022 032B     		cmp	r3, #3
  65 0024 16D8     		bhi	.L4
ARM GAS  C:\Users\ADMINI~1\AppData\Local\Temp\ccC7P2iN.s 			page 3


  51:modules/motor/DJImotor/dji_motor.c ****         {
  52:modules/motor/DJImotor/dji_motor.c ****             motor_send_num = motor_id;
  66              		.loc 1 52 13 is_stmt 1 view .LVU12
  67              	.LVL2:
  53:modules/motor/DJImotor/dji_motor.c ****             motor_grouping = config->can_handle == &hcan1 ? 1 : 4;
  68              		.loc 1 53 13 view .LVU13
  69              		.loc 1 53 36 is_stmt 0 view .LVU14
  70 0026 0C68     		ldr	r4, [r1]
  71              		.loc 1 53 28 view .LVU15
  72 0028 374A     		ldr	r2, .L26
  73 002a 9442     		cmp	r4, r2
  74 002c 0FD0     		beq	.L22
  52:modules/motor/DJImotor/dji_motor.c ****             motor_grouping = config->can_handle == &hcan1 ? 1 : 4;
  75              		.loc 1 52 28 view .LVU16
  76 002e 1A46     		mov	r2, r3
  77              		.loc 1 53 28 discriminator 2 view .LVU17
  78 0030 0424     		movs	r4, #4
  79              	.LVL3:
  80              	.L5:
  54:modules/motor/DJImotor/dji_motor.c ****         }
  55:modules/motor/DJImotor/dji_motor.c ****         else
  56:modules/motor/DJImotor/dji_motor.c ****         {
  57:modules/motor/DJImotor/dji_motor.c ****             motor_send_num = motor_id - 4;
  58:modules/motor/DJImotor/dji_motor.c ****             motor_grouping = config->can_handle == &hcan1 ? 0 : 3;
  59:modules/motor/DJImotor/dji_motor.c ****         }
  60:modules/motor/DJImotor/dji_motor.c **** 
  61:modules/motor/DJImotor/dji_motor.c ****         // и®Ўз®—жҺҘж”¶idе№¶и®ҫзҪ®еҲҶз»„еҸ‘йҖҒid
  62:modules/motor/DJImotor/dji_motor.c ****         config->rx_id = 0x200 + motor_id + 1;   // жҠҠID+1,иҝӣиЎҢеҲҶз»„и®ҫзҪ®
  81              		.loc 1 62 9 is_stmt 1 view .LVU18
  82              		.loc 1 62 42 is_stmt 0 view .LVU19
  83 0032 03F20123 		addw	r3, r3, #513
  84              	.LVL4:
  85              		.loc 1 62 23 view .LVU20
  86 0036 8B60     		str	r3, [r1, #8]
  63:modules/motor/DJImotor/dji_motor.c ****         sender_enable_flag[motor_grouping] = 1; // и®ҫзҪ®еҸ‘йҖҒж Үеҝ—дҪҚ,йҳІжӯўеҸ‘йҖҒз©әеё§
  87              		.loc 1 63 9 is_stmt 1 view .LVU21
  88              		.loc 1 63 44 is_stmt 0 view .LVU22
  89 0038 344B     		ldr	r3, .L26+4
  90              	.LVL5:
  91              		.loc 1 63 44 view .LVU23
  92 003a 4FF0010C 		mov	ip, #1
  93 003e 03F804C0 		strb	ip, [r3, r4]
  64:modules/motor/DJImotor/dji_motor.c ****         motor->message_num = motor_send_num;
  94              		.loc 1 64 9 is_stmt 1 view .LVU24
  95              		.loc 1 64 28 is_stmt 0 view .LVU25
  96 0042 80F8A521 		strb	r2, [r0, #421]
  97              	.LVL6:
  65:modules/motor/DJImotor/dji_motor.c ****         motor->sender_group = motor_grouping;
  98              		.loc 1 65 9 is_stmt 1 view .LVU26
  99              		.loc 1 65 29 is_stmt 0 view .LVU27
 100 0046 80F8A441 		strb	r4, [r0, #420]
  66:modules/motor/DJImotor/dji_motor.c **** 
  67:modules/motor/DJImotor/dji_motor.c ****         // жЈҖжҹҘжҳҜеҗҰеҸ‘з”ҹidеҶІзӘҒ
  68:modules/motor/DJImotor/dji_motor.c ****         for (size_t i = 0; i < idx; ++i)
 101              		.loc 1 68 9 is_stmt 1 view .LVU28
 102              	.LBB2:
 103              		.loc 1 68 14 view .LVU29
ARM GAS  C:\Users\ADMINI~1\AppData\Local\Temp\ccC7P2iN.s 			page 4


 104              	.LVL7:
 105              		.loc 1 68 21 is_stmt 0 view .LVU30
 106 004a 0023     		movs	r3, #0
 107              		.loc 1 68 9 view .LVU31
 108 004c 0EE0     		b	.L6
 109              	.LVL8:
 110              	.L22:
 111              		.loc 1 68 9 view .LVU32
 112              	.LBE2:
  52:modules/motor/DJImotor/dji_motor.c ****             motor_grouping = config->can_handle == &hcan1 ? 1 : 4;
 113              		.loc 1 52 28 view .LVU33
 114 004e 1A46     		mov	r2, r3
  53:modules/motor/DJImotor/dji_motor.c ****         }
 115              		.loc 1 53 28 discriminator 1 view .LVU34
 116 0050 0124     		movs	r4, #1
 117 0052 EEE7     		b	.L5
 118              	.LVL9:
 119              	.L4:
  57:modules/motor/DJImotor/dji_motor.c ****             motor_grouping = config->can_handle == &hcan1 ? 0 : 3;
 120              		.loc 1 57 13 is_stmt 1 view .LVU35
  57:modules/motor/DJImotor/dji_motor.c ****             motor_grouping = config->can_handle == &hcan1 ? 0 : 3;
 121              		.loc 1 57 28 is_stmt 0 view .LVU36
 122 0054 ACF10502 		sub	r2, ip, #5
 123 0058 D2B2     		uxtb	r2, r2
 124              	.LVL10:
  58:modules/motor/DJImotor/dji_motor.c ****         }
 125              		.loc 1 58 13 is_stmt 1 view .LVU37
  58:modules/motor/DJImotor/dji_motor.c ****         }
 126              		.loc 1 58 28 is_stmt 0 view .LVU38
 127 005a 2B4C     		ldr	r4, .L26
 128 005c 0D68     		ldr	r5, [r1]
 129 005e A542     		cmp	r5, r4
 130 0060 01D0     		beq	.L23
  58:modules/motor/DJImotor/dji_motor.c ****         }
 131              		.loc 1 58 28 discriminator 2 view .LVU39
 132 0062 0324     		movs	r4, #3
 133 0064 E5E7     		b	.L5
 134              	.L23:
  58:modules/motor/DJImotor/dji_motor.c ****         }
 135              		.loc 1 58 28 discriminator 1 view .LVU40
 136 0066 0024     		movs	r4, #0
 137 0068 E3E7     		b	.L5
 138              	.LVL11:
 139              	.L7:
 140              	.LBB3:
 141              		.loc 1 68 37 is_stmt 1 discriminator 2 view .LVU41
 142 006a 0133     		adds	r3, r3, #1
 143              	.LVL12:
 144              	.L6:
 145              		.loc 1 68 30 discriminator 1 view .LVU42
 146 006c 284A     		ldr	r2, .L26+8
 147 006e 1278     		ldrb	r2, [r2]	@ zero_extendqisi2
 148 0070 9A42     		cmp	r2, r3
 149 0072 47D9     		bls	.L1
  69:modules/motor/DJImotor/dji_motor.c ****         {
  70:modules/motor/DJImotor/dji_motor.c ****             if (dji_motor_instance[i]->motor_can_instance->can_handle == config->can_handle && dji_
 150              		.loc 1 70 13 view .LVU43
ARM GAS  C:\Users\ADMINI~1\AppData\Local\Temp\ccC7P2iN.s 			page 5


 151              		.loc 1 70 35 is_stmt 0 view .LVU44
 152 0074 274A     		ldr	r2, .L26+12
 153 0076 52F82320 		ldr	r2, [r2, r3, lsl #2]
 154              		.loc 1 70 38 view .LVU45
 155 007a D2F8A021 		ldr	r2, [r2, #416]
 156              		.loc 1 70 58 view .LVU46
 157 007e D2F800C0 		ldr	ip, [r2]	@ unaligned
 158              		.loc 1 70 80 view .LVU47
 159 0082 0868     		ldr	r0, [r1]
 160              		.loc 1 70 16 view .LVU48
 161 0084 8445     		cmp	ip, r0
 162 0086 F0D1     		bne	.L7
 163              		.loc 1 70 137 discriminator 1 view .LVU49
 164 0088 506B     		ldr	r0, [r2, #52]	@ unaligned
 165              		.loc 1 70 154 discriminator 1 view .LVU50
 166 008a 8A68     		ldr	r2, [r1, #8]
 167              		.loc 1 70 93 discriminator 1 view .LVU51
 168 008c 9042     		cmp	r0, r2
 169 008e ECD1     		bne	.L7
 170              	.L8:
 171              	.LBE3:
  71:modules/motor/DJImotor/dji_motor.c ****             {
  72:modules/motor/DJImotor/dji_motor.c ****                 LOGERROR("[dji_motor] ID crash. Check in debug mode, add dji_motor_instance to watc
  73:modules/motor/DJImotor/dji_motor.c ****                 uint16_t can_bus = config->can_handle == &hcan1 ? 1 : 2;
  74:modules/motor/DJImotor/dji_motor.c ****                 while (1) // 6020зҡ„id 1-4е’Ң2006/3508зҡ„id 5-8дјҡеҸ‘з”ҹеҶІзӘҒ(иӢҘжңүжіЁеҶҢ,еҚі1!5,
 172              		.loc 1 74 17 is_stmt 1 view .LVU52
 173              		.loc 1 74 23 view .LVU53
 174 0090 FEE7     		b	.L8
 175              	.LVL13:
 176              	.L2:
  75:modules/motor/DJImotor/dji_motor.c ****                     LOGERROR("[dji_motor] id [%d], can_bus [%d]", config->rx_id, can_bus);
  76:modules/motor/DJImotor/dji_motor.c ****             }
  77:modules/motor/DJImotor/dji_motor.c ****         }
  78:modules/motor/DJImotor/dji_motor.c ****         break;
  79:modules/motor/DJImotor/dji_motor.c **** 
  80:modules/motor/DJImotor/dji_motor.c ****     case GM6020:
  81:modules/motor/DJImotor/dji_motor.c ****         if (motor_id < 4)
 177              		.loc 1 81 9 view .LVU54
 178              		.loc 1 81 12 is_stmt 0 view .LVU55
 179 0092 032B     		cmp	r3, #3
 180 0094 16D8     		bhi	.L11
  82:modules/motor/DJImotor/dji_motor.c ****         {
  83:modules/motor/DJImotor/dji_motor.c ****             motor_send_num = motor_id;
 181              		.loc 1 83 13 is_stmt 1 view .LVU56
 182              	.LVL14:
  84:modules/motor/DJImotor/dji_motor.c ****             motor_grouping = config->can_handle == &hcan1 ? 0 : 3;
 183              		.loc 1 84 13 view .LVU57
 184              		.loc 1 84 36 is_stmt 0 view .LVU58
 185 0096 0C68     		ldr	r4, [r1]
 186              		.loc 1 84 28 view .LVU59
 187 0098 1B4A     		ldr	r2, .L26
 188 009a 9442     		cmp	r4, r2
 189 009c 0FD0     		beq	.L24
  83:modules/motor/DJImotor/dji_motor.c ****             motor_grouping = config->can_handle == &hcan1 ? 0 : 3;
 190              		.loc 1 83 28 view .LVU60
 191 009e 1A46     		mov	r2, r3
 192              		.loc 1 84 28 discriminator 2 view .LVU61
ARM GAS  C:\Users\ADMINI~1\AppData\Local\Temp\ccC7P2iN.s 			page 6


 193 00a0 0324     		movs	r4, #3
 194              	.LVL15:
 195              	.L12:
  85:modules/motor/DJImotor/dji_motor.c ****         }
  86:modules/motor/DJImotor/dji_motor.c ****         else
  87:modules/motor/DJImotor/dji_motor.c ****         {
  88:modules/motor/DJImotor/dji_motor.c ****             motor_send_num = motor_id - 4;
  89:modules/motor/DJImotor/dji_motor.c ****             motor_grouping = config->can_handle == &hcan1 ? 2 : 5;
  90:modules/motor/DJImotor/dji_motor.c ****         }
  91:modules/motor/DJImotor/dji_motor.c **** 
  92:modules/motor/DJImotor/dji_motor.c ****         config->rx_id = 0x204 + motor_id + 1;   // жҠҠID+1,иҝӣиЎҢеҲҶз»„и®ҫзҪ®
 196              		.loc 1 92 9 is_stmt 1 view .LVU62
 197              		.loc 1 92 42 is_stmt 0 view .LVU63
 198 00a2 03F20523 		addw	r3, r3, #517
 199              	.LVL16:
 200              		.loc 1 92 23 view .LVU64
 201 00a6 8B60     		str	r3, [r1, #8]
  93:modules/motor/DJImotor/dji_motor.c ****         sender_enable_flag[motor_grouping] = 1; // еҸӘиҰҒжңүз”өжңәжіЁеҶҢеҲ°иҝҷдёӘеҲҶз»„,зҪ®дёә1;еңЁ
 202              		.loc 1 93 9 is_stmt 1 view .LVU65
 203              		.loc 1 93 44 is_stmt 0 view .LVU66
 204 00a8 184B     		ldr	r3, .L26+4
 205              	.LVL17:
 206              		.loc 1 93 44 view .LVU67
 207 00aa 4FF0010C 		mov	ip, #1
 208 00ae 03F804C0 		strb	ip, [r3, r4]
  94:modules/motor/DJImotor/dji_motor.c ****         motor->message_num = motor_send_num;
 209              		.loc 1 94 9 is_stmt 1 view .LVU68
 210              		.loc 1 94 28 is_stmt 0 view .LVU69
 211 00b2 80F8A521 		strb	r2, [r0, #421]
 212              	.LVL18:
  95:modules/motor/DJImotor/dji_motor.c ****         motor->sender_group = motor_grouping;
 213              		.loc 1 95 9 is_stmt 1 view .LVU70
 214              		.loc 1 95 29 is_stmt 0 view .LVU71
 215 00b6 80F8A441 		strb	r4, [r0, #420]
  96:modules/motor/DJImotor/dji_motor.c **** 
  97:modules/motor/DJImotor/dji_motor.c ****         for (size_t i = 0; i < idx; ++i)
 216              		.loc 1 97 9 is_stmt 1 view .LVU72
 217              	.LBB4:
 218              		.loc 1 97 14 view .LVU73
 219              	.LVL19:
 220              		.loc 1 97 21 is_stmt 0 view .LVU74
 221 00ba 0023     		movs	r3, #0
 222              		.loc 1 97 9 view .LVU75
 223 00bc 0EE0     		b	.L13
 224              	.LVL20:
 225              	.L24:
 226              		.loc 1 97 9 view .LVU76
 227              	.LBE4:
  83:modules/motor/DJImotor/dji_motor.c ****             motor_grouping = config->can_handle == &hcan1 ? 0 : 3;
 228              		.loc 1 83 28 view .LVU77
 229 00be 1A46     		mov	r2, r3
  84:modules/motor/DJImotor/dji_motor.c ****         }
 230              		.loc 1 84 28 discriminator 1 view .LVU78
 231 00c0 0024     		movs	r4, #0
 232 00c2 EEE7     		b	.L12
 233              	.LVL21:
 234              	.L11:
ARM GAS  C:\Users\ADMINI~1\AppData\Local\Temp\ccC7P2iN.s 			page 7


  88:modules/motor/DJImotor/dji_motor.c ****             motor_grouping = config->can_handle == &hcan1 ? 2 : 5;
 235              		.loc 1 88 13 is_stmt 1 view .LVU79
  88:modules/motor/DJImotor/dji_motor.c ****             motor_grouping = config->can_handle == &hcan1 ? 2 : 5;
 236              		.loc 1 88 28 is_stmt 0 view .LVU80
 237 00c4 ACF10502 		sub	r2, ip, #5
 238 00c8 D2B2     		uxtb	r2, r2
 239              	.LVL22:
  89:modules/motor/DJImotor/dji_motor.c ****         }
 240              		.loc 1 89 13 is_stmt 1 view .LVU81
  89:modules/motor/DJImotor/dji_motor.c ****         }
 241              		.loc 1 89 28 is_stmt 0 view .LVU82
 242 00ca 0F4C     		ldr	r4, .L26
 243 00cc 0D68     		ldr	r5, [r1]
 244 00ce A542     		cmp	r5, r4
 245 00d0 01D0     		beq	.L25
  89:modules/motor/DJImotor/dji_motor.c ****         }
 246              		.loc 1 89 28 discriminator 2 view .LVU83
 247 00d2 0524     		movs	r4, #5
 248 00d4 E5E7     		b	.L12
 249              	.L25:
  89:modules/motor/DJImotor/dji_motor.c ****         }
 250              		.loc 1 89 28 discriminator 1 view .LVU84
 251 00d6 0224     		movs	r4, #2
 252 00d8 E3E7     		b	.L12
 253              	.LVL23:
 254              	.L14:
 255              	.LBB5:
 256              		.loc 1 97 37 is_stmt 1 discriminator 2 view .LVU85
 257 00da 0133     		adds	r3, r3, #1
 258              	.LVL24:
 259              	.L13:
 260              		.loc 1 97 30 discriminator 1 view .LVU86
 261 00dc 0C4A     		ldr	r2, .L26+8
 262 00de 1278     		ldrb	r2, [r2]	@ zero_extendqisi2
 263 00e0 9A42     		cmp	r2, r3
 264 00e2 0FD9     		bls	.L1
  98:modules/motor/DJImotor/dji_motor.c ****         {
  99:modules/motor/DJImotor/dji_motor.c ****             if (dji_motor_instance[i]->motor_can_instance->can_handle == config->can_handle && dji_
 265              		.loc 1 99 13 view .LVU87
 266              		.loc 1 99 35 is_stmt 0 view .LVU88
 267 00e4 0B4A     		ldr	r2, .L26+12
 268 00e6 52F82320 		ldr	r2, [r2, r3, lsl #2]
 269              		.loc 1 99 38 view .LVU89
 270 00ea D2F8A021 		ldr	r2, [r2, #416]
 271              		.loc 1 99 58 view .LVU90
 272 00ee D2F800C0 		ldr	ip, [r2]	@ unaligned
 273              		.loc 1 99 80 view .LVU91
 274 00f2 0868     		ldr	r0, [r1]
 275              		.loc 1 99 16 view .LVU92
 276 00f4 8445     		cmp	ip, r0
 277 00f6 F0D1     		bne	.L14
 278              		.loc 1 99 137 discriminator 1 view .LVU93
 279 00f8 506B     		ldr	r0, [r2, #52]	@ unaligned
 280              		.loc 1 99 154 discriminator 1 view .LVU94
 281 00fa 8A68     		ldr	r2, [r1, #8]
 282              		.loc 1 99 93 discriminator 1 view .LVU95
 283 00fc 9042     		cmp	r0, r2
ARM GAS  C:\Users\ADMINI~1\AppData\Local\Temp\ccC7P2iN.s 			page 8


 284 00fe ECD1     		bne	.L14
 285              	.L15:
 286              	.LBE5:
 100:modules/motor/DJImotor/dji_motor.c ****             {
 101:modules/motor/DJImotor/dji_motor.c ****                 LOGERROR("[dji_motor] ID crash. Check in debug mode, add dji_motor_instance to watc
 102:modules/motor/DJImotor/dji_motor.c ****                 uint16_t can_bus = config->can_handle == &hcan1 ? 1 : 2;
 103:modules/motor/DJImotor/dji_motor.c ****                 while (1) // 6020зҡ„id 1-4е’Ң2006/3508зҡ„id 5-8дјҡеҸ‘з”ҹеҶІзӘҒ(иӢҘжңүжіЁеҶҢ,еҚі1!5,
 287              		.loc 1 103 17 is_stmt 1 view .LVU96
 288              		.loc 1 103 23 view .LVU97
 289 0100 FEE7     		b	.L15
 290              	.LVL25:
 291              	.L3:
 104:modules/motor/DJImotor/dji_motor.c ****                     LOGERROR("[dji_motor] id [%d], can_bus [%d]", config->rx_id, can_bus);
 105:modules/motor/DJImotor/dji_motor.c ****             }
 106:modules/motor/DJImotor/dji_motor.c ****         }
 107:modules/motor/DJImotor/dji_motor.c ****         break;
 108:modules/motor/DJImotor/dji_motor.c **** 
 109:modules/motor/DJImotor/dji_motor.c ****     default: // other motors should not be registered here
 110:modules/motor/DJImotor/dji_motor.c ****         while (1)
 292              		.loc 1 110 9 view .LVU98
 293              		.loc 1 110 15 view .LVU99
 294 0102 FEE7     		b	.L3
 295              	.LVL26:
 296              	.L1:
 111:modules/motor/DJImotor/dji_motor.c ****             LOGERROR("[dji_motor]You must not register other motors using the API of DJI motor."); 
 112:modules/motor/DJImotor/dji_motor.c ****     }
 113:modules/motor/DJImotor/dji_motor.c **** }
 297              		.loc 1 113 1 is_stmt 0 view .LVU100
 298 0104 30BC     		pop	{r4, r5}
 299              	.LCFI1:
 300              		.cfi_restore 5
 301              		.cfi_restore 4
 302              		.cfi_def_cfa_offset 0
 303              	.LVL27:
 304              		.loc 1 113 1 view .LVU101
 305 0106 7047     		bx	lr
 306              	.L27:
 307              		.align	2
 308              	.L26:
 309 0108 00000000 		.word	hcan1
 310 010c 00000000 		.word	sender_enable_flag
 311 0110 00000000 		.word	idx
 312 0114 00000000 		.word	dji_motor_instance
 313              		.cfi_endproc
 314              	.LFE271:
 316              		.section	.text.DJIMotorLostCallback,"ax",%progbits
 317              		.align	1
 318              		.syntax unified
 319              		.thumb
 320              		.thumb_func
 322              	DJIMotorLostCallback:
 323              	.LVL28:
 324              	.LFB273:
 114:modules/motor/DJImotor/dji_motor.c **** 
 115:modules/motor/DJImotor/dji_motor.c **** /**
 116:modules/motor/DJImotor/dji_motor.c ****  * @todo  жҳҜеҗҰеҸҜд»Ҙз®ҖеҢ–еӨҡеңҲи§’еәҰзҡ„и®Ўз®—пјҹ
 117:modules/motor/DJImotor/dji_motor.c ****  * @brief ж №жҚ®иҝ”еӣһзҡ„can_instanceеҜ№еҸҚйҰҲжҠҘж–ҮиҝӣиЎҢи§Јжһҗ
ARM GAS  C:\Users\ADMINI~1\AppData\Local\Temp\ccC7P2iN.s 			page 9


 118:modules/motor/DJImotor/dji_motor.c ****  *
 119:modules/motor/DJImotor/dji_motor.c ****  * @param _instance ж”¶еҲ°ж•°жҚ®зҡ„instance,йҖҡиҝҮйҒҚеҺҶдёҺжүҖжңүз”өжңәиҝӣиЎҢеҜ№жҜ”д»ҘйҖүжӢ©жӯЈзЎ®з
 120:modules/motor/DJImotor/dji_motor.c ****  */
 121:modules/motor/DJImotor/dji_motor.c **** static void DecodeDJIMotor(CANInstance *_instance)
 122:modules/motor/DJImotor/dji_motor.c **** {
 123:modules/motor/DJImotor/dji_motor.c ****     // иҝҷйҮҢеҜ№can instanceзҡ„idиҝӣиЎҢдәҶејәеҲ¶иҪ¬жҚў,д»ҺиҖҢиҺ·еҫ—з”өжңәзҡ„instanceе®һдҫӢең°еқҖ
 124:modules/motor/DJImotor/dji_motor.c ****     // _instanceжҢҮй’ҲжҢҮеҗ‘зҡ„idжҳҜеҜ№еә”з”өжңәinstanceзҡ„ең°еқҖ,йҖҡиҝҮејәеҲ¶иҪ¬жҚўдёәз”өжңәinstan
 125:modules/motor/DJImotor/dji_motor.c ****     uint8_t *rxbuff = _instance->rx_buff;
 126:modules/motor/DJImotor/dji_motor.c ****     DJIMotorInstance *motor = (DJIMotorInstance *)_instance->id;
 127:modules/motor/DJImotor/dji_motor.c ****     DJI_Motor_Measure_s *measure = &motor->measure; // measureиҰҒеӨҡж¬ЎдҪҝз”Ё,дҝқеӯҳжҢҮй’ҲеҮҸе°Ҹи®ҝ
 128:modules/motor/DJImotor/dji_motor.c **** 
 129:modules/motor/DJImotor/dji_motor.c ****     DaemonReload(motor->daemon);
 130:modules/motor/DJImotor/dji_motor.c ****     motor->dt = DWT_GetDeltaT(&motor->feed_cnt);
 131:modules/motor/DJImotor/dji_motor.c **** 
 132:modules/motor/DJImotor/dji_motor.c ****     // и§Јжһҗж•°жҚ®е№¶еҜ№з”өжөҒе’ҢйҖҹеәҰиҝӣиЎҢж»Өжіў,з”өжңәзҡ„еҸҚйҰҲжҠҘж–Үе…·дҪ“ж јејҸи§Ғз”өжңәиҜҙж
 133:modules/motor/DJImotor/dji_motor.c ****     measure->last_ecd = measure->ecd;
 134:modules/motor/DJImotor/dji_motor.c ****     measure->ecd = ((uint16_t)rxbuff[0]) << 8 | rxbuff[1];
 135:modules/motor/DJImotor/dji_motor.c ****     measure->angle_single_round = ECD_ANGLE_COEF_DJI * (float)measure->ecd;
 136:modules/motor/DJImotor/dji_motor.c ****     measure->speed_aps = (1.0f - SPEED_SMOOTH_COEF) * measure->speed_aps +
 137:modules/motor/DJImotor/dji_motor.c ****                          RPM_2_ANGLE_PER_SEC * SPEED_SMOOTH_COEF * (float)((int16_t)(rxbuff[2] << 8
 138:modules/motor/DJImotor/dji_motor.c ****     measure->real_current = (1.0f - CURRENT_SMOOTH_COEF) * measure->real_current +
 139:modules/motor/DJImotor/dji_motor.c ****                             CURRENT_SMOOTH_COEF * (float)((int16_t)(rxbuff[4] << 8 | rxbuff[5]));
 140:modules/motor/DJImotor/dji_motor.c ****     measure->temperature = rxbuff[6];
 141:modules/motor/DJImotor/dji_motor.c **** 
 142:modules/motor/DJImotor/dji_motor.c ****     // еӨҡеңҲи§’еәҰи®Ўз®—,еүҚжҸҗжҳҜеҒҮи®ҫдёӨж¬ЎйҮҮж ·й—ҙз”өжңәиҪ¬иҝҮзҡ„и§’еәҰе°ҸдәҺ180В°,иҮӘе·ұз”»д
 143:modules/motor/DJImotor/dji_motor.c ****     if (measure->ecd - measure->last_ecd > 4096)
 144:modules/motor/DJImotor/dji_motor.c ****         measure->total_round--;
 145:modules/motor/DJImotor/dji_motor.c ****     else if (measure->ecd - measure->last_ecd < -4096)
 146:modules/motor/DJImotor/dji_motor.c ****         measure->total_round++;
 147:modules/motor/DJImotor/dji_motor.c ****     measure->total_angle = measure->total_round * 360 + measure->angle_single_round;
 148:modules/motor/DJImotor/dji_motor.c **** }
 149:modules/motor/DJImotor/dji_motor.c **** 
 150:modules/motor/DJImotor/dji_motor.c **** static void DJIMotorLostCallback(void *motor_ptr)
 151:modules/motor/DJImotor/dji_motor.c **** {
 325              		.loc 1 151 1 is_stmt 1 view -0
 326              		.cfi_startproc
 327              		@ args = 0, pretend = 0, frame = 0
 328              		@ frame_needed = 0, uses_anonymous_args = 0
 329              		@ link register save eliminated.
 152:modules/motor/DJImotor/dji_motor.c ****     DJIMotorInstance *motor = (DJIMotorInstance *)motor_ptr;
 330              		.loc 1 152 5 view .LVU103
 153:modules/motor/DJImotor/dji_motor.c ****     uint16_t can_bus = motor->motor_can_instance->can_handle == &hcan1 ? 1 : 2;
 331              		.loc 1 153 5 view .LVU104
 154:modules/motor/DJImotor/dji_motor.c ****     LOGWARNING("[dji_motor] Motor lost, can bus [%d] , id [%d]", can_bus, motor->motor_can_instance
 332              		.loc 1 154 108 view .LVU105
 155:modules/motor/DJImotor/dji_motor.c **** }
 333              		.loc 1 155 1 is_stmt 0 view .LVU106
 334 0000 7047     		bx	lr
 335              		.cfi_endproc
 336              	.LFE273:
 338              		.section	.text.DecodeDJIMotor,"ax",%progbits
 339              		.align	1
 340              		.syntax unified
 341              		.thumb
 342              		.thumb_func
 344              	DecodeDJIMotor:
 345              	.LVL29:
ARM GAS  C:\Users\ADMINI~1\AppData\Local\Temp\ccC7P2iN.s 			page 10


 346              	.LFB272:
 122:modules/motor/DJImotor/dji_motor.c ****     // иҝҷйҮҢеҜ№can instanceзҡ„idиҝӣиЎҢдәҶејәеҲ¶иҪ¬жҚў,д»ҺиҖҢиҺ·еҫ—з”өжңәзҡ„instanceе®һдҫӢең°еқҖ
 347              		.loc 1 122 1 is_stmt 1 view -0
 348              		.cfi_startproc
 349              		@ args = 0, pretend = 0, frame = 0
 350              		@ frame_needed = 0, uses_anonymous_args = 0
 122:modules/motor/DJImotor/dji_motor.c ****     // иҝҷйҮҢеҜ№can instanceзҡ„idиҝӣиЎҢдәҶејәеҲ¶иҪ¬жҚў,д»ҺиҖҢиҺ·еҫ—з”өжңәзҡ„instanceе®һдҫӢең°еқҖ
 351              		.loc 1 122 1 is_stmt 0 view .LVU108
 352 0000 38B5     		push	{r3, r4, r5, lr}
 353              	.LCFI2:
 354              		.cfi_def_cfa_offset 16
 355              		.cfi_offset 3, -16
 356              		.cfi_offset 4, -12
 357              		.cfi_offset 5, -8
 358              		.cfi_offset 14, -4
 359 0002 0546     		mov	r5, r0
 125:modules/motor/DJImotor/dji_motor.c ****     DJIMotorInstance *motor = (DJIMotorInstance *)_instance->id;
 360              		.loc 1 125 5 is_stmt 1 view .LVU109
 361              	.LVL30:
 126:modules/motor/DJImotor/dji_motor.c ****     DJI_Motor_Measure_s *measure = &motor->measure; // measureиҰҒеӨҡж¬ЎдҪҝз”Ё,дҝқеӯҳжҢҮй’ҲеҮҸе°Ҹи®ҝ
 362              		.loc 1 126 5 view .LVU110
 126:modules/motor/DJImotor/dji_motor.c ****     DJI_Motor_Measure_s *measure = &motor->measure; // measureиҰҒеӨҡж¬ЎдҪҝз”Ё,дҝқеӯҳжҢҮй’ҲеҮҸе°Ҹи®ҝ
 363              		.loc 1 126 23 is_stmt 0 view .LVU111
 364 0004 D0F84140 		ldr	r4, [r0, #65]	@ unaligned
 365              	.LVL31:
 127:modules/motor/DJImotor/dji_motor.c **** 
 366              		.loc 1 127 5 is_stmt 1 view .LVU112
 129:modules/motor/DJImotor/dji_motor.c ****     motor->dt = DWT_GetDeltaT(&motor->feed_cnt);
 367              		.loc 1 129 5 view .LVU113
 368 0008 D4F8AC01 		ldr	r0, [r4, #428]
 369              	.LVL32:
 129:modules/motor/DJImotor/dji_motor.c ****     motor->dt = DWT_GetDeltaT(&motor->feed_cnt);
 370              		.loc 1 129 5 is_stmt 0 view .LVU114
 371 000c FFF7FEFF 		bl	DaemonReload
 372              	.LVL33:
 130:modules/motor/DJImotor/dji_motor.c **** 
 373              		.loc 1 130 5 is_stmt 1 view .LVU115
 130:modules/motor/DJImotor/dji_motor.c **** 
 374              		.loc 1 130 17 is_stmt 0 view .LVU116
 375 0010 04F5D870 		add	r0, r4, #432
 376 0014 FFF7FEFF 		bl	DWT_GetDeltaT
 377              	.LVL34:
 130:modules/motor/DJImotor/dji_motor.c **** 
 378              		.loc 1 130 15 discriminator 1 view .LVU117
 379 0018 84ED6D0A 		vstr.32	s0, [r4, #436]
 133:modules/motor/DJImotor/dji_motor.c ****     measure->ecd = ((uint16_t)rxbuff[0]) << 8 | rxbuff[1];
 380              		.loc 1 133 5 is_stmt 1 view .LVU118
 133:modules/motor/DJImotor/dji_motor.c ****     measure->ecd = ((uint16_t)rxbuff[0]) << 8 | rxbuff[1];
 381              		.loc 1 133 32 is_stmt 0 view .LVU119
 382 001c 6188     		ldrh	r1, [r4, #2]
 133:modules/motor/DJImotor/dji_motor.c ****     measure->ecd = ((uint16_t)rxbuff[0]) << 8 | rxbuff[1];
 383              		.loc 1 133 23 view .LVU120
 384 001e 2180     		strh	r1, [r4]	@ movhi
 134:modules/motor/DJImotor/dji_motor.c ****     measure->angle_single_round = ECD_ANGLE_COEF_DJI * (float)measure->ecd;
 385              		.loc 1 134 5 is_stmt 1 view .LVU121
 134:modules/motor/DJImotor/dji_motor.c ****     measure->angle_single_round = ECD_ANGLE_COEF_DJI * (float)measure->ecd;
 386              		.loc 1 134 37 is_stmt 0 view .LVU122
ARM GAS  C:\Users\ADMINI~1\AppData\Local\Temp\ccC7P2iN.s 			page 11


 387 0020 95F82C30 		ldrb	r3, [r5, #44]	@ zero_extendqisi2
 134:modules/motor/DJImotor/dji_motor.c ****     measure->angle_single_round = ECD_ANGLE_COEF_DJI * (float)measure->ecd;
 388              		.loc 1 134 55 view .LVU123
 389 0024 95F82D20 		ldrb	r2, [r5, #45]	@ zero_extendqisi2
 134:modules/motor/DJImotor/dji_motor.c ****     measure->angle_single_round = ECD_ANGLE_COEF_DJI * (float)measure->ecd;
 390              		.loc 1 134 47 view .LVU124
 391 0028 42EA0322 		orr	r2, r2, r3, lsl #8
 134:modules/motor/DJImotor/dji_motor.c ****     measure->angle_single_round = ECD_ANGLE_COEF_DJI * (float)measure->ecd;
 392              		.loc 1 134 18 view .LVU125
 393 002c 6280     		strh	r2, [r4, #2]	@ movhi
 135:modules/motor/DJImotor/dji_motor.c ****     measure->speed_aps = (1.0f - SPEED_SMOOTH_COEF) * measure->speed_aps +
 394              		.loc 1 135 5 is_stmt 1 view .LVU126
 135:modules/motor/DJImotor/dji_motor.c ****     measure->speed_aps = (1.0f - SPEED_SMOOTH_COEF) * measure->speed_aps +
 395              		.loc 1 135 56 is_stmt 0 view .LVU127
 396 002e 07EE902A 		vmov	s15, r2	@ int
 397 0032 F8EE676A 		vcvt.f32.u32	s13, s15
 135:modules/motor/DJImotor/dji_motor.c ****     measure->speed_aps = (1.0f - SPEED_SMOOTH_COEF) * measure->speed_aps +
 398              		.loc 1 135 54 view .LVU128
 399 0036 DFED2F7A 		vldr.32	s15, .L33
 400 003a 66EEA76A 		vmul.f32	s13, s13, s15
 135:modules/motor/DJImotor/dji_motor.c ****     measure->speed_aps = (1.0f - SPEED_SMOOTH_COEF) * measure->speed_aps +
 401              		.loc 1 135 33 view .LVU129
 402 003e C4ED016A 		vstr.32	s13, [r4, #4]
 136:modules/motor/DJImotor/dji_motor.c ****                          RPM_2_ANGLE_PER_SEC * SPEED_SMOOTH_COEF * (float)((int16_t)(rxbuff[2] << 8
 403              		.loc 1 136 5 is_stmt 1 view .LVU130
 136:modules/motor/DJImotor/dji_motor.c ****                          RPM_2_ANGLE_PER_SEC * SPEED_SMOOTH_COEF * (float)((int16_t)(rxbuff[2] << 8
 404              		.loc 1 136 62 is_stmt 0 view .LVU131
 405 0042 D4ED027A 		vldr.32	s15, [r4, #8]
 136:modules/motor/DJImotor/dji_motor.c ****                          RPM_2_ANGLE_PER_SEC * SPEED_SMOOTH_COEF * (float)((int16_t)(rxbuff[2] << 8
 406              		.loc 1 136 53 view .LVU132
 407 0046 9FED2C7A 		vldr.32	s14, .L33+4
 408 004a 27EE877A 		vmul.f32	s14, s15, s14
 137:modules/motor/DJImotor/dji_motor.c ****     measure->real_current = (1.0f - CURRENT_SMOOTH_COEF) * measure->real_current +
 409              		.loc 1 137 92 view .LVU133
 410 004e 95F82E00 		ldrb	r0, [r5, #46]	@ zero_extendqisi2
 137:modules/motor/DJImotor/dji_motor.c ****     measure->real_current = (1.0f - CURRENT_SMOOTH_COEF) * measure->real_current +
 411              		.loc 1 137 109 view .LVU134
 412 0052 95F82F30 		ldrb	r3, [r5, #47]	@ zero_extendqisi2
 137:modules/motor/DJImotor/dji_motor.c ****     measure->real_current = (1.0f - CURRENT_SMOOTH_COEF) * measure->real_current +
 413              		.loc 1 137 76 view .LVU135
 414 0056 43EA0023 		orr	r3, r3, r0, lsl #8
 415 005a 1BB2     		sxth	r3, r3
 416 005c 07EE903A 		vmov	s15, r3	@ int
 137:modules/motor/DJImotor/dji_motor.c ****     measure->real_current = (1.0f - CURRENT_SMOOTH_COEF) * measure->real_current +
 417              		.loc 1 137 68 view .LVU136
 418 0060 F8EEE77A 		vcvt.f32.s32	s15, s15
 137:modules/motor/DJImotor/dji_motor.c ****     measure->real_current = (1.0f - CURRENT_SMOOTH_COEF) * measure->real_current +
 419              		.loc 1 137 66 view .LVU137
 420 0064 9FED256A 		vldr.32	s12, .L33+8
 421 0068 67EE867A 		vmul.f32	s15, s15, s12
 136:modules/motor/DJImotor/dji_motor.c ****                          RPM_2_ANGLE_PER_SEC * SPEED_SMOOTH_COEF * (float)((int16_t)(rxbuff[2] << 8
 422              		.loc 1 136 74 view .LVU138
 423 006c 77EE277A 		vadd.f32	s15, s14, s15
 136:modules/motor/DJImotor/dji_motor.c ****                          RPM_2_ANGLE_PER_SEC * SPEED_SMOOTH_COEF * (float)((int16_t)(rxbuff[2] << 8
 424              		.loc 1 136 24 view .LVU139
 425 0070 C4ED027A 		vstr.32	s15, [r4, #8]
 138:modules/motor/DJImotor/dji_motor.c ****                             CURRENT_SMOOTH_COEF * (float)((int16_t)(rxbuff[4] << 8 | rxbuff[5]));
ARM GAS  C:\Users\ADMINI~1\AppData\Local\Temp\ccC7P2iN.s 			page 12


 426              		.loc 1 138 5 is_stmt 1 view .LVU140
 138:modules/motor/DJImotor/dji_motor.c ****                             CURRENT_SMOOTH_COEF * (float)((int16_t)(rxbuff[4] << 8 | rxbuff[5]));
 427              		.loc 1 138 67 is_stmt 0 view .LVU141
 428 0074 B4F90C30 		ldrsh	r3, [r4, #12]
 429 0078 07EE903A 		vmov	s15, r3	@ int
 138:modules/motor/DJImotor/dji_motor.c ****                             CURRENT_SMOOTH_COEF * (float)((int16_t)(rxbuff[4] << 8 | rxbuff[5]));
 430              		.loc 1 138 58 view .LVU142
 431 007c F8EEE77A 		vcvt.f32.s32	s15, s15
 432 0080 9FED1F7A 		vldr.32	s14, .L33+12
 433 0084 67EE877A 		vmul.f32	s15, s15, s14
 139:modules/motor/DJImotor/dji_motor.c ****     measure->temperature = rxbuff[6];
 434              		.loc 1 139 75 view .LVU143
 435 0088 95F83000 		ldrb	r0, [r5, #48]	@ zero_extendqisi2
 139:modules/motor/DJImotor/dji_motor.c ****     measure->temperature = rxbuff[6];
 436              		.loc 1 139 92 view .LVU144
 437 008c 95F83130 		ldrb	r3, [r5, #49]	@ zero_extendqisi2
 139:modules/motor/DJImotor/dji_motor.c ****     measure->temperature = rxbuff[6];
 438              		.loc 1 139 59 view .LVU145
 439 0090 43EA0023 		orr	r3, r3, r0, lsl #8
 440 0094 1BB2     		sxth	r3, r3
 441 0096 07EE103A 		vmov	s14, r3	@ int
 139:modules/motor/DJImotor/dji_motor.c ****     measure->temperature = rxbuff[6];
 442              		.loc 1 139 51 view .LVU146
 443 009a B8EEC77A 		vcvt.f32.s32	s14, s14
 139:modules/motor/DJImotor/dji_motor.c ****     measure->temperature = rxbuff[6];
 444              		.loc 1 139 49 view .LVU147
 445 009e 9FED196A 		vldr.32	s12, .L33+16
 446 00a2 27EE067A 		vmul.f32	s14, s14, s12
 138:modules/motor/DJImotor/dji_motor.c ****                             CURRENT_SMOOTH_COEF * (float)((int16_t)(rxbuff[4] << 8 | rxbuff[5]));
 447              		.loc 1 138 82 view .LVU148
 448 00a6 77EE877A 		vadd.f32	s15, s15, s14
 138:modules/motor/DJImotor/dji_motor.c ****                             CURRENT_SMOOTH_COEF * (float)((int16_t)(rxbuff[4] << 8 | rxbuff[5]));
 449              		.loc 1 138 27 view .LVU149
 450 00aa FDEEE77A 		vcvt.s32.f32	s15, s15
 451 00ae 17EE903A 		vmov	r3, s15	@ int
 452 00b2 A381     		strh	r3, [r4, #12]	@ movhi
 140:modules/motor/DJImotor/dji_motor.c **** 
 453              		.loc 1 140 5 is_stmt 1 view .LVU150
 140:modules/motor/DJImotor/dji_motor.c **** 
 454              		.loc 1 140 26 is_stmt 0 view .LVU151
 455 00b4 95F83230 		ldrb	r3, [r5, #50]	@ zero_extendqisi2
 456 00b8 A373     		strb	r3, [r4, #14]
 143:modules/motor/DJImotor/dji_motor.c ****         measure->total_round--;
 457              		.loc 1 143 5 is_stmt 1 view .LVU152
 143:modules/motor/DJImotor/dji_motor.c ****         measure->total_round--;
 458              		.loc 1 143 22 is_stmt 0 view .LVU153
 459 00ba 521A     		subs	r2, r2, r1
 143:modules/motor/DJImotor/dji_motor.c ****         measure->total_round--;
 460              		.loc 1 143 8 view .LVU154
 461 00bc B2F5805F 		cmp	r2, #4096
 462 00c0 10DD     		ble	.L30
 144:modules/motor/DJImotor/dji_motor.c ****     else if (measure->ecd - measure->last_ecd < -4096)
 463              		.loc 1 144 9 is_stmt 1 view .LVU155
 144:modules/motor/DJImotor/dji_motor.c ****     else if (measure->ecd - measure->last_ecd < -4096)
 464              		.loc 1 144 16 is_stmt 0 view .LVU156
 465 00c2 6369     		ldr	r3, [r4, #20]
 144:modules/motor/DJImotor/dji_motor.c ****     else if (measure->ecd - measure->last_ecd < -4096)
ARM GAS  C:\Users\ADMINI~1\AppData\Local\Temp\ccC7P2iN.s 			page 13


 466              		.loc 1 144 29 view .LVU157
 467 00c4 013B     		subs	r3, r3, #1
 468 00c6 6361     		str	r3, [r4, #20]
 469              	.L31:
 147:modules/motor/DJImotor/dji_motor.c **** }
 470              		.loc 1 147 5 is_stmt 1 view .LVU158
 147:modules/motor/DJImotor/dji_motor.c **** }
 471              		.loc 1 147 35 is_stmt 0 view .LVU159
 472 00c8 6369     		ldr	r3, [r4, #20]
 147:modules/motor/DJImotor/dji_motor.c **** }
 473              		.loc 1 147 49 view .LVU160
 474 00ca 4FF4B472 		mov	r2, #360
 475 00ce 02FB03F3 		mul	r3, r2, r3
 476 00d2 07EE903A 		vmov	s15, r3	@ int
 147:modules/motor/DJImotor/dji_motor.c **** }
 477              		.loc 1 147 55 view .LVU161
 478 00d6 F8EEE77A 		vcvt.f32.s32	s15, s15
 479 00da 77EEA67A 		vadd.f32	s15, s15, s13
 147:modules/motor/DJImotor/dji_motor.c **** }
 480              		.loc 1 147 26 view .LVU162
 481 00de C4ED047A 		vstr.32	s15, [r4, #16]
 148:modules/motor/DJImotor/dji_motor.c **** 
 482              		.loc 1 148 1 view .LVU163
 483 00e2 38BD     		pop	{r3, r4, r5, pc}
 484              	.LVL35:
 485              	.L30:
 145:modules/motor/DJImotor/dji_motor.c ****         measure->total_round++;
 486              		.loc 1 145 10 is_stmt 1 view .LVU164
 145:modules/motor/DJImotor/dji_motor.c ****         measure->total_round++;
 487              		.loc 1 145 13 is_stmt 0 view .LVU165
 488 00e4 12F5805F 		cmn	r2, #4096
 489 00e8 EEDA     		bge	.L31
 146:modules/motor/DJImotor/dji_motor.c ****     measure->total_angle = measure->total_round * 360 + measure->angle_single_round;
 490              		.loc 1 146 9 is_stmt 1 view .LVU166
 146:modules/motor/DJImotor/dji_motor.c ****     measure->total_angle = measure->total_round * 360 + measure->angle_single_round;
 491              		.loc 1 146 16 is_stmt 0 view .LVU167
 492 00ea 6369     		ldr	r3, [r4, #20]
 146:modules/motor/DJImotor/dji_motor.c ****     measure->total_angle = measure->total_round * 360 + measure->angle_single_round;
 493              		.loc 1 146 29 view .LVU168
 494 00ec 0133     		adds	r3, r3, #1
 495 00ee 6361     		str	r3, [r4, #20]
 496 00f0 EAE7     		b	.L31
 497              	.L34:
 498 00f2 00BF     		.align	2
 499              	.L33:
 500 00f4 ACFF333D 		.word	1026817964
 501 00f8 9899193E 		.word	1041865112
 502 00fc 3433A340 		.word	1084437300
 503 0100 D0CCCC3D 		.word	1036831952
 504 0104 6666663F 		.word	1063675494
 505              		.cfi_endproc
 506              	.LFE272:
 508              		.section	.text.DJIMotorChangeFeed,"ax",%progbits
 509              		.align	1
 510              		.global	DJIMotorChangeFeed
 511              		.syntax unified
 512              		.thumb
ARM GAS  C:\Users\ADMINI~1\AppData\Local\Temp\ccC7P2iN.s 			page 14


 513              		.thumb_func
 515              	DJIMotorChangeFeed:
 516              	.LVL36:
 517              	.LFB275:
 156:modules/motor/DJImotor/dji_motor.c **** 
 157:modules/motor/DJImotor/dji_motor.c **** // з”өжңәеҲқе§ӢеҢ–,иҝ”еӣһдёҖдёӘз”өжңәе®һдҫӢ
 158:modules/motor/DJImotor/dji_motor.c **** DJIMotorInstance *DJIMotorInit(Motor_Init_Config_s *config)
 159:modules/motor/DJImotor/dji_motor.c **** {
 160:modules/motor/DJImotor/dji_motor.c ****     DJIMotorInstance *instance = (DJIMotorInstance *)malloc(sizeof(DJIMotorInstance));
 161:modules/motor/DJImotor/dji_motor.c ****     memset(instance, 0, sizeof(DJIMotorInstance));
 162:modules/motor/DJImotor/dji_motor.c **** 
 163:modules/motor/DJImotor/dji_motor.c ****     // motor basic setting з”өжңәеҹәжң¬и®ҫзҪ®
 164:modules/motor/DJImotor/dji_motor.c ****     instance->motor_type = config->motor_type;                         // 6020 or 2006 or 3508
 165:modules/motor/DJImotor/dji_motor.c ****     instance->motor_settings = config->controller_setting_init_config; // жӯЈеҸҚиҪ¬,й—ӯзҺҜзұ»еһӢзӯү
 166:modules/motor/DJImotor/dji_motor.c **** 
 167:modules/motor/DJImotor/dji_motor.c ****     // motor controller init з”өжңәжҺ§еҲ¶еҷЁеҲқе§ӢеҢ–
 168:modules/motor/DJImotor/dji_motor.c ****     PIDInit(&instance->motor_controller.current_PID, &config->controller_param_init_config.current_
 169:modules/motor/DJImotor/dji_motor.c ****     PIDInit(&instance->motor_controller.speed_PID, &config->controller_param_init_config.speed_PID)
 170:modules/motor/DJImotor/dji_motor.c ****     PIDInit(&instance->motor_controller.angle_PID, &config->controller_param_init_config.angle_PID)
 171:modules/motor/DJImotor/dji_motor.c ****     instance->motor_controller.other_angle_feedback_ptr = config->controller_param_init_config.othe
 172:modules/motor/DJImotor/dji_motor.c ****     instance->motor_controller.other_speed_feedback_ptr = config->controller_param_init_config.othe
 173:modules/motor/DJImotor/dji_motor.c ****     instance->motor_controller.current_feedforward_ptr = config->controller_param_init_config.curre
 174:modules/motor/DJImotor/dji_motor.c ****     instance->motor_controller.speed_feedforward_ptr = config->controller_param_init_config.speed_f
 175:modules/motor/DJImotor/dji_motor.c ****     // еҗҺз»ӯеўһеҠ з”өжңәеүҚйҰҲжҺ§еҲ¶еҷЁ(йҖҹеәҰе’Ңз”өжөҒ)
 176:modules/motor/DJImotor/dji_motor.c **** 
 177:modules/motor/DJImotor/dji_motor.c ****     // з”өжңәеҲҶз»„,еӣ дёәиҮіеӨҡ4дёӘз”өжңәеҸҜд»Ҙе…ұз”ЁдёҖеё§CANжҺ§еҲ¶жҠҘж–Ү
 178:modules/motor/DJImotor/dji_motor.c ****     MotorSenderGrouping(instance, &config->can_init_config);
 179:modules/motor/DJImotor/dji_motor.c **** 
 180:modules/motor/DJImotor/dji_motor.c ****     // жіЁеҶҢз”өжңәеҲ°CANжҖ»зәҝ
 181:modules/motor/DJImotor/dji_motor.c ****     config->can_init_config.can_module_callback = DecodeDJIMotor; // set callback
 182:modules/motor/DJImotor/dji_motor.c ****     config->can_init_config.id = instance;                        // set id,eq to address(it is ide
 183:modules/motor/DJImotor/dji_motor.c ****     instance->motor_can_instance = CANRegister(&config->can_init_config);
 184:modules/motor/DJImotor/dji_motor.c **** 
 185:modules/motor/DJImotor/dji_motor.c ****     // жіЁеҶҢе®ҲжҠӨзәҝзЁӢ
 186:modules/motor/DJImotor/dji_motor.c ****     Daemon_Init_Config_s daemon_config = {
 187:modules/motor/DJImotor/dji_motor.c ****         .callback = DJIMotorLostCallback,
 188:modules/motor/DJImotor/dji_motor.c ****         .owner_id = instance,
 189:modules/motor/DJImotor/dji_motor.c ****         .reload_count = 2, // 20msжңӘж”¶еҲ°ж•°жҚ®еҲҷдёўеӨұ
 190:modules/motor/DJImotor/dji_motor.c ****     };
 191:modules/motor/DJImotor/dji_motor.c ****     instance->daemon = DaemonRegister(&daemon_config);
 192:modules/motor/DJImotor/dji_motor.c **** 
 193:modules/motor/DJImotor/dji_motor.c ****     DJIMotorEnable(instance);
 194:modules/motor/DJImotor/dji_motor.c ****     dji_motor_instance[idx++] = instance;
 195:modules/motor/DJImotor/dji_motor.c ****     return instance;
 196:modules/motor/DJImotor/dji_motor.c **** }
 197:modules/motor/DJImotor/dji_motor.c **** 
 198:modules/motor/DJImotor/dji_motor.c **** /* з”өжөҒеҸӘиғҪйҖҡиҝҮз”өжңәиҮӘеёҰдј ж„ҹеҷЁзӣ‘жөӢ,еҗҺз»ӯиҖғиҷ‘еҠ е…ҘеҠӣзҹ©дј ж„ҹеҷЁеә”еҸҳзүҮзӯү */
 199:modules/motor/DJImotor/dji_motor.c **** void DJIMotorChangeFeed(DJIMotorInstance *motor, Closeloop_Type_e loop, Feedback_Source_e type)
 200:modules/motor/DJImotor/dji_motor.c **** {
 518              		.loc 1 200 1 is_stmt 1 view -0
 519              		.cfi_startproc
 520              		@ args = 0, pretend = 0, frame = 0
 521              		@ frame_needed = 0, uses_anonymous_args = 0
 522              		@ link register save eliminated.
 201:modules/motor/DJImotor/dji_motor.c ****     if (loop == ANGLE_LOOP)
 523              		.loc 1 201 5 view .LVU170
 524              		.loc 1 201 8 is_stmt 0 view .LVU171
ARM GAS  C:\Users\ADMINI~1\AppData\Local\Temp\ccC7P2iN.s 			page 15


 525 0000 0429     		cmp	r1, #4
 526 0002 02D0     		beq	.L38
 202:modules/motor/DJImotor/dji_motor.c ****         motor->motor_settings.angle_feedback_source = type;
 203:modules/motor/DJImotor/dji_motor.c ****     else if (loop == SPEED_LOOP)
 527              		.loc 1 203 10 is_stmt 1 view .LVU172
 528              		.loc 1 203 13 is_stmt 0 view .LVU173
 529 0004 0229     		cmp	r1, #2
 530 0006 02D0     		beq	.L39
 531              	.L35:
 204:modules/motor/DJImotor/dji_motor.c ****         motor->motor_settings.speed_feedback_source = type;
 205:modules/motor/DJImotor/dji_motor.c ****     else
 206:modules/motor/DJImotor/dji_motor.c ****         LOGERROR("[dji_motor] loop type error, check memory access and func param"); // жЈҖжҹҘжҳҜеҗ
 207:modules/motor/DJImotor/dji_motor.c **** }
 532              		.loc 1 207 1 view .LVU174
 533 0008 7047     		bx	lr
 534              	.L38:
 202:modules/motor/DJImotor/dji_motor.c ****         motor->motor_settings.angle_feedback_source = type;
 535              		.loc 1 202 9 is_stmt 1 view .LVU175
 202:modules/motor/DJImotor/dji_motor.c ****         motor->motor_settings.angle_feedback_source = type;
 536              		.loc 1 202 53 is_stmt 0 view .LVU176
 537 000a 0277     		strb	r2, [r0, #28]
 538 000c 7047     		bx	lr
 539              	.L39:
 204:modules/motor/DJImotor/dji_motor.c ****         motor->motor_settings.speed_feedback_source = type;
 540              		.loc 1 204 9 is_stmt 1 view .LVU177
 204:modules/motor/DJImotor/dji_motor.c ****         motor->motor_settings.speed_feedback_source = type;
 541              		.loc 1 204 53 is_stmt 0 view .LVU178
 542 000e 4277     		strb	r2, [r0, #29]
 543              		.loc 1 207 1 view .LVU179
 544 0010 FAE7     		b	.L35
 545              		.cfi_endproc
 546              	.LFE275:
 548              		.section	.text.DJIMotorStop,"ax",%progbits
 549              		.align	1
 550              		.global	DJIMotorStop
 551              		.syntax unified
 552              		.thumb
 553              		.thumb_func
 555              	DJIMotorStop:
 556              	.LVL37:
 557              	.LFB276:
 208:modules/motor/DJImotor/dji_motor.c **** 
 209:modules/motor/DJImotor/dji_motor.c **** void DJIMotorStop(DJIMotorInstance *motor)
 210:modules/motor/DJImotor/dji_motor.c **** {
 558              		.loc 1 210 1 is_stmt 1 view -0
 559              		.cfi_startproc
 560              		@ args = 0, pretend = 0, frame = 0
 561              		@ frame_needed = 0, uses_anonymous_args = 0
 562              		@ link register save eliminated.
 211:modules/motor/DJImotor/dji_motor.c ****     motor->stop_flag = MOTOR_STOP;
 563              		.loc 1 211 5 view .LVU181
 564              		.loc 1 211 22 is_stmt 0 view .LVU182
 565 0000 0023     		movs	r3, #0
 566 0002 80F8A731 		strb	r3, [r0, #423]
 212:modules/motor/DJImotor/dji_motor.c **** }
 567              		.loc 1 212 1 view .LVU183
 568 0006 7047     		bx	lr
ARM GAS  C:\Users\ADMINI~1\AppData\Local\Temp\ccC7P2iN.s 			page 16


 569              		.cfi_endproc
 570              	.LFE276:
 572              		.section	.text.DJIMotorEnable,"ax",%progbits
 573              		.align	1
 574              		.global	DJIMotorEnable
 575              		.syntax unified
 576              		.thumb
 577              		.thumb_func
 579              	DJIMotorEnable:
 580              	.LVL38:
 581              	.LFB277:
 213:modules/motor/DJImotor/dji_motor.c **** 
 214:modules/motor/DJImotor/dji_motor.c **** void DJIMotorEnable(DJIMotorInstance *motor)
 215:modules/motor/DJImotor/dji_motor.c **** {
 582              		.loc 1 215 1 is_stmt 1 view -0
 583              		.cfi_startproc
 584              		@ args = 0, pretend = 0, frame = 0
 585              		@ frame_needed = 0, uses_anonymous_args = 0
 586              		@ link register save eliminated.
 216:modules/motor/DJImotor/dji_motor.c ****     motor->stop_flag = MOTOR_ENALBED;
 587              		.loc 1 216 5 view .LVU185
 588              		.loc 1 216 22 is_stmt 0 view .LVU186
 589 0000 0123     		movs	r3, #1
 590 0002 80F8A731 		strb	r3, [r0, #423]
 217:modules/motor/DJImotor/dji_motor.c **** }
 591              		.loc 1 217 1 view .LVU187
 592 0006 7047     		bx	lr
 593              		.cfi_endproc
 594              	.LFE277:
 596              		.section	.text.DJIMotorInit,"ax",%progbits
 597              		.align	1
 598              		.global	DJIMotorInit
 599              		.syntax unified
 600              		.thumb
 601              		.thumb_func
 603              	DJIMotorInit:
 604              	.LVL39:
 605              	.LFB274:
 159:modules/motor/DJImotor/dji_motor.c ****     DJIMotorInstance *instance = (DJIMotorInstance *)malloc(sizeof(DJIMotorInstance));
 606              		.loc 1 159 1 is_stmt 1 view -0
 607              		.cfi_startproc
 608              		@ args = 0, pretend = 0, frame = 16
 609              		@ frame_needed = 0, uses_anonymous_args = 0
 159:modules/motor/DJImotor/dji_motor.c ****     DJIMotorInstance *instance = (DJIMotorInstance *)malloc(sizeof(DJIMotorInstance));
 610              		.loc 1 159 1 is_stmt 0 view .LVU189
 611 0000 70B5     		push	{r4, r5, r6, lr}
 612              	.LCFI3:
 613              		.cfi_def_cfa_offset 16
 614              		.cfi_offset 4, -16
 615              		.cfi_offset 5, -12
 616              		.cfi_offset 6, -8
 617              		.cfi_offset 14, -4
 618 0002 84B0     		sub	sp, sp, #16
 619              	.LCFI4:
 620              		.cfi_def_cfa_offset 32
 621 0004 0546     		mov	r5, r0
 160:modules/motor/DJImotor/dji_motor.c ****     memset(instance, 0, sizeof(DJIMotorInstance));
ARM GAS  C:\Users\ADMINI~1\AppData\Local\Temp\ccC7P2iN.s 			page 17


 622              		.loc 1 160 5 is_stmt 1 view .LVU190
 160:modules/motor/DJImotor/dji_motor.c ****     memset(instance, 0, sizeof(DJIMotorInstance));
 623              		.loc 1 160 54 is_stmt 0 view .LVU191
 624 0006 4FF4DC70 		mov	r0, #440
 625              	.LVL40:
 160:modules/motor/DJImotor/dji_motor.c ****     memset(instance, 0, sizeof(DJIMotorInstance));
 626              		.loc 1 160 54 view .LVU192
 627 000a FFF7FEFF 		bl	malloc
 628              	.LVL41:
 629 000e 0446     		mov	r4, r0
 630              	.LVL42:
 161:modules/motor/DJImotor/dji_motor.c **** 
 631              		.loc 1 161 5 is_stmt 1 view .LVU193
 632 0010 4FF4DC72 		mov	r2, #440
 633 0014 0021     		movs	r1, #0
 634 0016 FFF7FEFF 		bl	memset
 635              	.LVL43:
 164:modules/motor/DJImotor/dji_motor.c ****     instance->motor_settings = config->controller_setting_init_config; // жӯЈеҸҚиҪ¬,й—ӯзҺҜзұ»еһӢзӯү
 636              		.loc 1 164 5 view .LVU194
 164:modules/motor/DJImotor/dji_motor.c ****     instance->motor_settings = config->controller_setting_init_config; // жӯЈеҸҚиҪ¬,й—ӯзҺҜзұ»еһӢзӯү
 637              		.loc 1 164 34 is_stmt 0 view .LVU195
 638 001a 95F89C30 		ldrb	r3, [r5, #156]	@ zero_extendqisi2
 164:modules/motor/DJImotor/dji_motor.c ****     instance->motor_settings = config->controller_setting_init_config; // жӯЈеҸҚиҪ¬,й—ӯзҺҜзұ»еһӢзӯү
 639              		.loc 1 164 26 view .LVU196
 640 001e 84F8A631 		strb	r3, [r4, #422]
 165:modules/motor/DJImotor/dji_motor.c **** 
 641              		.loc 1 165 5 is_stmt 1 view .LVU197
 165:modules/motor/DJImotor/dji_motor.c **** 
 642              		.loc 1 165 30 is_stmt 0 view .LVU198
 643 0022 04F11803 		add	r3, r4, #24
 644 0026 05F19402 		add	r2, r5, #148
 645 002a 92E80300 		ldm	r2, {r0, r1}
 646 002e 83E80300 		stm	r3, {r0, r1}
 168:modules/motor/DJImotor/dji_motor.c ****     PIDInit(&instance->motor_controller.speed_PID, &config->controller_param_init_config.speed_PID)
 647              		.loc 1 168 5 is_stmt 1 view .LVU199
 648 0032 05F11001 		add	r1, r5, #16
 649 0036 04F13000 		add	r0, r4, #48
 650 003a FFF7FEFF 		bl	PIDInit
 651              	.LVL44:
 169:modules/motor/DJImotor/dji_motor.c ****     PIDInit(&instance->motor_controller.angle_PID, &config->controller_param_init_config.angle_PID)
 652              		.loc 1 169 5 view .LVU200
 653 003e 05F13C01 		add	r1, r5, #60
 654 0042 04F1A800 		add	r0, r4, #168
 655 0046 FFF7FEFF 		bl	PIDInit
 656              	.LVL45:
 170:modules/motor/DJImotor/dji_motor.c ****     instance->motor_controller.other_angle_feedback_ptr = config->controller_param_init_config.othe
 657              		.loc 1 170 5 view .LVU201
 658 004a 05F16801 		add	r1, r5, #104
 659 004e 04F59070 		add	r0, r4, #288
 660 0052 FFF7FEFF 		bl	PIDInit
 661              	.LVL46:
 171:modules/motor/DJImotor/dji_motor.c ****     instance->motor_controller.other_speed_feedback_ptr = config->controller_param_init_config.othe
 662              		.loc 1 171 5 view .LVU202
 171:modules/motor/DJImotor/dji_motor.c ****     instance->motor_controller.other_speed_feedback_ptr = config->controller_param_init_config.othe
 663              		.loc 1 171 95 is_stmt 0 view .LVU203
 664 0056 2B68     		ldr	r3, [r5]
 171:modules/motor/DJImotor/dji_motor.c ****     instance->motor_controller.other_speed_feedback_ptr = config->controller_param_init_config.othe
ARM GAS  C:\Users\ADMINI~1\AppData\Local\Temp\ccC7P2iN.s 			page 18


 665              		.loc 1 171 57 view .LVU204
 666 0058 2362     		str	r3, [r4, #32]
 172:modules/motor/DJImotor/dji_motor.c ****     instance->motor_controller.current_feedforward_ptr = config->controller_param_init_config.curre
 667              		.loc 1 172 5 is_stmt 1 view .LVU205
 172:modules/motor/DJImotor/dji_motor.c ****     instance->motor_controller.current_feedforward_ptr = config->controller_param_init_config.curre
 668              		.loc 1 172 95 is_stmt 0 view .LVU206
 669 005a 6B68     		ldr	r3, [r5, #4]
 172:modules/motor/DJImotor/dji_motor.c ****     instance->motor_controller.current_feedforward_ptr = config->controller_param_init_config.curre
 670              		.loc 1 172 57 view .LVU207
 671 005c 6362     		str	r3, [r4, #36]
 173:modules/motor/DJImotor/dji_motor.c ****     instance->motor_controller.speed_feedforward_ptr = config->controller_param_init_config.speed_f
 672              		.loc 1 173 5 is_stmt 1 view .LVU208
 173:modules/motor/DJImotor/dji_motor.c ****     instance->motor_controller.speed_feedforward_ptr = config->controller_param_init_config.speed_f
 673              		.loc 1 173 94 is_stmt 0 view .LVU209
 674 005e EB68     		ldr	r3, [r5, #12]
 173:modules/motor/DJImotor/dji_motor.c ****     instance->motor_controller.speed_feedforward_ptr = config->controller_param_init_config.speed_f
 675              		.loc 1 173 56 view .LVU210
 676 0060 E362     		str	r3, [r4, #44]
 174:modules/motor/DJImotor/dji_motor.c ****     // еҗҺз»ӯеўһеҠ з”өжңәеүҚйҰҲжҺ§еҲ¶еҷЁ(йҖҹеәҰе’Ңз”өжөҒ)
 677              		.loc 1 174 5 is_stmt 1 view .LVU211
 174:modules/motor/DJImotor/dji_motor.c ****     // еҗҺз»ӯеўһеҠ з”өжңәеүҚйҰҲжҺ§еҲ¶еҷЁ(йҖҹеәҰе’Ңз”өжөҒ)
 678              		.loc 1 174 92 is_stmt 0 view .LVU212
 679 0062 AB68     		ldr	r3, [r5, #8]
 174:modules/motor/DJImotor/dji_motor.c ****     // еҗҺз»ӯеўһеҠ з”өжңәеүҚйҰҲжҺ§еҲ¶еҷЁ(йҖҹеәҰе’Ңз”өжөҒ)
 680              		.loc 1 174 54 view .LVU213
 681 0064 A362     		str	r3, [r4, #40]
 178:modules/motor/DJImotor/dji_motor.c **** 
 682              		.loc 1 178 5 is_stmt 1 view .LVU214
 683 0066 05F1A006 		add	r6, r5, #160
 684 006a 3146     		mov	r1, r6
 685 006c 2046     		mov	r0, r4
 686 006e FFF7FEFF 		bl	MotorSenderGrouping
 687              	.LVL47:
 181:modules/motor/DJImotor/dji_motor.c ****     config->can_init_config.id = instance;                        // set id,eq to address(it is ide
 688              		.loc 1 181 5 view .LVU215
 181:modules/motor/DJImotor/dji_motor.c ****     config->can_init_config.id = instance;                        // set id,eq to address(it is ide
 689              		.loc 1 181 49 is_stmt 0 view .LVU216
 690 0072 134B     		ldr	r3, .L44
 691 0074 C5F8B430 		str	r3, [r5, #180]
 182:modules/motor/DJImotor/dji_motor.c ****     instance->motor_can_instance = CANRegister(&config->can_init_config);
 692              		.loc 1 182 5 is_stmt 1 view .LVU217
 182:modules/motor/DJImotor/dji_motor.c ****     instance->motor_can_instance = CANRegister(&config->can_init_config);
 693              		.loc 1 182 32 is_stmt 0 view .LVU218
 694 0078 C5F8B840 		str	r4, [r5, #184]
 183:modules/motor/DJImotor/dji_motor.c **** 
 695              		.loc 1 183 5 is_stmt 1 view .LVU219
 183:modules/motor/DJImotor/dji_motor.c **** 
 696              		.loc 1 183 36 is_stmt 0 view .LVU220
 697 007c 3046     		mov	r0, r6
 698 007e FFF7FEFF 		bl	CANRegister
 699              	.LVL48:
 183:modules/motor/DJImotor/dji_motor.c **** 
 700              		.loc 1 183 34 discriminator 1 view .LVU221
 701 0082 C4F8A001 		str	r0, [r4, #416]
 186:modules/motor/DJImotor/dji_motor.c ****         .callback = DJIMotorLostCallback,
 702              		.loc 1 186 5 is_stmt 1 view .LVU222
 186:modules/motor/DJImotor/dji_motor.c ****         .callback = DJIMotorLostCallback,
ARM GAS  C:\Users\ADMINI~1\AppData\Local\Temp\ccC7P2iN.s 			page 19


 703              		.loc 1 186 26 is_stmt 0 view .LVU223
 704 0086 0023     		movs	r3, #0
 705 0088 0193     		str	r3, [sp, #4]
 706 008a 0293     		str	r3, [sp, #8]
 707 008c 0393     		str	r3, [sp, #12]
 708 008e 0223     		movs	r3, #2
 709 0090 ADF80430 		strh	r3, [sp, #4]	@ movhi
 710 0094 0B4B     		ldr	r3, .L44+4
 711 0096 0293     		str	r3, [sp, #8]
 712 0098 0394     		str	r4, [sp, #12]
 191:modules/motor/DJImotor/dji_motor.c **** 
 713              		.loc 1 191 5 is_stmt 1 view .LVU224
 191:modules/motor/DJImotor/dji_motor.c **** 
 714              		.loc 1 191 24 is_stmt 0 view .LVU225
 715 009a 01A8     		add	r0, sp, #4
 716 009c FFF7FEFF 		bl	DaemonRegister
 717              	.LVL49:
 191:modules/motor/DJImotor/dji_motor.c **** 
 718              		.loc 1 191 22 discriminator 1 view .LVU226
 719 00a0 C4F8AC01 		str	r0, [r4, #428]
 193:modules/motor/DJImotor/dji_motor.c ****     dji_motor_instance[idx++] = instance;
 720              		.loc 1 193 5 is_stmt 1 view .LVU227
 721 00a4 2046     		mov	r0, r4
 722 00a6 FFF7FEFF 		bl	DJIMotorEnable
 723              	.LVL50:
 194:modules/motor/DJImotor/dji_motor.c ****     return instance;
 724              		.loc 1 194 5 view .LVU228
 194:modules/motor/DJImotor/dji_motor.c ****     return instance;
 725              		.loc 1 194 27 is_stmt 0 view .LVU229
 726 00aa 074A     		ldr	r2, .L44+8
 727 00ac 1378     		ldrb	r3, [r2]	@ zero_extendqisi2
 728 00ae 591C     		adds	r1, r3, #1
 729 00b0 1170     		strb	r1, [r2]
 194:modules/motor/DJImotor/dji_motor.c ****     return instance;
 730              		.loc 1 194 31 view .LVU230
 731 00b2 064A     		ldr	r2, .L44+12
 732 00b4 42F82340 		str	r4, [r2, r3, lsl #2]
 195:modules/motor/DJImotor/dji_motor.c **** }
 733              		.loc 1 195 5 is_stmt 1 view .LVU231
 196:modules/motor/DJImotor/dji_motor.c **** 
 734              		.loc 1 196 1 is_stmt 0 view .LVU232
 735 00b8 2046     		mov	r0, r4
 736 00ba 04B0     		add	sp, sp, #16
 737              	.LCFI5:
 738              		.cfi_def_cfa_offset 16
 739              		@ sp needed
 740 00bc 70BD     		pop	{r4, r5, r6, pc}
 741              	.LVL51:
 742              	.L45:
 196:modules/motor/DJImotor/dji_motor.c **** 
 743              		.loc 1 196 1 view .LVU233
 744 00be 00BF     		.align	2
 745              	.L44:
 746 00c0 00000000 		.word	DecodeDJIMotor
 747 00c4 00000000 		.word	DJIMotorLostCallback
 748 00c8 00000000 		.word	idx
 749 00cc 00000000 		.word	dji_motor_instance
ARM GAS  C:\Users\ADMINI~1\AppData\Local\Temp\ccC7P2iN.s 			page 20


 750              		.cfi_endproc
 751              	.LFE274:
 753              		.section	.text.DJIMotorIsOnline,"ax",%progbits
 754              		.align	1
 755              		.global	DJIMotorIsOnline
 756              		.syntax unified
 757              		.thumb
 758              		.thumb_func
 760              	DJIMotorIsOnline:
 761              	.LVL52:
 762              	.LFB278:
 218:modules/motor/DJImotor/dji_motor.c **** 
 219:modules/motor/DJImotor/dji_motor.c **** void DJIMotorIsOnline(DJIMotorInstance *motor)
 220:modules/motor/DJImotor/dji_motor.c **** {
 763              		.loc 1 220 1 is_stmt 1 view -0
 764              		.cfi_startproc
 765              		@ args = 0, pretend = 0, frame = 0
 766              		@ frame_needed = 0, uses_anonymous_args = 0
 767              		.loc 1 220 1 is_stmt 0 view .LVU235
 768 0000 10B5     		push	{r4, lr}
 769              	.LCFI6:
 770              		.cfi_def_cfa_offset 8
 771              		.cfi_offset 4, -8
 772              		.cfi_offset 14, -4
 773 0002 0446     		mov	r4, r0
 221:modules/motor/DJImotor/dji_motor.c ****     if (DaemonIsOnline(motor->daemon) > 0)
 774              		.loc 1 221 5 is_stmt 1 view .LVU236
 775              		.loc 1 221 9 is_stmt 0 view .LVU237
 776 0004 D0F8AC01 		ldr	r0, [r0, #428]
 777              	.LVL53:
 778              		.loc 1 221 9 view .LVU238
 779 0008 FFF7FEFF 		bl	DaemonIsOnline
 780              	.LVL54:
 781              		.loc 1 221 8 discriminator 1 view .LVU239
 782 000c 18B1     		cbz	r0, .L47
 222:modules/motor/DJImotor/dji_motor.c ****         motor->online_flag = MOTOR_ONLINE;
 783              		.loc 1 222 9 is_stmt 1 view .LVU240
 784              		.loc 1 222 28 is_stmt 0 view .LVU241
 785 000e 0023     		movs	r3, #0
 786 0010 84F8A831 		strb	r3, [r4, #424]
 787              	.L46:
 223:modules/motor/DJImotor/dji_motor.c ****     else
 224:modules/motor/DJImotor/dji_motor.c ****         motor->online_flag = MOTOR_OFFLINE;
 225:modules/motor/DJImotor/dji_motor.c **** }
 788              		.loc 1 225 1 view .LVU242
 789 0014 10BD     		pop	{r4, pc}
 790              	.LVL55:
 791              	.L47:
 224:modules/motor/DJImotor/dji_motor.c **** }
 792              		.loc 1 224 9 is_stmt 1 view .LVU243
 224:modules/motor/DJImotor/dji_motor.c **** }
 793              		.loc 1 224 28 is_stmt 0 view .LVU244
 794 0016 0123     		movs	r3, #1
 795 0018 84F8A831 		strb	r3, [r4, #424]
 796              		.loc 1 225 1 view .LVU245
 797 001c FAE7     		b	.L46
 798              		.cfi_endproc
ARM GAS  C:\Users\ADMINI~1\AppData\Local\Temp\ccC7P2iN.s 			page 21


 799              	.LFE278:
 801              		.section	.text.DJIMotorOuterLoop,"ax",%progbits
 802              		.align	1
 803              		.global	DJIMotorOuterLoop
 804              		.syntax unified
 805              		.thumb
 806              		.thumb_func
 808              	DJIMotorOuterLoop:
 809              	.LVL56:
 810              	.LFB279:
 226:modules/motor/DJImotor/dji_motor.c **** 
 227:modules/motor/DJImotor/dji_motor.c **** /* дҝ®ж”№з”өжңәзҡ„е®һйҷ…еӨ–зҺҜеҜ№иұЎ */
 228:modules/motor/DJImotor/dji_motor.c **** void DJIMotorOuterLoop(DJIMotorInstance *motor, Closeloop_Type_e outer_loop)
 229:modules/motor/DJImotor/dji_motor.c **** {
 811              		.loc 1 229 1 is_stmt 1 view -0
 812              		.cfi_startproc
 813              		@ args = 0, pretend = 0, frame = 0
 814              		@ frame_needed = 0, uses_anonymous_args = 0
 815              		@ link register save eliminated.
 230:modules/motor/DJImotor/dji_motor.c ****     motor->motor_settings.outer_loop_type = outer_loop;
 816              		.loc 1 230 5 view .LVU247
 817              		.loc 1 230 43 is_stmt 0 view .LVU248
 818 0000 0176     		strb	r1, [r0, #24]
 231:modules/motor/DJImotor/dji_motor.c **** }
 819              		.loc 1 231 1 view .LVU249
 820 0002 7047     		bx	lr
 821              		.cfi_endproc
 822              	.LFE279:
 824              		.section	.text.DJIMotorCloseLoop,"ax",%progbits
 825              		.align	1
 826              		.global	DJIMotorCloseLoop
 827              		.syntax unified
 828              		.thumb
 829              		.thumb_func
 831              	DJIMotorCloseLoop:
 832              	.LVL57:
 833              	.LFB280:
 232:modules/motor/DJImotor/dji_motor.c **** 
 233:modules/motor/DJImotor/dji_motor.c **** /* дҝ®ж”№з”өжңәзҡ„е®һйҷ…еӨ–зҺҜеҜ№иұЎ */
 234:modules/motor/DJImotor/dji_motor.c **** void DJIMotorCloseLoop(DJIMotorInstance *motor, Closeloop_Type_e outer_loop)
 235:modules/motor/DJImotor/dji_motor.c **** {
 834              		.loc 1 235 1 is_stmt 1 view -0
 835              		.cfi_startproc
 836              		@ args = 0, pretend = 0, frame = 0
 837              		@ frame_needed = 0, uses_anonymous_args = 0
 838              		@ link register save eliminated.
 236:modules/motor/DJImotor/dji_motor.c ****     motor->motor_settings.close_loop_type = outer_loop;
 839              		.loc 1 236 5 view .LVU251
 840              		.loc 1 236 43 is_stmt 0 view .LVU252
 841 0000 4176     		strb	r1, [r0, #25]
 237:modules/motor/DJImotor/dji_motor.c **** }
 842              		.loc 1 237 1 view .LVU253
 843 0002 7047     		bx	lr
 844              		.cfi_endproc
 845              	.LFE280:
 847              		.section	.text.DJIMotorSetRef,"ax",%progbits
 848              		.align	1
ARM GAS  C:\Users\ADMINI~1\AppData\Local\Temp\ccC7P2iN.s 			page 22


 849              		.global	DJIMotorSetRef
 850              		.syntax unified
 851              		.thumb
 852              		.thumb_func
 854              	DJIMotorSetRef:
 855              	.LVL58:
 856              	.LFB281:
 238:modules/motor/DJImotor/dji_motor.c **** 
 239:modules/motor/DJImotor/dji_motor.c **** // и®ҫзҪ®еҸӮиҖғеҖј
 240:modules/motor/DJImotor/dji_motor.c **** void DJIMotorSetRef(DJIMotorInstance *motor, float ref)
 241:modules/motor/DJImotor/dji_motor.c **** {
 857              		.loc 1 241 1 is_stmt 1 view -0
 858              		.cfi_startproc
 859              		@ args = 0, pretend = 0, frame = 0
 860              		@ frame_needed = 0, uses_anonymous_args = 0
 861              		@ link register save eliminated.
 242:modules/motor/DJImotor/dji_motor.c ****     motor->motor_controller.pid_ref = ref;
 862              		.loc 1 242 5 view .LVU255
 863              		.loc 1 242 37 is_stmt 0 view .LVU256
 864 0000 80ED660A 		vstr.32	s0, [r0, #408]
 243:modules/motor/DJImotor/dji_motor.c **** }
 865              		.loc 1 243 1 view .LVU257
 866 0004 7047     		bx	lr
 867              		.cfi_endproc
 868              	.LFE281:
 870              		.section	.text.DJIMotorControl,"ax",%progbits
 871              		.align	1
 872              		.global	DJIMotorControl
 873              		.syntax unified
 874              		.thumb
 875              		.thumb_func
 877              	DJIMotorControl:
 878              	.LFB282:
 244:modules/motor/DJImotor/dji_motor.c **** 
 245:modules/motor/DJImotor/dji_motor.c **** // дёәжүҖжңүз”өжңәе®һдҫӢи®Ўз®—дёүзҺҜPID,еҸ‘йҖҒжҺ§еҲ¶жҠҘж–Ү
 246:modules/motor/DJImotor/dji_motor.c **** void DJIMotorControl()
 247:modules/motor/DJImotor/dji_motor.c **** {
 879              		.loc 1 247 1 is_stmt 1 view -0
 880              		.cfi_startproc
 881              		@ args = 0, pretend = 0, frame = 0
 882              		@ frame_needed = 0, uses_anonymous_args = 0
 883 0000 70B5     		push	{r4, r5, r6, lr}
 884              	.LCFI7:
 885              		.cfi_def_cfa_offset 16
 886              		.cfi_offset 4, -16
 887              		.cfi_offset 5, -12
 888              		.cfi_offset 6, -8
 889              		.cfi_offset 14, -4
 248:modules/motor/DJImotor/dji_motor.c ****     // зӣҙжҺҘдҝқеӯҳдёҖж¬ЎжҢҮй’Ҳеј•з”Ёд»ҺиҖҢеҮҸе°Ҹи®ҝеӯҳзҡ„ејҖй”Җ,еҗҢж ·еҸҜд»ҘжҸҗй«ҳеҸҜиҜ»жҖ§
 249:modules/motor/DJImotor/dji_motor.c ****     uint8_t group, num; // з”өжңәз»„еҸ·е’Ңз»„еҶ…зј–еҸ·
 890              		.loc 1 249 5 view .LVU259
 250:modules/motor/DJImotor/dji_motor.c ****     int16_t set;        // з”өжңәжҺ§еҲ¶CANеҸ‘йҖҒи®ҫе®ҡеҖј
 891              		.loc 1 250 5 view .LVU260
 251:modules/motor/DJImotor/dji_motor.c ****     DJIMotorInstance *motor;
 892              		.loc 1 251 5 view .LVU261
 252:modules/motor/DJImotor/dji_motor.c ****     Motor_Control_Setting_s *motor_setting; // з”өжңәжҺ§еҲ¶еҸӮж•°
 893              		.loc 1 252 5 view .LVU262
ARM GAS  C:\Users\ADMINI~1\AppData\Local\Temp\ccC7P2iN.s 			page 23


 253:modules/motor/DJImotor/dji_motor.c ****     Motor_Controller_s *motor_controller;   // з”өжңәжҺ§еҲ¶еҷЁ
 894              		.loc 1 253 5 view .LVU263
 254:modules/motor/DJImotor/dji_motor.c ****     DJI_Motor_Measure_s *measure;           // з”өжңәжөӢйҮҸеҖј
 895              		.loc 1 254 5 view .LVU264
 255:modules/motor/DJImotor/dji_motor.c ****     float pid_measure, pid_ref;             // з”өжңәPIDжөӢйҮҸеҖје’Ңи®ҫе®ҡеҖј
 896              		.loc 1 255 5 view .LVU265
 256:modules/motor/DJImotor/dji_motor.c **** 
 257:modules/motor/DJImotor/dji_motor.c ****     // йҒҚеҺҶжүҖжңүз”өжңәе®һдҫӢ,иҝӣиЎҢдёІзә§PIDзҡ„и®Ўз®—е№¶и®ҫзҪ®еҸ‘йҖҒжҠҘж–Үзҡ„еҖј
 258:modules/motor/DJImotor/dji_motor.c ****     for (size_t i = 0; i < idx; ++i)
 897              		.loc 1 258 5 view .LVU266
 898              	.LBB6:
 899              		.loc 1 258 10 view .LVU267
 900              	.LVL59:
 901              		.loc 1 258 17 is_stmt 0 view .LVU268
 902 0002 0025     		movs	r5, #0
 903              		.loc 1 258 5 view .LVU269
 904 0004 50E0     		b	.L54
 905              	.LVL60:
 906              	.L78:
 259:modules/motor/DJImotor/dji_motor.c ****     { // еҮҸе°Ҹи®ҝеӯҳејҖй”Җ,е…ҲдҝқеӯҳжҢҮй’Ҳеј•з”Ё
 260:modules/motor/DJImotor/dji_motor.c ****         motor = dji_motor_instance[i];
 261:modules/motor/DJImotor/dji_motor.c ****         motor_setting = &motor->motor_settings;
 262:modules/motor/DJImotor/dji_motor.c ****         motor_controller = &motor->motor_controller;
 263:modules/motor/DJImotor/dji_motor.c ****         measure = &motor->measure;
 264:modules/motor/DJImotor/dji_motor.c ****         pid_ref = motor_controller->pid_ref; // дҝқеӯҳи®ҫе®ҡеҖј,йҳІжӯўmotor_controller->pid_refеңЁи
 265:modules/motor/DJImotor/dji_motor.c ****         if (motor_setting->motor_reverse_flag == MOTOR_DIRECTION_REVERSE && (motor_setting->outer_l
 907              		.loc 1 265 91 discriminator 1 view .LVU270
 908 0006 237E     		ldrb	r3, [r4, #24]	@ zero_extendqisi2
 909              		.loc 1 265 74 discriminator 1 view .LVU271
 910 0008 13F0060F 		tst	r3, #6
 911 000c 58D0     		beq	.L55
 266:modules/motor/DJImotor/dji_motor.c ****             pid_ref *= -1; // и®ҫзҪ®еҸҚиҪ¬
 912              		.loc 1 266 13 is_stmt 1 view .LVU272
 913              		.loc 1 266 21 is_stmt 0 view .LVU273
 914 000e F1EE600A 		vneg.f32	s1, s1
 915              	.LVL61:
 916              		.loc 1 266 21 view .LVU274
 917 0012 55E0     		b	.L55
 918              	.L79:
 267:modules/motor/DJImotor/dji_motor.c **** 
 268:modules/motor/DJImotor/dji_motor.c ****         // pid_refдјҡйЎәж¬ЎйҖҡиҝҮиў«еҗҜз”Ёзҡ„й—ӯзҺҜе……еҪ“ж•°жҚ®зҡ„иҪҪдҪ“
 269:modules/motor/DJImotor/dji_motor.c ****         // и®Ўз®—дҪҚзҪ®зҺҜ,еҸӘжңүеҗҜз”ЁдҪҚзҪ®зҺҜдё”еӨ–еұӮй—ӯзҺҜдёәдҪҚзҪ®ж—¶дјҡи®Ўз®—йҖҹеәҰзҺҜиҫ“еҮә
 270:modules/motor/DJImotor/dji_motor.c ****         if ((motor_setting->close_loop_type & ANGLE_LOOP) && motor_setting->outer_loop_type == ANGL
 271:modules/motor/DJImotor/dji_motor.c ****         {
 272:modules/motor/DJImotor/dji_motor.c ****             if (motor_setting->angle_feedback_source == OTHER_FEED)
 919              		.loc 1 272 13 is_stmt 1 view .LVU275
 920              		.loc 1 272 30 is_stmt 0 view .LVU276
 921 0014 237F     		ldrb	r3, [r4, #28]	@ zero_extendqisi2
 922              		.loc 1 272 16 view .LVU277
 923 0016 012B     		cmp	r3, #1
 924 0018 08D0     		beq	.L72
 273:modules/motor/DJImotor/dji_motor.c ****                 pid_measure = *motor_controller->other_angle_feedback_ptr;
 274:modules/motor/DJImotor/dji_motor.c ****             else
 275:modules/motor/DJImotor/dji_motor.c ****                 pid_measure = measure->total_angle; // MOTOR_FEED,еҜ№total angleй—ӯзҺҜ,йҳІжӯўеңЁиҫ№
 925              		.loc 1 275 17 is_stmt 1 view .LVU278
 926              		.loc 1 275 29 is_stmt 0 view .LVU279
 927 001a 94ED040A 		vldr.32	s0, [r4, #16]
ARM GAS  C:\Users\ADMINI~1\AppData\Local\Temp\ccC7P2iN.s 			page 24


 928              	.LVL62:
 929              	.L58:
 276:modules/motor/DJImotor/dji_motor.c ****             // жӣҙж–°pid_refиҝӣе…ҘдёӢдёҖдёӘзҺҜ
 277:modules/motor/DJImotor/dji_motor.c ****             pid_ref = PIDCalculate(&motor_controller->angle_PID, pid_measure, pid_ref);
 930              		.loc 1 277 13 is_stmt 1 view .LVU280
 931              		.loc 1 277 23 is_stmt 0 view .LVU281
 932 001e 04F59070 		add	r0, r4, #288
 933 0022 FFF7FEFF 		bl	PIDCalculate
 934              	.LVL63:
 935              		.loc 1 277 23 view .LVU282
 936 0026 F0EE400A 		vmov.f32	s1, s0
 937              	.LVL64:
 938              		.loc 1 277 23 view .LVU283
 939 002a 50E0     		b	.L56
 940              	.LVL65:
 941              	.L72:
 273:modules/motor/DJImotor/dji_motor.c ****                 pid_measure = *motor_controller->other_angle_feedback_ptr;
 942              		.loc 1 273 17 is_stmt 1 view .LVU284
 273:modules/motor/DJImotor/dji_motor.c ****                 pid_measure = *motor_controller->other_angle_feedback_ptr;
 943              		.loc 1 273 48 is_stmt 0 view .LVU285
 944 002c 236A     		ldr	r3, [r4, #32]
 273:modules/motor/DJImotor/dji_motor.c ****                 pid_measure = *motor_controller->other_angle_feedback_ptr;
 945              		.loc 1 273 29 view .LVU286
 946 002e 93ED000A 		vldr.32	s0, [r3]
 947              	.LVL66:
 273:modules/motor/DJImotor/dji_motor.c ****                 pid_measure = *motor_controller->other_angle_feedback_ptr;
 948              		.loc 1 273 29 view .LVU287
 949 0032 F4E7     		b	.L58
 950              	.LVL67:
 951              	.L60:
 278:modules/motor/DJImotor/dji_motor.c ****         }
 279:modules/motor/DJImotor/dji_motor.c **** 
 280:modules/motor/DJImotor/dji_motor.c ****         // и®Ўз®—йҖҹеәҰзҺҜ,(еӨ–еұӮй—ӯзҺҜдёәйҖҹеәҰжҲ–дҪҚзҪ®)дё”(еҗҜз”ЁйҖҹеәҰзҺҜ)ж—¶дјҡи®Ўз®—йҖҹеәҰзҺ
 281:modules/motor/DJImotor/dji_motor.c ****         if ((motor_setting->close_loop_type & SPEED_LOOP) && (motor_setting->outer_loop_type & (ANG
 282:modules/motor/DJImotor/dji_motor.c ****         {
 283:modules/motor/DJImotor/dji_motor.c ****             if (motor_setting->feedforward_flag & SPEED_FEEDFORWARD)
 284:modules/motor/DJImotor/dji_motor.c ****                 pid_ref += *motor_controller->speed_feedforward_ptr;
 285:modules/motor/DJImotor/dji_motor.c **** 
 286:modules/motor/DJImotor/dji_motor.c ****             if (motor_setting->speed_feedback_source == OTHER_FEED)
 952              		.loc 1 286 13 is_stmt 1 view .LVU288
 953              		.loc 1 286 30 is_stmt 0 view .LVU289
 954 0034 637F     		ldrb	r3, [r4, #29]	@ zero_extendqisi2
 955              		.loc 1 286 16 view .LVU290
 956 0036 012B     		cmp	r3, #1
 957 0038 5BD0     		beq	.L73
 287:modules/motor/DJImotor/dji_motor.c ****                 pid_measure = *motor_controller->other_speed_feedback_ptr;
 288:modules/motor/DJImotor/dji_motor.c ****             else // MOTOR_FEED
 289:modules/motor/DJImotor/dji_motor.c ****                 pid_measure = measure->speed_aps;
 958              		.loc 1 289 17 is_stmt 1 view .LVU291
 959              		.loc 1 289 29 is_stmt 0 view .LVU292
 960 003a 94ED020A 		vldr.32	s0, [r4, #8]
 961              	.LVL68:
 962              	.L62:
 290:modules/motor/DJImotor/dji_motor.c ****             // жӣҙж–°pid_refиҝӣе…ҘдёӢдёҖдёӘзҺҜ
 291:modules/motor/DJImotor/dji_motor.c ****             pid_ref = PIDCalculate(&motor_controller->speed_PID, pid_measure, pid_ref);
 963              		.loc 1 291 13 is_stmt 1 view .LVU293
 964              		.loc 1 291 23 is_stmt 0 view .LVU294
ARM GAS  C:\Users\ADMINI~1\AppData\Local\Temp\ccC7P2iN.s 			page 25


 965 003e 04F1A800 		add	r0, r4, #168
 966 0042 FFF7FEFF 		bl	PIDCalculate
 967              	.LVL69:
 968              		.loc 1 291 23 view .LVU295
 969 0046 F0EE400A 		vmov.f32	s1, s0
 970              	.LVL70:
 971              	.L59:
 292:modules/motor/DJImotor/dji_motor.c ****         }
 293:modules/motor/DJImotor/dji_motor.c **** 
 294:modules/motor/DJImotor/dji_motor.c ****         // и®Ўз®—з”өжөҒзҺҜ,зӣ®еүҚеҸӘиҰҒеҗҜз”ЁдәҶз”өжөҒзҺҜе°ұи®Ўз®—,дёҚз®ЎеӨ–еұӮй—ӯзҺҜжҳҜд»Җд№Ҳ,е№¶д
 295:modules/motor/DJImotor/dji_motor.c ****         if (motor_setting->feedforward_flag & CURRENT_FEEDFORWARD)
 972              		.loc 1 295 9 is_stmt 1 view .LVU296
 973              		.loc 1 295 26 is_stmt 0 view .LVU297
 974 004a A37F     		ldrb	r3, [r4, #30]	@ zero_extendqisi2
 975              		.loc 1 295 12 view .LVU298
 976 004c 13F0010F 		tst	r3, #1
 977 0050 04D0     		beq	.L63
 296:modules/motor/DJImotor/dji_motor.c ****             pid_ref += *motor_controller->current_feedforward_ptr;
 978              		.loc 1 296 13 is_stmt 1 view .LVU299
 979              		.loc 1 296 41 is_stmt 0 view .LVU300
 980 0052 E36A     		ldr	r3, [r4, #44]
 981              		.loc 1 296 24 view .LVU301
 982 0054 D3ED007A 		vldr.32	s15, [r3]
 983              		.loc 1 296 21 view .LVU302
 984 0058 70EEA70A 		vadd.f32	s1, s1, s15
 985              	.LVL71:
 986              	.L63:
 297:modules/motor/DJImotor/dji_motor.c ****         if (motor_setting->close_loop_type & CURRENT_LOOP)
 987              		.loc 1 297 9 is_stmt 1 view .LVU303
 988              		.loc 1 297 26 is_stmt 0 view .LVU304
 989 005c 637E     		ldrb	r3, [r4, #25]	@ zero_extendqisi2
 990              		.loc 1 297 12 view .LVU305
 991 005e 13F0010F 		tst	r3, #1
 992 0062 4AD1     		bne	.L74
 993              	.L64:
 298:modules/motor/DJImotor/dji_motor.c ****         {
 299:modules/motor/DJImotor/dji_motor.c ****             pid_ref = PIDCalculate(&motor_controller->current_PID, measure->real_current, pid_ref);
 300:modules/motor/DJImotor/dji_motor.c ****         }
 301:modules/motor/DJImotor/dji_motor.c **** 
 302:modules/motor/DJImotor/dji_motor.c ****         if (motor_setting->feedback_reverse_flag == FEEDBACK_DIRECTION_REVERSE && (motor_setting->o
 994              		.loc 1 302 9 is_stmt 1 view .LVU306
 995              		.loc 1 302 26 is_stmt 0 view .LVU307
 996 0064 E37E     		ldrb	r3, [r4, #27]	@ zero_extendqisi2
 997              		.loc 1 302 12 view .LVU308
 998 0066 012B     		cmp	r3, #1
 999 0068 54D0     		beq	.L75
 1000              	.L65:
 303:modules/motor/DJImotor/dji_motor.c ****             pid_ref *= -1;
 304:modules/motor/DJImotor/dji_motor.c **** 
 305:modules/motor/DJImotor/dji_motor.c ****         // иҺ·еҸ–жңҖз»Ҳиҫ“еҮә,еҠҹзҺҮйҷҗеҲ¶ж—¶зӣҙжҺҘиҫ“еҮәз”өжөҒеҖј
 306:modules/motor/DJImotor/dji_motor.c ****         set = (int16_t)pid_ref;
 1001              		.loc 1 306 9 is_stmt 1 view .LVU309
 1002              		.loc 1 306 13 is_stmt 0 view .LVU310
 1003 006a FDEEE07A 		vcvt.s32.f32	s15, s1
 1004 006e 17EE903A 		vmov	r3, s15	@ int
 1005              	.LVL72:
 307:modules/motor/DJImotor/dji_motor.c ****         
ARM GAS  C:\Users\ADMINI~1\AppData\Local\Temp\ccC7P2iN.s 			page 26


 308:modules/motor/DJImotor/dji_motor.c ****         // еҲҶз»„еЎ«е…ҘеҸ‘йҖҒж•°жҚ®
 309:modules/motor/DJImotor/dji_motor.c ****         group = motor->sender_group;
 1006              		.loc 1 309 9 is_stmt 1 view .LVU311
 1007              		.loc 1 309 15 is_stmt 0 view .LVU312
 1008 0072 94F8A421 		ldrb	r2, [r4, #420]	@ zero_extendqisi2
 1009              	.LVL73:
 310:modules/motor/DJImotor/dji_motor.c ****         num = motor->message_num;
 1010              		.loc 1 310 9 is_stmt 1 view .LVU313
 1011              		.loc 1 310 13 is_stmt 0 view .LVU314
 1012 0076 94F8A5C1 		ldrb	ip, [r4, #421]	@ zero_extendqisi2
 1013              	.LVL74:
 311:modules/motor/DJImotor/dji_motor.c ****         sender_assignment[group].tx_buff[2 * num] = (uint8_t)(set >> 8);         // дҪҺе…«дҪҚ
 1014              		.loc 1 311 9 is_stmt 1 view .LVU315
 1015              		.loc 1 311 44 is_stmt 0 view .LVU316
 1016 007a 4FEA4C00 		lsl	r0, ip, #1
 1017              		.loc 1 311 53 view .LVU317
 1018 007e C3F30726 		ubfx	r6, r3, #8, #8
 1019              		.loc 1 311 51 view .LVU318
 1020 0082 02EB021E 		add	lr, r2, r2, lsl #4
 1021 0086 02EB8E0E 		add	lr, r2, lr, lsl #2
 1022 008a 3649     		ldr	r1, .L81
 1023 008c 7144     		add	r1, r1, lr
 1024 008e 01EB4C0E 		add	lr, r1, ip, lsl #1
 1025 0092 8EF82460 		strb	r6, [lr, #36]
 312:modules/motor/DJImotor/dji_motor.c ****         sender_assignment[group].tx_buff[2 * num + 1] = (uint8_t)(set & 0x00ff); // й«ҳе…«дҪҚ
 1026              		.loc 1 312 9 is_stmt 1 view .LVU319
 1027              		.loc 1 312 50 is_stmt 0 view .LVU320
 1028 0096 0130     		adds	r0, r0, #1
 1029              		.loc 1 312 55 view .LVU321
 1030 0098 0144     		add	r1, r1, r0
 1031 009a 81F82430 		strb	r3, [r1, #36]
 313:modules/motor/DJImotor/dji_motor.c **** 
 314:modules/motor/DJImotor/dji_motor.c ****         // иӢҘиҜҘз”өжңәеӨ„дәҺеҒңжӯўзҠ¶жҖҒ,зӣҙжҺҘе°ҶbuffзҪ®йӣ¶
 315:modules/motor/DJImotor/dji_motor.c ****         if (motor->stop_flag == MOTOR_STOP)
 1032              		.loc 1 315 9 is_stmt 1 view .LVU322
 1033              		.loc 1 315 18 is_stmt 0 view .LVU323
 1034 009e 94F8A731 		ldrb	r3, [r4, #423]	@ zero_extendqisi2
 1035              	.LVL75:
 1036              		.loc 1 315 12 view .LVU324
 1037 00a2 002B     		cmp	r3, #0
 1038 00a4 3DD0     		beq	.L76
 1039              	.LVL76:
 1040              	.L66:
 258:modules/motor/DJImotor/dji_motor.c ****     { // еҮҸе°Ҹи®ҝеӯҳејҖй”Җ,е…ҲдҝқеӯҳжҢҮй’Ҳеј•з”Ё
 1041              		.loc 1 258 33 is_stmt 1 discriminator 2 view .LVU325
 1042 00a6 0135     		adds	r5, r5, #1
 1043              	.LVL77:
 1044              	.L54:
 258:modules/motor/DJImotor/dji_motor.c ****     { // еҮҸе°Ҹи®ҝеӯҳејҖй”Җ,е…ҲдҝқеӯҳжҢҮй’Ҳеј•з”Ё
 1045              		.loc 1 258 26 discriminator 1 view .LVU326
 1046 00a8 2F4B     		ldr	r3, .L81+4
 1047 00aa 1B78     		ldrb	r3, [r3]	@ zero_extendqisi2
 1048 00ac AB42     		cmp	r3, r5
 1049 00ae 44D9     		bls	.L77
 260:modules/motor/DJImotor/dji_motor.c ****         motor_setting = &motor->motor_settings;
 1050              		.loc 1 260 9 view .LVU327
 260:modules/motor/DJImotor/dji_motor.c ****         motor_setting = &motor->motor_settings;
ARM GAS  C:\Users\ADMINI~1\AppData\Local\Temp\ccC7P2iN.s 			page 27


 1051              		.loc 1 260 15 is_stmt 0 view .LVU328
 1052 00b0 2E4B     		ldr	r3, .L81+8
 1053 00b2 53F82540 		ldr	r4, [r3, r5, lsl #2]
 1054              	.LVL78:
 261:modules/motor/DJImotor/dji_motor.c ****         motor_controller = &motor->motor_controller;
 1055              		.loc 1 261 9 is_stmt 1 view .LVU329
 262:modules/motor/DJImotor/dji_motor.c ****         measure = &motor->measure;
 1056              		.loc 1 262 9 view .LVU330
 263:modules/motor/DJImotor/dji_motor.c ****         pid_ref = motor_controller->pid_ref; // дҝқеӯҳи®ҫе®ҡеҖј,йҳІжӯўmotor_controller->pid_refеңЁи
 1057              		.loc 1 263 9 view .LVU331
 264:modules/motor/DJImotor/dji_motor.c ****         if (motor_setting->motor_reverse_flag == MOTOR_DIRECTION_REVERSE && (motor_setting->outer_l
 1058              		.loc 1 264 9 view .LVU332
 264:modules/motor/DJImotor/dji_motor.c ****         if (motor_setting->motor_reverse_flag == MOTOR_DIRECTION_REVERSE && (motor_setting->outer_l
 1059              		.loc 1 264 17 is_stmt 0 view .LVU333
 1060 00b6 D4ED660A 		vldr.32	s1, [r4, #408]
 1061              	.LVL79:
 265:modules/motor/DJImotor/dji_motor.c ****             pid_ref *= -1; // и®ҫзҪ®еҸҚиҪ¬
 1062              		.loc 1 265 9 is_stmt 1 view .LVU334
 265:modules/motor/DJImotor/dji_motor.c ****             pid_ref *= -1; // и®ҫзҪ®еҸҚиҪ¬
 1063              		.loc 1 265 26 is_stmt 0 view .LVU335
 1064 00ba A37E     		ldrb	r3, [r4, #26]	@ zero_extendqisi2
 265:modules/motor/DJImotor/dji_motor.c ****             pid_ref *= -1; // и®ҫзҪ®еҸҚиҪ¬
 1065              		.loc 1 265 12 view .LVU336
 1066 00bc 012B     		cmp	r3, #1
 1067 00be A2D0     		beq	.L78
 1068              	.L55:
 270:modules/motor/DJImotor/dji_motor.c ****         {
 1069              		.loc 1 270 9 is_stmt 1 view .LVU337
 270:modules/motor/DJImotor/dji_motor.c ****         {
 1070              		.loc 1 270 27 is_stmt 0 view .LVU338
 1071 00c0 637E     		ldrb	r3, [r4, #25]	@ zero_extendqisi2
 270:modules/motor/DJImotor/dji_motor.c ****         {
 1072              		.loc 1 270 12 view .LVU339
 1073 00c2 13F0040F 		tst	r3, #4
 1074 00c6 02D0     		beq	.L56
 270:modules/motor/DJImotor/dji_motor.c ****         {
 1075              		.loc 1 270 75 discriminator 1 view .LVU340
 1076 00c8 237E     		ldrb	r3, [r4, #24]	@ zero_extendqisi2
 270:modules/motor/DJImotor/dji_motor.c ****         {
 1077              		.loc 1 270 59 discriminator 1 view .LVU341
 1078 00ca 042B     		cmp	r3, #4
 1079 00cc A2D0     		beq	.L79
 1080              	.L56:
 281:modules/motor/DJImotor/dji_motor.c ****         {
 1081              		.loc 1 281 9 is_stmt 1 view .LVU342
 281:modules/motor/DJImotor/dji_motor.c ****         {
 1082              		.loc 1 281 27 is_stmt 0 view .LVU343
 1083 00ce 637E     		ldrb	r3, [r4, #25]	@ zero_extendqisi2
 281:modules/motor/DJImotor/dji_motor.c ****         {
 1084              		.loc 1 281 12 view .LVU344
 1085 00d0 13F0020F 		tst	r3, #2
 1086 00d4 B9D0     		beq	.L59
 281:modules/motor/DJImotor/dji_motor.c ****         {
 1087              		.loc 1 281 76 discriminator 1 view .LVU345
 1088 00d6 237E     		ldrb	r3, [r4, #24]	@ zero_extendqisi2
 281:modules/motor/DJImotor/dji_motor.c ****         {
 1089              		.loc 1 281 59 discriminator 1 view .LVU346
ARM GAS  C:\Users\ADMINI~1\AppData\Local\Temp\ccC7P2iN.s 			page 28


 1090 00d8 13F0060F 		tst	r3, #6
 1091 00dc B5D0     		beq	.L59
 283:modules/motor/DJImotor/dji_motor.c ****                 pid_ref += *motor_controller->speed_feedforward_ptr;
 1092              		.loc 1 283 13 is_stmt 1 view .LVU347
 283:modules/motor/DJImotor/dji_motor.c ****                 pid_ref += *motor_controller->speed_feedforward_ptr;
 1093              		.loc 1 283 30 is_stmt 0 view .LVU348
 1094 00de A37F     		ldrb	r3, [r4, #30]	@ zero_extendqisi2
 283:modules/motor/DJImotor/dji_motor.c ****                 pid_ref += *motor_controller->speed_feedforward_ptr;
 1095              		.loc 1 283 16 view .LVU349
 1096 00e0 13F0020F 		tst	r3, #2
 1097 00e4 A6D0     		beq	.L60
 284:modules/motor/DJImotor/dji_motor.c **** 
 1098              		.loc 1 284 17 is_stmt 1 view .LVU350
 284:modules/motor/DJImotor/dji_motor.c **** 
 1099              		.loc 1 284 45 is_stmt 0 view .LVU351
 1100 00e6 A36A     		ldr	r3, [r4, #40]
 284:modules/motor/DJImotor/dji_motor.c **** 
 1101              		.loc 1 284 28 view .LVU352
 1102 00e8 D3ED007A 		vldr.32	s15, [r3]
 284:modules/motor/DJImotor/dji_motor.c **** 
 1103              		.loc 1 284 25 view .LVU353
 1104 00ec 70EEA70A 		vadd.f32	s1, s1, s15
 1105              	.LVL80:
 284:modules/motor/DJImotor/dji_motor.c **** 
 1106              		.loc 1 284 25 view .LVU354
 1107 00f0 A0E7     		b	.L60
 1108              	.L73:
 287:modules/motor/DJImotor/dji_motor.c ****             else // MOTOR_FEED
 1109              		.loc 1 287 17 is_stmt 1 view .LVU355
 287:modules/motor/DJImotor/dji_motor.c ****             else // MOTOR_FEED
 1110              		.loc 1 287 48 is_stmt 0 view .LVU356
 1111 00f2 636A     		ldr	r3, [r4, #36]
 287:modules/motor/DJImotor/dji_motor.c ****             else // MOTOR_FEED
 1112              		.loc 1 287 29 view .LVU357
 1113 00f4 93ED000A 		vldr.32	s0, [r3]
 1114              	.LVL81:
 287:modules/motor/DJImotor/dji_motor.c ****             else // MOTOR_FEED
 1115              		.loc 1 287 29 view .LVU358
 1116 00f8 A1E7     		b	.L62
 1117              	.LVL82:
 1118              	.L74:
 299:modules/motor/DJImotor/dji_motor.c ****         }
 1119              		.loc 1 299 13 is_stmt 1 view .LVU359
 299:modules/motor/DJImotor/dji_motor.c ****         }
 1120              		.loc 1 299 75 is_stmt 0 view .LVU360
 1121 00fa B4F90C30 		ldrsh	r3, [r4, #12]
 1122 00fe 00EE103A 		vmov	s0, r3	@ int
 299:modules/motor/DJImotor/dji_motor.c ****         }
 1123              		.loc 1 299 23 view .LVU361
 1124 0102 B8EEC00A 		vcvt.f32.s32	s0, s0
 1125 0106 04F13000 		add	r0, r4, #48
 1126 010a FFF7FEFF 		bl	PIDCalculate
 1127              	.LVL83:
 299:modules/motor/DJImotor/dji_motor.c ****         }
 1128              		.loc 1 299 23 view .LVU362
 1129 010e F0EE400A 		vmov.f32	s1, s0
 1130              	.LVL84:
ARM GAS  C:\Users\ADMINI~1\AppData\Local\Temp\ccC7P2iN.s 			page 29


 299:modules/motor/DJImotor/dji_motor.c ****         }
 1131              		.loc 1 299 23 view .LVU363
 1132 0112 A7E7     		b	.L64
 1133              	.LVL85:
 1134              	.L75:
 302:modules/motor/DJImotor/dji_motor.c ****             pid_ref *= -1;
 1135              		.loc 1 302 97 discriminator 1 view .LVU364
 1136 0114 237E     		ldrb	r3, [r4, #24]	@ zero_extendqisi2
 302:modules/motor/DJImotor/dji_motor.c ****             pid_ref *= -1;
 1137              		.loc 1 302 80 discriminator 1 view .LVU365
 1138 0116 13F0060F 		tst	r3, #6
 1139 011a A6D0     		beq	.L65
 303:modules/motor/DJImotor/dji_motor.c **** 
 1140              		.loc 1 303 13 is_stmt 1 view .LVU366
 303:modules/motor/DJImotor/dji_motor.c **** 
 1141              		.loc 1 303 21 is_stmt 0 view .LVU367
 1142 011c F1EE600A 		vneg.f32	s1, s1
 1143              	.LVL86:
 303:modules/motor/DJImotor/dji_motor.c **** 
 1144              		.loc 1 303 21 view .LVU368
 1145 0120 A3E7     		b	.L65
 1146              	.LVL87:
 1147              	.L76:
 316:modules/motor/DJImotor/dji_motor.c ****             memset(sender_assignment[group].tx_buff + 2 * num, 0, sizeof(uint16_t));
 1148              		.loc 1 316 13 is_stmt 1 view .LVU369
 1149              		.loc 1 316 20 is_stmt 0 view .LVU370
 1150 0122 02EB0213 		add	r3, r2, r2, lsl #4
 1151 0126 02EB8302 		add	r2, r2, r3, lsl #2
 1152 012a 2032     		adds	r2, r2, #32
 1153 012c 0D4B     		ldr	r3, .L81
 1154 012e 1A44     		add	r2, r2, r3
 1155 0130 0432     		adds	r2, r2, #4
 1156              		.loc 1 316 13 view .LVU371
 1157 0132 0023     		movs	r3, #0
 1158 0134 22F81C30 		strh	r3, [r2, ip, lsl #1]	@ unaligned
 1159              	.LVL88:
 1160              		.loc 1 316 13 view .LVU372
 1161 0138 B5E7     		b	.L66
 1162              	.LVL89:
 1163              	.L77:
 1164              		.loc 1 316 13 view .LVU373
 1165              	.LBE6:
 1166              	.LBB7:
 317:modules/motor/DJImotor/dji_motor.c ****     }
 318:modules/motor/DJImotor/dji_motor.c **** 
 319:modules/motor/DJImotor/dji_motor.c ****     // йҒҚеҺҶflag,жЈҖжҹҘжҳҜеҗҰиҰҒеҸ‘йҖҒиҝҷдёҖеё§жҠҘж–Ү
 320:modules/motor/DJImotor/dji_motor.c ****     for (size_t i = 0; i < 6; ++i)
 1167              		.loc 1 320 17 view .LVU374
 1168 013a 0024     		movs	r4, #0
 1169 013c 00E0     		b	.L68
 1170              	.LVL90:
 1171              	.L69:
 1172              		.loc 1 320 31 is_stmt 1 discriminator 2 view .LVU375
 1173 013e 0134     		adds	r4, r4, #1
 1174              	.LVL91:
 1175              	.L68:
 1176              		.loc 1 320 26 discriminator 1 view .LVU376
ARM GAS  C:\Users\ADMINI~1\AppData\Local\Temp\ccC7P2iN.s 			page 30


 1177 0140 052C     		cmp	r4, #5
 1178 0142 0ED8     		bhi	.L80
 321:modules/motor/DJImotor/dji_motor.c ****     {
 322:modules/motor/DJImotor/dji_motor.c ****         if (sender_enable_flag[i])
 1179              		.loc 1 322 9 view .LVU377
 1180              		.loc 1 322 31 is_stmt 0 view .LVU378
 1181 0144 0A4B     		ldr	r3, .L81+12
 1182 0146 1B5D     		ldrb	r3, [r3, r4]	@ zero_extendqisi2
 1183              		.loc 1 322 12 view .LVU379
 1184 0148 002B     		cmp	r3, #0
 1185 014a F8D0     		beq	.L69
 323:modules/motor/DJImotor/dji_motor.c ****         {
 324:modules/motor/DJImotor/dji_motor.c ****             CANTransmit(&sender_assignment[i], 1);
 1186              		.loc 1 324 13 is_stmt 1 view .LVU380
 1187 014c 04EB0413 		add	r3, r4, r4, lsl #4
 1188 0150 04EB8303 		add	r3, r4, r3, lsl #2
 1189 0154 B7EE000A 		vmov.f32	s0, #1.0e+0
 1190 0158 0248     		ldr	r0, .L81
 1191 015a 1844     		add	r0, r0, r3
 1192 015c FFF7FEFF 		bl	CANTransmit
 1193              	.LVL92:
 1194 0160 EDE7     		b	.L69
 1195              	.L80:
 1196              	.LBE7:
 325:modules/motor/DJImotor/dji_motor.c ****         }
 326:modules/motor/DJImotor/dji_motor.c ****     }
 327:modules/motor/DJImotor/dji_motor.c **** }
 1197              		.loc 1 327 1 is_stmt 0 view .LVU381
 1198 0162 70BD     		pop	{r4, r5, r6, pc}
 1199              	.LVL93:
 1200              	.L82:
 1201              		.loc 1 327 1 view .LVU382
 1202              		.align	2
 1203              	.L81:
 1204 0164 00000000 		.word	sender_assignment
 1205 0168 00000000 		.word	idx
 1206 016c 00000000 		.word	dji_motor_instance
 1207 0170 00000000 		.word	sender_enable_flag
 1208              		.cfi_endproc
 1209              	.LFE282:
 1211              		.section	.bss.sender_enable_flag,"aw",%nobits
 1212              		.align	2
 1215              	sender_enable_flag:
 1216 0000 00000000 		.space	6
 1216      0000
 1217              		.section	.data.sender_assignment,"aw"
 1218              		.align	2
 1221              	sender_assignment:
 1222 0000 00000000 		.word	hcan1
 1223 0004 FF010000 		.word	511
 1224 0008 00000000 		.space	4
 1225 000c 00000000 		.word	0
 1226 0010 00000000 		.word	0
 1227 0014 08000000 		.word	8
 1228 0018 00000000 		.space	4
 1229 001c 00000000 		.space	8
 1229      00000000 
ARM GAS  C:\Users\ADMINI~1\AppData\Local\Temp\ccC7P2iN.s 			page 31


 1230 0024 0000     		.ascii	"\000\000"
 1231 0026 00000000 		.space	6
 1231      0000
 1232 002c 00000000 		.space	25
 1232      00000000 
 1232      00000000 
 1232      00000000 
 1232      00000000 
 1233 0045 00000000 		.4byte	hcan1
 1234 0049 00020000 		.4byte	512
 1235 004d 00000000 		.space	4
 1236 0051 00000000 		.4byte	0
 1237 0055 00000000 		.4byte	0
 1238 0059 08000000 		.4byte	8
 1239 005d 00000000 		.space	4
 1240 0061 00000000 		.space	8
 1240      00000000 
 1241 0069 0000     		.ascii	"\000\000"
 1242 006b 00000000 		.space	6
 1242      0000
 1243 0071 00000000 		.space	25
 1243      00000000 
 1243      00000000 
 1243      00000000 
 1243      00000000 
 1244 008a 00000000 		.4byte	hcan1
 1245 008e FF020000 		.4byte	767
 1246 0092 00000000 		.space	4
 1247 0096 00000000 		.4byte	0
 1248 009a 00000000 		.4byte	0
 1249 009e 08000000 		.4byte	8
 1250 00a2 00000000 		.space	4
 1251 00a6 00000000 		.space	8
 1251      00000000 
 1252 00ae 0000     		.ascii	"\000\000"
 1253 00b0 00000000 		.space	6
 1253      0000
 1254 00b6 00000000 		.space	25
 1254      00000000 
 1254      00000000 
 1254      00000000 
 1254      00000000 
 1255 00cf 00000000 		.4byte	hcan2
 1256 00d3 FF010000 		.4byte	511
 1257 00d7 00000000 		.space	4
 1258 00db 00000000 		.4byte	0
 1259 00df 00000000 		.4byte	0
 1260 00e3 08000000 		.4byte	8
 1261 00e7 00000000 		.space	4
 1262 00eb 00000000 		.space	8
 1262      00000000 
 1263 00f3 0000     		.ascii	"\000\000"
 1264 00f5 00000000 		.space	6
 1264      0000
 1265 00fb 00000000 		.space	25
 1265      00000000 
 1265      00000000 
ARM GAS  C:\Users\ADMINI~1\AppData\Local\Temp\ccC7P2iN.s 			page 32


 1265      00000000 
 1265      00000000 
 1266 0114 00000000 		.word	hcan2
 1267 0118 00020000 		.word	512
 1268 011c 00000000 		.space	4
 1269 0120 00000000 		.word	0
 1270 0124 00000000 		.word	0
 1271 0128 08000000 		.word	8
 1272 012c 00000000 		.space	4
 1273 0130 00000000 		.space	8
 1273      00000000 
 1274 0138 0000     		.ascii	"\000\000"
 1275 013a 00000000 		.space	6
 1275      0000
 1276 0140 00000000 		.space	25
 1276      00000000 
 1276      00000000 
 1276      00000000 
 1276      00000000 
 1277 0159 00000000 		.4byte	hcan2
 1278 015d FF020000 		.4byte	767
 1279 0161 00000000 		.space	4
 1280 0165 00000000 		.4byte	0
 1281 0169 00000000 		.4byte	0
 1282 016d 08000000 		.4byte	8
 1283 0171 00000000 		.space	4
 1284 0175 00000000 		.space	8
 1284      00000000 
 1285 017d 0000     		.ascii	"\000\000"
 1286 017f 00000000 		.space	6
 1286      0000
 1287 0185 00000000 		.space	25
 1287      00000000 
 1287      00000000 
 1287      00000000 
 1287      00000000 
 1288              		.section	.bss.dji_motor_instance,"aw",%nobits
 1289              		.align	2
 1292              	dji_motor_instance:
 1293 0000 00000000 		.space	48
 1293      00000000 
 1293      00000000 
 1293      00000000 
 1293      00000000 
 1294              		.section	.bss.idx,"aw",%nobits
 1297              	idx:
 1298 0000 00       		.space	1
 1299              		.text
 1300              	.Letext0:
 1301              		.file 2 "D:/Msys2/mingw64/arm-none-eabi/include/machine/_default_types.h"
 1302              		.file 3 "D:/Msys2/mingw64/arm-none-eabi/include/sys/_stdint.h"
 1303              		.file 4 "Drivers/CMSIS/Device/ST/STM32F4xx/Include/stm32f407xx.h"
 1304              		.file 5 "Drivers/CMSIS/Device/ST/STM32F4xx/Include/stm32f4xx.h"
 1305              		.file 6 "D:/Msys2/mingw64/lib/gcc/arm-none-eabi/13.3.0/include/stddef.h"
 1306              		.file 7 "Drivers/STM32F4xx_HAL_Driver/Inc/stm32f4xx_hal_can.h"
 1307              		.file 8 "Inc/can.h"
 1308              		.file 9 "bsp/can/bsp_can.h"
ARM GAS  C:\Users\ADMINI~1\AppData\Local\Temp\ccC7P2iN.s 			page 33


 1309              		.file 10 "modules/algorithm/controller.h"
 1310              		.file 11 "modules/motor/motor_def.h"
 1311              		.file 12 "modules/daemon/daemon.h"
 1312              		.file 13 "modules/motor/DJImotor/dji_motor.h"
 1313              		.file 14 "bsp/dwt/bsp_dwt.h"
 1314              		.file 15 "D:/Msys2/mingw64/arm-none-eabi/include/string.h"
 1315              		.file 16 "D:/Msys2/mingw64/arm-none-eabi/include/stdlib.h"
 1316              		.file 17 "<built-in>"
ARM GAS  C:\Users\ADMINI~1\AppData\Local\Temp\ccC7P2iN.s 			page 34

