ARM GAS  C:\Users\10542\AppData\Local\Temp\ccIubkqg.s 			page 1


   1              		.cpu cortex-m4
   2              		.arch armv7e-m
   3              		.fpu fpv4-sp-d16
   4              		.eabi_attribute 27, 1
   5              		.eabi_attribute 28, 1
   6              		.eabi_attribute 20, 1
   7              		.eabi_attribute 21, 1
   8              		.eabi_attribute 23, 3
   9              		.eabi_attribute 24, 1
  10              		.eabi_attribute 25, 1
  11              		.eabi_attribute 26, 1
  12              		.eabi_attribute 30, 1
  13              		.eabi_attribute 34, 1
  14              		.eabi_attribute 18, 4
  15              		.file	"gimbal.c"
  16              		.text
  17              	.Ltext0:
  18              		.cfi_sections	.debug_frame
  19              		.file 1 "application/gimbal/gimbal.c"
  20              		.section	.rodata.GimbalInit.str1.4,"aMS",%progbits,1
  21              		.align	2
  22              	.LC0:
  23 0000 67696D62 		.ascii	"gimbal_feed\000"
  23      616C5F66 
  23      65656400 
  24              		.align	2
  25              	.LC1:
  26 000c 67696D62 		.ascii	"gimbal_cmd\000"
  26      616C5F63 
  26      6D6400
  27              		.section	.text.GimbalInit,"ax",%progbits
  28              		.align	1
  29              		.global	GimbalInit
  30              		.syntax unified
  31              		.thumb
  32              		.thumb_func
  34              	GimbalInit:
  35              	.LFB271:
   1:application/gimbal/gimbal.c **** #include "gimbal.h"
   2:application/gimbal/gimbal.c **** #include "robot_def.h"
   3:application/gimbal/gimbal.c **** 
   4:application/gimbal/gimbal.c **** #include "dji_motor.h"
   5:application/gimbal/gimbal.c **** #include "xmmotor.h"
   6:application/gimbal/gimbal.c **** 
   7:application/gimbal/gimbal.c **** #include "ins_task.h"
   8:application/gimbal/gimbal.c **** #include "message_center.h"
   9:application/gimbal/gimbal.c **** #include "general_def.h"
  10:application/gimbal/gimbal.c **** #include "bmi088.h"
  11:application/gimbal/gimbal.c **** 
  12:application/gimbal/gimbal.c **** static Gimbal_Config_s *gimbal_config;
  13:application/gimbal/gimbal.c **** 
  14:application/gimbal/gimbal.c **** static attitude_t *gimba_IMU_data; // дә‘еҸ°IMUж•°жҚ®
  15:application/gimbal/gimbal.c **** static DJIMotorInstance *yaw_motor, *mini_yaw_motor, *pitch_motor;
  16:application/gimbal/gimbal.c **** static XMMotorInstance *pitch_xmmotor;
  17:application/gimbal/gimbal.c **** 
  18:application/gimbal/gimbal.c **** static Publisher_t *gimbal_pub;                   // дә‘еҸ°еә”з”Ёж¶ҲжҒҜеҸ‘еёғиҖ…(дә‘еҸ°еҸҚйҰҲз»ҷcmd
  19:application/gimbal/gimbal.c **** static Subscriber_t *gimbal_sub;                  // cmdжҺ§еҲ¶ж¶ҲжҒҜи®ўйҳ…иҖ…
ARM GAS  C:\Users\10542\AppData\Local\Temp\ccIubkqg.s 			page 2


  20:application/gimbal/gimbal.c **** static Gimbal_Upload_Data_s gimbal_feedback_data; // еӣһдј з»ҷcmdзҡ„дә‘еҸ°зҠ¶жҖҒдҝЎжҒҜ
  21:application/gimbal/gimbal.c **** static Gimbal_Ctrl_Cmd_s gimbal_cmd_recv;         // жқҘиҮӘcmdзҡ„жҺ§еҲ¶дҝЎжҒҜ
  22:application/gimbal/gimbal.c **** 
  23:application/gimbal/gimbal.c **** static BMI088Instance *bmi088; // дә‘еҸ°IMU
  24:application/gimbal/gimbal.c **** void GimbalInit()
  25:application/gimbal/gimbal.c **** {   
  36              		.loc 1 25 1 view -0
  37              		.cfi_startproc
  38              		@ args = 0, pretend = 0, frame = 0
  39              		@ frame_needed = 0, uses_anonymous_args = 0
  40 0000 08B5     		push	{r3, lr}
  41              	.LCFI0:
  42              		.cfi_def_cfa_offset 8
  43              		.cfi_offset 3, -8
  44              		.cfi_offset 14, -4
  26:application/gimbal/gimbal.c ****     gimba_IMU_data = INS_Init(); // IMUе…ҲеҲқе§ӢеҢ–,иҺ·еҸ–е§ҝжҖҒж•°жҚ®жҢҮй’ҲиөӢз»ҷyawз”өжңәзҡ„е…¶д»
  45              		.loc 1 26 5 view .LVU1
  46              		.loc 1 26 22 is_stmt 0 view .LVU2
  47 0002 FFF7FEFF 		bl	INS_Init
  48              	.LVL0:
  49              		.loc 1 26 20 discriminator 1 view .LVU3
  50 0006 2A4B     		ldr	r3, .L9
  51 0008 1860     		str	r0, [r3]
  27:application/gimbal/gimbal.c **** 
  28:application/gimbal/gimbal.c ****     gimbal_config = GimbalConfigFeed();
  52              		.loc 1 28 5 is_stmt 1 view .LVU4
  53              		.loc 1 28 21 is_stmt 0 view .LVU5
  54 000a FFF7FEFF 		bl	GimbalConfigFeed
  55              	.LVL1:
  56              		.loc 1 28 19 discriminator 1 view .LVU6
  57 000e 294B     		ldr	r3, .L9+4
  58 0010 1860     		str	r0, [r3]
  29:application/gimbal/gimbal.c ****   
  30:application/gimbal/gimbal.c ****     // MINI_YAW
  31:application/gimbal/gimbal.c ****     switch (gimbal_config->gimbal_type)
  59              		.loc 1 31 5 is_stmt 1 view .LVU7
  60              		.loc 1 31 26 is_stmt 0 view .LVU8
  61 0012 0378     		ldrb	r3, [r0]	@ zero_extendqisi2
  62              		.loc 1 31 5 view .LVU9
  63 0014 ABB1     		cbz	r3, .L2
  64 0016 012B     		cmp	r3, #1
  65 0018 1FD1     		bne	.L4
  32:application/gimbal/gimbal.c ****     {
  33:application/gimbal/gimbal.c ****     case SINGLE_GIMBAL:
  34:application/gimbal/gimbal.c ****         // YAW
  35:application/gimbal/gimbal.c ****         gimbal_config->yaw_motor_config.controller_param_init_config.other_angle_feedback_ptr = &gi
  36:application/gimbal/gimbal.c ****         gimbal_config->yaw_motor_config.controller_param_init_config.other_speed_feedback_ptr = &gi
  37:application/gimbal/gimbal.c ****         yaw_motor = DJIMotorInit(&gimbal_config->yaw_motor_config);
  38:application/gimbal/gimbal.c ****         break;
  39:application/gimbal/gimbal.c ****     case MINI_GIMBAL:
  40:application/gimbal/gimbal.c ****         // MINI_YAW
  41:application/gimbal/gimbal.c ****         mini_yaw_motor = DJIMotorInit(&gimbal_config->mini_yaw_motor_config);
  66              		.loc 1 41 9 is_stmt 1 view .LVU10
  67              		.loc 1 41 26 is_stmt 0 view .LVU11
  68 001a CC30     		adds	r0, r0, #204
  69 001c FFF7FEFF 		bl	DJIMotorInit
  70              	.LVL2:
ARM GAS  C:\Users\10542\AppData\Local\Temp\ccIubkqg.s 			page 3


  71              		.loc 1 41 24 discriminator 1 view .LVU12
  72 0020 254B     		ldr	r3, .L9+8
  73 0022 1860     		str	r0, [r3]
  42:application/gimbal/gimbal.c **** 
  43:application/gimbal/gimbal.c ****         // YAW
  44:application/gimbal/gimbal.c ****         gimbal_config->yaw_motor_config.controller_param_init_config.other_angle_feedback_ptr = &gi
  74              		.loc 1 44 9 is_stmt 1 view .LVU13
  75              		.loc 1 44 112 is_stmt 0 view .LVU14
  76 0024 224B     		ldr	r3, .L9
  77 0026 1B68     		ldr	r3, [r3]
  78              		.loc 1 44 22 view .LVU15
  79 0028 224A     		ldr	r2, .L9+4
  80 002a 1068     		ldr	r0, [r2]
  81              		.loc 1 44 97 view .LVU16
  82 002c 03F12402 		add	r2, r3, #36
  83              		.loc 1 44 95 view .LVU17
  84 0030 0261     		str	r2, [r0, #16]
  45:application/gimbal/gimbal.c ****         gimbal_config->yaw_motor_config.controller_param_init_config.other_speed_feedback_ptr = &gi
  85              		.loc 1 45 9 is_stmt 1 view .LVU18
  86              		.loc 1 45 97 is_stmt 0 view .LVU19
  87 0032 0833     		adds	r3, r3, #8
  88              		.loc 1 45 95 view .LVU20
  89 0034 4361     		str	r3, [r0, #20]
  46:application/gimbal/gimbal.c ****         yaw_motor = DJIMotorInit(&gimbal_config->yaw_motor_config);
  90              		.loc 1 46 9 is_stmt 1 view .LVU21
  91              		.loc 1 46 21 is_stmt 0 view .LVU22
  92 0036 1030     		adds	r0, r0, #16
  93 0038 FFF7FEFF 		bl	DJIMotorInit
  94              	.LVL3:
  95              		.loc 1 46 19 discriminator 1 view .LVU23
  96 003c 1F4B     		ldr	r3, .L9+12
  97 003e 1860     		str	r0, [r3]
  47:application/gimbal/gimbal.c ****         break;
  98              		.loc 1 47 9 is_stmt 1 view .LVU24
  99 0040 0BE0     		b	.L4
 100              	.L2:
  35:application/gimbal/gimbal.c ****         gimbal_config->yaw_motor_config.controller_param_init_config.other_speed_feedback_ptr = &gi
 101              		.loc 1 35 9 view .LVU25
  35:application/gimbal/gimbal.c ****         gimbal_config->yaw_motor_config.controller_param_init_config.other_speed_feedback_ptr = &gi
 102              		.loc 1 35 112 is_stmt 0 view .LVU26
 103 0042 1B4B     		ldr	r3, .L9
 104 0044 1B68     		ldr	r3, [r3]
  35:application/gimbal/gimbal.c ****         gimbal_config->yaw_motor_config.controller_param_init_config.other_speed_feedback_ptr = &gi
 105              		.loc 1 35 97 view .LVU27
 106 0046 03F12402 		add	r2, r3, #36
  35:application/gimbal/gimbal.c ****         gimbal_config->yaw_motor_config.controller_param_init_config.other_speed_feedback_ptr = &gi
 107              		.loc 1 35 95 view .LVU28
 108 004a 0261     		str	r2, [r0, #16]
  36:application/gimbal/gimbal.c ****         yaw_motor = DJIMotorInit(&gimbal_config->yaw_motor_config);
 109              		.loc 1 36 9 is_stmt 1 view .LVU29
  36:application/gimbal/gimbal.c ****         yaw_motor = DJIMotorInit(&gimbal_config->yaw_motor_config);
 110              		.loc 1 36 97 is_stmt 0 view .LVU30
 111 004c 0833     		adds	r3, r3, #8
  36:application/gimbal/gimbal.c ****         yaw_motor = DJIMotorInit(&gimbal_config->yaw_motor_config);
 112              		.loc 1 36 95 view .LVU31
 113 004e 4361     		str	r3, [r0, #20]
  37:application/gimbal/gimbal.c ****         break;
ARM GAS  C:\Users\10542\AppData\Local\Temp\ccIubkqg.s 			page 4


 114              		.loc 1 37 9 is_stmt 1 view .LVU32
  37:application/gimbal/gimbal.c ****         break;
 115              		.loc 1 37 21 is_stmt 0 view .LVU33
 116 0050 1030     		adds	r0, r0, #16
 117 0052 FFF7FEFF 		bl	DJIMotorInit
 118              	.LVL4:
  37:application/gimbal/gimbal.c ****         break;
 119              		.loc 1 37 19 discriminator 1 view .LVU34
 120 0056 194B     		ldr	r3, .L9+12
 121 0058 1860     		str	r0, [r3]
  38:application/gimbal/gimbal.c ****     case MINI_GIMBAL:
 122              		.loc 1 38 9 is_stmt 1 view .LVU35
 123              	.L4:
  48:application/gimbal/gimbal.c ****     }
  49:application/gimbal/gimbal.c ****     
  50:application/gimbal/gimbal.c ****     // PITCH
  51:application/gimbal/gimbal.c ****     gimbal_config->pitch_motor_config.controller_param_init_config.other_angle_feedback_ptr = &gimb
 124              		.loc 1 51 5 view .LVU36
 125              		.loc 1 51 110 is_stmt 0 view .LVU37
 126 005a 154B     		ldr	r3, .L9
 127 005c 1B68     		ldr	r3, [r3]
 128              		.loc 1 51 18 view .LVU38
 129 005e 154A     		ldr	r2, .L9+4
 130 0060 1068     		ldr	r0, [r2]
 131              		.loc 1 51 95 view .LVU39
 132 0062 03F11C02 		add	r2, r3, #28
 133              		.loc 1 51 93 view .LVU40
 134 0066 C0F88821 		str	r2, [r0, #392]
  52:application/gimbal/gimbal.c ****     gimbal_config->pitch_motor_config.controller_param_init_config.other_speed_feedback_ptr = &gimb
 135              		.loc 1 52 5 is_stmt 1 view .LVU41
 136              		.loc 1 52 95 is_stmt 0 view .LVU42
 137 006a 0433     		adds	r3, r3, #4
 138              		.loc 1 52 93 view .LVU43
 139 006c C0F88C31 		str	r3, [r0, #396]
  53:application/gimbal/gimbal.c ****     // з”өжңәеҜ№total_angleй—ӯзҺҜ,дёҠз”өж—¶дёәйӣ¶,дјҡдҝқжҢҒйқҷжӯў,ж”¶еҲ°йҒҘжҺ§еҷЁж•°жҚ®еҶҚеҠЁ
  54:application/gimbal/gimbal.c ****     switch (gimbal_config->pitch_motor_config.motor_type)
 140              		.loc 1 54 5 is_stmt 1 view .LVU44
 141              		.loc 1 54 46 is_stmt 0 view .LVU45
 142 0070 90F82432 		ldrb	r3, [r0, #548]	@ zero_extendqisi2
 143              		.loc 1 54 5 view .LVU46
 144 0074 012B     		cmp	r3, #1
 145 0076 08D0     		beq	.L5
 146 0078 072B     		cmp	r3, #7
 147 007a 0CD1     		bne	.L7
  55:application/gimbal/gimbal.c ****     {
  56:application/gimbal/gimbal.c ****     case GM6020:
  57:application/gimbal/gimbal.c ****         pitch_motor = DJIMotorInit(&gimbal_config->pitch_motor_config);
  58:application/gimbal/gimbal.c ****         break;
  59:application/gimbal/gimbal.c ****     case XMCY:
  60:application/gimbal/gimbal.c ****         pitch_xmmotor = XMMotorInit(&gimbal_config->pitch_motor_config);
 148              		.loc 1 60 9 is_stmt 1 view .LVU47
 149              		.loc 1 60 25 is_stmt 0 view .LVU48
 150 007c 00F5C470 		add	r0, r0, #392
 151 0080 FFF7FEFF 		bl	XMMotorInit
 152              	.LVL5:
 153              		.loc 1 60 23 discriminator 1 view .LVU49
 154 0084 0E4B     		ldr	r3, .L9+16
ARM GAS  C:\Users\10542\AppData\Local\Temp\ccIubkqg.s 			page 5


 155 0086 1860     		str	r0, [r3]
  61:application/gimbal/gimbal.c ****         break;
 156              		.loc 1 61 9 is_stmt 1 view .LVU50
 157 0088 05E0     		b	.L7
 158              	.L5:
  57:application/gimbal/gimbal.c ****         break;
 159              		.loc 1 57 9 view .LVU51
  57:application/gimbal/gimbal.c ****         break;
 160              		.loc 1 57 23 is_stmt 0 view .LVU52
 161 008a 00F5C470 		add	r0, r0, #392
 162 008e FFF7FEFF 		bl	DJIMotorInit
 163              	.LVL6:
  57:application/gimbal/gimbal.c ****         break;
 164              		.loc 1 57 21 discriminator 1 view .LVU53
 165 0092 0C4B     		ldr	r3, .L9+20
 166 0094 1860     		str	r0, [r3]
  58:application/gimbal/gimbal.c ****     case XMCY:
 167              		.loc 1 58 9 is_stmt 1 view .LVU54
 168              	.L7:
  62:application/gimbal/gimbal.c ****     default:
  63:application/gimbal/gimbal.c ****         break;
  64:application/gimbal/gimbal.c ****     }
  65:application/gimbal/gimbal.c **** 
  66:application/gimbal/gimbal.c ****     gimbal_pub = PubRegister("gimbal_feed", sizeof(Gimbal_Upload_Data_s));
 169              		.loc 1 66 5 view .LVU55
 170              		.loc 1 66 18 is_stmt 0 view .LVU56
 171 0096 2C21     		movs	r1, #44
 172 0098 0B48     		ldr	r0, .L9+24
 173 009a FFF7FEFF 		bl	PubRegister
 174              	.LVL7:
 175              		.loc 1 66 16 discriminator 1 view .LVU57
 176 009e 0B4B     		ldr	r3, .L9+28
 177 00a0 1860     		str	r0, [r3]
  67:application/gimbal/gimbal.c ****     gimbal_sub = SubRegister("gimbal_cmd", sizeof(Gimbal_Ctrl_Cmd_s));
 178              		.loc 1 67 5 is_stmt 1 view .LVU58
 179              		.loc 1 67 18 is_stmt 0 view .LVU59
 180 00a2 1121     		movs	r1, #17
 181 00a4 0A48     		ldr	r0, .L9+32
 182 00a6 FFF7FEFF 		bl	SubRegister
 183              	.LVL8:
 184              		.loc 1 67 16 discriminator 1 view .LVU60
 185 00aa 0A4B     		ldr	r3, .L9+36
 186 00ac 1860     		str	r0, [r3]
  68:application/gimbal/gimbal.c **** }
 187              		.loc 1 68 1 view .LVU61
 188 00ae 08BD     		pop	{r3, pc}
 189              	.L10:
 190              		.align	2
 191              	.L9:
 192 00b0 00000000 		.word	gimba_IMU_data
 193 00b4 00000000 		.word	gimbal_config
 194 00b8 00000000 		.word	mini_yaw_motor
 195 00bc 00000000 		.word	yaw_motor
 196 00c0 00000000 		.word	pitch_xmmotor
 197 00c4 00000000 		.word	pitch_motor
 198 00c8 00000000 		.word	.LC0
 199 00cc 00000000 		.word	gimbal_pub
ARM GAS  C:\Users\10542\AppData\Local\Temp\ccIubkqg.s 			page 6


 200 00d0 0C000000 		.word	.LC1
 201 00d4 00000000 		.word	gimbal_sub
 202              		.cfi_endproc
 203              	.LFE271:
 205              		.section	.text.GimbalTask,"ax",%progbits
 206              		.align	1
 207              		.global	GimbalTask
 208              		.syntax unified
 209              		.thumb
 210              		.thumb_func
 212              	GimbalTask:
 213              	.LFB272:
  69:application/gimbal/gimbal.c **** 
  70:application/gimbal/gimbal.c **** /* жңәеҷЁдәәдә‘еҸ°жҺ§еҲ¶ж ёеҝғд»»еҠЎ,еҗҺз»ӯиҖғиҷ‘еҸӘдҝқз•ҷIMUжҺ§еҲ¶,дёҚеҶҚйңҖиҰҒз”өжңәзҡ„еҸҚйҰҲ */
  71:application/gimbal/gimbal.c **** void GimbalTask()
  72:application/gimbal/gimbal.c **** {
 214              		.loc 1 72 1 is_stmt 1 view -0
 215              		.cfi_startproc
 216              		@ args = 0, pretend = 0, frame = 0
 217              		@ frame_needed = 0, uses_anonymous_args = 0
 218 0000 38B5     		push	{r3, r4, r5, lr}
 219              	.LCFI1:
 220              		.cfi_def_cfa_offset 16
 221              		.cfi_offset 3, -16
 222              		.cfi_offset 4, -12
 223              		.cfi_offset 5, -8
 224              		.cfi_offset 14, -4
  73:application/gimbal/gimbal.c ****     // иҺ·еҸ–дә‘еҸ°жҺ§еҲ¶ж•°жҚ®
  74:application/gimbal/gimbal.c ****     // еҗҺз»ӯеўһеҠ жңӘж”¶еҲ°ж•°жҚ®зҡ„еӨ„зҗҶ
  75:application/gimbal/gimbal.c ****     SubGetMessage(gimbal_sub, &gimbal_cmd_recv);
 225              		.loc 1 75 5 view .LVU63
 226 0002 584C     		ldr	r4, .L25
 227 0004 2146     		mov	r1, r4
 228 0006 584B     		ldr	r3, .L25+4
 229 0008 1868     		ldr	r0, [r3]
 230 000a FFF7FEFF 		bl	SubGetMessage
 231              	.LVL9:
  76:application/gimbal/gimbal.c **** 
  77:application/gimbal/gimbal.c ****     // @todo:зҺ°еңЁе·ІдёҚеҶҚйңҖиҰҒз”өжңәеҸҚйҰҲ,е®һйҷ…дёҠеҸҜд»Ҙе§Ӣз»ҲдҪҝз”ЁIMUзҡ„е§ҝжҖҒж•°жҚ®жқҘдҪңд
  78:application/gimbal/gimbal.c ****     // ж №жҚ®жҺ§еҲ¶жЁЎејҸиҝӣиЎҢз”өжңәеҸҚйҰҲеҲҮжҚўе’ҢиҝҮжёЎ,и§Ҷи§үжЁЎејҸеңЁrobot_cmdжЁЎеқ—е°ұе·Із»Ҹи
  79:application/gimbal/gimbal.c ****     switch (gimbal_cmd_recv.gimbal_mode)
 232              		.loc 1 79 5 view .LVU64
 233              		.loc 1 79 28 is_stmt 0 view .LVU65
 234 000e 237C     		ldrb	r3, [r4, #16]	@ zero_extendqisi2
 235              		.loc 1 79 5 view .LVU66
 236 0010 F3B1     		cbz	r3, .L12
 237 0012 012B     		cmp	r3, #1
 238 0014 3CD0     		beq	.L13
 239              	.L14:
  80:application/gimbal/gimbal.c ****     {
  81:application/gimbal/gimbal.c ****     // еҒңжӯў
  82:application/gimbal/gimbal.c ****     case GIMBAL_ZERO_FORCE:
  83:application/gimbal/gimbal.c ****         DJIMotorStop(yaw_motor);
  84:application/gimbal/gimbal.c ****         if (gimbal_config->gimbal_type == MINI_GIMBAL)
  85:application/gimbal/gimbal.c ****             DJIMotorStop(mini_yaw_motor);
  86:application/gimbal/gimbal.c ****         switch (gimbal_config->pitch_motor_config.motor_type)
  87:application/gimbal/gimbal.c ****         {
ARM GAS  C:\Users\10542\AppData\Local\Temp\ccIubkqg.s 			page 7


  88:application/gimbal/gimbal.c ****         case GM6020:
  89:application/gimbal/gimbal.c ****             DJIMotorStop(pitch_motor);
  90:application/gimbal/gimbal.c ****             break;
  91:application/gimbal/gimbal.c ****         case XMCY:
  92:application/gimbal/gimbal.c ****             XMMotorStop(pitch_xmmotor);
  93:application/gimbal/gimbal.c ****             break;
  94:application/gimbal/gimbal.c ****         default:
  95:application/gimbal/gimbal.c ****             break;
  96:application/gimbal/gimbal.c ****         }
  97:application/gimbal/gimbal.c ****         break;
  98:application/gimbal/gimbal.c ****     // дҪҝз”ЁйҷҖиһәд»Әзҡ„еҸҚйҰҲ,еә•зӣҳж №жҚ®yawз”өжңәзҡ„offsetи·ҹйҡҸдә‘еҸ°жҲ–и§Ҷи§үжЁЎејҸйҮҮз”Ё
  99:application/gimbal/gimbal.c ****     case GIMBAL_GYRO_MODE: 
 100:application/gimbal/gimbal.c ****         if (gimbal_config->gimbal_type == MINI_GIMBAL)
 101:application/gimbal/gimbal.c ****         {
 102:application/gimbal/gimbal.c ****             DJIMotorEnable(mini_yaw_motor);
 103:application/gimbal/gimbal.c ****             DJIMotorSetRef(mini_yaw_motor, gimbal_cmd_recv.mini_yaw); // yawе’ҢpitchдјҡеңЁrobot_cmd
 104:application/gimbal/gimbal.c **** 
 105:application/gimbal/gimbal.c ****             DJIMotorEnable(yaw_motor);
 106:application/gimbal/gimbal.c ****             DJIMotorChangeFeed(yaw_motor, ANGLE_LOOP, OTHER_FEED);
 107:application/gimbal/gimbal.c ****             DJIMotorChangeFeed(yaw_motor, SPEED_LOOP, OTHER_FEED);
 108:application/gimbal/gimbal.c ****             DJIMotorSetRef(yaw_motor, 30.0f); // yawе’ҢpitchдјҡеңЁrobot_cmdдёӯеӨ„зҗҶеҘҪеӨҡеңҲе’ҢеҚ•
 109:application/gimbal/gimbal.c ****         }
 110:application/gimbal/gimbal.c ****         else
 111:application/gimbal/gimbal.c ****         {
 112:application/gimbal/gimbal.c ****             DJIMotorEnable(yaw_motor);
 113:application/gimbal/gimbal.c ****             DJIMotorChangeFeed(yaw_motor, ANGLE_LOOP, OTHER_FEED);
 114:application/gimbal/gimbal.c ****             DJIMotorChangeFeed(yaw_motor, SPEED_LOOP, OTHER_FEED);
 115:application/gimbal/gimbal.c ****             DJIMotorSetRef(yaw_motor, gimbal_cmd_recv.yaw); // yawе’ҢpitchдјҡеңЁrobot_cmdдёӯеӨ„зҗҶе
 116:application/gimbal/gimbal.c ****         }
 117:application/gimbal/gimbal.c ****     
 118:application/gimbal/gimbal.c ****         switch (gimbal_config->pitch_motor_config.motor_type)
 119:application/gimbal/gimbal.c ****         {
 120:application/gimbal/gimbal.c ****         case GM6020:
 121:application/gimbal/gimbal.c ****             DJIMotorEnable(pitch_motor);
 122:application/gimbal/gimbal.c ****             DJIMotorChangeFeed(pitch_motor, ANGLE_LOOP, OTHER_FEED);
 123:application/gimbal/gimbal.c ****             DJIMotorChangeFeed(pitch_motor, SPEED_LOOP, OTHER_FEED);
 124:application/gimbal/gimbal.c ****             DJIMotorSetRef(pitch_motor, gimbal_cmd_recv.pitch);
 125:application/gimbal/gimbal.c ****             break;
 126:application/gimbal/gimbal.c ****         case XMCY:
 127:application/gimbal/gimbal.c ****             XMMotorEnable(pitch_xmmotor);
 128:application/gimbal/gimbal.c ****             XMMotorChangeFeed(pitch_xmmotor, ANGLE_LOOP, OTHER_FEED);
 129:application/gimbal/gimbal.c ****             XMMotorChangeFeed(pitch_xmmotor, SPEED_LOOP, OTHER_FEED);
 130:application/gimbal/gimbal.c ****             XMMotorSetRef(pitch_xmmotor, gimbal_cmd_recv.pitch);
 131:application/gimbal/gimbal.c ****             break;
 132:application/gimbal/gimbal.c ****         default:
 133:application/gimbal/gimbal.c ****             break;
 134:application/gimbal/gimbal.c ****         }
 135:application/gimbal/gimbal.c ****         break;
 136:application/gimbal/gimbal.c ****     default:
 137:application/gimbal/gimbal.c ****         break;
 138:application/gimbal/gimbal.c ****     }
 139:application/gimbal/gimbal.c ****     
 140:application/gimbal/gimbal.c ****     // еңЁеҗҲйҖӮзҡ„ең°ж–№ж·»еҠ pitchйҮҚеҠӣиЎҘеҒҝеүҚйҰҲеҠӣзҹ©
 141:application/gimbal/gimbal.c ****     // ж №жҚ®IMUе§ҝжҖҒ/pitchз”өжңәи§’еәҰеҸҚйҰҲи®Ўз®—еҮәеҪ“еүҚй…ҚйҮҚдёӢзҡ„йҮҚеҠӣзҹ©
 142:application/gimbal/gimbal.c ****     // ...
 143:application/gimbal/gimbal.c **** 
 144:application/gimbal/gimbal.c ****     // и®ҫзҪ®еҸҚйҰҲж•°жҚ®,дё»иҰҒжҳҜimuе’Ңyawзҡ„ecd,иҝҳжңүдә‘еҸ°з”өжңәзҠ¶жҖҒ
ARM GAS  C:\Users\10542\AppData\Local\Temp\ccIubkqg.s 			page 8


 145:application/gimbal/gimbal.c ****     gimbal_feedback_data.gimbal_imu_data = *gimba_IMU_data;
 240              		.loc 1 145 5 is_stmt 1 view .LVU67
 241              		.loc 1 145 42 is_stmt 0 view .LVU68
 242 0016 554D     		ldr	r5, .L25+8
 243 0018 AC46     		mov	ip, r5
 244 001a 554B     		ldr	r3, .L25+12
 245 001c 1C68     		ldr	r4, [r3]
 246 001e 0FCC     		ldmia	r4!, {r0, r1, r2, r3}
 247 0020 ACE80F00 		stmia	ip!, {r0, r1, r2, r3}
 248 0024 0FCC     		ldmia	r4!, {r0, r1, r2, r3}
 249 0026 ACE80F00 		stmia	ip!, {r0, r1, r2, r3}
 250 002a 94E80300 		ldm	r4, {r0, r1}
 251 002e 8CE80300 		stm	ip, {r0, r1}
 146:application/gimbal/gimbal.c ****     gimbal_feedback_data.yaw_motor_single_round_angle = yaw_motor->measure.angle_single_round;
 252              		.loc 1 146 5 is_stmt 1 view .LVU69
 253              		.loc 1 146 66 is_stmt 0 view .LVU70
 254 0032 504B     		ldr	r3, .L25+16
 255 0034 1B68     		ldr	r3, [r3]
 256              		.loc 1 146 75 view .LVU71
 257 0036 D3ED017A 		vldr.32	s15, [r3, #4]
 258              		.loc 1 146 55 view .LVU72
 259 003a FCEEE77A 		vcvt.u32.f32	s15, s15
 260 003e 17EE903A 		vmov	r3, s15	@ int
 261 0042 2B85     		strh	r3, [r5, #40]	@ movhi
 147:application/gimbal/gimbal.c **** 
 148:application/gimbal/gimbal.c ****     // ж №жҚ®з”өжңәзҠ¶жҖҒеҸҚйҰҲжҳҜеҗҰзҰ»зәҝ
 149:application/gimbal/gimbal.c ****     // DJIMotorIsOnline(yaw_motor);
 150:application/gimbal/gimbal.c ****     // DJIMotorIsOnline(pitch_motor);
 151:application/gimbal/gimbal.c ****     // // еҸҚйҰҲз”өжңәзҰ»зәҝж•°йҮҸ
 152:application/gimbal/gimbal.c ****     // if (yaw_motor->online_flag == MOTOR_OFFLINE || pitch_motor->online_flag == MOTOR_OFFLINE)
 153:application/gimbal/gimbal.c ****     // {
 154:application/gimbal/gimbal.c ****     //     gimbal_feedback_data.motor_offline_count = 1;
 155:application/gimbal/gimbal.c ****     //     gimbal_feedback_data.motor_state = GIMBAL_MOTOR_OFFLINE;
 156:application/gimbal/gimbal.c ****     // }
 157:application/gimbal/gimbal.c ****     // else if(yaw_motor->online_flag == MOTOR_OFFLINE && pitch_motor->online_flag == MOTOR_OFFLINE
 158:application/gimbal/gimbal.c ****     // {
 159:application/gimbal/gimbal.c ****     //     gimbal_feedback_data.motor_offline_count = 2;
 160:application/gimbal/gimbal.c ****     //     gimbal_feedback_data.motor_state = GIMBAL_MOTOR_OFFLINE;
 161:application/gimbal/gimbal.c ****     // }
 162:application/gimbal/gimbal.c ****     // else 
 163:application/gimbal/gimbal.c ****     // {
 164:application/gimbal/gimbal.c ****     //     gimbal_feedback_data.motor_offline_count = 0;
 165:application/gimbal/gimbal.c ****     //     gimbal_feedback_data.motor_state = GIMBAL_MOTOR_ONLINE;
 166:application/gimbal/gimbal.c ****     // }
 167:application/gimbal/gimbal.c **** 
 168:application/gimbal/gimbal.c ****     // жҺЁйҖҒж¶ҲжҒҜ
 169:application/gimbal/gimbal.c ****     PubPushMessage(gimbal_pub, (void *)&gimbal_feedback_data);
 262              		.loc 1 169 5 is_stmt 1 view .LVU73
 263 0044 2946     		mov	r1, r5
 264 0046 4C4B     		ldr	r3, .L25+20
 265 0048 1868     		ldr	r0, [r3]
 266 004a FFF7FEFF 		bl	PubPushMessage
 267              	.LVL10:
 170:application/gimbal/gimbal.c **** }...
 268              		.loc 1 170 1 is_stmt 0 view .LVU74
 269 004e 38BD     		pop	{r3, r4, r5, pc}
 270              	.L12:
ARM GAS  C:\Users\10542\AppData\Local\Temp\ccIubkqg.s 			page 9


  83:application/gimbal/gimbal.c ****         DJIMotorStop(yaw_motor);
 271              		.loc 1 83 9 is_stmt 1 view .LVU75
 272 0050 484B     		ldr	r3, .L25+16
 273 0052 1868     		ldr	r0, [r3]
 274 0054 FFF7FEFF 		bl	DJIMotorStop
 275              	.LVL11:
  84:application/gimbal/gimbal.c ****         if (gimbal_config->gimbal_type == MINI_GIMBAL)
 276              		.loc 1 84 9 view .LVU76
  84:application/gimbal/gimbal.c ****         if (gimbal_config->gimbal_type == MINI_GIMBAL)
 277              		.loc 1 84 26 is_stmt 0 view .LVU77
 278 0058 484B     		ldr	r3, .L25+24
 279 005a 1B68     		ldr	r3, [r3]
 280 005c 1B78     		ldrb	r3, [r3]	@ zero_extendqisi2
  84:application/gimbal/gimbal.c ****         if (gimbal_config->gimbal_type == MINI_GIMBAL)
 281              		.loc 1 84 12 view .LVU78
 282 005e 012B     		cmp	r3, #1
 283 0060 0CD0     		beq	.L23
 284              	.L15:
  86:application/gimbal/gimbal.c ****         switch (gimbal_config->pitch_motor_config.motor_type)
 285              		.loc 1 86 9 is_stmt 1 view .LVU79
  86:application/gimbal/gimbal.c ****         switch (gimbal_config->pitch_motor_config.motor_type)
 286              		.loc 1 86 30 is_stmt 0 view .LVU80
 287 0062 464B     		ldr	r3, .L25+24
 288 0064 1B68     		ldr	r3, [r3]
  86:application/gimbal/gimbal.c ****         switch (gimbal_config->pitch_motor_config.motor_type)
 289              		.loc 1 86 50 view .LVU81
 290 0066 93F82432 		ldrb	r3, [r3, #548]	@ zero_extendqisi2
  86:application/gimbal/gimbal.c ****         switch (gimbal_config->pitch_motor_config.motor_type)
 291              		.loc 1 86 9 view .LVU82
 292 006a 012B     		cmp	r3, #1
 293 006c 0BD0     		beq	.L16
 294 006e 072B     		cmp	r3, #7
 295 0070 D1D1     		bne	.L14
  92:application/gimbal/gimbal.c ****             XMMotorStop(pitch_xmmotor);
 296              		.loc 1 92 13 is_stmt 1 view .LVU83
 297 0072 434B     		ldr	r3, .L25+28
 298 0074 1868     		ldr	r0, [r3]
 299 0076 FFF7FEFF 		bl	XMMotorStop
 300              	.LVL12:
  93:application/gimbal/gimbal.c ****             break;
 301              		.loc 1 93 13 view .LVU84
 302 007a CCE7     		b	.L14
 303              	.L23:
  85:application/gimbal/gimbal.c ****             DJIMotorStop(mini_yaw_motor);
 304              		.loc 1 85 13 view .LVU85
 305 007c 414B     		ldr	r3, .L25+32
 306 007e 1868     		ldr	r0, [r3]
 307 0080 FFF7FEFF 		bl	DJIMotorStop
 308              	.LVL13:
 309 0084 EDE7     		b	.L15
 310              	.L16:
  89:application/gimbal/gimbal.c ****             DJIMotorStop(pitch_motor);
 311              		.loc 1 89 13 view .LVU86
 312 0086 404B     		ldr	r3, .L25+36
 313 0088 1868     		ldr	r0, [r3]
 314 008a FFF7FEFF 		bl	DJIMotorStop
 315              	.LVL14:
ARM GAS  C:\Users\10542\AppData\Local\Temp\ccIubkqg.s 			page 10


  90:application/gimbal/gimbal.c ****             break;
 316              		.loc 1 90 13 view .LVU87
 317 008e C2E7     		b	.L14
 318              	.L13:
 100:application/gimbal/gimbal.c ****         if (gimbal_config->gimbal_type == MINI_GIMBAL)
 319              		.loc 1 100 9 view .LVU88
 100:application/gimbal/gimbal.c ****         if (gimbal_config->gimbal_type == MINI_GIMBAL)
 320              		.loc 1 100 26 is_stmt 0 view .LVU89
 321 0090 3A4B     		ldr	r3, .L25+24
 322 0092 1B68     		ldr	r3, [r3]
 323 0094 1B78     		ldrb	r3, [r3]	@ zero_extendqisi2
 100:application/gimbal/gimbal.c ****         if (gimbal_config->gimbal_type == MINI_GIMBAL)
 324              		.loc 1 100 12 view .LVU90
 325 0096 012B     		cmp	r3, #1
 326 0098 30D0     		beq	.L24
 112:application/gimbal/gimbal.c ****             DJIMotorEnable(yaw_motor);
 327              		.loc 1 112 13 is_stmt 1 view .LVU91
 328 009a 364C     		ldr	r4, .L25+16
 329 009c 2068     		ldr	r0, [r4]
 330 009e FFF7FEFF 		bl	DJIMotorEnable
 331              	.LVL15:
 113:application/gimbal/gimbal.c ****             DJIMotorChangeFeed(yaw_motor, ANGLE_LOOP, OTHER_FEED);
 332              		.loc 1 113 13 view .LVU92
 333 00a2 0122     		movs	r2, #1
 334 00a4 0421     		movs	r1, #4
 335 00a6 2068     		ldr	r0, [r4]
 336 00a8 FFF7FEFF 		bl	DJIMotorChangeFeed
 337              	.LVL16:
 114:application/gimbal/gimbal.c ****             DJIMotorChangeFeed(yaw_motor, SPEED_LOOP, OTHER_FEED);
 338              		.loc 1 114 13 view .LVU93
 339 00ac 0122     		movs	r2, #1
 340 00ae 0221     		movs	r1, #2
 341 00b0 2068     		ldr	r0, [r4]
 342 00b2 FFF7FEFF 		bl	DJIMotorChangeFeed
 343              	.LVL17:
 115:application/gimbal/gimbal.c ****             DJIMotorSetRef(yaw_motor, gimbal_cmd_recv.yaw); // yawе’ҢpitchдјҡеңЁrobot_cmdдёӯеӨ„зҗҶе
 344              		.loc 1 115 13 view .LVU94
 345 00b6 2B4B     		ldr	r3, .L25
 346 00b8 93ED000A 		vldr.32	s0, [r3]
 347 00bc 2068     		ldr	r0, [r4]
 348 00be FFF7FEFF 		bl	DJIMotorSetRef
 349              	.LVL18:
 350              	.L19:
 118:application/gimbal/gimbal.c ****         switch (gimbal_config->pitch_motor_config.motor_type)
 351              		.loc 1 118 9 view .LVU95
 118:application/gimbal/gimbal.c ****         switch (gimbal_config->pitch_motor_config.motor_type)
 352              		.loc 1 118 30 is_stmt 0 view .LVU96
 353 00c2 2E4B     		ldr	r3, .L25+24
 354 00c4 1B68     		ldr	r3, [r3]
 118:application/gimbal/gimbal.c ****         switch (gimbal_config->pitch_motor_config.motor_type)
 355              		.loc 1 118 50 view .LVU97
 356 00c6 93F82432 		ldrb	r3, [r3, #548]	@ zero_extendqisi2
 118:application/gimbal/gimbal.c ****         switch (gimbal_config->pitch_motor_config.motor_type)
 357              		.loc 1 118 9 view .LVU98
 358 00ca 012B     		cmp	r3, #1
 359 00cc 34D0     		beq	.L20
 360 00ce 072B     		cmp	r3, #7
ARM GAS  C:\Users\10542\AppData\Local\Temp\ccIubkqg.s 			page 11


 361 00d0 A1D1     		bne	.L14
 127:application/gimbal/gimbal.c ****             XMMotorEnable(pitch_xmmotor);
 362              		.loc 1 127 13 is_stmt 1 view .LVU99
 363 00d2 2B4C     		ldr	r4, .L25+28
 364 00d4 2068     		ldr	r0, [r4]
 365 00d6 FFF7FEFF 		bl	XMMotorEnable
 366              	.LVL19:
 128:application/gimbal/gimbal.c ****             XMMotorChangeFeed(pitch_xmmotor, ANGLE_LOOP, OTHER_FEED);
 367              		.loc 1 128 13 view .LVU100
 368 00da 0122     		movs	r2, #1
 369 00dc 0421     		movs	r1, #4
 370 00de 2068     		ldr	r0, [r4]
 371 00e0 FFF7FEFF 		bl	XMMotorChangeFeed
 372              	.LVL20:
 129:application/gimbal/gimbal.c ****             XMMotorChangeFeed(pitch_xmmotor, SPEED_LOOP, OTHER_FEED);
 373              		.loc 1 129 13 view .LVU101
 374 00e4 0122     		movs	r2, #1
 375 00e6 0221     		movs	r1, #2
 376 00e8 2068     		ldr	r0, [r4]
 377 00ea FFF7FEFF 		bl	XMMotorChangeFeed
 378              	.LVL21:
 130:application/gimbal/gimbal.c ****             XMMotorSetRef(pitch_xmmotor, gimbal_cmd_recv.pitch);
 379              		.loc 1 130 13 view .LVU102
 380 00ee 1D4B     		ldr	r3, .L25
 381 00f0 93ED010A 		vldr.32	s0, [r3, #4]
 382 00f4 2068     		ldr	r0, [r4]
 383 00f6 FFF7FEFF 		bl	XMMotorSetRef
 384              	.LVL22:
 131:application/gimbal/gimbal.c ****             break;
 385              		.loc 1 131 13 view .LVU103
 386 00fa 8CE7     		b	.L14
 387              	.L24:
 102:application/gimbal/gimbal.c ****             DJIMotorEnable(mini_yaw_motor);
 388              		.loc 1 102 13 view .LVU104
 389 00fc 214C     		ldr	r4, .L25+32
 390 00fe 2068     		ldr	r0, [r4]
 391 0100 FFF7FEFF 		bl	DJIMotorEnable
 392              	.LVL23:
 103:application/gimbal/gimbal.c ****             DJIMotorSetRef(mini_yaw_motor, gimbal_cmd_recv.mini_yaw); // yawе’ҢpitchдјҡеңЁrobot_cmd
 393              		.loc 1 103 13 view .LVU105
 394 0104 174B     		ldr	r3, .L25
 395 0106 93ED030A 		vldr.32	s0, [r3, #12]
 396 010a 2068     		ldr	r0, [r4]
 397 010c FFF7FEFF 		bl	DJIMotorSetRef
 398              	.LVL24:
 105:application/gimbal/gimbal.c ****             DJIMotorEnable(yaw_motor);
 399              		.loc 1 105 13 view .LVU106
 400 0110 184C     		ldr	r4, .L25+16
 401 0112 2068     		ldr	r0, [r4]
 402 0114 FFF7FEFF 		bl	DJIMotorEnable
 403              	.LVL25:
 106:application/gimbal/gimbal.c ****             DJIMotorChangeFeed(yaw_motor, ANGLE_LOOP, OTHER_FEED);
 404              		.loc 1 106 13 view .LVU107
 405 0118 0122     		movs	r2, #1
 406 011a 0421     		movs	r1, #4
 407 011c 2068     		ldr	r0, [r4]
 408 011e FFF7FEFF 		bl	DJIMotorChangeFeed
ARM GAS  C:\Users\10542\AppData\Local\Temp\ccIubkqg.s 			page 12


 409              	.LVL26:
 107:application/gimbal/gimbal.c ****             DJIMotorChangeFeed(yaw_motor, SPEED_LOOP, OTHER_FEED);
 410              		.loc 1 107 13 view .LVU108
 411 0122 0122     		movs	r2, #1
 412 0124 0221     		movs	r1, #2
 413 0126 2068     		ldr	r0, [r4]
 414 0128 FFF7FEFF 		bl	DJIMotorChangeFeed
 415              	.LVL27:
 108:application/gimbal/gimbal.c ****             DJIMotorSetRef(yaw_motor, 30.0f); // yawе’ҢpitchдјҡеңЁrobot_cmdдёӯеӨ„зҗҶеҘҪеӨҡеңҲе’ҢеҚ•
 416              		.loc 1 108 13 view .LVU109
 417 012c B3EE0E0A 		vmov.f32	s0, #3.0e+1
 418 0130 2068     		ldr	r0, [r4]
 419 0132 FFF7FEFF 		bl	DJIMotorSetRef
 420              	.LVL28:
 421 0136 C4E7     		b	.L19
 422              	.L20:
 121:application/gimbal/gimbal.c ****             DJIMotorEnable(pitch_motor);
 423              		.loc 1 121 13 view .LVU110
 424 0138 134C     		ldr	r4, .L25+36
 425 013a 2068     		ldr	r0, [r4]
 426 013c FFF7FEFF 		bl	DJIMotorEnable
 427              	.LVL29:
 122:application/gimbal/gimbal.c ****             DJIMotorChangeFeed(pitch_motor, ANGLE_LOOP, OTHER_FEED);
 428              		.loc 1 122 13 view .LVU111
 429 0140 0122     		movs	r2, #1
 430 0142 0421     		movs	r1, #4
 431 0144 2068     		ldr	r0, [r4]
 432 0146 FFF7FEFF 		bl	DJIMotorChangeFeed
 433              	.LVL30:
 123:application/gimbal/gimbal.c ****             DJIMotorChangeFeed(pitch_motor, SPEED_LOOP, OTHER_FEED);
 434              		.loc 1 123 13 view .LVU112
 435 014a 0122     		movs	r2, #1
 436 014c 0221     		movs	r1, #2
 437 014e 2068     		ldr	r0, [r4]
 438 0150 FFF7FEFF 		bl	DJIMotorChangeFeed
 439              	.LVL31:
 124:application/gimbal/gimbal.c ****             DJIMotorSetRef(pitch_motor, gimbal_cmd_recv.pitch);
 440              		.loc 1 124 13 view .LVU113
 441 0154 034B     		ldr	r3, .L25
 442 0156 93ED010A 		vldr.32	s0, [r3, #4]
 443 015a 2068     		ldr	r0, [r4]
 444 015c FFF7FEFF 		bl	DJIMotorSetRef
 445              	.LVL32:
 125:application/gimbal/gimbal.c ****             break;
 446              		.loc 1 125 13 view .LVU114
 447 0160 59E7     		b	.L14
 448              	.L26:
 449 0162 00BF     		.align	2
 450              	.L25:
 451 0164 00000000 		.word	gimbal_cmd_recv
 452 0168 00000000 		.word	gimbal_sub
 453 016c 00000000 		.word	gimbal_feedback_data
 454 0170 00000000 		.word	gimba_IMU_data
 455 0174 00000000 		.word	yaw_motor
 456 0178 00000000 		.word	gimbal_pub
 457 017c 00000000 		.word	gimbal_config
 458 0180 00000000 		.word	pitch_xmmotor
ARM GAS  C:\Users\10542\AppData\Local\Temp\ccIubkqg.s 			page 13


 459 0184 00000000 		.word	mini_yaw_motor
 460 0188 00000000 		.word	pitch_motor
 461              		.cfi_endproc
 462              	.LFE272:
 464              		.section	.bss.gimbal_cmd_recv,"aw",%nobits
 465              		.align	2
 468              	gimbal_cmd_recv:
 469 0000 00000000 		.space	17
 469      00000000 
 469      00000000 
 469      00000000 
 469      00
 470              		.section	.bss.gimbal_feedback_data,"aw",%nobits
 471              		.align	2
 474              	gimbal_feedback_data:
 475 0000 00000000 		.space	44
 475      00000000 
 475      00000000 
 475      00000000 
 475      00000000 
 476              		.section	.bss.gimbal_sub,"aw",%nobits
 477              		.align	2
 480              	gimbal_sub:
 481 0000 00000000 		.space	4
 482              		.section	.bss.gimbal_pub,"aw",%nobits
 483              		.align	2
 486              	gimbal_pub:
 487 0000 00000000 		.space	4
 488              		.section	.bss.pitch_xmmotor,"aw",%nobits
 489              		.align	2
 492              	pitch_xmmotor:
 493 0000 00000000 		.space	4
 494              		.section	.bss.pitch_motor,"aw",%nobits
 495              		.align	2
 498              	pitch_motor:
 499 0000 00000000 		.space	4
 500              		.section	.bss.mini_yaw_motor,"aw",%nobits
 501              		.align	2
 504              	mini_yaw_motor:
 505 0000 00000000 		.space	4
 506              		.section	.bss.yaw_motor,"aw",%nobits
 507              		.align	2
 510              	yaw_motor:
 511 0000 00000000 		.space	4
 512              		.section	.bss.gimba_IMU_data,"aw",%nobits
 513              		.align	2
 516              	gimba_IMU_data:
 517 0000 00000000 		.space	4
 518              		.section	.bss.gimbal_config,"aw",%nobits
 519              		.align	2
 522              	gimbal_config:
 523 0000 00000000 		.space	4
 524              		.text
 525              	.Letext0:
 526              		.file 2 "E:/MSYS2/mingw64/arm-none-eabi/include/machine/_default_types.h"
 527              		.file 3 "E:/MSYS2/mingw64/arm-none-eabi/include/sys/_stdint.h"
 528              		.file 4 "Drivers/CMSIS/Device/ST/STM32F4xx/Include/stm32f407xx.h"
ARM GAS  C:\Users\10542\AppData\Local\Temp\ccIubkqg.s 			page 14


 529              		.file 5 "Drivers/CMSIS/Device/ST/STM32F4xx/Include/stm32f4xx.h"
 530              		.file 6 "Drivers/STM32F4xx_HAL_Driver/Inc/stm32f4xx_hal_def.h"
 531              		.file 7 "Drivers/STM32F4xx_HAL_Driver/Inc/stm32f4xx_hal_gpio.h"
 532              		.file 8 "Drivers/STM32F4xx_HAL_Driver/Inc/stm32f4xx_hal_dma.h"
 533              		.file 9 "Drivers/STM32F4xx_HAL_Driver/Inc/stm32f4xx_hal_can.h"
 534              		.file 10 "Drivers/STM32F4xx_HAL_Driver/Inc/stm32f4xx_hal_spi.h"
 535              		.file 11 "Drivers/STM32F4xx_HAL_Driver/Inc/stm32f4xx_hal_tim.h"
 536              		.file 12 "modules/imu/ins_task.h"
 537              		.file 13 "bsp/can/bsp_can.h"
 538              		.file 14 "modules/algorithm/controller.h"
 539              		.file 15 "modules/motor/motor_def.h"
 540              		.file 16 "application/config/config.h"
 541              		.file 17 "application/robot_def.h"
 542              		.file 18 "modules/daemon/daemon.h"
 543              		.file 19 "modules/motor/DJImotor/dji_motor.h"
 544              		.file 20 "modules/motor/XMmotor/xmmotor.h"
 545              		.file 21 "modules/message_center/message_center.h"
 546              		.file 22 "bsp/spi/bsp_spi.h"
 547              		.file 23 "bsp/gpio/bsp_gpio.h"
 548              		.file 24 "bsp/pwm/bsp_pwm.h"
 549              		.file 25 "modules/BMI088/bmi088.h"
ARM GAS  C:\Users\10542\AppData\Local\Temp\ccIubkqg.s 			page 15

