ARM GAS  C:\Users\10542\AppData\Local\Temp\ccqpPFfm.s 			page 1


   1              		.cpu cortex-m4
   2              		.arch armv7e-m
   3              		.fpu fpv4-sp-d16
   4              		.eabi_attribute 27, 1
   5              		.eabi_attribute 28, 1
   6              		.eabi_attribute 20, 1
   7              		.eabi_attribute 21, 1
   8              		.eabi_attribute 23, 3
   9              		.eabi_attribute 24, 1
  10              		.eabi_attribute 25, 1
  11              		.eabi_attribute 26, 1
  12              		.eabi_attribute 30, 1
  13              		.eabi_attribute 34, 1
  14              		.eabi_attribute 18, 4
  15              		.file	"infantry_config.c"
  16              		.text
  17              	.Ltext0:
  18              		.cfi_sections	.debug_frame
  19              		.file 1 "application/config/infantry_robot/infantry_config.c"
  20              		.section	.text.InfantryConfigInit,"ax",%progbits
  21              		.align	1
  22              		.global	InfantryConfigInit
  23              		.syntax unified
  24              		.thumb
  25              		.thumb_func
  27              	InfantryConfigInit:
  28              	.LVL0:
  29              	.LFB276:
   1:application/config/infantry_robot/infantry_config.c **** #include "infantry_config.h"
   2:application/config/infantry_robot/infantry_config.c **** 
   3:application/config/infantry_robot/infantry_config.c **** Robot_Config_s *InfantryConfigInit(uint8_t robot_id) 
   4:application/config/infantry_robot/infantry_config.c **** {
  30              		.loc 1 4 1 view -0
  31              		.cfi_startproc
  32              		@ args = 0, pretend = 0, frame = 0
  33              		@ frame_needed = 0, uses_anonymous_args = 0
  34              		@ link register save eliminated.
   5:application/config/infantry_robot/infantry_config.c ****     switch (robot_id)
  35              		.loc 1 5 5 view .LVU1
  36 0000 0328     		cmp	r0, #3
  37 0002 02D0     		beq	.L3
  38 0004 0428     		cmp	r0, #4
  39 0006 02D0     		beq	.L4
  40              	.LVL1:
   6:application/config/infantry_robot/infantry_config.c ****     {
   7:application/config/infantry_robot/infantry_config.c ****     /*******************************************************三号步兵***************************
   8:application/config/infantry_robot/infantry_config.c ****     case INFANTRY_ROBOT_3:
   9:application/config/infantry_robot/infantry_config.c ****         static Robot_Config_s infantry_config_3 = { 
  10:application/config/infantry_robot/infantry_config.c ****             .chassis_param = {
  11:application/config/infantry_robot/infantry_config.c ****                 .chassis_motor_id[MOTOR_LF] = 1,
  12:application/config/infantry_robot/infantry_config.c ****                 .chassis_motor_id[MOTOR_RF] = 2,
  13:application/config/infantry_robot/infantry_config.c ****                 .chassis_motor_id[MOTOR_RB] = 3,
  14:application/config/infantry_robot/infantry_config.c ****                 .chassis_motor_id[MOTOR_LB] = 4,
  15:application/config/infantry_robot/infantry_config.c **** 
  16:application/config/infantry_robot/infantry_config.c ****                 .wheel_type = MECANUM_WHEEL,
  17:application/config/infantry_robot/infantry_config.c ****                 .wheel_measure = {
  18:application/config/infantry_robot/infantry_config.c ****                     .center_gimbal_offset_x = 0.0,
ARM GAS  C:\Users\10542\AppData\Local\Temp\ccqpPFfm.s 			page 2


  19:application/config/infantry_robot/infantry_config.c ****                     .center_gimbal_offset_y = 0.0,
  20:application/config/infantry_robot/infantry_config.c ****                     .wheel_base = 370,
  21:application/config/infantry_robot/infantry_config.c ****                     .track_width = 420,
  22:application/config/infantry_robot/infantry_config.c ****                     .radius_wheel = 75,
  23:application/config/infantry_robot/infantry_config.c ****                     .reduction_ratio_wheel = 19.0,
  24:application/config/infantry_robot/infantry_config.c ****                 },
  25:application/config/infantry_robot/infantry_config.c **** 
  26:application/config/infantry_robot/infantry_config.c ****                 .chassis_motor_config = {
  27:application/config/infantry_robot/infantry_config.c ****                     .can_init_config.can_handle = &hcan1,
  28:application/config/infantry_robot/infantry_config.c ****                     .controller_param_init_config = {
  29:application/config/infantry_robot/infantry_config.c ****                         .speed_PID = {
  30:application/config/infantry_robot/infantry_config.c ****                             .Kp = 5.0,
  31:application/config/infantry_robot/infantry_config.c ****                             .Ki = 1.0,
  32:application/config/infantry_robot/infantry_config.c ****                             .Kd = 0.0, 
  33:application/config/infantry_robot/infantry_config.c ****                             .IntegralLimit = 3000,
  34:application/config/infantry_robot/infantry_config.c ****                             .Improve = PID_Trapezoid_Intergral | PID_Integral_Limit | PID_Derivativ
  35:application/config/infantry_robot/infantry_config.c ****                             .MaxOut = 12000,
  36:application/config/infantry_robot/infantry_config.c ****                         },
  37:application/config/infantry_robot/infantry_config.c ****                         .current_PID = {
  38:application/config/infantry_robot/infantry_config.c ****                             .Kp = 0.5, 
  39:application/config/infantry_robot/infantry_config.c ****                             .Ki = 0.0,   
  40:application/config/infantry_robot/infantry_config.c ****                             .Kd = 0.0,
  41:application/config/infantry_robot/infantry_config.c ****                             .IntegralLimit = 3000,
  42:application/config/infantry_robot/infantry_config.c ****                             .Improve = PID_Trapezoid_Intergral | PID_Integral_Limit | PID_Derivativ
  43:application/config/infantry_robot/infantry_config.c ****                             .MaxOut = 15000,
  44:application/config/infantry_robot/infantry_config.c ****                         },
  45:application/config/infantry_robot/infantry_config.c ****                     },   
  46:application/config/infantry_robot/infantry_config.c ****                     .controller_setting_init_config = {
  47:application/config/infantry_robot/infantry_config.c ****                         .angle_feedback_source = MOTOR_FEED,
  48:application/config/infantry_robot/infantry_config.c ****                         .speed_feedback_source = MOTOR_FEED,
  49:application/config/infantry_robot/infantry_config.c ****                         .outer_loop_type = SPEED_LOOP,
  50:application/config/infantry_robot/infantry_config.c ****                         .close_loop_type = CURRENT_LOOP | SPEED_LOOP,
  51:application/config/infantry_robot/infantry_config.c ****                     },
  52:application/config/infantry_robot/infantry_config.c ****                     .motor_type = M3508,             
  53:application/config/infantry_robot/infantry_config.c ****                 }
  54:application/config/infantry_robot/infantry_config.c ****             },
  55:application/config/infantry_robot/infantry_config.c **** 
  56:application/config/infantry_robot/infantry_config.c **** 
  57:application/config/infantry_robot/infantry_config.c ****             .gimbal_param = {
  58:application/config/infantry_robot/infantry_config.c ****                 .gimbal_type = SINGLE_GIMBAL,
  59:application/config/infantry_robot/infantry_config.c ****                 .gimbal_offset = {
  60:application/config/infantry_robot/infantry_config.c ****                     .yaw_offset = 2640,
  61:application/config/infantry_robot/infantry_config.c ****                     .pitch_min_angle = -20.0f,
  62:application/config/infantry_robot/infantry_config.c ****                     .pitch_max_angle = 35.0f,
  63:application/config/infantry_robot/infantry_config.c ****                 },
  64:application/config/infantry_robot/infantry_config.c **** 
  65:application/config/infantry_robot/infantry_config.c ****                 .yaw_motor_config = {
  66:application/config/infantry_robot/infantry_config.c ****                     .can_init_config = {
  67:application/config/infantry_robot/infantry_config.c ****                         .can_handle = &hcan1,
  68:application/config/infantry_robot/infantry_config.c ****                         .tx_id = 1,
  69:application/config/infantry_robot/infantry_config.c ****                     },
  70:application/config/infantry_robot/infantry_config.c ****                     .controller_param_init_config = {
  71:application/config/infantry_robot/infantry_config.c ****                         .angle_PID = {
  72:application/config/infantry_robot/infantry_config.c ****                             .Kp = 15.0,
  73:application/config/infantry_robot/infantry_config.c ****                             .Ki = 0.0, 
  74:application/config/infantry_robot/infantry_config.c ****                             .Kd = 0.7, 
  75:application/config/infantry_robot/infantry_config.c ****                             .DeadBand = 0.1,
ARM GAS  C:\Users\10542\AppData\Local\Temp\ccqpPFfm.s 			page 3


  76:application/config/infantry_robot/infantry_config.c ****                             .Improve = PID_Trapezoid_Intergral | PID_Integral_Limit | PID_Derivativ
  77:application/config/infantry_robot/infantry_config.c ****                             .IntegralLimit = 100,
  78:application/config/infantry_robot/infantry_config.c ****                             .MaxOut = 500,
  79:application/config/infantry_robot/infantry_config.c ****                         },
  80:application/config/infantry_robot/infantry_config.c ****                         .speed_PID = {
  81:application/config/infantry_robot/infantry_config.c ****                             .Kp = 300.0, 
  82:application/config/infantry_robot/infantry_config.c ****                             .Ki = 150.0, 
  83:application/config/infantry_robot/infantry_config.c ****                             .Kd = 0.0,
  84:application/config/infantry_robot/infantry_config.c ****                             .Improve = PID_Trapezoid_Intergral | PID_Integral_Limit | PID_Derivativ
  85:application/config/infantry_robot/infantry_config.c ****                             .IntegralLimit = 3000,
  86:application/config/infantry_robot/infantry_config.c ****                             .MaxOut = 20000,
  87:application/config/infantry_robot/infantry_config.c ****                         },
  88:application/config/infantry_robot/infantry_config.c ****                     },
  89:application/config/infantry_robot/infantry_config.c ****                     .controller_setting_init_config = {
  90:application/config/infantry_robot/infantry_config.c ****                         .angle_feedback_source = OTHER_FEED,
  91:application/config/infantry_robot/infantry_config.c ****                         .speed_feedback_source = OTHER_FEED,
  92:application/config/infantry_robot/infantry_config.c ****                         .outer_loop_type = ANGLE_LOOP,
  93:application/config/infantry_robot/infantry_config.c ****                         .close_loop_type = ANGLE_LOOP | SPEED_LOOP,
  94:application/config/infantry_robot/infantry_config.c ****                         .motor_reverse_flag = MOTOR_DIRECTION_REVERSE,
  95:application/config/infantry_robot/infantry_config.c ****                         .feedback_reverse_flag = FEEDBACK_DIRECTION_NORMAL,
  96:application/config/infantry_robot/infantry_config.c ****                     },
  97:application/config/infantry_robot/infantry_config.c ****                     .motor_type = GM6020
  98:application/config/infantry_robot/infantry_config.c ****                 },        
  99:application/config/infantry_robot/infantry_config.c **** 
 100:application/config/infantry_robot/infantry_config.c ****                 .pitch_motor_config = {
 101:application/config/infantry_robot/infantry_config.c ****                     .can_init_config = {
 102:application/config/infantry_robot/infantry_config.c ****                         .can_handle = &hcan2,
 103:application/config/infantry_robot/infantry_config.c ****                         .tx_id = 2,
 104:application/config/infantry_robot/infantry_config.c ****                     },
 105:application/config/infantry_robot/infantry_config.c ****                     .controller_param_init_config = {
 106:application/config/infantry_robot/infantry_config.c ****                         .angle_PID = {
 107:application/config/infantry_robot/infantry_config.c ****                             .Kp = 15.0,
 108:application/config/infantry_robot/infantry_config.c ****                             .Ki = 0.0, 
 109:application/config/infantry_robot/infantry_config.c ****                             .Kd = 0.2, 
 110:application/config/infantry_robot/infantry_config.c ****                             .Improve = PID_Trapezoid_Intergral | PID_Integral_Limit | PID_Derivativ
 111:application/config/infantry_robot/infantry_config.c ****                             .IntegralLimit = 100,
 112:application/config/infantry_robot/infantry_config.c ****                             .MaxOut = 500,
 113:application/config/infantry_robot/infantry_config.c ****                         },
 114:application/config/infantry_robot/infantry_config.c ****                         .speed_PID = {
 115:application/config/infantry_robot/infantry_config.c ****                             .Kp = 250.0, 
 116:application/config/infantry_robot/infantry_config.c ****                             .Ki = 100.0, 
 117:application/config/infantry_robot/infantry_config.c ****                             .Kd = 0.0,
 118:application/config/infantry_robot/infantry_config.c ****                             .Improve = PID_Trapezoid_Intergral | PID_Integral_Limit | PID_Derivativ
 119:application/config/infantry_robot/infantry_config.c ****                             .IntegralLimit = 2500,
 120:application/config/infantry_robot/infantry_config.c ****                             .MaxOut = 20000,
 121:application/config/infantry_robot/infantry_config.c ****                         },
 122:application/config/infantry_robot/infantry_config.c ****                     },
 123:application/config/infantry_robot/infantry_config.c ****                     .controller_setting_init_config = {
 124:application/config/infantry_robot/infantry_config.c ****                         .angle_feedback_source = OTHER_FEED,
 125:application/config/infantry_robot/infantry_config.c ****                         .speed_feedback_source = OTHER_FEED,
 126:application/config/infantry_robot/infantry_config.c ****                         .outer_loop_type = ANGLE_LOOP,
 127:application/config/infantry_robot/infantry_config.c ****                         .close_loop_type = ANGLE_LOOP | SPEED_LOOP,
 128:application/config/infantry_robot/infantry_config.c ****                         .motor_reverse_flag = MOTOR_DIRECTION_REVERSE,
 129:application/config/infantry_robot/infantry_config.c ****                         .feedback_reverse_flag = FEEDBACK_DIRECTION_REVERSE,
 130:application/config/infantry_robot/infantry_config.c ****                     },
 131:application/config/infantry_robot/infantry_config.c ****                     .motor_type = GM6020
 132:application/config/infantry_robot/infantry_config.c ****                 }                
ARM GAS  C:\Users\10542\AppData\Local\Temp\ccqpPFfm.s 			page 4


 133:application/config/infantry_robot/infantry_config.c ****             },
 134:application/config/infantry_robot/infantry_config.c **** 
 135:application/config/infantry_robot/infantry_config.c ****             .shoot_param = {
 136:application/config/infantry_robot/infantry_config.c ****                 .friction_motor_id[MOTOR_LF] = 1,
 137:application/config/infantry_robot/infantry_config.c ****                 .friction_motor_id[MOTOR_RF] = 2,
 138:application/config/infantry_robot/infantry_config.c ****                 .friction_motor_reverse_flag[MOTOR_LF] = MOTOR_DIRECTION_NORMAL,
 139:application/config/infantry_robot/infantry_config.c ****                 .friction_motor_reverse_flag[MOTOR_RF] = MOTOR_DIRECTION_REVERSE,    
 140:application/config/infantry_robot/infantry_config.c **** 
 141:application/config/infantry_robot/infantry_config.c ****                 .shoot_type = DUAL_SHOOT,
 142:application/config/infantry_robot/infantry_config.c ****                 .friction_motor_config = {
 143:application/config/infantry_robot/infantry_config.c ****                     .can_init_config = {
 144:application/config/infantry_robot/infantry_config.c ****                         .can_handle = &hcan2,
 145:application/config/infantry_robot/infantry_config.c ****                     },
 146:application/config/infantry_robot/infantry_config.c ****                     .controller_param_init_config = {
 147:application/config/infantry_robot/infantry_config.c ****                         .speed_PID = {
 148:application/config/infantry_robot/infantry_config.c ****                             .Kp = 10.0, 
 149:application/config/infantry_robot/infantry_config.c ****                             .Ki = 1.0, 
 150:application/config/infantry_robot/infantry_config.c ****                             .Kd = 0.0,
 151:application/config/infantry_robot/infantry_config.c ****                             .Improve = PID_Integral_Limit,
 152:application/config/infantry_robot/infantry_config.c ****                             .IntegralLimit = 10000,
 153:application/config/infantry_robot/infantry_config.c ****                             .MaxOut = 25000,
 154:application/config/infantry_robot/infantry_config.c ****                         },
 155:application/config/infantry_robot/infantry_config.c ****                         .current_PID = {
 156:application/config/infantry_robot/infantry_config.c ****                             .Kp = 0.4, 
 157:application/config/infantry_robot/infantry_config.c ****                             .Ki = 0.0, 
 158:application/config/infantry_robot/infantry_config.c ****                             .Kd = 0.0,
 159:application/config/infantry_robot/infantry_config.c ****                             .Improve = PID_Integral_Limit,
 160:application/config/infantry_robot/infantry_config.c ****                             .IntegralLimit = 10000,
 161:application/config/infantry_robot/infantry_config.c ****                             .MaxOut = 15000,
 162:application/config/infantry_robot/infantry_config.c ****                         },
 163:application/config/infantry_robot/infantry_config.c ****                     },
 164:application/config/infantry_robot/infantry_config.c ****                     .controller_setting_init_config = {
 165:application/config/infantry_robot/infantry_config.c ****                         .angle_feedback_source = MOTOR_FEED,
 166:application/config/infantry_robot/infantry_config.c ****                         .speed_feedback_source = MOTOR_FEED,
 167:application/config/infantry_robot/infantry_config.c ****                         .outer_loop_type = SPEED_LOOP,
 168:application/config/infantry_robot/infantry_config.c ****                         .close_loop_type = SPEED_LOOP | CURRENT_LOOP,
 169:application/config/infantry_robot/infantry_config.c ****                         .motor_reverse_flag = MOTOR_DIRECTION_REVERSE,
 170:application/config/infantry_robot/infantry_config.c ****                     },
 171:application/config/infantry_robot/infantry_config.c ****                     .motor_type = M3508
 172:application/config/infantry_robot/infantry_config.c ****                 },
 173:application/config/infantry_robot/infantry_config.c **** 
 174:application/config/infantry_robot/infantry_config.c ****                 .loader_motor_config = {
 175:application/config/infantry_robot/infantry_config.c ****                     .can_init_config = {
 176:application/config/infantry_robot/infantry_config.c ****                         .can_handle = &hcan2,
 177:application/config/infantry_robot/infantry_config.c ****                         .tx_id = 5,
 178:application/config/infantry_robot/infantry_config.c ****                     },
 179:application/config/infantry_robot/infantry_config.c ****                     .controller_param_init_config = {
 180:application/config/infantry_robot/infantry_config.c ****                         .angle_PID = {
 181:application/config/infantry_robot/infantry_config.c ****                             // 如果启用位置环来控制发弹,需要较大的I值保证输出
 182:application/config/infantry_robot/infantry_config.c ****                             .Kp = 10.0, 
 183:application/config/infantry_robot/infantry_config.c ****                             .Ki = 1.0,
 184:application/config/infantry_robot/infantry_config.c ****                             .Kd = 0.0,
 185:application/config/infantry_robot/infantry_config.c ****                             .MaxOut = 200, 
 186:application/config/infantry_robot/infantry_config.c ****                         },
 187:application/config/infantry_robot/infantry_config.c ****                         .speed_PID = {
 188:application/config/infantry_robot/infantry_config.c ****                             .Kp = 10.0, 
 189:application/config/infantry_robot/infantry_config.c ****                             .Ki = 1.0, 
ARM GAS  C:\Users\10542\AppData\Local\Temp\ccqpPFfm.s 			page 5


 190:application/config/infantry_robot/infantry_config.c ****                             .Kd = 0.0,
 191:application/config/infantry_robot/infantry_config.c ****                             .Improve = PID_Integral_Limit,
 192:application/config/infantry_robot/infantry_config.c ****                             .IntegralLimit = 8000,
 193:application/config/infantry_robot/infantry_config.c ****                             .MaxOut = 10000,
 194:application/config/infantry_robot/infantry_config.c ****                         },
 195:application/config/infantry_robot/infantry_config.c ****                         .current_PID = {
 196:application/config/infantry_robot/infantry_config.c ****                             .Kp = 0.4, 
 197:application/config/infantry_robot/infantry_config.c ****                             .Ki = 0.0, 
 198:application/config/infantry_robot/infantry_config.c ****                             .Kd = 0.0,
 199:application/config/infantry_robot/infantry_config.c ****                             .Improve = PID_Integral_Limit,
 200:application/config/infantry_robot/infantry_config.c ****                             .IntegralLimit = 5000,
 201:application/config/infantry_robot/infantry_config.c ****                             .MaxOut = 5000,
 202:application/config/infantry_robot/infantry_config.c ****                         },
 203:application/config/infantry_robot/infantry_config.c ****                     },
 204:application/config/infantry_robot/infantry_config.c ****                     .controller_setting_init_config = {
 205:application/config/infantry_robot/infantry_config.c ****                         .angle_feedback_source = MOTOR_FEED, 
 206:application/config/infantry_robot/infantry_config.c ****                         .speed_feedback_source = MOTOR_FEED,
 207:application/config/infantry_robot/infantry_config.c ****                         .outer_loop_type = SPEED_LOOP, // 初始化成SPEED_LOOP,让拨盘停在原
 208:application/config/infantry_robot/infantry_config.c ****                         .close_loop_type = CURRENT_LOOP | SPEED_LOOP,
 209:application/config/infantry_robot/infantry_config.c ****                         .motor_reverse_flag = MOTOR_DIRECTION_NORMAL,
 210:application/config/infantry_robot/infantry_config.c ****                     },
 211:application/config/infantry_robot/infantry_config.c ****                     .motor_type = M2006 // 英雄使用M3508
 212:application/config/infantry_robot/infantry_config.c ****                 }
 213:application/config/infantry_robot/infantry_config.c ****             }
 214:application/config/infantry_robot/infantry_config.c ****         };
 215:application/config/infantry_robot/infantry_config.c ****         return &infantry_config_3;
 216:application/config/infantry_robot/infantry_config.c ****         break;
 217:application/config/infantry_robot/infantry_config.c ****     /*******************************************************四号步兵***************************
 218:application/config/infantry_robot/infantry_config.c ****     case INFANTRY_ROBOT_4:
 219:application/config/infantry_robot/infantry_config.c ****         static Robot_Config_s infantry_config_5 = { 
 220:application/config/infantry_robot/infantry_config.c ****             .chassis_param = {
 221:application/config/infantry_robot/infantry_config.c ****                 .chassis_motor_id[MOTOR_LF] = 3,  
 222:application/config/infantry_robot/infantry_config.c ****                 .chassis_motor_id[MOTOR_RF] = 2,  
 223:application/config/infantry_robot/infantry_config.c ****                 .chassis_motor_id[MOTOR_RB] = 1, 
 224:application/config/infantry_robot/infantry_config.c ****                 .chassis_motor_id[MOTOR_LB] = 4, 
 225:application/config/infantry_robot/infantry_config.c **** 
 226:application/config/infantry_robot/infantry_config.c ****                 .wheel_type = MECANUM_WHEEL,
 227:application/config/infantry_robot/infantry_config.c ****                 .wheel_measure = {
 228:application/config/infantry_robot/infantry_config.c ****                     .center_gimbal_offset_x = 0.0,
 229:application/config/infantry_robot/infantry_config.c ****                     .center_gimbal_offset_y = 0.0,
 230:application/config/infantry_robot/infantry_config.c ****                     .wheel_base = 370,
 231:application/config/infantry_robot/infantry_config.c ****                     .track_width = 420,
 232:application/config/infantry_robot/infantry_config.c ****                     .radius_wheel = 75,
 233:application/config/infantry_robot/infantry_config.c ****                     .reduction_ratio_wheel = 19.0,
 234:application/config/infantry_robot/infantry_config.c ****                 },
 235:application/config/infantry_robot/infantry_config.c **** 
 236:application/config/infantry_robot/infantry_config.c ****                 .chassis_motor_config = {
 237:application/config/infantry_robot/infantry_config.c ****                     .can_init_config.can_handle = &hcan1,
 238:application/config/infantry_robot/infantry_config.c ****                     .controller_param_init_config = {
 239:application/config/infantry_robot/infantry_config.c ****                         .speed_PID = {
 240:application/config/infantry_robot/infantry_config.c ****                             .Kp = 5.0,
 241:application/config/infantry_robot/infantry_config.c ****                             .Ki = 1.0,
 242:application/config/infantry_robot/infantry_config.c ****                             .Kd = 0.0, 
 243:application/config/infantry_robot/infantry_config.c ****                             .IntegralLimit = 3000,
 244:application/config/infantry_robot/infantry_config.c ****                             .Improve = PID_Trapezoid_Intergral | PID_Integral_Limit | PID_Derivativ
 245:application/config/infantry_robot/infantry_config.c ****                             .MaxOut = 12000,
 246:application/config/infantry_robot/infantry_config.c ****                         },
ARM GAS  C:\Users\10542\AppData\Local\Temp\ccqpPFfm.s 			page 6


 247:application/config/infantry_robot/infantry_config.c ****                         .current_PID = {
 248:application/config/infantry_robot/infantry_config.c ****                             .Kp = 0.5, 
 249:application/config/infantry_robot/infantry_config.c ****                             .Ki = 0.0,   
 250:application/config/infantry_robot/infantry_config.c ****                             .Kd = 0.0,
 251:application/config/infantry_robot/infantry_config.c ****                             .IntegralLimit = 3000,
 252:application/config/infantry_robot/infantry_config.c ****                             .Improve = PID_Trapezoid_Intergral | PID_Integral_Limit | PID_Derivativ
 253:application/config/infantry_robot/infantry_config.c ****                             .MaxOut = 15000,
 254:application/config/infantry_robot/infantry_config.c ****                         },
 255:application/config/infantry_robot/infantry_config.c ****                     },   
 256:application/config/infantry_robot/infantry_config.c ****                     .controller_setting_init_config = {
 257:application/config/infantry_robot/infantry_config.c ****                         .angle_feedback_source = MOTOR_FEED,
 258:application/config/infantry_robot/infantry_config.c ****                         .speed_feedback_source = MOTOR_FEED,
 259:application/config/infantry_robot/infantry_config.c ****                         .outer_loop_type = SPEED_LOOP,
 260:application/config/infantry_robot/infantry_config.c ****                         .close_loop_type = CURRENT_LOOP | SPEED_LOOP,
 261:application/config/infantry_robot/infantry_config.c ****                     },
 262:application/config/infantry_robot/infantry_config.c ****                     .motor_type = M3508,             
 263:application/config/infantry_robot/infantry_config.c ****                 }
 264:application/config/infantry_robot/infantry_config.c ****             },
 265:application/config/infantry_robot/infantry_config.c **** 
 266:application/config/infantry_robot/infantry_config.c **** 
 267:application/config/infantry_robot/infantry_config.c ****             .gimbal_param = {
 268:application/config/infantry_robot/infantry_config.c ****                 .gimbal_type = SINGLE_GIMBAL,
 269:application/config/infantry_robot/infantry_config.c ****                 .gimbal_offset = {
 270:application/config/infantry_robot/infantry_config.c ****                     .yaw_offset = 5932,
 271:application/config/infantry_robot/infantry_config.c ****                     .pitch_min_angle = -40.0f,
 272:application/config/infantry_robot/infantry_config.c ****                     .pitch_max_angle = 15.0f,
 273:application/config/infantry_robot/infantry_config.c ****                 },
 274:application/config/infantry_robot/infantry_config.c **** 
 275:application/config/infantry_robot/infantry_config.c ****                 .yaw_motor_config = {
 276:application/config/infantry_robot/infantry_config.c ****                     .can_init_config = {
 277:application/config/infantry_robot/infantry_config.c ****                         .can_handle = &hcan1,
 278:application/config/infantry_robot/infantry_config.c ****                         .tx_id = 1,
 279:application/config/infantry_robot/infantry_config.c ****                     },
 280:application/config/infantry_robot/infantry_config.c ****                     .controller_param_init_config = {
 281:application/config/infantry_robot/infantry_config.c ****                         .angle_PID = {
 282:application/config/infantry_robot/infantry_config.c ****                             .Kp = 15.0,
 283:application/config/infantry_robot/infantry_config.c ****                             .Ki = 0.0, 
 284:application/config/infantry_robot/infantry_config.c ****                             .Kd = 0.7, 
 285:application/config/infantry_robot/infantry_config.c ****                             .DeadBand = 0.1,
 286:application/config/infantry_robot/infantry_config.c ****                             .Improve = PID_Trapezoid_Intergral | PID_Integral_Limit | PID_Derivativ
 287:application/config/infantry_robot/infantry_config.c ****                             .IntegralLimit = 100,
 288:application/config/infantry_robot/infantry_config.c ****                             .MaxOut = 500,
 289:application/config/infantry_robot/infantry_config.c ****                         },
 290:application/config/infantry_robot/infantry_config.c ****                         .speed_PID = {
 291:application/config/infantry_robot/infantry_config.c ****                             .Kp = 300.0, 
 292:application/config/infantry_robot/infantry_config.c ****                             .Ki = 150.0, 
 293:application/config/infantry_robot/infantry_config.c ****                             .Kd = 0.0,
 294:application/config/infantry_robot/infantry_config.c ****                             .Improve = PID_Trapezoid_Intergral | PID_Integral_Limit | PID_Derivativ
 295:application/config/infantry_robot/infantry_config.c ****                             .IntegralLimit = 3000,
 296:application/config/infantry_robot/infantry_config.c ****                             .MaxOut = 20000,
 297:application/config/infantry_robot/infantry_config.c ****                         },
 298:application/config/infantry_robot/infantry_config.c ****                     },
 299:application/config/infantry_robot/infantry_config.c ****                     .controller_setting_init_config = {
 300:application/config/infantry_robot/infantry_config.c ****                         .angle_feedback_source = OTHER_FEED,
 301:application/config/infantry_robot/infantry_config.c ****                         .speed_feedback_source = OTHER_FEED,
 302:application/config/infantry_robot/infantry_config.c ****                         .outer_loop_type = ANGLE_LOOP,
 303:application/config/infantry_robot/infantry_config.c ****                         .close_loop_type = ANGLE_LOOP | SPEED_LOOP,
ARM GAS  C:\Users\10542\AppData\Local\Temp\ccqpPFfm.s 			page 7


 304:application/config/infantry_robot/infantry_config.c ****                         .motor_reverse_flag = MOTOR_DIRECTION_REVERSE,
 305:application/config/infantry_robot/infantry_config.c ****                         .feedback_reverse_flag = FEEDBACK_DIRECTION_NORMAL,
 306:application/config/infantry_robot/infantry_config.c ****                     },
 307:application/config/infantry_robot/infantry_config.c ****                     .motor_type = GM6020
 308:application/config/infantry_robot/infantry_config.c ****                 },        
 309:application/config/infantry_robot/infantry_config.c **** 
 310:application/config/infantry_robot/infantry_config.c ****                 .pitch_motor_config = {
 311:application/config/infantry_robot/infantry_config.c ****                     .can_init_config = {
 312:application/config/infantry_robot/infantry_config.c ****                         .can_handle = &hcan2,
 313:application/config/infantry_robot/infantry_config.c ****                         .tx_id = 2,
 314:application/config/infantry_robot/infantry_config.c ****                     },
 315:application/config/infantry_robot/infantry_config.c ****                     .controller_param_init_config = {
 316:application/config/infantry_robot/infantry_config.c ****                         .angle_PID = {
 317:application/config/infantry_robot/infantry_config.c ****                             .Kp = 20.0,
 318:application/config/infantry_robot/infantry_config.c ****                             .Ki = 0.0, 
 319:application/config/infantry_robot/infantry_config.c ****                             .Kd = 0.4, 
 320:application/config/infantry_robot/infantry_config.c ****                             .Improve = PID_Trapezoid_Intergral | PID_Integral_Limit | PID_Derivativ
 321:application/config/infantry_robot/infantry_config.c ****                             .IntegralLimit = 100,
 322:application/config/infantry_robot/infantry_config.c ****                             .MaxOut = 500,
 323:application/config/infantry_robot/infantry_config.c ****                         },
 324:application/config/infantry_robot/infantry_config.c ****                         .speed_PID = {
 325:application/config/infantry_robot/infantry_config.c ****                             .Kp = 200.0, 
 326:application/config/infantry_robot/infantry_config.c ****                             .Ki = 100.0, 
 327:application/config/infantry_robot/infantry_config.c ****                             .Kd = 0.0,
 328:application/config/infantry_robot/infantry_config.c ****                             .Improve = PID_Trapezoid_Intergral | PID_Integral_Limit | PID_Derivativ
 329:application/config/infantry_robot/infantry_config.c ****                             .IntegralLimit = 2500,
 330:application/config/infantry_robot/infantry_config.c ****                             .MaxOut = 20000,
 331:application/config/infantry_robot/infantry_config.c ****                         },
 332:application/config/infantry_robot/infantry_config.c ****                     },
 333:application/config/infantry_robot/infantry_config.c ****                     .controller_setting_init_config = {
 334:application/config/infantry_robot/infantry_config.c ****                         .angle_feedback_source = OTHER_FEED,
 335:application/config/infantry_robot/infantry_config.c ****                         .speed_feedback_source = OTHER_FEED,
 336:application/config/infantry_robot/infantry_config.c ****                         .outer_loop_type = ANGLE_LOOP,
 337:application/config/infantry_robot/infantry_config.c ****                         .close_loop_type = ANGLE_LOOP | SPEED_LOOP,
 338:application/config/infantry_robot/infantry_config.c ****                         .motor_reverse_flag = MOTOR_DIRECTION_NORMAL,
 339:application/config/infantry_robot/infantry_config.c ****                         .feedback_reverse_flag = FEEDBACK_DIRECTION_REVERSE,
 340:application/config/infantry_robot/infantry_config.c ****                     },
 341:application/config/infantry_robot/infantry_config.c ****                     .motor_type = GM6020
 342:application/config/infantry_robot/infantry_config.c ****                 }                
 343:application/config/infantry_robot/infantry_config.c ****             },
 344:application/config/infantry_robot/infantry_config.c **** 
 345:application/config/infantry_robot/infantry_config.c ****             .shoot_param = {
 346:application/config/infantry_robot/infantry_config.c ****                 .friction_motor_id[MOTOR_LF] = 3,
 347:application/config/infantry_robot/infantry_config.c ****                 .friction_motor_id[MOTOR_RF] = 4,
 348:application/config/infantry_robot/infantry_config.c **** 
 349:application/config/infantry_robot/infantry_config.c ****                 .friction_motor_reverse_flag[MOTOR_LF] = MOTOR_DIRECTION_REVERSE,
 350:application/config/infantry_robot/infantry_config.c ****                 .friction_motor_reverse_flag[MOTOR_RF] = MOTOR_DIRECTION_NORMAL,    
 351:application/config/infantry_robot/infantry_config.c ****                 .shoot_type = DUAL_SHOOT,
 352:application/config/infantry_robot/infantry_config.c ****                 .friction_motor_config = {
 353:application/config/infantry_robot/infantry_config.c ****                     .can_init_config = {
 354:application/config/infantry_robot/infantry_config.c ****                         .can_handle = &hcan2,
 355:application/config/infantry_robot/infantry_config.c ****                     },
 356:application/config/infantry_robot/infantry_config.c ****                     .controller_param_init_config = {
 357:application/config/infantry_robot/infantry_config.c ****                         .speed_PID = {
 358:application/config/infantry_robot/infantry_config.c ****                             .Kp = 15.0, 
 359:application/config/infantry_robot/infantry_config.c ****                             .Ki = 1.0, 
 360:application/config/infantry_robot/infantry_config.c ****                             .Kd = 0.0,
ARM GAS  C:\Users\10542\AppData\Local\Temp\ccqpPFfm.s 			page 8


 361:application/config/infantry_robot/infantry_config.c ****                             .Improve = PID_Integral_Limit,
 362:application/config/infantry_robot/infantry_config.c ****                             .IntegralLimit = 10000,
 363:application/config/infantry_robot/infantry_config.c ****                             .MaxOut = 15000,
 364:application/config/infantry_robot/infantry_config.c ****                         },
 365:application/config/infantry_robot/infantry_config.c ****                         .current_PID = {
 366:application/config/infantry_robot/infantry_config.c ****                             .Kp = 0.4, 
 367:application/config/infantry_robot/infantry_config.c ****                             .Ki = 0.0, 
 368:application/config/infantry_robot/infantry_config.c ****                             .Kd = 0.0,
 369:application/config/infantry_robot/infantry_config.c ****                             .Improve = PID_Integral_Limit,
 370:application/config/infantry_robot/infantry_config.c ****                             .IntegralLimit = 10000,
 371:application/config/infantry_robot/infantry_config.c ****                             .MaxOut = 15000,
 372:application/config/infantry_robot/infantry_config.c ****                         },
 373:application/config/infantry_robot/infantry_config.c ****                     },
 374:application/config/infantry_robot/infantry_config.c ****                     .controller_setting_init_config = {
 375:application/config/infantry_robot/infantry_config.c ****                         .angle_feedback_source = MOTOR_FEED,
 376:application/config/infantry_robot/infantry_config.c ****                         .speed_feedback_source = MOTOR_FEED,
 377:application/config/infantry_robot/infantry_config.c ****                         .outer_loop_type = SPEED_LOOP,
 378:application/config/infantry_robot/infantry_config.c ****                         .close_loop_type = SPEED_LOOP | CURRENT_LOOP,
 379:application/config/infantry_robot/infantry_config.c ****                         .motor_reverse_flag = MOTOR_DIRECTION_REVERSE,
 380:application/config/infantry_robot/infantry_config.c ****                     },
 381:application/config/infantry_robot/infantry_config.c ****                     .motor_type = M3508
 382:application/config/infantry_robot/infantry_config.c ****                 },
 383:application/config/infantry_robot/infantry_config.c **** 
 384:application/config/infantry_robot/infantry_config.c ****                 .loader_motor_config = {
 385:application/config/infantry_robot/infantry_config.c ****                     .can_init_config = {
 386:application/config/infantry_robot/infantry_config.c ****                         .can_handle = &hcan2,
 387:application/config/infantry_robot/infantry_config.c ****                         .tx_id = 7,
 388:application/config/infantry_robot/infantry_config.c ****                     },
 389:application/config/infantry_robot/infantry_config.c ****                     .controller_param_init_config = {
 390:application/config/infantry_robot/infantry_config.c ****                         .angle_PID = {
 391:application/config/infantry_robot/infantry_config.c ****                             // 如果启用位置环来控制发弹,需要较大的I值保证输出
 392:application/config/infantry_robot/infantry_config.c ****                             .Kp = 10.0, 
 393:application/config/infantry_robot/infantry_config.c ****                             .Ki = 1.0,
 394:application/config/infantry_robot/infantry_config.c ****                             .Kd = 0.0,
 395:application/config/infantry_robot/infantry_config.c ****                             .MaxOut = 200, 
 396:application/config/infantry_robot/infantry_config.c ****                         },
 397:application/config/infantry_robot/infantry_config.c ****                         .speed_PID = {
 398:application/config/infantry_robot/infantry_config.c ****                             .Kp = 10.0, 
 399:application/config/infantry_robot/infantry_config.c ****                             .Ki = 1.0, 
 400:application/config/infantry_robot/infantry_config.c ****                             .Kd = 0.0,
 401:application/config/infantry_robot/infantry_config.c ****                             .Improve = PID_Integral_Limit,
 402:application/config/infantry_robot/infantry_config.c ****                             .IntegralLimit = 8000,
 403:application/config/infantry_robot/infantry_config.c ****                             .MaxOut = 10000,
 404:application/config/infantry_robot/infantry_config.c ****                         },
 405:application/config/infantry_robot/infantry_config.c ****                         .current_PID = {
 406:application/config/infantry_robot/infantry_config.c ****                             .Kp = 0.4, 
 407:application/config/infantry_robot/infantry_config.c ****                             .Ki = 0.0, 
 408:application/config/infantry_robot/infantry_config.c ****                             .Kd = 0.0,
 409:application/config/infantry_robot/infantry_config.c ****                             .Improve = PID_Integral_Limit,
 410:application/config/infantry_robot/infantry_config.c ****                             .IntegralLimit = 5000,
 411:application/config/infantry_robot/infantry_config.c ****                             .MaxOut = 5000,
 412:application/config/infantry_robot/infantry_config.c ****                         },
 413:application/config/infantry_robot/infantry_config.c ****                     },
 414:application/config/infantry_robot/infantry_config.c ****                     .controller_setting_init_config = {
 415:application/config/infantry_robot/infantry_config.c ****                         .angle_feedback_source = MOTOR_FEED, 
 416:application/config/infantry_robot/infantry_config.c ****                         .speed_feedback_source = MOTOR_FEED,
 417:application/config/infantry_robot/infantry_config.c ****                         .outer_loop_type = SPEED_LOOP, // 初始化成SPEED_LOOP,让拨盘停在原
ARM GAS  C:\Users\10542\AppData\Local\Temp\ccqpPFfm.s 			page 9


 418:application/config/infantry_robot/infantry_config.c ****                         .close_loop_type = CURRENT_LOOP | SPEED_LOOP,
 419:application/config/infantry_robot/infantry_config.c ****                         .motor_reverse_flag = MOTOR_DIRECTION_NORMAL,
 420:application/config/infantry_robot/infantry_config.c ****                     },
 421:application/config/infantry_robot/infantry_config.c ****                     .motor_type = M2006 // 英雄使用M3508
 422:application/config/infantry_robot/infantry_config.c ****                 }
 423:application/config/infantry_robot/infantry_config.c ****             }
 424:application/config/infantry_robot/infantry_config.c ****         };
 425:application/config/infantry_robot/infantry_config.c ****         return &infantry_config_5;
 426:application/config/infantry_robot/infantry_config.c ****         break;
 427:application/config/infantry_robot/infantry_config.c ****     /*******************************************************五号步兵***************************
 428:application/config/infantry_robot/infantry_config.c ****     case INFANTRY_ROBOT_5:
 429:application/config/infantry_robot/infantry_config.c ****         break;
 430:application/config/infantry_robot/infantry_config.c ****     default:
 431:application/config/infantry_robot/infantry_config.c ****         break;
 432:application/config/infantry_robot/infantry_config.c ****     }
 433:application/config/infantry_robot/infantry_config.c **** } 
  41              		.loc 1 433 1 is_stmt 0 view .LVU2
  42 0008 7047     		bx	lr
  43              	.LVL2:
  44              	.L3:
   5:application/config/infantry_robot/infantry_config.c ****     switch (robot_id)
  45              		.loc 1 5 5 view .LVU3
  46 000a 0248     		ldr	r0, .L5
  47              	.LVL3:
   5:application/config/infantry_robot/infantry_config.c ****     switch (robot_id)
  48              		.loc 1 5 5 view .LVU4
  49 000c 7047     		bx	lr
  50              	.LVL4:
  51              	.L4:
  52              	.LBB2:
 425:application/config/infantry_robot/infantry_config.c ****         break;
  53              		.loc 1 425 16 view .LVU5
  54 000e 0248     		ldr	r0, .L5+4
  55              	.LVL5:
 425:application/config/infantry_robot/infantry_config.c ****         break;
  56              		.loc 1 425 16 view .LVU6
  57              	.LBE2:
  58              		.loc 1 433 1 view .LVU7
  59 0010 7047     		bx	lr
  60              	.L6:
  61 0012 00BF     		.align	2
  62              	.L5:
  63 0014 00000000 		.word	infantry_config_3.1
  64 0018 00000000 		.word	infantry_config_5.0
  65              		.cfi_endproc
  66              	.LFE276:
  68              		.section	.rodata.InfantryStaticUI.str1.4,"aMS",%progbits,1
  69              		.align	2
  70              	.LC0:
  71 0000 736C3000 		.ascii	"sl0\000"
  72              		.align	2
  73              	.LC1:
  74 0004 736C3100 		.ascii	"sl1\000"
  75              		.align	2
  76              	.LC2:
  77 0008 736C3200 		.ascii	"sl2\000"
  78              		.align	2
ARM GAS  C:\Users\10542\AppData\Local\Temp\ccqpPFfm.s 			page 10


  79              	.LC3:
  80 000c 736C3300 		.ascii	"sl3\000"
  81              		.align	2
  82              	.LC4:
  83 0010 736C3400 		.ascii	"sl4\000"
  84              		.align	2
  85              	.LC5:
  86 0014 736C3500 		.ascii	"sl5\000"
  87              		.align	2
  88              	.LC6:
  89 0018 736F3100 		.ascii	"so1\000"
  90              		.align	2
  91              	.LC7:
  92 001c 736F3200 		.ascii	"so2\000"
  93              		.align	2
  94              	.LC8:
  95 0020 736F3300 		.ascii	"so3\000"
  96              		.align	2
  97              	.LC9:
  98 0024 736F3400 		.ascii	"so4\000"
  99              		.align	2
 100              	.LC10:
 101 0028 736F3500 		.ascii	"so5\000"
 102              		.align	2
 103              	.LC11:
 104 002c 73733000 		.ascii	"ss0\000"
 105              		.align	2
 106              	.LC12:
 107 0030 73733100 		.ascii	"ss1\000"
 108              		.align	2
 109              	.LC13:
 110 0034 73733200 		.ascii	"ss2\000"
 111              		.align	2
 112              	.LC14:
 113 0038 736A3100 		.ascii	"sj1\000"
 114              		.align	2
 115              	.LC15:
 116 003c 736A3200 		.ascii	"sj2\000"
 117              		.align	2
 118              	.LC16:
 119 0040 736A3300 		.ascii	"sj3\000"
 120              		.section	.text.InfantryStaticUI,"ax",%progbits
 121              		.align	1
 122              		.global	InfantryStaticUI
 123              		.syntax unified
 124              		.thumb
 125              		.thumb_func
 127              	InfantryStaticUI:
 128              	.LVL6:
 129              	.LFB277:
 434:application/config/infantry_robot/infantry_config.c **** 
 435:application/config/infantry_robot/infantry_config.c **** static Graph_Data_t UI_pitch_line[10]; // pitch准线
 436:application/config/infantry_robot/infantry_config.c **** static Graph_Data_t UI_shoot_line[10]; // 射击准线
 437:application/config/infantry_robot/infantry_config.c **** static Graph_Data_t UI_graph_Arc[3]; // 功率圆弧
 438:application/config/infantry_robot/infantry_config.c **** static Graph_Data_t UI_graph_Rectangle[3]; // 绘制射速矩形
 439:application/config/infantry_robot/infantry_config.c **** static String_Data_t UI_State_dyn[6];  // 机器人状态,动态先add才能change
 440:application/config/infantry_robot/infantry_config.c **** static uint32_t shoot_line_location[7] = {460, 380, 300, 538, 538, 959};
ARM GAS  C:\Users\10542\AppData\Local\Temp\ccqpPFfm.s 			page 11


 441:application/config/infantry_robot/infantry_config.c **** void InfantryStaticUI(referee_info_t *referee_recv_info)
 442:application/config/infantry_robot/infantry_config.c **** {
 130              		.loc 1 442 1 is_stmt 1 view -0
 131              		.cfi_startproc
 132              		@ args = 0, pretend = 0, frame = 0
 133              		@ frame_needed = 0, uses_anonymous_args = 0
 134              		.loc 1 442 1 is_stmt 0 view .LVU9
 135 0000 2DE9F04F 		push	{r4, r5, r6, r7, r8, r9, r10, fp, lr}
 136              	.LCFI0:
 137              		.cfi_def_cfa_offset 36
 138              		.cfi_offset 4, -36
 139              		.cfi_offset 5, -32
 140              		.cfi_offset 6, -28
 141              		.cfi_offset 7, -24
 142              		.cfi_offset 8, -20
 143              		.cfi_offset 9, -16
 144              		.cfi_offset 10, -12
 145              		.cfi_offset 11, -8
 146              		.cfi_offset 14, -4
 147 0004 93B0     		sub	sp, sp, #76
 148              	.LCFI1:
 149              		.cfi_def_cfa_offset 112
 150 0006 8346     		mov	fp, r0
 443:application/config/infantry_robot/infantry_config.c ****     // 绘制发射基准线
 444:application/config/infantry_robot/infantry_config.c ****     UILineDraw(&UI_shoot_line[0], "sl0", UI_Graph_ADD, 7, UI_Color_Cyan, 2, 1029, shoot_line_locati
 151              		.loc 1 444 5 is_stmt 1 view .LVU10
 152 0008 CC4D     		ldr	r5, .L9
 153 000a 4FF4E673 		mov	r3, #460
 154 000e 0593     		str	r3, [sp, #20]
 155 0010 4FF45C72 		mov	r2, #880
 156 0014 0492     		str	r2, [sp, #16]
 157 0016 0393     		str	r3, [sp, #12]
 158 0018 40F20543 		movw	r3, #1029
 159 001c 0293     		str	r3, [sp, #8]
 160 001e 0223     		movs	r3, #2
 161 0020 0193     		str	r3, [sp, #4]
 162 0022 0624     		movs	r4, #6
 163 0024 0094     		str	r4, [sp]
 164 0026 0723     		movs	r3, #7
 165 0028 0122     		movs	r2, #1
 166 002a C549     		ldr	r1, .L9+4
 167 002c 2846     		mov	r0, r5
 168              	.LVL7:
 169              		.loc 1 444 5 is_stmt 0 view .LVU11
 170 002e FFF7FEFF 		bl	UILineDraw
 171              	.LVL8:
 445:application/config/infantry_robot/infantry_config.c ****     UILineDraw(&UI_shoot_line[1], "sl1", UI_Graph_ADD, 7, UI_Color_Cyan, 3, 750, shoot_line_locatio
 172              		.loc 1 445 5 is_stmt 1 view .LVU12
 173 0032 05F10F07 		add	r7, r5, #15
 174 0036 4FF4BE73 		mov	r3, #380
 175 003a 0593     		str	r3, [sp, #20]
 176 003c 4FF49162 		mov	r2, #1160
 177 0040 0492     		str	r2, [sp, #16]
 178 0042 0393     		str	r3, [sp, #12]
 179 0044 40F2EE23 		movw	r3, #750
 180 0048 0293     		str	r3, [sp, #8]
 181 004a 0323     		movs	r3, #3
ARM GAS  C:\Users\10542\AppData\Local\Temp\ccqpPFfm.s 			page 12


 182 004c 0193     		str	r3, [sp, #4]
 183 004e 0094     		str	r4, [sp]
 184 0050 0723     		movs	r3, #7
 185 0052 0122     		movs	r2, #1
 186 0054 BB49     		ldr	r1, .L9+8
 187 0056 3846     		mov	r0, r7
 188 0058 FFF7FEFF 		bl	UILineDraw
 189              	.LVL9:
 446:application/config/infantry_robot/infantry_config.c ****     UILineDraw(&UI_shoot_line[2], "sl2", UI_Graph_ADD, 7, UI_Color_Cyan, 4, 645, shoot_line_locatio
 190              		.loc 1 446 5 view .LVU13
 191 005c 05F11E08 		add	r8, r5, #30
 192 0060 4FF49673 		mov	r3, #300
 193 0064 0593     		str	r3, [sp, #20]
 194 0066 40F2FA43 		movw	r3, #1274
 195 006a 0493     		str	r3, [sp, #16]
 196 006c 4FF49673 		mov	r3, #300
 197 0070 0393     		str	r3, [sp, #12]
 198 0072 40F28523 		movw	r3, #645
 199 0076 0293     		str	r3, [sp, #8]
 200 0078 0423     		movs	r3, #4
 201 007a 0193     		str	r3, [sp, #4]
 202 007c 0094     		str	r4, [sp]
 203 007e 0723     		movs	r3, #7
 204 0080 0122     		movs	r2, #1
 205 0082 B149     		ldr	r1, .L9+12
 206 0084 4046     		mov	r0, r8
 207 0086 FFF7FEFF 		bl	UILineDraw
 208              	.LVL10:
 447:application/config/infantry_robot/infantry_config.c ****     UILineDraw(&UI_shoot_line[3], "sl3", UI_Graph_ADD, 7, UI_Color_Cyan, 4, 600, shoot_line_locatio
 209              		.loc 1 447 5 view .LVU14
 210 008a 05F12D09 		add	r9, r5, #45
 211 008e 40F21A26 		movw	r6, #538
 212 0092 0596     		str	r6, [sp, #20]
 213 0094 4FF46673 		mov	r3, #920
 214 0098 0493     		str	r3, [sp, #16]
 215 009a 0396     		str	r6, [sp, #12]
 216 009c 4FF41673 		mov	r3, #600
 217 00a0 0293     		str	r3, [sp, #8]
 218 00a2 0423     		movs	r3, #4
 219 00a4 0193     		str	r3, [sp, #4]
 220 00a6 0094     		str	r4, [sp]
 221 00a8 0723     		movs	r3, #7
 222 00aa 0122     		movs	r2, #1
 223 00ac A749     		ldr	r1, .L9+16
 224 00ae 4846     		mov	r0, r9
 225 00b0 FFF7FEFF 		bl	UILineDraw
 226              	.LVL11:
 448:application/config/infantry_robot/infantry_config.c ****     UILineDraw(&UI_shoot_line[4], "sl4", UI_Graph_ADD, 7, UI_Color_Cyan, 4, 1000, shoot_line_locati
 227              		.loc 1 448 5 view .LVU15
 228 00b4 05F13C0A 		add	r10, r5, #60
 229 00b8 0596     		str	r6, [sp, #20]
 230 00ba 40F2C443 		movw	r3, #1220
 231 00be 0493     		str	r3, [sp, #16]
 232 00c0 0396     		str	r6, [sp, #12]
 233 00c2 4FF47A73 		mov	r3, #1000
 234 00c6 0293     		str	r3, [sp, #8]
 235 00c8 0423     		movs	r3, #4
ARM GAS  C:\Users\10542\AppData\Local\Temp\ccqpPFfm.s 			page 13


 236 00ca 0193     		str	r3, [sp, #4]
 237 00cc 0094     		str	r4, [sp]
 238 00ce 0723     		movs	r3, #7
 239 00d0 0122     		movs	r2, #1
 240 00d2 9F49     		ldr	r1, .L9+20
 241 00d4 5046     		mov	r0, r10
 242 00d6 FFF7FEFF 		bl	UILineDraw
 243              	.LVL12:
 449:application/config/infantry_robot/infantry_config.c ****     UIGraphRefresh(&referee_recv_info->referee_id, 5, UI_shoot_line[0], UI_shoot_line[1], UI_shoot_
 244              		.loc 1 449 5 view .LVU16
 245 00da 0DF1380C 		add	ip, sp, #56
 246 00de 9AE80F00 		ldm	r10, {r0, r1, r2, r3}
 247 00e2 ACE80700 		stmia	ip!, {r0, r1, r2}
 248 00e6 2CF8023B 		strh	r3, [ip], #2	@ movhi
 249 00ea 1B0C     		lsrs	r3, r3, #16
 250 00ec 8CF80030 		strb	r3, [ip]
 251 00f0 0AAB     		add	r3, sp, #40
 252 00f2 D5F82D00 		ldr	r0, [r5, #45]	@ unaligned
 253 00f6 D5F83110 		ldr	r1, [r5, #49]	@ unaligned
 254 00fa D5F83520 		ldr	r2, [r5, #53]	@ unaligned
 255 00fe 07C3     		stmia	r3!, {r0, r1, r2}
 256 0100 B5F83910 		ldrh	r1, [r5, #57]	@ unaligned
 257 0104 95F83B20 		ldrb	r2, [r5, #59]	@ zero_extendqisi2
 258 0108 1980     		strh	r1, [r3]	@ unaligned
 259 010a 9A70     		strb	r2, [r3, #2]
 260 010c 06AB     		add	r3, sp, #24
 261 010e D5F81E00 		ldr	r0, [r5, #30]	@ unaligned
 262 0112 D5F82210 		ldr	r1, [r5, #34]	@ unaligned
 263 0116 D5F82620 		ldr	r2, [r5, #38]	@ unaligned
 264 011a 07C3     		stmia	r3!, {r0, r1, r2}
 265 011c 698D     		ldrh	r1, [r5, #42]	@ unaligned
 266 011e 95F82C20 		ldrb	r2, [r5, #44]	@ zero_extendqisi2
 267 0122 1980     		strh	r1, [r3]	@ unaligned
 268 0124 9A70     		strb	r2, [r3, #2]
 269 0126 02AB     		add	r3, sp, #8
 270 0128 D5F80F00 		ldr	r0, [r5, #15]	@ unaligned
 271 012c D5F81310 		ldr	r1, [r5, #19]	@ unaligned
 272 0130 D5F81720 		ldr	r2, [r5, #23]	@ unaligned
 273 0134 07C3     		stmia	r3!, {r0, r1, r2}
 274 0136 B5F81B10 		ldrh	r1, [r5, #27]	@ unaligned
 275 013a 6A7F     		ldrb	r2, [r5, #29]	@ zero_extendqisi2
 276 013c 1980     		strh	r1, [r3]	@ unaligned
 277 013e 9A70     		strb	r2, [r3, #2]
 278 0140 05F10803 		add	r3, r5, #8
 279 0144 93E80300 		ldm	r3, {r0, r1}
 280 0148 0090     		str	r0, [sp]
 281 014a ADF80410 		strh	r1, [sp, #4]	@ movhi
 282 014e 090C     		lsrs	r1, r1, #16
 283 0150 8DF80610 		strb	r1, [sp, #6]
 284 0154 95E80C00 		ldm	r5, {r2, r3}
 285 0158 0521     		movs	r1, #5
 286 015a 5846     		mov	r0, fp
 287 015c FFF7FEFF 		bl	UIGraphRefresh
 288              	.LVL13:
 450:application/config/infantry_robot/infantry_config.c ****     UILineDraw(&UI_shoot_line[5], "sl5", UI_Graph_ADD, 7, UI_Color_Cyan, 4, shoot_line_location[5],
 289              		.loc 1 450 5 view .LVU17
 290 0160 40F2F913 		movw	r3, #505
ARM GAS  C:\Users\10542\AppData\Local\Temp\ccqpPFfm.s 			page 14


 291 0164 0593     		str	r3, [sp, #20]
 292 0166 40F2BF33 		movw	r3, #959
 293 016a 0493     		str	r3, [sp, #16]
 294 016c 4FF49672 		mov	r2, #300
 295 0170 0392     		str	r2, [sp, #12]
 296 0172 0293     		str	r3, [sp, #8]
 297 0174 0423     		movs	r3, #4
 298 0176 0193     		str	r3, [sp, #4]
 299 0178 0094     		str	r4, [sp]
 300 017a 0723     		movs	r3, #7
 301 017c 0122     		movs	r2, #1
 302 017e 7549     		ldr	r1, .L9+24
 303 0180 05F14B00 		add	r0, r5, #75
 304 0184 FFF7FEFF 		bl	UILineDraw
 305              	.LVL14:
 451:application/config/infantry_robot/infantry_config.c ****     UIGraphRefresh(&referee_recv_info->referee_id, 1, UI_shoot_line[5]);
 306              		.loc 1 451 5 view .LVU18
 307 0188 D5F85300 		ldr	r0, [r5, #83]	@ unaligned
 308 018c 0090     		str	r0, [sp]
 309 018e B5F85720 		ldrh	r2, [r5, #87]	@ unaligned
 310 0192 95F85930 		ldrb	r3, [r5, #89]	@ zero_extendqisi2
 311 0196 ADF80420 		strh	r2, [sp, #4]	@ unaligned
 312 019a 8DF80630 		strb	r3, [sp, #6]
 313 019e D5F84B20 		ldr	r2, [r5, #75]	@ unaligned
 314 01a2 D5F84F30 		ldr	r3, [r5, #79]	@ unaligned
 315 01a6 0121     		movs	r1, #1
 316 01a8 5846     		mov	r0, fp
 317 01aa FFF7FEFF 		bl	UIGraphRefresh
 318              	.LVL15:
 452:application/config/infantry_robot/infantry_config.c **** 
 453:application/config/infantry_robot/infantry_config.c ****     // 绘制pitch基准线
 454:application/config/infantry_robot/infantry_config.c ****     UILineDraw(&UI_pitch_line[0], "so1", UI_Graph_ADD, 7, UI_Color_Cyan, 10, 1320, 538, 1341, 538);
 319              		.loc 1 454 5 view .LVU19
 320 01ae 6A4D     		ldr	r5, .L9+28
 321 01b0 0596     		str	r6, [sp, #20]
 322 01b2 40F23D53 		movw	r3, #1341
 323 01b6 0493     		str	r3, [sp, #16]
 324 01b8 0396     		str	r6, [sp, #12]
 325 01ba 4FF4A563 		mov	r3, #1320
 326 01be 0293     		str	r3, [sp, #8]
 327 01c0 4FF00A09 		mov	r9, #10
 328 01c4 CDF80490 		str	r9, [sp, #4]
 329 01c8 0094     		str	r4, [sp]
 330 01ca 0723     		movs	r3, #7
 331 01cc 0122     		movs	r2, #1
 332 01ce 6349     		ldr	r1, .L9+32
 333 01d0 2846     		mov	r0, r5
 334 01d2 FFF7FEFF 		bl	UILineDraw
 335              	.LVL16:
 455:application/config/infantry_robot/infantry_config.c ****     UILineDraw(&UI_pitch_line[1], "so2", UI_Graph_ADD, 7, UI_Color_Cyan, 15, 1307, 679, 1258, 651);
 336              		.loc 1 455 5 view .LVU20
 337 01d6 05F10F06 		add	r6, r5, #15
 338 01da 40F28B23 		movw	r3, #651
 339 01de 0593     		str	r3, [sp, #20]
 340 01e0 40F2EA43 		movw	r3, #1258
 341 01e4 0493     		str	r3, [sp, #16]
 342 01e6 40F2A723 		movw	r3, #679
ARM GAS  C:\Users\10542\AppData\Local\Temp\ccqpPFfm.s 			page 15


 343 01ea 0393     		str	r3, [sp, #12]
 344 01ec 40F21B53 		movw	r3, #1307
 345 01f0 0293     		str	r3, [sp, #8]
 346 01f2 4FF00F0A 		mov	r10, #15
 347 01f6 CDF804A0 		str	r10, [sp, #4]
 348 01fa 0094     		str	r4, [sp]
 349 01fc 0723     		movs	r3, #7
 350 01fe 0122     		movs	r2, #1
 351 0200 5749     		ldr	r1, .L9+36
 352 0202 3046     		mov	r0, r6
 353 0204 FFF7FEFF 		bl	UILineDraw
 354              	.LVL17:
 456:application/config/infantry_robot/infantry_config.c ****     UILineDraw(&UI_pitch_line[2], "so3", UI_Graph_ADD, 7, UI_Color_Cyan, 10, 1297, 600, 1329, 613);
 355              		.loc 1 456 5 view .LVU21
 356 0208 05F11E07 		add	r7, r5, #30
 357 020c 40F26523 		movw	r3, #613
 358 0210 0593     		str	r3, [sp, #20]
 359 0212 40F23153 		movw	r3, #1329
 360 0216 0493     		str	r3, [sp, #16]
 361 0218 4FF41673 		mov	r3, #600
 362 021c 0393     		str	r3, [sp, #12]
 363 021e 40F21153 		movw	r3, #1297
 364 0222 0293     		str	r3, [sp, #8]
 365 0224 CDF80490 		str	r9, [sp, #4]
 366 0228 0094     		str	r4, [sp]
 367 022a 0723     		movs	r3, #7
 368 022c 0122     		movs	r2, #1
 369 022e 4D49     		ldr	r1, .L9+40
 370 0230 3846     		mov	r0, r7
 371 0232 FFF7FEFF 		bl	UILineDraw
 372              	.LVL18:
 457:application/config/infantry_robot/infantry_config.c ****     UILineDraw(&UI_pitch_line[3], "so4", UI_Graph_ADD, 7, UI_Color_Cyan, 15, 1191, 768, 1227, 804);
 373              		.loc 1 457 5 view .LVU22
 374 0236 05F12D08 		add	r8, r5, #45
 375 023a 4FF44973 		mov	r3, #804
 376 023e 0593     		str	r3, [sp, #20]
 377 0240 40F2CB43 		movw	r3, #1227
 378 0244 0493     		str	r3, [sp, #16]
 379 0246 4FF44073 		mov	r3, #768
 380 024a 0393     		str	r3, [sp, #12]
 381 024c 40F2A743 		movw	r3, #1191
 382 0250 0293     		str	r3, [sp, #8]
 383 0252 CDF804A0 		str	r10, [sp, #4]
 384 0256 0094     		str	r4, [sp]
 385 0258 0723     		movs	r3, #7
 386 025a 0122     		movs	r2, #1
 387 025c 4249     		ldr	r1, .L9+44
 388 025e 4046     		mov	r0, r8
 389 0260 FFF7FEFF 		bl	UILineDraw
 390              	.LVL19:
 458:application/config/infantry_robot/infantry_config.c ****     UILineDraw(&UI_pitch_line[4], "so5", UI_Graph_ADD, 7, UI_Color_Cyan, 10, 1254, 725, 1282, 742);
 391              		.loc 1 458 5 view .LVU23
 392 0264 40F2E623 		movw	r3, #742
 393 0268 0593     		str	r3, [sp, #20]
 394 026a 40F20253 		movw	r3, #1282
 395 026e 0493     		str	r3, [sp, #16]
 396 0270 40F2D523 		movw	r3, #725
ARM GAS  C:\Users\10542\AppData\Local\Temp\ccqpPFfm.s 			page 16


 397 0274 0393     		str	r3, [sp, #12]
 398 0276 40F2E643 		movw	r3, #1254
 399 027a 0293     		str	r3, [sp, #8]
 400 027c CDF80490 		str	r9, [sp, #4]
 401 0280 0094     		str	r4, [sp]
 402 0282 0723     		movs	r3, #7
 403 0284 0122     		movs	r2, #1
 404 0286 3949     		ldr	r1, .L9+48
 405 0288 05F13C00 		add	r0, r5, #60
 406 028c FFF7FEFF 		bl	UILineDraw
 407              	.LVL20:
 459:application/config/infantry_robot/infantry_config.c ****     UIGraphRefresh(&referee_recv_info->referee_id, 5, UI_pitch_line[0], UI_pitch_line[1], UI_pitch_
 408              		.loc 1 459 5 view .LVU24
 409 0290 0DF1380C 		add	ip, sp, #56
 410 0294 05F13C03 		add	r3, r5, #60
 411 0298 0FCB     		ldm	r3, {r0, r1, r2, r3}
 412 029a ACE80700 		stmia	ip!, {r0, r1, r2}
 413 029e 2CF8023B 		strh	r3, [ip], #2	@ movhi
 414 02a2 1B0C     		lsrs	r3, r3, #16
 415 02a4 8CF80030 		strb	r3, [ip]
 416 02a8 0AAB     		add	r3, sp, #40
 417 02aa D5F82D00 		ldr	r0, [r5, #45]	@ unaligned
 418 02ae D5F83110 		ldr	r1, [r5, #49]	@ unaligned
 419 02b2 D5F83520 		ldr	r2, [r5, #53]	@ unaligned
 420 02b6 07C3     		stmia	r3!, {r0, r1, r2}
 421 02b8 B5F83910 		ldrh	r1, [r5, #57]	@ unaligned
 422 02bc 95F83B20 		ldrb	r2, [r5, #59]	@ zero_extendqisi2
 423 02c0 1980     		strh	r1, [r3]	@ unaligned
 424 02c2 9A70     		strb	r2, [r3, #2]
 425 02c4 06AB     		add	r3, sp, #24
 426 02c6 D5F81E00 		ldr	r0, [r5, #30]	@ unaligned
 427 02ca D5F82210 		ldr	r1, [r5, #34]	@ unaligned
 428 02ce D5F82620 		ldr	r2, [r5, #38]	@ unaligned
 429 02d2 07C3     		stmia	r3!, {r0, r1, r2}
 430 02d4 698D     		ldrh	r1, [r5, #42]	@ unaligned
 431 02d6 95F82C20 		ldrb	r2, [r5, #44]	@ zero_extendqisi2
 432 02da 1980     		strh	r1, [r3]	@ unaligned
 433 02dc 9A70     		strb	r2, [r3, #2]
 434 02de 02AB     		add	r3, sp, #8
 435 02e0 D5F80F00 		ldr	r0, [r5, #15]	@ unaligned
 436 02e4 D5F81310 		ldr	r1, [r5, #19]	@ unaligned
 437 02e8 D5F81720 		ldr	r2, [r5, #23]	@ unaligned
 438 02ec 07C3     		stmia	r3!, {r0, r1, r2}
 439 02ee B5F81B10 		ldrh	r1, [r5, #27]	@ unaligned
 440 02f2 6A7F     		ldrb	r2, [r5, #29]	@ zero_extendqisi2
 441 02f4 1980     		strh	r1, [r3]	@ unaligned
 442 02f6 9A70     		strb	r2, [r3, #2]
 443 02f8 05F10803 		add	r3, r5, #8
 444 02fc 93E80300 		ldm	r3, {r0, r1}
 445 0300 0090     		str	r0, [sp]
 446 0302 ADF80410 		strh	r1, [sp, #4]	@ movhi
 447 0306 090C     		lsrs	r1, r1, #16
 448 0308 8DF80610 		strb	r1, [sp, #6]
 449 030c 95E80C00 		ldm	r5, {r2, r3}
 450 0310 0521     		movs	r1, #5
 451 0312 5846     		mov	r0, fp
 452 0314 FFF7FEFF 		bl	UIGraphRefresh
ARM GAS  C:\Users\10542\AppData\Local\Temp\ccqpPFfm.s 			page 17


 453              	.LVL21:
 460:application/config/infantry_robot/infantry_config.c **** 
 461:application/config/infantry_robot/infantry_config.c ****     // 绘制功率圆弧
 462:application/config/infantry_robot/infantry_config.c ****     UIArcDraw(&UI_graph_Arc[0], "ss0", UI_Graph_ADD, 7, UI_Color_Cyan, 45, 135, 6, 950, 540, 400, 4
 454              		.loc 1 462 5 view .LVU25
 455 0318 154D     		ldr	r5, .L9+52
 456 031a 4FF4C877 		mov	r7, #400
 457 031e 0797     		str	r7, [sp, #28]
 458 0320 0697     		str	r7, [sp, #24]
 459 0322 4FF40773 		mov	r3, #540
 460 0326 0593     		str	r3, [sp, #20]
 461 0328 40F2B633 		movw	r3, #950
 462 032c 0493     		str	r3, [sp, #16]
 463 032e 0394     		str	r4, [sp, #12]
 464 0330 8723     		movs	r3, #135
 465 0332 0293     		str	r3, [sp, #8]
 466 0334 2D23     		movs	r3, #45
 467 0336 0193     		str	r3, [sp, #4]
 468 0338 1CE0     		b	.L10
 469              	.L11:
 470 033a 00BF     		.align	2
 471              	.L9:
 472 033c 00000000 		.word	UI_shoot_line
 473 0340 00000000 		.word	.LC0
 474 0344 04000000 		.word	.LC1
 475 0348 08000000 		.word	.LC2
 476 034c 0C000000 		.word	.LC3
 477 0350 10000000 		.word	.LC4
 478 0354 14000000 		.word	.LC5
 479 0358 00000000 		.word	UI_pitch_line
 480 035c 18000000 		.word	.LC6
 481 0360 1C000000 		.word	.LC7
 482 0364 20000000 		.word	.LC8
 483 0368 24000000 		.word	.LC9
 484 036c 28000000 		.word	.LC10
 485 0370 00000000 		.word	UI_graph_Arc
 486              	.L10:
 487 0374 0094     		str	r4, [sp]
 488 0376 0723     		movs	r3, #7
 489 0378 0122     		movs	r2, #1
 490 037a 6749     		ldr	r1, .L12
 491 037c 2846     		mov	r0, r5
 492 037e FFF7FEFF 		bl	UIArcDraw
 493              	.LVL22:
 463:application/config/infantry_robot/infantry_config.c ****     UIArcDraw(&UI_graph_Arc[1], "ss1", UI_Graph_ADD, 7, UI_Color_Cyan, 225, 270, 15, 960, 530, 400,
 494              		.loc 1 463 5 view .LVU26
 495 0382 05EB0A06 		add	r6, r5, r10
 496 0386 0797     		str	r7, [sp, #28]
 497 0388 0697     		str	r7, [sp, #24]
 498 038a 40F21223 		movw	r3, #530
 499 038e 0593     		str	r3, [sp, #20]
 500 0390 4FF47073 		mov	r3, #960
 501 0394 0493     		str	r3, [sp, #16]
 502 0396 CDF80CA0 		str	r10, [sp, #12]
 503 039a 4FF48773 		mov	r3, #270
 504 039e 0293     		str	r3, [sp, #8]
 505 03a0 E123     		movs	r3, #225
ARM GAS  C:\Users\10542\AppData\Local\Temp\ccqpPFfm.s 			page 18


 506 03a2 0193     		str	r3, [sp, #4]
 507 03a4 0094     		str	r4, [sp]
 508 03a6 0723     		movs	r3, #7
 509 03a8 0122     		movs	r2, #1
 510 03aa 5C49     		ldr	r1, .L12+4
 511 03ac 3046     		mov	r0, r6
 512 03ae FFF7FEFF 		bl	UIArcDraw
 513              	.LVL23:
 464:application/config/infantry_robot/infantry_config.c ****     UIGraphRefresh(&referee_recv_info->referee_id, 2, UI_graph_Arc[0], UI_graph_Arc[1]);
 514              		.loc 1 464 5 view .LVU27
 515 03b2 02AB     		add	r3, sp, #8
 516 03b4 D5F80F00 		ldr	r0, [r5, #15]	@ unaligned
 517 03b8 7168     		ldr	r1, [r6, #4]	@ unaligned
 518 03ba B268     		ldr	r2, [r6, #8]	@ unaligned
 519 03bc 07C3     		stmia	r3!, {r0, r1, r2}
 520 03be B189     		ldrh	r1, [r6, #12]	@ unaligned
 521 03c0 B27B     		ldrb	r2, [r6, #14]	@ zero_extendqisi2
 522 03c2 1980     		strh	r1, [r3]	@ unaligned
 523 03c4 9A70     		strb	r2, [r3, #2]
 524 03c6 05F10803 		add	r3, r5, #8
 525 03ca 93E80300 		ldm	r3, {r0, r1}
 526 03ce 0090     		str	r0, [sp]
 527 03d0 ADF80410 		strh	r1, [sp, #4]	@ movhi
 528 03d4 090C     		lsrs	r1, r1, #16
 529 03d6 8DF80610 		strb	r1, [sp, #6]
 530 03da 95E80C00 		ldm	r5, {r2, r3}
 531 03de 0221     		movs	r1, #2
 532 03e0 5846     		mov	r0, fp
 533 03e2 FFF7FEFF 		bl	UIGraphRefresh
 534              	.LVL24:
 465:application/config/infantry_robot/infantry_config.c ****     //绘制底盘运动圆弧
 466:application/config/infantry_robot/infantry_config.c ****     UIArcDraw(&UI_graph_Arc[2], "ss2", UI_Graph_ADD, 7, UI_Color_Cyan, 9, 300, 15, 1524, 725, 100, 
 535              		.loc 1 466 5 view .LVU28
 536 03e6 6423     		movs	r3, #100
 537 03e8 0793     		str	r3, [sp, #28]
 538 03ea 0693     		str	r3, [sp, #24]
 539 03ec 40F2D523 		movw	r3, #725
 540 03f0 0593     		str	r3, [sp, #20]
 541 03f2 40F2F453 		movw	r3, #1524
 542 03f6 0493     		str	r3, [sp, #16]
 543 03f8 CDF80CA0 		str	r10, [sp, #12]
 544 03fc 4FF49673 		mov	r3, #300
 545 0400 0293     		str	r3, [sp, #8]
 546 0402 0923     		movs	r3, #9
 547 0404 0193     		str	r3, [sp, #4]
 548 0406 0094     		str	r4, [sp]
 549 0408 0723     		movs	r3, #7
 550 040a 0122     		movs	r2, #1
 551 040c 4449     		ldr	r1, .L12+8
 552 040e 05F11E00 		add	r0, r5, #30
 553 0412 FFF7FEFF 		bl	UIArcDraw
 554              	.LVL25:
 467:application/config/infantry_robot/infantry_config.c ****     UIGraphRefresh(&referee_recv_info->referee_id, 1, UI_graph_Arc[2]);
 555              		.loc 1 467 5 view .LVU29
 556 0416 D5F82600 		ldr	r0, [r5, #38]	@ unaligned
 557 041a 0090     		str	r0, [sp]
 558 041c 6A8D     		ldrh	r2, [r5, #42]	@ unaligned
ARM GAS  C:\Users\10542\AppData\Local\Temp\ccqpPFfm.s 			page 19


 559 041e 95F82C30 		ldrb	r3, [r5, #44]	@ zero_extendqisi2
 560 0422 ADF80420 		strh	r2, [sp, #4]	@ unaligned
 561 0426 8DF80630 		strb	r3, [sp, #6]
 562 042a D5F81E20 		ldr	r2, [r5, #30]	@ unaligned
 563 042e D5F82230 		ldr	r3, [r5, #34]	@ unaligned
 564 0432 0121     		movs	r1, #1
 565 0434 5846     		mov	r0, fp
 566 0436 FFF7FEFF 		bl	UIGraphRefresh
 567              	.LVL26:
 468:application/config/infantry_robot/infantry_config.c **** 
 469:application/config/infantry_robot/infantry_config.c ****     // 绘制射速矩形
 470:application/config/infantry_robot/infantry_config.c ****     UIRectangleDraw(&UI_graph_Rectangle[0], "sj1", UI_Graph_ADD, 7, UI_Color_Cyan, 4, 46, 834, 136,
 568              		.loc 1 470 5 view .LVU30
 569 043a 3A4D     		ldr	r5, .L12+12
 570 043c 40F25A33 		movw	r3, #858
 571 0440 0593     		str	r3, [sp, #20]
 572 0442 8823     		movs	r3, #136
 573 0444 0493     		str	r3, [sp, #16]
 574 0446 40F24233 		movw	r3, #834
 575 044a 0393     		str	r3, [sp, #12]
 576 044c 2E23     		movs	r3, #46
 577 044e 0293     		str	r3, [sp, #8]
 578 0450 0423     		movs	r3, #4
 579 0452 0193     		str	r3, [sp, #4]
 580 0454 0094     		str	r4, [sp]
 581 0456 0723     		movs	r3, #7
 582 0458 0122     		movs	r2, #1
 583 045a 3349     		ldr	r1, .L12+16
 584 045c 2846     		mov	r0, r5
 585 045e FFF7FEFF 		bl	UIRectangleDraw
 586              	.LVL27:
 471:application/config/infantry_robot/infantry_config.c ****     UIRectangleDraw(&UI_graph_Rectangle[1], "sj2", UI_Graph_ADD, 7, UI_Color_Cyan, 5, 1481, 672, 15
 587              		.loc 1 471 5 view .LVU31
 588 0462 05EB0A06 		add	r6, r5, r10
 589 0466 4FF44379 		mov	r9, #780
 590 046a CDF81490 		str	r9, [sp, #20]
 591 046e 40F2E353 		movw	r3, #1507
 592 0472 0493     		str	r3, [sp, #16]
 593 0474 4FF42878 		mov	r8, #672
 594 0478 CDF80C80 		str	r8, [sp, #12]
 595 047c 40F2C953 		movw	r3, #1481
 596 0480 0293     		str	r3, [sp, #8]
 597 0482 0527     		movs	r7, #5
 598 0484 0197     		str	r7, [sp, #4]
 599 0486 0094     		str	r4, [sp]
 600 0488 0723     		movs	r3, #7
 601 048a 0122     		movs	r2, #1
 602 048c 2749     		ldr	r1, .L12+20
 603 048e 3046     		mov	r0, r6
 604 0490 FFF7FEFF 		bl	UIRectangleDraw
 605              	.LVL28:
 472:application/config/infantry_robot/infantry_config.c ****     UIGraphRefresh(&referee_recv_info->referee_id, 2, UI_graph_Rectangle[0], UI_graph_Rectangle[1])
 606              		.loc 1 472 5 view .LVU32
 607 0494 02AB     		add	r3, sp, #8
 608 0496 D5F80F00 		ldr	r0, [r5, #15]	@ unaligned
 609 049a 7168     		ldr	r1, [r6, #4]	@ unaligned
 610 049c B268     		ldr	r2, [r6, #8]	@ unaligned
ARM GAS  C:\Users\10542\AppData\Local\Temp\ccqpPFfm.s 			page 20


 611 049e 07C3     		stmia	r3!, {r0, r1, r2}
 612 04a0 B189     		ldrh	r1, [r6, #12]	@ unaligned
 613 04a2 B27B     		ldrb	r2, [r6, #14]	@ zero_extendqisi2
 614 04a4 1980     		strh	r1, [r3]	@ unaligned
 615 04a6 9A70     		strb	r2, [r3, #2]
 616 04a8 05F10803 		add	r3, r5, #8
 617 04ac 93E80300 		ldm	r3, {r0, r1}
 618 04b0 0090     		str	r0, [sp]
 619 04b2 ADF80410 		strh	r1, [sp, #4]	@ movhi
 620 04b6 090C     		lsrs	r1, r1, #16
 621 04b8 8DF80610 		strb	r1, [sp, #6]
 622 04bc 95E80C00 		ldm	r5, {r2, r3}
 623 04c0 0221     		movs	r1, #2
 624 04c2 5846     		mov	r0, fp
 625 04c4 FFF7FEFF 		bl	UIGraphRefresh
 626              	.LVL29:
 473:application/config/infantry_robot/infantry_config.c ****     UIRectangleDraw(&UI_graph_Rectangle[2], "sj3", UI_Graph_ADD, 7, UI_Color_Cyan, 5, 1555, 672, 15
 627              		.loc 1 473 5 view .LVU33
 628 04c8 CDF81490 		str	r9, [sp, #20]
 629 04cc 40F22D63 		movw	r3, #1581
 630 04d0 0493     		str	r3, [sp, #16]
 631 04d2 CDF80C80 		str	r8, [sp, #12]
 632 04d6 40F21363 		movw	r3, #1555
 633 04da 0293     		str	r3, [sp, #8]
 634 04dc 0197     		str	r7, [sp, #4]
 635 04de 0094     		str	r4, [sp]
 636 04e0 0723     		movs	r3, #7
 637 04e2 0122     		movs	r2, #1
 638 04e4 1249     		ldr	r1, .L12+24
 639 04e6 05F11E00 		add	r0, r5, #30
 640 04ea FFF7FEFF 		bl	UIRectangleDraw
 641              	.LVL30:
 474:application/config/infantry_robot/infantry_config.c ****     UIGraphRefresh(&referee_recv_info->referee_id, 1, UI_graph_Rectangle[2]);
 642              		.loc 1 474 5 view .LVU34
 643 04ee D5F82600 		ldr	r0, [r5, #38]	@ unaligned
 644 04f2 0090     		str	r0, [sp]
 645 04f4 6A8D     		ldrh	r2, [r5, #42]	@ unaligned
 646 04f6 95F82C30 		ldrb	r3, [r5, #44]	@ zero_extendqisi2
 647 04fa ADF80420 		strh	r2, [sp, #4]	@ unaligned
 648 04fe 8DF80630 		strb	r3, [sp, #6]
 649 0502 D5F81E20 		ldr	r2, [r5, #30]	@ unaligned
 650 0506 D5F82230 		ldr	r3, [r5, #34]	@ unaligned
 651 050a 0121     		movs	r1, #1
 652 050c 5846     		mov	r0, fp
 653 050e FFF7FEFF 		bl	UIGraphRefresh
 654              	.LVL31:
 475:application/config/infantry_robot/infantry_config.c **** }
 655              		.loc 1 475 1 is_stmt 0 view .LVU35
 656 0512 13B0     		add	sp, sp, #76
 657              	.LCFI2:
 658              		.cfi_def_cfa_offset 36
 659              		@ sp needed
 660 0514 BDE8F08F 		pop	{r4, r5, r6, r7, r8, r9, r10, fp, pc}
 661              	.LVL32:
 662              	.L13:
 663              		.loc 1 475 1 view .LVU36
 664              		.align	2
ARM GAS  C:\Users\10542\AppData\Local\Temp\ccqpPFfm.s 			page 21


 665              	.L12:
 666 0518 2C000000 		.word	.LC11
 667 051c 30000000 		.word	.LC12
 668 0520 34000000 		.word	.LC13
 669 0524 00000000 		.word	UI_graph_Rectangle
 670 0528 38000000 		.word	.LC14
 671 052c 3C000000 		.word	.LC15
 672 0530 40000000 		.word	.LC16
 673              		.cfi_endproc
 674              	.LFE277:
 676              		.section	.text.InfantryDynamciscUI,"ax",%progbits
 677              		.align	1
 678              		.global	InfantryDynamciscUI
 679              		.syntax unified
 680              		.thumb
 681              		.thumb_func
 683              	InfantryDynamciscUI:
 684              	.LVL33:
 685              	.LFB278:
 476:application/config/infantry_robot/infantry_config.c **** void InfantryDynamciscUI(referee_info_t *referee_recv_info, Referee_Interactive_info_t *_Interactiv
 477:application/config/infantry_robot/infantry_config.c **** {
 686              		.loc 1 477 1 is_stmt 1 view -0
 687              		.cfi_startproc
 688              		@ args = 0, pretend = 0, frame = 0
 689              		@ frame_needed = 0, uses_anonymous_args = 0
 478:application/config/infantry_robot/infantry_config.c ****     // shoot
 479:application/config/infantry_robot/infantry_config.c ****     if (_Interactive_data->Referee_Interactive_Flag.shoot_flag == 1)
 690              		.loc 1 479 5 view .LVU38
 691              		.loc 1 479 64 is_stmt 0 view .LVU39
 692 0000 0B78     		ldrb	r3, [r1]	@ zero_extendqisi2
 693              		.loc 1 479 8 view .LVU40
 694 0002 13F0040F 		tst	r3, #4
 695 0006 00D1     		bne	.L20
 696 0008 7047     		bx	lr
 697              	.L20:
 477:application/config/infantry_robot/infantry_config.c ****     // shoot
 698              		.loc 1 477 1 view .LVU41
 699 000a 2DE9F04F 		push	{r4, r5, r6, r7, r8, r9, r10, fp, lr}
 700              	.LCFI3:
 701              		.cfi_def_cfa_offset 36
 702              		.cfi_offset 4, -36
 703              		.cfi_offset 5, -32
 704              		.cfi_offset 6, -28
 705              		.cfi_offset 7, -24
 706              		.cfi_offset 8, -20
 707              		.cfi_offset 9, -16
 708              		.cfi_offset 10, -12
 709              		.cfi_offset 11, -8
 710              		.cfi_offset 14, -4
 711 000e 87B0     		sub	sp, sp, #28
 712              	.LCFI4:
 713              		.cfi_def_cfa_offset 64
 714 0010 0646     		mov	r6, r0
 715 0012 0C46     		mov	r4, r1
 480:application/config/infantry_robot/infantry_config.c ****     {
 481:application/config/infantry_robot/infantry_config.c ****         // UICharDraw(&UI_State_dyn[2], "sd2", UI_Graph_Change, 8, UI_Color_Pink, 15, 2, 270, 650, 
 482:application/config/infantry_robot/infantry_config.c ****         // UICharRefresh(&referee_recv_info->referee_id, UI_State_dyn[2]);
ARM GAS  C:\Users\10542\AppData\Local\Temp\ccqpPFfm.s 			page 22


 483:application/config/infantry_robot/infantry_config.c **** 
 484:application/config/infantry_robot/infantry_config.c ****         // 绘制射击模式UI
 485:application/config/infantry_robot/infantry_config.c ****         UIRectangleDraw(&UI_graph_Rectangle[0], "sj1", UI_Graph_ADD, 7, UI_Color_Purplish_red, 4, 4
 716              		.loc 1 485 9 is_stmt 1 view .LVU42
 717 0014 3E4D     		ldr	r5, .L21
 718 0016 40F25A33 		movw	r3, #858
 719 001a 0593     		str	r3, [sp, #20]
 720 001c 8823     		movs	r3, #136
 721 001e 0493     		str	r3, [sp, #16]
 722 0020 40F24233 		movw	r3, #834
 723 0024 0393     		str	r3, [sp, #12]
 724 0026 2E23     		movs	r3, #46
 725 0028 0293     		str	r3, [sp, #8]
 726 002a 4FF00408 		mov	r8, #4
 727 002e CDF80480 		str	r8, [sp, #4]
 728 0032 CDF80080 		str	r8, [sp]
 729 0036 0723     		movs	r3, #7
 730 0038 0122     		movs	r2, #1
 731 003a 3649     		ldr	r1, .L21+4
 732              	.LVL34:
 733              		.loc 1 485 9 is_stmt 0 view .LVU43
 734 003c 2846     		mov	r0, r5
 735              	.LVL35:
 736              		.loc 1 485 9 view .LVU44
 737 003e FFF7FEFF 		bl	UIRectangleDraw
 738              	.LVL36:
 486:application/config/infantry_robot/infantry_config.c ****         UIRectangleDraw(&UI_graph_Rectangle[1], "sj2", UI_Graph_ADD, 7, UI_Color_Purplish_red, 5, 1
 739              		.loc 1 486 9 is_stmt 1 view .LVU45
 740 0042 05F10F07 		add	r7, r5, #15
 741 0046 4FF4437B 		mov	fp, #780
 742 004a CDF814B0 		str	fp, [sp, #20]
 743 004e 40F2E353 		movw	r3, #1507
 744 0052 0493     		str	r3, [sp, #16]
 745 0054 4FF4287A 		mov	r10, #672
 746 0058 CDF80CA0 		str	r10, [sp, #12]
 747 005c 40F2C953 		movw	r3, #1481
 748 0060 0293     		str	r3, [sp, #8]
 749 0062 4FF00509 		mov	r9, #5
 750 0066 CDF80490 		str	r9, [sp, #4]
 751 006a CDF80080 		str	r8, [sp]
 752 006e 0723     		movs	r3, #7
 753 0070 0122     		movs	r2, #1
 754 0072 2949     		ldr	r1, .L21+8
 755 0074 3846     		mov	r0, r7
 756 0076 FFF7FEFF 		bl	UIRectangleDraw
 757              	.LVL37:
 487:application/config/infantry_robot/infantry_config.c ****         UIGraphRefresh(&referee_recv_info->referee_id, 2, UI_graph_Rectangle[0], UI_graph_Rectangle
 758              		.loc 1 487 9 view .LVU46
 759 007a 02AB     		add	r3, sp, #8
 760 007c D5F80F00 		ldr	r0, [r5, #15]	@ unaligned
 761 0080 D5F81310 		ldr	r1, [r5, #19]	@ unaligned
 762 0084 D5F81720 		ldr	r2, [r5, #23]	@ unaligned
 763 0088 07C3     		stmia	r3!, {r0, r1, r2}
 764 008a B5F81B10 		ldrh	r1, [r5, #27]	@ unaligned
 765 008e 6A7F     		ldrb	r2, [r5, #29]	@ zero_extendqisi2
 766 0090 1980     		strh	r1, [r3]	@ unaligned
 767 0092 9A70     		strb	r2, [r3, #2]
ARM GAS  C:\Users\10542\AppData\Local\Temp\ccqpPFfm.s 			page 23


 768 0094 05F10803 		add	r3, r5, #8
 769 0098 93E80300 		ldm	r3, {r0, r1}
 770 009c 0090     		str	r0, [sp]
 771 009e ADF80410 		strh	r1, [sp, #4]	@ movhi
 772 00a2 090C     		lsrs	r1, r1, #16
 773 00a4 8DF80610 		strb	r1, [sp, #6]
 774 00a8 95E80C00 		ldm	r5, {r2, r3}
 775 00ac 0221     		movs	r1, #2
 776 00ae 3046     		mov	r0, r6
 777 00b0 FFF7FEFF 		bl	UIGraphRefresh
 778              	.LVL38:
 488:application/config/infantry_robot/infantry_config.c ****         UIRectangleDraw(&UI_graph_Rectangle[2], "sj3", UI_Graph_ADD, 7, UI_Color_Purplish_red, 5, 1
 779              		.loc 1 488 9 view .LVU47
 780 00b4 CDF814B0 		str	fp, [sp, #20]
 781 00b8 40F22D63 		movw	r3, #1581
 782 00bc 0493     		str	r3, [sp, #16]
 783 00be CDF80CA0 		str	r10, [sp, #12]
 784 00c2 40F21363 		movw	r3, #1555
 785 00c6 0293     		str	r3, [sp, #8]
 786 00c8 CDF80490 		str	r9, [sp, #4]
 787 00cc CDF80080 		str	r8, [sp]
 788 00d0 0723     		movs	r3, #7
 789 00d2 0122     		movs	r2, #1
 790 00d4 1149     		ldr	r1, .L21+12
 791 00d6 05F11E00 		add	r0, r5, #30
 792 00da FFF7FEFF 		bl	UIRectangleDraw
 793              	.LVL39:
 489:application/config/infantry_robot/infantry_config.c ****         UIGraphRefresh(&referee_recv_info->referee_id, 1, UI_graph_Rectangle[2]);
 794              		.loc 1 489 9 view .LVU48
 795 00de D5F82600 		ldr	r0, [r5, #38]	@ unaligned
 796 00e2 0090     		str	r0, [sp]
 797 00e4 6A8D     		ldrh	r2, [r5, #42]	@ unaligned
 798 00e6 95F82C30 		ldrb	r3, [r5, #44]	@ zero_extendqisi2
 799 00ea ADF80420 		strh	r2, [sp, #4]	@ unaligned
 800 00ee 8DF80630 		strb	r3, [sp, #6]
 801 00f2 D5F81E20 		ldr	r2, [r5, #30]	@ unaligned
 802 00f6 D5F82230 		ldr	r3, [r5, #34]	@ unaligned
 803 00fa 0121     		movs	r1, #1
 804 00fc 3046     		mov	r0, r6
 805 00fe FFF7FEFF 		bl	UIGraphRefresh
 806              	.LVL40:
 490:application/config/infantry_robot/infantry_config.c **** 
 491:application/config/infantry_robot/infantry_config.c **** 
 492:application/config/infantry_robot/infantry_config.c ****         // 重置射击模式标志位
 493:application/config/infantry_robot/infantry_config.c ****         _Interactive_data->Referee_Interactive_Flag.shoot_flag = 0;
 807              		.loc 1 493 9 view .LVU49
 808              		.loc 1 493 64 is_stmt 0 view .LVU50
 809 0102 2378     		ldrb	r3, [r4]	@ zero_extendqisi2
 810 0104 23F00403 		bic	r3, r3, #4
 811 0108 2370     		strb	r3, [r4]
 494:application/config/infantry_robot/infantry_config.c ****     }
 495:application/config/infantry_robot/infantry_config.c **** }...
 812              		.loc 1 495 1 view .LVU51
 813 010a 07B0     		add	sp, sp, #28
 814              	.LCFI5:
 815              		.cfi_def_cfa_offset 36
 816              		@ sp needed
ARM GAS  C:\Users\10542\AppData\Local\Temp\ccqpPFfm.s 			page 24


 817 010c BDE8F08F 		pop	{r4, r5, r6, r7, r8, r9, r10, fp, pc}
 818              	.LVL41:
 819              	.L22:
 820              		.loc 1 495 1 view .LVU52
 821              		.align	2
 822              	.L21:
 823 0110 00000000 		.word	UI_graph_Rectangle
 824 0114 38000000 		.word	.LC14
 825 0118 3C000000 		.word	.LC15
 826 011c 40000000 		.word	.LC16
 827              		.cfi_endproc
 828              	.LFE278:
 830              		.section	.data.infantry_config_5.0,"aw"
 831              		.align	2
 834              	infantry_config_5.0:
 835 0000 00       		.byte	0
 836 0001 000000   		.space	3
 837 0004 00000000 		.word	0
 838 0008 00000000 		.word	0
 839 000c 0000B943 		.word	1136197632
 840 0010 0000D243 		.word	1137836032
 841 0014 00009642 		.word	1117126656
 842 0018 00009841 		.word	1100480512
 843 001c 00000000 		.space	188
 843      00000000 
 843      00000000 
 843      00000000 
 843      00000000 
 844 00d8 00000000 		.space	16
 844      00000000 
 844      00000000 
 844      00000000 
 845 00e8 0000003F 		.word	1056964608
 846 00ec 00000000 		.word	0
 847 00f0 00000000 		.word	0
 848 00f4 00606A46 		.word	1181376512
 849 00f8 00000000 		.space	4
 850 00fc 07       		.byte	7
 851 00fd 000000   		.space	3
 852 0100 00803B45 		.word	1161527296
 853 0104 00000000 		.space	16
 853      00000000 
 853      00000000 
 853      00000000 
 854 0114 0000A040 		.word	1084227584
 855 0118 0000803F 		.word	1065353216
 856 011c 00000000 		.word	0
 857 0120 00803B46 		.word	1178304512
 858 0124 00000000 		.space	4
 859 0128 07       		.byte	7
 860 0129 000000   		.space	3
 861 012c 00803B45 		.word	1161527296
 862 0130 00000000 		.space	16
 862      00000000 
 862      00000000 
 862      00000000 
 863 0140 00000000 		.space	44
ARM GAS  C:\Users\10542\AppData\Local\Temp\ccqpPFfm.s 			page 25


 863      00000000 
 863      00000000 
 863      00000000 
 863      00000000 
 864 016c 02       		.byte	2
 865 016d 03       		.byte	3
 866 016e 0000     		.space	2
 867 0170 00       		.byte	0
 868 0171 00       		.byte	0
 869 0172 0000     		.space	2
 870 0174 02       		.byte	2
 871 0175 000000   		.space	3
 872 0178 00000000 		.word	hcan1
 873 017c 00000000 		.space	24
 873      00000000 
 873      00000000 
 873      00000000 
 873      00000000 
 874 0194 00       		.space	1
 875 0195 03020104 		.ascii	"\003\002\001\004\000"
 875      00
 876 019a 000000   		.space	3
 877 019d 000000   		.space	3
 878 01a0 00       		.byte	0
 879 01a1 000000   		.space	3
 880 01a4 0060B945 		.word	1169776640
 881 01a8 00007041 		.word	1097859072
 882 01ac 000020C2 		.word	-1038090240
 883 01b0 00000000 		.space	60
 883      00000000 
 883      00000000 
 883      00000000 
 883      00000000 
 884 01ec 00009643 		.word	1133903872
 885 01f0 00001643 		.word	1125515264
 886 01f4 00000000 		.word	0
 887 01f8 00409C46 		.word	1184645120
 888 01fc 00000000 		.space	4
 889 0200 07       		.byte	7
 890 0201 000000   		.space	3
 891 0204 00803B45 		.word	1161527296
 892 0208 00000000 		.space	16
 892      00000000 
 892      00000000 
 892      00000000 
 893 0218 00007041 		.word	1097859072
 894 021c 00000000 		.word	0
 895 0220 3333333F 		.word	1060320051
 896 0224 0000FA43 		.word	1140457472
 897 0228 CDCCCC3D 		.word	1036831949
 898 022c 07       		.byte	7
 899 022d 000000   		.space	3
 900 0230 0000C842 		.word	1120403456
 901 0234 00000000 		.space	16
 901      00000000 
 901      00000000 
 901      00000000 
ARM GAS  C:\Users\10542\AppData\Local\Temp\ccqpPFfm.s 			page 26


 902 0244 04       		.byte	4
 903 0245 06       		.byte	6
 904 0246 01       		.byte	1
 905 0247 00       		.byte	0
 906 0248 01       		.byte	1
 907 0249 01       		.byte	1
 908 024a 0000     		.space	2
 909 024c 01       		.byte	1
 910 024d 000000   		.space	3
 911 0250 00000000 		.word	hcan1
 912 0254 01000000 		.word	1
 913 0258 00000000 		.space	20
 913      00000000 
 913      00000000 
 913      00000000 
 913      00000000 
 914 026c 00000000 		.space	188
 914      00000000 
 914      00000000 
 914      00000000 
 914      00000000 
 915 0328 00000000 		.space	60
 915      00000000 
 915      00000000 
 915      00000000 
 915      00000000 
 916 0364 00004843 		.word	1128792064
 917 0368 0000C842 		.word	1120403456
 918 036c 00000000 		.word	0
 919 0370 00409C46 		.word	1184645120
 920 0374 00000000 		.space	4
 921 0378 07       		.byte	7
 922 0379 000000   		.space	3
 923 037c 00401C45 		.word	1159479296
 924 0380 00000000 		.space	16
 924      00000000 
 924      00000000 
 924      00000000 
 925 0390 0000A041 		.word	1101004800
 926 0394 00000000 		.word	0
 927 0398 CDCCCC3E 		.word	1053609165
 928 039c 0000FA43 		.word	1140457472
 929 03a0 00000000 		.space	4
 930 03a4 07       		.byte	7
 931 03a5 000000   		.space	3
 932 03a8 0000C842 		.word	1120403456
 933 03ac 00000000 		.space	16
 933      00000000 
 933      00000000 
 933      00000000 
 934 03bc 04       		.byte	4
 935 03bd 06       		.byte	6
 936 03be 00       		.byte	0
 937 03bf 01       		.byte	1
 938 03c0 01       		.byte	1
 939 03c1 01       		.byte	1
 940 03c2 0000     		.space	2
ARM GAS  C:\Users\10542\AppData\Local\Temp\ccqpPFfm.s 			page 27


 941 03c4 01       		.byte	1
 942 03c5 000000   		.space	3
 943 03c8 00000000 		.word	hcan2
 944 03cc 02000000 		.word	2
 945 03d0 00000000 		.space	20
 945      00000000 
 945      00000000 
 945      00000000 
 945      00000000 
 946 03e4 00       		.byte	0
 947 03e5 000000   		.space	3
 948 03e8 00000000 		.space	16
 948      00000000 
 948      00000000 
 948      00000000 
 949 03f8 CDCCCC3E 		.word	1053609165
 950 03fc 00000000 		.word	0
 951 0400 00000000 		.word	0
 952 0404 00606A46 		.word	1181376512
 953 0408 00000000 		.space	4
 954 040c 01       		.byte	1
 955 040d 000000   		.space	3
 956 0410 00401C46 		.word	1176256512
 957 0414 00000000 		.space	16
 957      00000000 
 957      00000000 
 957      00000000 
 958 0424 00007041 		.word	1097859072
 959 0428 0000803F 		.word	1065353216
 960 042c 00000000 		.word	0
 961 0430 00606A46 		.word	1181376512
 962 0434 00000000 		.space	4
 963 0438 01       		.byte	1
 964 0439 000000   		.space	3
 965 043c 00401C46 		.word	1176256512
 966 0440 00000000 		.space	16
 966      00000000 
 966      00000000 
 966      00000000 
 967 0450 00000000 		.space	44
 967      00000000 
 967      00000000 
 967      00000000 
 967      00000000 
 968 047c 02       		.byte	2
 969 047d 03       		.byte	3
 970 047e 01       		.byte	1
 971 047f 00       		.space	1
 972 0480 00       		.byte	0
 973 0481 00       		.byte	0
 974 0482 0000     		.space	2
 975 0484 02       		.byte	2
 976 0485 000000   		.space	3
 977 0488 00000000 		.word	hcan2
 978 048c 00000000 		.space	24
 978      00000000 
 978      00000000 
ARM GAS  C:\Users\10542\AppData\Local\Temp\ccqpPFfm.s 			page 28


 978      00000000 
 978      00000000 
 979 04a4 00000000 		.space	16
 979      00000000 
 979      00000000 
 979      00000000 
 980 04b4 CDCCCC3E 		.word	1053609165
 981 04b8 00000000 		.word	0
 982 04bc 00000000 		.word	0
 983 04c0 00409C45 		.word	1167867904
 984 04c4 00000000 		.space	4
 985 04c8 01       		.byte	1
 986 04c9 000000   		.space	3
 987 04cc 00409C45 		.word	1167867904
 988 04d0 00000000 		.space	16
 988      00000000 
 988      00000000 
 988      00000000 
 989 04e0 00002041 		.word	1092616192
 990 04e4 0000803F 		.word	1065353216
 991 04e8 00000000 		.word	0
 992 04ec 00401C46 		.word	1176256512
 993 04f0 00000000 		.space	4
 994 04f4 01       		.byte	1
 995 04f5 000000   		.space	3
 996 04f8 0000FA45 		.word	1174011904
 997 04fc 00000000 		.space	16
 997      00000000 
 997      00000000 
 997      00000000 
 998 050c 00002041 		.word	1092616192
 999 0510 0000803F 		.word	1065353216
 1000 0514 00000000 		.word	0
 1001 0518 00004843 		.word	1128792064
 1002 051c 00000000 		.space	28
 1002      00000000 
 1002      00000000 
 1002      00000000 
 1002      00000000 
 1003 0538 02       		.byte	2
 1004 0539 03       		.byte	3
 1005 053a 00       		.byte	0
 1006 053b 00       		.space	1
 1007 053c 00       		.byte	0
 1008 053d 00       		.byte	0
 1009 053e 0000     		.space	2
 1010 0540 03       		.byte	3
 1011 0541 000000   		.space	3
 1012 0544 00000000 		.word	hcan2
 1013 0548 07000000 		.word	7
 1014 054c 00000000 		.space	20
 1014      00000000 
 1014      00000000 
 1014      00000000 
 1014      00000000 
 1015 0560 030400   		.ascii	"\003\004\000"
 1016 0563 00       		.space	1
ARM GAS  C:\Users\10542\AppData\Local\Temp\ccqpPFfm.s 			page 29


 1017 0564 01       		.byte	1
 1018 0565 00       		.byte	0
 1019 0566 0000     		.space	2
 1020              		.section	.data.infantry_config_3.1,"aw"
 1021              		.align	2
 1024              	infantry_config_3.1:
 1025 0000 00       		.byte	0
 1026 0001 000000   		.space	3
 1027 0004 00000000 		.word	0
 1028 0008 00000000 		.word	0
 1029 000c 0000B943 		.word	1136197632
 1030 0010 0000D243 		.word	1137836032
 1031 0014 00009642 		.word	1117126656
 1032 0018 00009841 		.word	1100480512
 1033 001c 00000000 		.space	188
 1033      00000000 
 1033      00000000 
 1033      00000000 
 1033      00000000 
 1034 00d8 00000000 		.space	16
 1034      00000000 
 1034      00000000 
 1034      00000000 
 1035 00e8 0000003F 		.word	1056964608
 1036 00ec 00000000 		.word	0
 1037 00f0 00000000 		.word	0
 1038 00f4 00606A46 		.word	1181376512
 1039 00f8 00000000 		.space	4
 1040 00fc 07       		.byte	7
 1041 00fd 000000   		.space	3
 1042 0100 00803B45 		.word	1161527296
 1043 0104 00000000 		.space	16
 1043      00000000 
 1043      00000000 
 1043      00000000 
 1044 0114 0000A040 		.word	1084227584
 1045 0118 0000803F 		.word	1065353216
 1046 011c 00000000 		.word	0
 1047 0120 00803B46 		.word	1178304512
 1048 0124 00000000 		.space	4
 1049 0128 07       		.byte	7
 1050 0129 000000   		.space	3
 1051 012c 00803B45 		.word	1161527296
 1052 0130 00000000 		.space	16
 1052      00000000 
 1052      00000000 
 1052      00000000 
 1053 0140 00000000 		.space	44
 1053      00000000 
 1053      00000000 
 1053      00000000 
 1053      00000000 
 1054 016c 02       		.byte	2
 1055 016d 03       		.byte	3
 1056 016e 0000     		.space	2
 1057 0170 00       		.byte	0
 1058 0171 00       		.byte	0
ARM GAS  C:\Users\10542\AppData\Local\Temp\ccqpPFfm.s 			page 30


 1059 0172 0000     		.space	2
 1060 0174 02       		.byte	2
 1061 0175 000000   		.space	3
 1062 0178 00000000 		.word	hcan1
 1063 017c 00000000 		.space	24
 1063      00000000 
 1063      00000000 
 1063      00000000 
 1063      00000000 
 1064 0194 00       		.space	1
 1065 0195 01020304 		.ascii	"\001\002\003\004\000"
 1065      00
 1066 019a 000000   		.space	3
 1067 019d 000000   		.space	3
 1068 01a0 00       		.byte	0
 1069 01a1 000000   		.space	3
 1070 01a4 00002545 		.word	1160052736
 1071 01a8 00000C42 		.word	1108082688
 1072 01ac 0000A0C1 		.word	-1046478848
 1073 01b0 00000000 		.space	60
 1073      00000000 
 1073      00000000 
 1073      00000000 
 1073      00000000 
 1074 01ec 00009643 		.word	1133903872
 1075 01f0 00001643 		.word	1125515264
 1076 01f4 00000000 		.word	0
 1077 01f8 00409C46 		.word	1184645120
 1078 01fc 00000000 		.space	4
 1079 0200 07       		.byte	7
 1080 0201 000000   		.space	3
 1081 0204 00803B45 		.word	1161527296
 1082 0208 00000000 		.space	16
 1082      00000000 
 1082      00000000 
 1082      00000000 
 1083 0218 00007041 		.word	1097859072
 1084 021c 00000000 		.word	0
 1085 0220 3333333F 		.word	1060320051
 1086 0224 0000FA43 		.word	1140457472
 1087 0228 CDCCCC3D 		.word	1036831949
 1088 022c 07       		.byte	7
 1089 022d 000000   		.space	3
 1090 0230 0000C842 		.word	1120403456
 1091 0234 00000000 		.space	16
 1091      00000000 
 1091      00000000 
 1091      00000000 
 1092 0244 04       		.byte	4
 1093 0245 06       		.byte	6
 1094 0246 01       		.byte	1
 1095 0247 00       		.byte	0
 1096 0248 01       		.byte	1
 1097 0249 01       		.byte	1
 1098 024a 0000     		.space	2
 1099 024c 01       		.byte	1
 1100 024d 000000   		.space	3
ARM GAS  C:\Users\10542\AppData\Local\Temp\ccqpPFfm.s 			page 31


 1101 0250 00000000 		.word	hcan1
 1102 0254 01000000 		.word	1
 1103 0258 00000000 		.space	20
 1103      00000000 
 1103      00000000 
 1103      00000000 
 1103      00000000 
 1104 026c 00000000 		.space	188
 1104      00000000 
 1104      00000000 
 1104      00000000 
 1104      00000000 
 1105 0328 00000000 		.space	60
 1105      00000000 
 1105      00000000 
 1105      00000000 
 1105      00000000 
 1106 0364 00007A43 		.word	1132068864
 1107 0368 0000C842 		.word	1120403456
 1108 036c 00000000 		.word	0
 1109 0370 00409C46 		.word	1184645120
 1110 0374 00000000 		.space	4
 1111 0378 07       		.byte	7
 1112 0379 000000   		.space	3
 1113 037c 00401C45 		.word	1159479296
 1114 0380 00000000 		.space	16
 1114      00000000 
 1114      00000000 
 1114      00000000 
 1115 0390 00007041 		.word	1097859072
 1116 0394 00000000 		.word	0
 1117 0398 CDCC4C3E 		.word	1045220557
 1118 039c 0000FA43 		.word	1140457472
 1119 03a0 00000000 		.space	4
 1120 03a4 07       		.byte	7
 1121 03a5 000000   		.space	3
 1122 03a8 0000C842 		.word	1120403456
 1123 03ac 00000000 		.space	16
 1123      00000000 
 1123      00000000 
 1123      00000000 
 1124 03bc 04       		.byte	4
 1125 03bd 06       		.byte	6
 1126 03be 01       		.byte	1
 1127 03bf 01       		.byte	1
 1128 03c0 01       		.byte	1
 1129 03c1 01       		.byte	1
 1130 03c2 0000     		.space	2
 1131 03c4 01       		.byte	1
 1132 03c5 000000   		.space	3
 1133 03c8 00000000 		.word	hcan2
 1134 03cc 02000000 		.word	2
 1135 03d0 00000000 		.space	20
 1135      00000000 
 1135      00000000 
 1135      00000000 
 1135      00000000 
ARM GAS  C:\Users\10542\AppData\Local\Temp\ccqpPFfm.s 			page 32


 1136 03e4 00       		.byte	0
 1137 03e5 000000   		.space	3
 1138 03e8 00000000 		.space	16
 1138      00000000 
 1138      00000000 
 1138      00000000 
 1139 03f8 CDCCCC3E 		.word	1053609165
 1140 03fc 00000000 		.word	0
 1141 0400 00000000 		.word	0
 1142 0404 00606A46 		.word	1181376512
 1143 0408 00000000 		.space	4
 1144 040c 01       		.byte	1
 1145 040d 000000   		.space	3
 1146 0410 00401C46 		.word	1176256512
 1147 0414 00000000 		.space	16
 1147      00000000 
 1147      00000000 
 1147      00000000 
 1148 0424 00002041 		.word	1092616192
 1149 0428 0000803F 		.word	1065353216
 1150 042c 00000000 		.word	0
 1151 0430 0050C346 		.word	1187205120
 1152 0434 00000000 		.space	4
 1153 0438 01       		.byte	1
 1154 0439 000000   		.space	3
 1155 043c 00401C46 		.word	1176256512
 1156 0440 00000000 		.space	16
 1156      00000000 
 1156      00000000 
 1156      00000000 
 1157 0450 00000000 		.space	44
 1157      00000000 
 1157      00000000 
 1157      00000000 
 1157      00000000 
 1158 047c 02       		.byte	2
 1159 047d 03       		.byte	3
 1160 047e 01       		.byte	1
 1161 047f 00       		.space	1
 1162 0480 00       		.byte	0
 1163 0481 00       		.byte	0
 1164 0482 0000     		.space	2
 1165 0484 02       		.byte	2
 1166 0485 000000   		.space	3
 1167 0488 00000000 		.word	hcan2
 1168 048c 00000000 		.space	24
 1168      00000000 
 1168      00000000 
 1168      00000000 
 1168      00000000 
 1169 04a4 00000000 		.space	16
 1169      00000000 
 1169      00000000 
 1169      00000000 
 1170 04b4 CDCCCC3E 		.word	1053609165
 1171 04b8 00000000 		.word	0
 1172 04bc 00000000 		.word	0
ARM GAS  C:\Users\10542\AppData\Local\Temp\ccqpPFfm.s 			page 33


 1173 04c0 00409C45 		.word	1167867904
 1174 04c4 00000000 		.space	4
 1175 04c8 01       		.byte	1
 1176 04c9 000000   		.space	3
 1177 04cc 00409C45 		.word	1167867904
 1178 04d0 00000000 		.space	16
 1178      00000000 
 1178      00000000 
 1178      00000000 
 1179 04e0 00002041 		.word	1092616192
 1180 04e4 0000803F 		.word	1065353216
 1181 04e8 00000000 		.word	0
 1182 04ec 00401C46 		.word	1176256512
 1183 04f0 00000000 		.space	4
 1184 04f4 01       		.byte	1
 1185 04f5 000000   		.space	3
 1186 04f8 0000FA45 		.word	1174011904
 1187 04fc 00000000 		.space	16
 1187      00000000 
 1187      00000000 
 1187      00000000 
 1188 050c 00002041 		.word	1092616192
 1189 0510 0000803F 		.word	1065353216
 1190 0514 00000000 		.word	0
 1191 0518 00004843 		.word	1128792064
 1192 051c 00000000 		.space	28
 1192      00000000 
 1192      00000000 
 1192      00000000 
 1192      00000000 
 1193 0538 02       		.byte	2
 1194 0539 03       		.byte	3
 1195 053a 00       		.byte	0
 1196 053b 00       		.space	1
 1197 053c 00       		.byte	0
 1198 053d 00       		.byte	0
 1199 053e 0000     		.space	2
 1200 0540 03       		.byte	3
 1201 0541 000000   		.space	3
 1202 0544 00000000 		.word	hcan2
 1203 0548 05000000 		.word	5
 1204 054c 00000000 		.space	20
 1204      00000000 
 1204      00000000 
 1204      00000000 
 1204      00000000 
 1205 0560 010200   		.ascii	"\001\002\000"
 1206 0563 00       		.space	1
 1207 0564 00       		.byte	0
 1208 0565 01       		.byte	1
 1209 0566 0000     		.space	2
 1210              		.section	.bss.UI_graph_Rectangle,"aw",%nobits
 1211              		.align	2
 1214              	UI_graph_Rectangle:
 1215 0000 00000000 		.space	45
 1215      00000000 
 1215      00000000 
ARM GAS  C:\Users\10542\AppData\Local\Temp\ccqpPFfm.s 			page 34


 1215      00000000 
 1215      00000000 
 1216              		.section	.bss.UI_graph_Arc,"aw",%nobits
 1217              		.align	2
 1220              	UI_graph_Arc:
 1221 0000 00000000 		.space	45
 1221      00000000 
 1221      00000000 
 1221      00000000 
 1221      00000000 
 1222              		.section	.bss.UI_shoot_line,"aw",%nobits
 1223              		.align	2
 1226              	UI_shoot_line:
 1227 0000 00000000 		.space	150
 1227      00000000 
 1227      00000000 
 1227      00000000 
 1227      00000000 
 1228              		.section	.bss.UI_pitch_line,"aw",%nobits
 1229              		.align	2
 1232              	UI_pitch_line:
 1233 0000 00000000 		.space	150
 1233      00000000 
 1233      00000000 
 1233      00000000 
 1233      00000000 
 1234              		.text
 1235              	.Letext0:
 1236              		.file 2 "E:/MSYS2/mingw64/arm-none-eabi/include/machine/_default_types.h"
 1237              		.file 3 "E:/MSYS2/mingw64/arm-none-eabi/include/sys/_stdint.h"
 1238              		.file 4 "Drivers/CMSIS/Device/ST/STM32F4xx/Include/stm32f407xx.h"
 1239              		.file 5 "Drivers/CMSIS/Device/ST/STM32F4xx/Include/stm32f4xx.h"
 1240              		.file 6 "Drivers/STM32F4xx_HAL_Driver/Inc/stm32f4xx_hal_can.h"
 1241              		.file 7 "Inc/can.h"
 1242              		.file 8 "bsp/can/bsp_can.h"
 1243              		.file 9 "modules/algorithm/controller.h"
 1244              		.file 10 "modules/motor/motor_def.h"
 1245              		.file 11 "application/config/config.h"
 1246              		.file 12 "modules/referee/referee_protocol.h"
 1247              		.file 13 "application/robot_def.h"
 1248              		.file 14 "modules/referee/rm_referee.h"
 1249              		.file 15 "modules/referee/referee_UI.h"
ARM GAS  C:\Users\10542\AppData\Local\Temp\ccqpPFfm.s 			page 35

