ARM GAS  C:\Users\ADMINI~1\AppData\Local\Temp\ccGvSvhR.s 			page 1


   1              		.cpu cortex-m4
   2              		.arch armv7e-m
   3              		.fpu fpv4-sp-d16
   4              		.eabi_attribute 27, 1
   5              		.eabi_attribute 28, 1
   6              		.eabi_attribute 20, 1
   7              		.eabi_attribute 21, 1
   8              		.eabi_attribute 23, 3
   9              		.eabi_attribute 24, 1
  10              		.eabi_attribute 25, 1
  11              		.eabi_attribute 26, 1
  12              		.eabi_attribute 30, 1
  13              		.eabi_attribute 34, 1
  14              		.eabi_attribute 18, 4
  15              		.file	"LK9025.c"
  16              		.text
  17              	.Ltext0:
  18              		.cfi_sections	.debug_frame
  19              		.file 1 "modules/motor/LKmotor/LK9025.c"
  20              		.section	.text.LKMotorLostCallback,"ax",%progbits
  21              		.align	1
  22              		.syntax unified
  23              		.thumb
  24              		.thumb_func
  26              	LKMotorLostCallback:
  27              	.LVL0:
  28              	.LFB272:
   1:modules/motor/LKmotor/LK9025.c **** #include "LK9025.h"
   2:modules/motor/LKmotor/LK9025.c **** #include "stdlib.h"
   3:modules/motor/LKmotor/LK9025.c **** #include "general_def.h"
   4:modules/motor/LKmotor/LK9025.c **** #include "daemon.h"
   5:modules/motor/LKmotor/LK9025.c **** #include "bsp_dwt.h"
   6:modules/motor/LKmotor/LK9025.c **** #include "bsp_log.h"
   7:modules/motor/LKmotor/LK9025.c **** 
   8:modules/motor/LKmotor/LK9025.c **** static uint8_t idx;
   9:modules/motor/LKmotor/LK9025.c **** static LKMotorInstance *lkmotor_instance[LK_MOTOR_MX_CNT] = {NULL};
  10:modules/motor/LKmotor/LK9025.c **** static CANInstance *sender_instance; // Â§öÁîµÊú∫ÂèëÈÄÅÊó∂‰ΩøÁî®ÁöÑcaninstance(ÂΩìÂâç‰øùÂ≠òÁöÑÊòØÊ≥
  11:modules/motor/LKmotor/LK9025.c **** // ÂêéÁª≠ËÄÉËôëÂÖºÂÆπÂçïÁîµÊú∫ÂíåÂ§öÁîµÊú∫Êåá‰ª§.
  12:modules/motor/LKmotor/LK9025.c **** 
  13:modules/motor/LKmotor/LK9025.c **** /**
  14:modules/motor/LKmotor/LK9025.c ****  * @brief ÁîµÊú∫ÂèçÈ¶àÊä•ÊñáËß£Êûê
  15:modules/motor/LKmotor/LK9025.c ****  *
  16:modules/motor/LKmotor/LK9025.c ****  * @param _instance ÂèëÁîü‰∏≠Êñ≠ÁöÑcaninstance
  17:modules/motor/LKmotor/LK9025.c ****  */
  18:modules/motor/LKmotor/LK9025.c **** static void LKMotorDecode(CANInstance *_instance)
  19:modules/motor/LKmotor/LK9025.c **** {
  20:modules/motor/LKmotor/LK9025.c ****     LKMotorInstance *motor = (LKMotorInstance *)_instance->id; // ÈÄöËøácaninstance‰øùÂ≠òÁöÑfather 
  21:modules/motor/LKmotor/LK9025.c ****     LKMotor_Measure_t *measure = &motor->measure;
  22:modules/motor/LKmotor/LK9025.c ****     uint8_t *rx_buff = _instance->rx_buff;
  23:modules/motor/LKmotor/LK9025.c **** 
  24:modules/motor/LKmotor/LK9025.c ****     DaemonReload(motor->daemon); // ÂñÇÁãó
  25:modules/motor/LKmotor/LK9025.c ****     measure->feed_dt = DWT_GetDeltaT(&measure->feed_dwt_cnt);
  26:modules/motor/LKmotor/LK9025.c **** 
  27:modules/motor/LKmotor/LK9025.c ****     measure->last_ecd = measure->ecd;
  28:modules/motor/LKmotor/LK9025.c ****     measure->ecd = (uint16_t)((rx_buff[7] << 8) | rx_buff[6]);
  29:modules/motor/LKmotor/LK9025.c **** 
  30:modules/motor/LKmotor/LK9025.c ****     measure->angle_single_round = ECD_ANGLE_COEF_LK * measure->ecd;
ARM GAS  C:\Users\ADMINI~1\AppData\Local\Temp\ccGvSvhR.s 			page 2


  31:modules/motor/LKmotor/LK9025.c **** 
  32:modules/motor/LKmotor/LK9025.c ****     measure->speed_rads = (1 - SPEED_SMOOTH_COEF) * measure->speed_rads +
  33:modules/motor/LKmotor/LK9025.c ****                           DEGREE_2_RAD * SPEED_SMOOTH_COEF * (float)((int16_t)(rx_buff[5] << 8 | rx
  34:modules/motor/LKmotor/LK9025.c **** 
  35:modules/motor/LKmotor/LK9025.c ****     measure->real_current = (1 - CURRENT_SMOOTH_COEF) * measure->real_current +
  36:modules/motor/LKmotor/LK9025.c ****                             CURRENT_SMOOTH_COEF * (float)((int16_t)(rx_buff[3] << 8 | rx_buff[2]));
  37:modules/motor/LKmotor/LK9025.c **** 
  38:modules/motor/LKmotor/LK9025.c ****     measure->temperature = rx_buff[1];
  39:modules/motor/LKmotor/LK9025.c **** 
  40:modules/motor/LKmotor/LK9025.c ****     if (measure->ecd - measure->last_ecd > 32768)
  41:modules/motor/LKmotor/LK9025.c ****         measure->total_round--;
  42:modules/motor/LKmotor/LK9025.c ****     else if (measure->ecd - measure->last_ecd < -32768)
  43:modules/motor/LKmotor/LK9025.c ****         measure->total_round++;
  44:modules/motor/LKmotor/LK9025.c ****     measure->total_angle = measure->total_round * 360 + measure->angle_single_round;
  45:modules/motor/LKmotor/LK9025.c **** }
  46:modules/motor/LKmotor/LK9025.c **** 
  47:modules/motor/LKmotor/LK9025.c **** static void LKMotorLostCallback(void *motor_ptr)
  48:modules/motor/LKmotor/LK9025.c **** {
  29              		.loc 1 48 1 view -0
  30              		.cfi_startproc
  31              		@ args = 0, pretend = 0, frame = 0
  32              		@ frame_needed = 0, uses_anonymous_args = 0
  33              		@ link register save eliminated.
  49:modules/motor/LKmotor/LK9025.c ****     LKMotorInstance *motor = (LKMotorInstance *)motor_ptr;
  34              		.loc 1 49 5 view .LVU1
  50:modules/motor/LKmotor/LK9025.c ****     LOGWARNING("[LKMotor] motor lost, id: %d", motor->motor_can_ins->tx_id);
  35              		.loc 1 50 76 view .LVU2
  51:modules/motor/LKmotor/LK9025.c **** }
  36              		.loc 1 51 1 is_stmt 0 view .LVU3
  37 0000 7047     		bx	lr
  38              		.cfi_endproc
  39              	.LFE272:
  41              		.section	.text.LKMotorDecode,"ax",%progbits
  42              		.align	1
  43              		.syntax unified
  44              		.thumb
  45              		.thumb_func
  47              	LKMotorDecode:
  48              	.LVL1:
  49              	.LFB271:
  19:modules/motor/LKmotor/LK9025.c ****     LKMotorInstance *motor = (LKMotorInstance *)_instance->id; // ÈÄöËøácaninstance‰øùÂ≠òÁöÑfather 
  50              		.loc 1 19 1 is_stmt 1 view -0
  51              		.cfi_startproc
  52              		@ args = 0, pretend = 0, frame = 0
  53              		@ frame_needed = 0, uses_anonymous_args = 0
  19:modules/motor/LKmotor/LK9025.c ****     LKMotorInstance *motor = (LKMotorInstance *)_instance->id; // ÈÄöËøácaninstance‰øùÂ≠òÁöÑfather 
  54              		.loc 1 19 1 is_stmt 0 view .LVU5
  55 0000 38B5     		push	{r3, r4, r5, lr}
  56              	.LCFI0:
  57              		.cfi_def_cfa_offset 16
  58              		.cfi_offset 3, -16
  59              		.cfi_offset 4, -12
  60              		.cfi_offset 5, -8
  61              		.cfi_offset 14, -4
  62 0002 0546     		mov	r5, r0
  20:modules/motor/LKmotor/LK9025.c ****     LKMotor_Measure_t *measure = &motor->measure;
  63              		.loc 1 20 5 is_stmt 1 view .LVU6
ARM GAS  C:\Users\ADMINI~1\AppData\Local\Temp\ccGvSvhR.s 			page 3


  20:modules/motor/LKmotor/LK9025.c ****     LKMotor_Measure_t *measure = &motor->measure;
  64              		.loc 1 20 22 is_stmt 0 view .LVU7
  65 0004 D0F84140 		ldr	r4, [r0, #65]	@ unaligned
  66              	.LVL2:
  21:modules/motor/LKmotor/LK9025.c ****     uint8_t *rx_buff = _instance->rx_buff;
  67              		.loc 1 21 5 is_stmt 1 view .LVU8
  22:modules/motor/LKmotor/LK9025.c **** 
  68              		.loc 1 22 5 view .LVU9
  24:modules/motor/LKmotor/LK9025.c ****     measure->feed_dt = DWT_GetDeltaT(&measure->feed_dwt_cnt);
  69              		.loc 1 24 5 view .LVU10
  70 0008 D4F8AC01 		ldr	r0, [r4, #428]
  71              	.LVL3:
  24:modules/motor/LKmotor/LK9025.c ****     measure->feed_dt = DWT_GetDeltaT(&measure->feed_dwt_cnt);
  72              		.loc 1 24 5 is_stmt 0 view .LVU11
  73 000c FFF7FEFF 		bl	DaemonReload
  74              	.LVL4:
  25:modules/motor/LKmotor/LK9025.c **** 
  75              		.loc 1 25 5 is_stmt 1 view .LVU12
  25:modules/motor/LKmotor/LK9025.c **** 
  76              		.loc 1 25 24 is_stmt 0 view .LVU13
  77 0010 04F11C00 		add	r0, r4, #28
  78 0014 FFF7FEFF 		bl	DWT_GetDeltaT
  79              	.LVL5:
  25:modules/motor/LKmotor/LK9025.c **** 
  80              		.loc 1 25 22 discriminator 1 view .LVU14
  81 0018 84ED060A 		vstr.32	s0, [r4, #24]
  27:modules/motor/LKmotor/LK9025.c ****     measure->ecd = (uint16_t)((rx_buff[7] << 8) | rx_buff[6]);
  82              		.loc 1 27 5 is_stmt 1 view .LVU15
  27:modules/motor/LKmotor/LK9025.c ****     measure->ecd = (uint16_t)((rx_buff[7] << 8) | rx_buff[6]);
  83              		.loc 1 27 32 is_stmt 0 view .LVU16
  84 001c 6188     		ldrh	r1, [r4, #2]
  27:modules/motor/LKmotor/LK9025.c ****     measure->ecd = (uint16_t)((rx_buff[7] << 8) | rx_buff[6]);
  85              		.loc 1 27 23 view .LVU17
  86 001e 2180     		strh	r1, [r4]	@ movhi
  28:modules/motor/LKmotor/LK9025.c **** 
  87              		.loc 1 28 5 is_stmt 1 view .LVU18
  28:modules/motor/LKmotor/LK9025.c **** 
  88              		.loc 1 28 39 is_stmt 0 view .LVU19
  89 0020 95F83330 		ldrb	r3, [r5, #51]	@ zero_extendqisi2
  28:modules/motor/LKmotor/LK9025.c **** 
  90              		.loc 1 28 58 view .LVU20
  91 0024 95F83220 		ldrb	r2, [r5, #50]	@ zero_extendqisi2
  28:modules/motor/LKmotor/LK9025.c **** 
  92              		.loc 1 28 20 view .LVU21
  93 0028 42EA0322 		orr	r2, r2, r3, lsl #8
  28:modules/motor/LKmotor/LK9025.c **** 
  94              		.loc 1 28 18 view .LVU22
  95 002c 6280     		strh	r2, [r4, #2]	@ movhi
  30:modules/motor/LKmotor/LK9025.c **** 
  96              		.loc 1 30 5 is_stmt 1 view .LVU23
  30:modules/motor/LKmotor/LK9025.c **** 
  97              		.loc 1 30 53 is_stmt 0 view .LVU24
  98 002e 07EE902A 		vmov	s15, r2	@ int
  99 0032 F8EEE76A 		vcvt.f32.s32	s13, s15
 100 0036 DFED2F7A 		vldr.32	s15, .L6
 101 003a 66EEA76A 		vmul.f32	s13, s13, s15
  30:modules/motor/LKmotor/LK9025.c **** 
ARM GAS  C:\Users\ADMINI~1\AppData\Local\Temp\ccGvSvhR.s 			page 4


 102              		.loc 1 30 33 view .LVU25
 103 003e C4ED016A 		vstr.32	s13, [r4, #4]
  32:modules/motor/LKmotor/LK9025.c ****                           DEGREE_2_RAD * SPEED_SMOOTH_COEF * (float)((int16_t)(rx_buff[5] << 8 | rx
 104              		.loc 1 32 5 is_stmt 1 view .LVU26
  32:modules/motor/LKmotor/LK9025.c ****                           DEGREE_2_RAD * SPEED_SMOOTH_COEF * (float)((int16_t)(rx_buff[5] << 8 | rx
 105              		.loc 1 32 60 is_stmt 0 view .LVU27
 106 0042 D4ED027A 		vldr.32	s15, [r4, #8]
  32:modules/motor/LKmotor/LK9025.c ****                           DEGREE_2_RAD * SPEED_SMOOTH_COEF * (float)((int16_t)(rx_buff[5] << 8 | rx
 107              		.loc 1 32 51 view .LVU28
 108 0046 9FED2C7A 		vldr.32	s14, .L6+4
 109 004a 27EE877A 		vmul.f32	s14, s15, s14
  33:modules/motor/LKmotor/LK9025.c **** 
 110              		.loc 1 33 87 view .LVU29
 111 004e 95F83100 		ldrb	r0, [r5, #49]	@ zero_extendqisi2
  33:modules/motor/LKmotor/LK9025.c **** 
 112              		.loc 1 33 105 view .LVU30
 113 0052 95F83030 		ldrb	r3, [r5, #48]	@ zero_extendqisi2
  33:modules/motor/LKmotor/LK9025.c **** 
 114              		.loc 1 33 70 view .LVU31
 115 0056 43EA0023 		orr	r3, r3, r0, lsl #8
 116 005a 1BB2     		sxth	r3, r3
 117 005c 07EE903A 		vmov	s15, r3	@ int
  33:modules/motor/LKmotor/LK9025.c **** 
 118              		.loc 1 33 62 view .LVU32
 119 0060 F8EEE77A 		vcvt.f32.s32	s15, s15
  33:modules/motor/LKmotor/LK9025.c **** 
 120              		.loc 1 33 60 view .LVU33
 121 0064 9FED256A 		vldr.32	s12, .L6+8
 122 0068 67EE867A 		vmul.f32	s15, s15, s12
  32:modules/motor/LKmotor/LK9025.c ****                           DEGREE_2_RAD * SPEED_SMOOTH_COEF * (float)((int16_t)(rx_buff[5] << 8 | rx
 123              		.loc 1 32 73 view .LVU34
 124 006c 77EE277A 		vadd.f32	s15, s14, s15
  32:modules/motor/LKmotor/LK9025.c ****                           DEGREE_2_RAD * SPEED_SMOOTH_COEF * (float)((int16_t)(rx_buff[5] << 8 | rx
 125              		.loc 1 32 25 view .LVU35
 126 0070 C4ED027A 		vstr.32	s15, [r4, #8]
  35:modules/motor/LKmotor/LK9025.c ****                             CURRENT_SMOOTH_COEF * (float)((int16_t)(rx_buff[3] << 8 | rx_buff[2]));
 127              		.loc 1 35 5 is_stmt 1 view .LVU36
  35:modules/motor/LKmotor/LK9025.c ****                             CURRENT_SMOOTH_COEF * (float)((int16_t)(rx_buff[3] << 8 | rx_buff[2]));
 128              		.loc 1 35 64 is_stmt 0 view .LVU37
 129 0074 B4F90C30 		ldrsh	r3, [r4, #12]
 130 0078 07EE903A 		vmov	s15, r3	@ int
  35:modules/motor/LKmotor/LK9025.c ****                             CURRENT_SMOOTH_COEF * (float)((int16_t)(rx_buff[3] << 8 | rx_buff[2]));
 131              		.loc 1 35 55 view .LVU38
 132 007c F8EEE77A 		vcvt.f32.s32	s15, s15
 133 0080 9FED1F7A 		vldr.32	s14, .L6+12
 134 0084 67EE877A 		vmul.f32	s15, s15, s14
  36:modules/motor/LKmotor/LK9025.c **** 
 135              		.loc 1 36 76 view .LVU39
 136 0088 95F82F00 		ldrb	r0, [r5, #47]	@ zero_extendqisi2
  36:modules/motor/LKmotor/LK9025.c **** 
 137              		.loc 1 36 94 view .LVU40
 138 008c 95F82E30 		ldrb	r3, [r5, #46]	@ zero_extendqisi2
  36:modules/motor/LKmotor/LK9025.c **** 
 139              		.loc 1 36 59 view .LVU41
 140 0090 43EA0023 		orr	r3, r3, r0, lsl #8
 141 0094 1BB2     		sxth	r3, r3
 142 0096 07EE103A 		vmov	s14, r3	@ int
ARM GAS  C:\Users\ADMINI~1\AppData\Local\Temp\ccGvSvhR.s 			page 5


  36:modules/motor/LKmotor/LK9025.c **** 
 143              		.loc 1 36 51 view .LVU42
 144 009a B8EEC77A 		vcvt.f32.s32	s14, s14
  36:modules/motor/LKmotor/LK9025.c **** 
 145              		.loc 1 36 49 view .LVU43
 146 009e 9FED196A 		vldr.32	s12, .L6+16
 147 00a2 27EE067A 		vmul.f32	s14, s14, s12
  35:modules/motor/LKmotor/LK9025.c ****                             CURRENT_SMOOTH_COEF * (float)((int16_t)(rx_buff[3] << 8 | rx_buff[2]));
 148              		.loc 1 35 79 view .LVU44
 149 00a6 77EE877A 		vadd.f32	s15, s15, s14
  35:modules/motor/LKmotor/LK9025.c ****                             CURRENT_SMOOTH_COEF * (float)((int16_t)(rx_buff[3] << 8 | rx_buff[2]));
 150              		.loc 1 35 27 view .LVU45
 151 00aa FDEEE77A 		vcvt.s32.f32	s15, s15
 152 00ae 17EE903A 		vmov	r3, s15	@ int
 153 00b2 A381     		strh	r3, [r4, #12]	@ movhi
  38:modules/motor/LKmotor/LK9025.c **** 
 154              		.loc 1 38 5 is_stmt 1 view .LVU46
  38:modules/motor/LKmotor/LK9025.c **** 
 155              		.loc 1 38 26 is_stmt 0 view .LVU47
 156 00b4 95F82D30 		ldrb	r3, [r5, #45]	@ zero_extendqisi2
 157 00b8 A373     		strb	r3, [r4, #14]
  40:modules/motor/LKmotor/LK9025.c ****         measure->total_round--;
 158              		.loc 1 40 5 is_stmt 1 view .LVU48
  40:modules/motor/LKmotor/LK9025.c ****         measure->total_round--;
 159              		.loc 1 40 22 is_stmt 0 view .LVU49
 160 00ba 521A     		subs	r2, r2, r1
  40:modules/motor/LKmotor/LK9025.c ****         measure->total_round--;
 161              		.loc 1 40 8 view .LVU50
 162 00bc B2F5004F 		cmp	r2, #32768
 163 00c0 10DD     		ble	.L3
  41:modules/motor/LKmotor/LK9025.c ****     else if (measure->ecd - measure->last_ecd < -32768)
 164              		.loc 1 41 9 is_stmt 1 view .LVU51
  41:modules/motor/LKmotor/LK9025.c ****     else if (measure->ecd - measure->last_ecd < -32768)
 165              		.loc 1 41 16 is_stmt 0 view .LVU52
 166 00c2 6369     		ldr	r3, [r4, #20]
  41:modules/motor/LKmotor/LK9025.c ****     else if (measure->ecd - measure->last_ecd < -32768)
 167              		.loc 1 41 29 view .LVU53
 168 00c4 013B     		subs	r3, r3, #1
 169 00c6 6361     		str	r3, [r4, #20]
 170              	.L4:
  44:modules/motor/LKmotor/LK9025.c **** }
 171              		.loc 1 44 5 is_stmt 1 view .LVU54
  44:modules/motor/LKmotor/LK9025.c **** }
 172              		.loc 1 44 35 is_stmt 0 view .LVU55
 173 00c8 6369     		ldr	r3, [r4, #20]
  44:modules/motor/LKmotor/LK9025.c **** }
 174              		.loc 1 44 49 view .LVU56
 175 00ca 4FF4B472 		mov	r2, #360
 176 00ce 02FB03F3 		mul	r3, r2, r3
 177 00d2 07EE903A 		vmov	s15, r3	@ int
  44:modules/motor/LKmotor/LK9025.c **** }
 178              		.loc 1 44 55 view .LVU57
 179 00d6 F8EEE77A 		vcvt.f32.s32	s15, s15
 180 00da 77EEA67A 		vadd.f32	s15, s15, s13
  44:modules/motor/LKmotor/LK9025.c **** }
 181              		.loc 1 44 26 view .LVU58
 182 00de C4ED047A 		vstr.32	s15, [r4, #16]
ARM GAS  C:\Users\ADMINI~1\AppData\Local\Temp\ccGvSvhR.s 			page 6


  45:modules/motor/LKmotor/LK9025.c **** 
 183              		.loc 1 45 1 view .LVU59
 184 00e2 38BD     		pop	{r3, r4, r5, pc}
 185              	.LVL6:
 186              	.L3:
  42:modules/motor/LKmotor/LK9025.c ****         measure->total_round++;
 187              		.loc 1 42 10 is_stmt 1 view .LVU60
  42:modules/motor/LKmotor/LK9025.c ****         measure->total_round++;
 188              		.loc 1 42 13 is_stmt 0 view .LVU61
 189 00e4 12F5004F 		cmn	r2, #32768
 190 00e8 EEDA     		bge	.L4
  43:modules/motor/LKmotor/LK9025.c ****     measure->total_angle = measure->total_round * 360 + measure->angle_single_round;
 191              		.loc 1 43 9 is_stmt 1 view .LVU62
  43:modules/motor/LKmotor/LK9025.c ****     measure->total_angle = measure->total_round * 360 + measure->angle_single_round;
 192              		.loc 1 43 16 is_stmt 0 view .LVU63
 193 00ea 6369     		ldr	r3, [r4, #20]
  43:modules/motor/LKmotor/LK9025.c ****     measure->total_angle = measure->total_round * 360 + measure->angle_single_round;
 194              		.loc 1 43 29 view .LVU64
 195 00ec 0133     		adds	r3, r3, #1
 196 00ee 6361     		str	r3, [r4, #20]
 197 00f0 EAE7     		b	.L4
 198              	.L7:
 199 00f2 00BF     		.align	2
 200              	.L6:
 201 00f4 0000B43B 		.word	1001652224
 202 00f8 9899193E 		.word	1041865112
 203 00fc C10F733C 		.word	1014173633
 204 0100 D0CCCC3D 		.word	1036831952
 205 0104 6666663F 		.word	1063675494
 206              		.cfi_endproc
 207              	.LFE271:
 209              		.section	.text.LKMotorControl,"ax",%progbits
 210              		.align	1
 211              		.global	LKMotorControl
 212              		.syntax unified
 213              		.thumb
 214              		.thumb_func
 216              	LKMotorControl:
 217              	.LFB274:
  52:modules/motor/LKmotor/LK9025.c **** 
  53:modules/motor/LKmotor/LK9025.c **** LKMotorInstance *LKMotorInit(Motor_Init_Config_s *config)
  54:modules/motor/LKmotor/LK9025.c **** {
  55:modules/motor/LKmotor/LK9025.c ****     LKMotorInstance *motor = (LKMotorInstance *)malloc(sizeof(LKMotorInstance));
  56:modules/motor/LKmotor/LK9025.c ****     motor = (LKMotorInstance *)malloc(sizeof(LKMotorInstance));
  57:modules/motor/LKmotor/LK9025.c ****     memset(motor, 0, sizeof(LKMotorInstance));
  58:modules/motor/LKmotor/LK9025.c **** 
  59:modules/motor/LKmotor/LK9025.c ****     motor->motor_settings = config->controller_setting_init_config;
  60:modules/motor/LKmotor/LK9025.c ****     PIDInit(&motor->current_PID, &config->controller_param_init_config.current_PID);
  61:modules/motor/LKmotor/LK9025.c ****     PIDInit(&motor->speed_PID, &config->controller_param_init_config.speed_PID);
  62:modules/motor/LKmotor/LK9025.c ****     PIDInit(&motor->angle_PID, &config->controller_param_init_config.angle_PID);
  63:modules/motor/LKmotor/LK9025.c ****     motor->other_angle_feedback_ptr = config->controller_param_init_config.other_angle_feedback_ptr
  64:modules/motor/LKmotor/LK9025.c ****     motor->other_speed_feedback_ptr = config->controller_param_init_config.other_speed_feedback_ptr
  65:modules/motor/LKmotor/LK9025.c **** 
  66:modules/motor/LKmotor/LK9025.c ****     config->can_init_config.id = motor;
  67:modules/motor/LKmotor/LK9025.c ****     config->can_init_config.can_module_callback = LKMotorDecode;
  68:modules/motor/LKmotor/LK9025.c ****     config->can_init_config.rx_id = 0x140 + config->can_init_config.tx_id;
  69:modules/motor/LKmotor/LK9025.c ****     config->can_init_config.tx_id = config->can_init_config.tx_id + 0x280 - 1; // ËøôÊ†∑Âú®ÂèëÈÄÅÂÜ
ARM GAS  C:\Users\ADMINI~1\AppData\Local\Temp\ccGvSvhR.s 			page 7


  70:modules/motor/LKmotor/LK9025.c ****     motor->motor_can_ins = CANRegister(&config->can_init_config);
  71:modules/motor/LKmotor/LK9025.c **** 
  72:modules/motor/LKmotor/LK9025.c ****     if (idx == 0) // Áî®Á¨¨‰∏Ä‰∏™ÁîµÊú∫ÁöÑcan instanceÂèëÈÄÅÊï∞ÊçÆ
  73:modules/motor/LKmotor/LK9025.c ****     {
  74:modules/motor/LKmotor/LK9025.c ****         sender_instance = motor->motor_can_ins;
  75:modules/motor/LKmotor/LK9025.c ****         sender_instance->tx_id = 0x280; //  ‰øÆÊîπtx_id‰∏∫0x280,Áî®‰∫éÂ§öÁîµÊú∫ÂèëÈÄÅ,‰∏çÁî®ÁÆ°ÂÖ∂‰
  76:modules/motor/LKmotor/LK9025.c ****     }
  77:modules/motor/LKmotor/LK9025.c **** 
  78:modules/motor/LKmotor/LK9025.c ****     LKMotorEnable(motor);
  79:modules/motor/LKmotor/LK9025.c ****     DWT_GetDeltaT(&motor->measure.feed_dwt_cnt);
  80:modules/motor/LKmotor/LK9025.c ****     lkmotor_instance[idx++] = motor;
  81:modules/motor/LKmotor/LK9025.c **** 
  82:modules/motor/LKmotor/LK9025.c ****     Daemon_Init_Config_s daemon_config = {
  83:modules/motor/LKmotor/LK9025.c ****         .callback = LKMotorLostCallback,
  84:modules/motor/LKmotor/LK9025.c ****         .owner_id = motor,
  85:modules/motor/LKmotor/LK9025.c ****         .reload_count = 5, // 50ms
  86:modules/motor/LKmotor/LK9025.c ****     };
  87:modules/motor/LKmotor/LK9025.c ****     motor->daemon = DaemonRegister(&daemon_config);
  88:modules/motor/LKmotor/LK9025.c **** 
  89:modules/motor/LKmotor/LK9025.c ****     return motor;
  90:modules/motor/LKmotor/LK9025.c **** }
  91:modules/motor/LKmotor/LK9025.c **** 
  92:modules/motor/LKmotor/LK9025.c **** /* Á¨¨‰∏Ä‰∏™ÁîµÊú∫ÁöÑcan instanceÁî®‰∫éÂèëÈÄÅÊï∞ÊçÆ,ÂêëÂÖ∂tx_buffÂ°´ÂÖÖÊï∞ÊçÆ */
  93:modules/motor/LKmotor/LK9025.c **** void LKMotorControl()
  94:modules/motor/LKmotor/LK9025.c **** {
 218              		.loc 1 94 1 is_stmt 1 view -0
 219              		.cfi_startproc
 220              		@ args = 0, pretend = 0, frame = 0
 221              		@ frame_needed = 0, uses_anonymous_args = 0
 222 0000 38B5     		push	{r3, r4, r5, lr}
 223              	.LCFI1:
 224              		.cfi_def_cfa_offset 16
 225              		.cfi_offset 3, -16
 226              		.cfi_offset 4, -12
 227              		.cfi_offset 5, -8
 228              		.cfi_offset 14, -4
  95:modules/motor/LKmotor/LK9025.c ****     float pid_measure, pid_ref;
 229              		.loc 1 95 5 view .LVU66
  96:modules/motor/LKmotor/LK9025.c ****     int16_t set;
 230              		.loc 1 96 5 view .LVU67
  97:modules/motor/LKmotor/LK9025.c ****     LKMotorInstance *motor;
 231              		.loc 1 97 5 view .LVU68
  98:modules/motor/LKmotor/LK9025.c ****     LKMotor_Measure_t *measure;
 232              		.loc 1 98 5 view .LVU69
  99:modules/motor/LKmotor/LK9025.c ****     Motor_Control_Setting_s *setting;
 233              		.loc 1 99 5 view .LVU70
 100:modules/motor/LKmotor/LK9025.c **** 
 101:modules/motor/LKmotor/LK9025.c ****     for (size_t i = 0; i < idx; ++i)
 234              		.loc 1 101 5 view .LVU71
 235              	.LBB2:
 236              		.loc 1 101 10 view .LVU72
 237              	.LVL7:
 238              		.loc 1 101 17 is_stmt 0 view .LVU73
 239 0002 0025     		movs	r5, #0
 240              		.loc 1 101 5 view .LVU74
 241 0004 3DE0     		b	.L9
 242              	.LVL8:
ARM GAS  C:\Users\ADMINI~1\AppData\Local\Temp\ccGvSvhR.s 			page 8


 243              	.L26:
 102:modules/motor/LKmotor/LK9025.c ****     {
 103:modules/motor/LKmotor/LK9025.c ****         motor = lkmotor_instance[i];
 104:modules/motor/LKmotor/LK9025.c ****         measure = &motor->measure;
 105:modules/motor/LKmotor/LK9025.c ****         setting = &motor->motor_settings;
 106:modules/motor/LKmotor/LK9025.c ****         pid_ref = motor->pid_ref;
 107:modules/motor/LKmotor/LK9025.c ****         if (setting->motor_reverse_flag == MOTOR_DIRECTION_REVERSE)
 108:modules/motor/LKmotor/LK9025.c ****             pid_ref *= -1;
 244              		.loc 1 108 13 is_stmt 1 view .LVU75
 245              		.loc 1 108 21 is_stmt 0 view .LVU76
 246 0006 F1EE600A 		vneg.f32	s1, s1
 247              	.LVL9:
 248              		.loc 1 108 21 view .LVU77
 249 000a 47E0     		b	.L10
 250              	.L27:
 109:modules/motor/LKmotor/LK9025.c **** 
 110:modules/motor/LKmotor/LK9025.c ****         if ((setting->close_loop_type & ANGLE_LOOP) && setting->outer_loop_type == ANGLE_LOOP)
 111:modules/motor/LKmotor/LK9025.c ****         {
 112:modules/motor/LKmotor/LK9025.c ****             if (setting->angle_feedback_source == OTHER_FEED)
 251              		.loc 1 112 13 is_stmt 1 view .LVU78
 252              		.loc 1 112 24 is_stmt 0 view .LVU79
 253 000c 94F82430 		ldrb	r3, [r4, #36]	@ zero_extendqisi2
 254              		.loc 1 112 16 view .LVU80
 255 0010 012B     		cmp	r3, #1
 256 0012 16D0     		beq	.L22
 113:modules/motor/LKmotor/LK9025.c ****                 pid_measure = *motor->other_angle_feedback_ptr;
 114:modules/motor/LKmotor/LK9025.c ****             else
 115:modules/motor/LKmotor/LK9025.c ****                 pid_measure = measure->real_current;
 257              		.loc 1 115 17 is_stmt 1 view .LVU81
 258              		.loc 1 115 38 is_stmt 0 view .LVU82
 259 0014 B4F90C30 		ldrsh	r3, [r4, #12]
 260 0018 00EE103A 		vmov	s0, r3	@ int
 261              		.loc 1 115 29 view .LVU83
 262 001c B8EEC00A 		vcvt.f32.s32	s0, s0
 263              	.LVL10:
 264              	.L13:
 116:modules/motor/LKmotor/LK9025.c ****             pid_ref = PIDCalculate(&motor->angle_PID, pid_measure, pid_ref);
 265              		.loc 1 116 13 is_stmt 1 view .LVU84
 266              		.loc 1 116 23 is_stmt 0 view .LVU85
 267 0020 04F59470 		add	r0, r4, #296
 268 0024 FFF7FEFF 		bl	PIDCalculate
 269              	.LVL11:
 270              		.loc 1 116 23 view .LVU86
 271 0028 F0EE400A 		vmov.f32	s1, s0
 272              	.LVL12:
 117:modules/motor/LKmotor/LK9025.c ****             if (setting->feedforward_flag & SPEED_FEEDFORWARD)
 273              		.loc 1 117 13 is_stmt 1 view .LVU87
 274              		.loc 1 117 24 is_stmt 0 view .LVU88
 275 002c 94F82630 		ldrb	r3, [r4, #38]	@ zero_extendqisi2
 276              		.loc 1 117 16 view .LVU89
 277 0030 13F0020F 		tst	r3, #2
 278 0034 3BD0     		beq	.L11
 118:modules/motor/LKmotor/LK9025.c ****                 pid_ref += *motor->speed_feedforward_ptr;
 279              		.loc 1 118 17 is_stmt 1 view .LVU90
 280              		.loc 1 118 34 is_stmt 0 view .LVU91
 281 0036 236B     		ldr	r3, [r4, #48]
 282              		.loc 1 118 28 view .LVU92
ARM GAS  C:\Users\ADMINI~1\AppData\Local\Temp\ccGvSvhR.s 			page 9


 283 0038 D3ED007A 		vldr.32	s15, [r3]
 284              		.loc 1 118 25 view .LVU93
 285 003c 70EE270A 		vadd.f32	s1, s0, s15
 286              	.LVL13:
 287              		.loc 1 118 25 view .LVU94
 288 0040 35E0     		b	.L11
 289              	.LVL14:
 290              	.L22:
 113:modules/motor/LKmotor/LK9025.c ****             else
 291              		.loc 1 113 17 is_stmt 1 view .LVU95
 113:modules/motor/LKmotor/LK9025.c ****             else
 292              		.loc 1 113 37 is_stmt 0 view .LVU96
 293 0042 A36A     		ldr	r3, [r4, #40]
 113:modules/motor/LKmotor/LK9025.c ****             else
 294              		.loc 1 113 29 view .LVU97
 295 0044 93ED000A 		vldr.32	s0, [r3]
 296              	.LVL15:
 113:modules/motor/LKmotor/LK9025.c ****             else
 297              		.loc 1 113 29 view .LVU98
 298 0048 EAE7     		b	.L13
 299              	.LVL16:
 300              	.L28:
 119:modules/motor/LKmotor/LK9025.c ****         }
 120:modules/motor/LKmotor/LK9025.c **** 
 121:modules/motor/LKmotor/LK9025.c ****         if ((setting->close_loop_type & SPEED_LOOP) && setting->outer_loop_type & (ANGLE_LOOP | SPE
 122:modules/motor/LKmotor/LK9025.c ****         {
 123:modules/motor/LKmotor/LK9025.c ****             if (setting->angle_feedback_source == OTHER_FEED)
 124:modules/motor/LKmotor/LK9025.c ****                 pid_measure = *motor->other_speed_feedback_ptr;
 301              		.loc 1 124 17 is_stmt 1 view .LVU99
 302              		.loc 1 124 37 is_stmt 0 view .LVU100
 303 004a E36A     		ldr	r3, [r4, #44]
 304              		.loc 1 124 29 view .LVU101
 305 004c 93ED000A 		vldr.32	s0, [r3]
 306              	.LVL17:
 307              		.loc 1 124 29 view .LVU102
 308 0050 3DE0     		b	.L16
 309              	.LVL18:
 310              	.L14:
 125:modules/motor/LKmotor/LK9025.c ****             else
 126:modules/motor/LKmotor/LK9025.c ****                 pid_measure = measure->speed_rads;
 127:modules/motor/LKmotor/LK9025.c ****             pid_ref = PIDCalculate(&motor->angle_PID, pid_measure, pid_ref);
 128:modules/motor/LKmotor/LK9025.c ****             if (setting->feedforward_flag & CURRENT_FEEDFORWARD)
 129:modules/motor/LKmotor/LK9025.c ****                 pid_ref += *motor->current_feedforward_ptr;
 130:modules/motor/LKmotor/LK9025.c ****         }
 131:modules/motor/LKmotor/LK9025.c **** 
 132:modules/motor/LKmotor/LK9025.c ****         if (setting->close_loop_type & CURRENT_LOOP)
 311              		.loc 1 132 9 is_stmt 1 view .LVU103
 312              		.loc 1 132 20 is_stmt 0 view .LVU104
 313 0052 94F82130 		ldrb	r3, [r4, #33]	@ zero_extendqisi2
 314              		.loc 1 132 12 view .LVU105
 315 0056 13F0010F 		tst	r3, #1
 316 005a 49D1     		bne	.L23
 317              	.L17:
 133:modules/motor/LKmotor/LK9025.c ****         {
 134:modules/motor/LKmotor/LK9025.c ****             pid_ref = PIDCalculate(&motor->current_PID, measure->real_current, pid_ref);
 135:modules/motor/LKmotor/LK9025.c ****         }
 136:modules/motor/LKmotor/LK9025.c **** 
ARM GAS  C:\Users\ADMINI~1\AppData\Local\Temp\ccGvSvhR.s 			page 10


 137:modules/motor/LKmotor/LK9025.c ****         set = (int16_t)pid_ref;
 318              		.loc 1 137 9 is_stmt 1 view .LVU106
 319              		.loc 1 137 15 is_stmt 0 view .LVU107
 320 005c FDEEE00A 		vcvt.s32.f32	s1, s1
 321              	.LVL19:
 138:modules/motor/LKmotor/LK9025.c **** 
 139:modules/motor/LKmotor/LK9025.c ****         // ËøôÈáåÈöè‰æøÂÜôÁöÑ,‰∏∫‰∫ÜÂÖºÂÆπÂ§öÁîµÊú∫ÂëΩ‰ª§.ÂêéÁª≠Â∫îËØ•Â∞Ütx_id‰ª•Êõ¥Â•ΩÁöÑÊñπÂºèË°®
 140:modules/motor/LKmotor/LK9025.c ****         memcpy(sender_instance->tx_buff + (motor->motor_can_ins->tx_id - 0x280) * 2, &set, sizeof(u
 322              		.loc 1 140 9 is_stmt 1 view .LVU108
 323              		.loc 1 140 31 is_stmt 0 view .LVU109
 324 0060 334B     		ldr	r3, .L30
 325 0062 1B68     		ldr	r3, [r3]
 326              		.loc 1 140 16 view .LVU110
 327 0064 2433     		adds	r3, r3, #36
 328              		.loc 1 140 49 view .LVU111
 329 0066 D4F8A821 		ldr	r2, [r4, #424]
 330              		.loc 1 140 64 view .LVU112
 331 006a D269     		ldr	r2, [r2, #28]	@ unaligned
 332              		.loc 1 140 72 view .LVU113
 333 006c A2F52072 		sub	r2, r2, #640
 334              		.loc 1 140 9 view .LVU114
 335 0070 10EE901A 		vmov	r1, s1	@ int
 336 0074 23F81210 		strh	r1, [r3, r2, lsl #1]	@ unaligned
 141:modules/motor/LKmotor/LK9025.c **** 
 142:modules/motor/LKmotor/LK9025.c ****         if (motor->stop_flag == MOTOR_STOP)
 337              		.loc 1 142 9 is_stmt 1 view .LVU115
 338              		.loc 1 142 18 is_stmt 0 view .LVU116
 339 0078 94F8A421 		ldrb	r2, [r4, #420]	@ zero_extendqisi2
 340              		.loc 1 142 12 view .LVU117
 341 007c 002A     		cmp	r2, #0
 342 007e 44D0     		beq	.L24
 343              	.L18:
 101:modules/motor/LKmotor/LK9025.c ****     {
 344              		.loc 1 101 33 is_stmt 1 discriminator 2 view .LVU118
 345 0080 0135     		adds	r5, r5, #1
 346              	.LVL20:
 347              	.L9:
 101:modules/motor/LKmotor/LK9025.c ****     {
 348              		.loc 1 101 26 discriminator 1 view .LVU119
 349 0082 2C4B     		ldr	r3, .L30+4
 350 0084 1B78     		ldrb	r3, [r3]	@ zero_extendqisi2
 351 0086 AB42     		cmp	r3, r5
 352 0088 48D9     		bls	.L25
 103:modules/motor/LKmotor/LK9025.c ****         measure = &motor->measure;
 353              		.loc 1 103 9 view .LVU120
 103:modules/motor/LKmotor/LK9025.c ****         measure = &motor->measure;
 354              		.loc 1 103 15 is_stmt 0 view .LVU121
 355 008a 2B4B     		ldr	r3, .L30+8
 356 008c 53F82540 		ldr	r4, [r3, r5, lsl #2]
 357              	.LVL21:
 104:modules/motor/LKmotor/LK9025.c ****         setting = &motor->motor_settings;
 358              		.loc 1 104 9 is_stmt 1 view .LVU122
 105:modules/motor/LKmotor/LK9025.c ****         pid_ref = motor->pid_ref;
 359              		.loc 1 105 9 view .LVU123
 106:modules/motor/LKmotor/LK9025.c ****         if (setting->motor_reverse_flag == MOTOR_DIRECTION_REVERSE)
 360              		.loc 1 106 9 view .LVU124
 106:modules/motor/LKmotor/LK9025.c ****         if (setting->motor_reverse_flag == MOTOR_DIRECTION_REVERSE)
ARM GAS  C:\Users\ADMINI~1\AppData\Local\Temp\ccGvSvhR.s 			page 11


 361              		.loc 1 106 17 is_stmt 0 view .LVU125
 362 0090 D4ED680A 		vldr.32	s1, [r4, #416]
 363              	.LVL22:
 107:modules/motor/LKmotor/LK9025.c ****             pid_ref *= -1;
 364              		.loc 1 107 9 is_stmt 1 view .LVU126
 107:modules/motor/LKmotor/LK9025.c ****             pid_ref *= -1;
 365              		.loc 1 107 20 is_stmt 0 view .LVU127
 366 0094 94F82230 		ldrb	r3, [r4, #34]	@ zero_extendqisi2
 107:modules/motor/LKmotor/LK9025.c ****             pid_ref *= -1;
 367              		.loc 1 107 12 view .LVU128
 368 0098 012B     		cmp	r3, #1
 369 009a B4D0     		beq	.L26
 370              	.L10:
 110:modules/motor/LKmotor/LK9025.c ****         {
 371              		.loc 1 110 9 is_stmt 1 view .LVU129
 110:modules/motor/LKmotor/LK9025.c ****         {
 372              		.loc 1 110 21 is_stmt 0 view .LVU130
 373 009c 94F82130 		ldrb	r3, [r4, #33]	@ zero_extendqisi2
 110:modules/motor/LKmotor/LK9025.c ****         {
 374              		.loc 1 110 12 view .LVU131
 375 00a0 13F0040F 		tst	r3, #4
 376 00a4 03D0     		beq	.L11
 110:modules/motor/LKmotor/LK9025.c ****         {
 377              		.loc 1 110 63 discriminator 1 view .LVU132
 378 00a6 94F82030 		ldrb	r3, [r4, #32]	@ zero_extendqisi2
 110:modules/motor/LKmotor/LK9025.c ****         {
 379              		.loc 1 110 53 discriminator 1 view .LVU133
 380 00aa 042B     		cmp	r3, #4
 381 00ac AED0     		beq	.L27
 382              	.L11:
 121:modules/motor/LKmotor/LK9025.c ****         {
 383              		.loc 1 121 9 is_stmt 1 view .LVU134
 121:modules/motor/LKmotor/LK9025.c ****         {
 384              		.loc 1 121 21 is_stmt 0 view .LVU135
 385 00ae 94F82130 		ldrb	r3, [r4, #33]	@ zero_extendqisi2
 121:modules/motor/LKmotor/LK9025.c ****         {
 386              		.loc 1 121 12 view .LVU136
 387 00b2 13F0020F 		tst	r3, #2
 388 00b6 CCD0     		beq	.L14
 121:modules/motor/LKmotor/LK9025.c ****         {
 389              		.loc 1 121 63 discriminator 1 view .LVU137
 390 00b8 94F82030 		ldrb	r3, [r4, #32]	@ zero_extendqisi2
 121:modules/motor/LKmotor/LK9025.c ****         {
 391              		.loc 1 121 53 discriminator 1 view .LVU138
 392 00bc 13F0060F 		tst	r3, #6
 393 00c0 C7D0     		beq	.L14
 123:modules/motor/LKmotor/LK9025.c ****                 pid_measure = *motor->other_speed_feedback_ptr;
 394              		.loc 1 123 13 is_stmt 1 view .LVU139
 123:modules/motor/LKmotor/LK9025.c ****                 pid_measure = *motor->other_speed_feedback_ptr;
 395              		.loc 1 123 24 is_stmt 0 view .LVU140
 396 00c2 94F82430 		ldrb	r3, [r4, #36]	@ zero_extendqisi2
 123:modules/motor/LKmotor/LK9025.c ****                 pid_measure = *motor->other_speed_feedback_ptr;
 397              		.loc 1 123 16 view .LVU141
 398 00c6 012B     		cmp	r3, #1
 399 00c8 BFD0     		beq	.L28
 126:modules/motor/LKmotor/LK9025.c ****             pid_ref = PIDCalculate(&motor->angle_PID, pid_measure, pid_ref);
 400              		.loc 1 126 17 is_stmt 1 view .LVU142
ARM GAS  C:\Users\ADMINI~1\AppData\Local\Temp\ccGvSvhR.s 			page 12


 126:modules/motor/LKmotor/LK9025.c ****             pid_ref = PIDCalculate(&motor->angle_PID, pid_measure, pid_ref);
 401              		.loc 1 126 29 is_stmt 0 view .LVU143
 402 00ca 94ED020A 		vldr.32	s0, [r4, #8]
 403              	.LVL23:
 404              	.L16:
 127:modules/motor/LKmotor/LK9025.c ****             if (setting->feedforward_flag & CURRENT_FEEDFORWARD)
 405              		.loc 1 127 13 is_stmt 1 view .LVU144
 127:modules/motor/LKmotor/LK9025.c ****             if (setting->feedforward_flag & CURRENT_FEEDFORWARD)
 406              		.loc 1 127 23 is_stmt 0 view .LVU145
 407 00ce 04F59470 		add	r0, r4, #296
 408 00d2 FFF7FEFF 		bl	PIDCalculate
 409              	.LVL24:
 127:modules/motor/LKmotor/LK9025.c ****             if (setting->feedforward_flag & CURRENT_FEEDFORWARD)
 410              		.loc 1 127 23 view .LVU146
 411 00d6 F0EE400A 		vmov.f32	s1, s0
 412              	.LVL25:
 128:modules/motor/LKmotor/LK9025.c ****                 pid_ref += *motor->current_feedforward_ptr;
 413              		.loc 1 128 13 is_stmt 1 view .LVU147
 128:modules/motor/LKmotor/LK9025.c ****                 pid_ref += *motor->current_feedforward_ptr;
 414              		.loc 1 128 24 is_stmt 0 view .LVU148
 415 00da 94F82630 		ldrb	r3, [r4, #38]	@ zero_extendqisi2
 128:modules/motor/LKmotor/LK9025.c ****                 pid_ref += *motor->current_feedforward_ptr;
 416              		.loc 1 128 16 view .LVU149
 417 00de 13F0010F 		tst	r3, #1
 418 00e2 B6D0     		beq	.L14
 129:modules/motor/LKmotor/LK9025.c ****         }
 419              		.loc 1 129 17 is_stmt 1 view .LVU150
 129:modules/motor/LKmotor/LK9025.c ****         }
 420              		.loc 1 129 34 is_stmt 0 view .LVU151
 421 00e4 636B     		ldr	r3, [r4, #52]
 129:modules/motor/LKmotor/LK9025.c ****         }
 422              		.loc 1 129 28 view .LVU152
 423 00e6 D3ED007A 		vldr.32	s15, [r3]
 129:modules/motor/LKmotor/LK9025.c ****         }
 424              		.loc 1 129 25 view .LVU153
 425 00ea 70EE270A 		vadd.f32	s1, s0, s15
 426              	.LVL26:
 129:modules/motor/LKmotor/LK9025.c ****         }
 427              		.loc 1 129 25 view .LVU154
 428 00ee B0E7     		b	.L14
 429              	.LVL27:
 430              	.L23:
 134:modules/motor/LKmotor/LK9025.c ****         }
 431              		.loc 1 134 13 is_stmt 1 view .LVU155
 134:modules/motor/LKmotor/LK9025.c ****         }
 432              		.loc 1 134 64 is_stmt 0 view .LVU156
 433 00f0 B4F90C30 		ldrsh	r3, [r4, #12]
 434 00f4 00EE103A 		vmov	s0, r3	@ int
 134:modules/motor/LKmotor/LK9025.c ****         }
 435              		.loc 1 134 23 view .LVU157
 436 00f8 B8EEC00A 		vcvt.f32.s32	s0, s0
 437 00fc 04F13800 		add	r0, r4, #56
 438 0100 FFF7FEFF 		bl	PIDCalculate
 439              	.LVL28:
 134:modules/motor/LKmotor/LK9025.c ****         }
 440              		.loc 1 134 23 view .LVU158
 441 0104 F0EE400A 		vmov.f32	s1, s0
ARM GAS  C:\Users\ADMINI~1\AppData\Local\Temp\ccGvSvhR.s 			page 13


 442              	.LVL29:
 134:modules/motor/LKmotor/LK9025.c ****         }
 443              		.loc 1 134 23 view .LVU159
 444 0108 A8E7     		b	.L17
 445              	.LVL30:
 446              	.L24:
 143:modules/motor/LKmotor/LK9025.c ****         { // Ëã•ËØ•ÁîµÊú∫Â§Ñ‰∫éÂÅúÊ≠¢Áä∂ÊÄÅ,Áõ¥Êé•Â∞ÜÂèëÈÄÅbuffÁΩÆÈõ∂
 144:modules/motor/LKmotor/LK9025.c ****             memset(sender_instance->tx_buff + (motor->motor_can_ins->tx_id - 0x280) * 2, 0, sizeof(
 447              		.loc 1 144 13 is_stmt 1 view .LVU160
 448              		.loc 1 144 53 is_stmt 0 view .LVU161
 449 010a D4F8A821 		ldr	r2, [r4, #424]
 450              		.loc 1 144 68 view .LVU162
 451 010e D269     		ldr	r2, [r2, #28]	@ unaligned
 452              		.loc 1 144 76 view .LVU163
 453 0110 A2F52072 		sub	r2, r2, #640
 454              		.loc 1 144 13 view .LVU164
 455 0114 0021     		movs	r1, #0
 456 0116 23F81210 		strh	r1, [r3, r2, lsl #1]	@ unaligned
 457 011a B1E7     		b	.L18
 458              	.LVL31:
 459              	.L25:
 460              		.loc 1 144 13 view .LVU165
 461              	.LBE2:
 145:modules/motor/LKmotor/LK9025.c ****         }
 146:modules/motor/LKmotor/LK9025.c ****     }
 147:modules/motor/LKmotor/LK9025.c **** 
 148:modules/motor/LKmotor/LK9025.c ****     if (idx) // Â¶ÇÊûúÊúâÁîµÊú∫Ê≥®ÂÜå‰∫Ü
 462              		.loc 1 148 5 is_stmt 1 view .LVU166
 463              		.loc 1 148 8 is_stmt 0 view .LVU167
 464 011c 03B9     		cbnz	r3, .L29
 465              	.L8:
 149:modules/motor/LKmotor/LK9025.c ****         CANTransmit(sender_instance, 0.2);
 150:modules/motor/LKmotor/LK9025.c **** }
 466              		.loc 1 150 1 view .LVU168
 467 011e 38BD     		pop	{r3, r4, r5, pc}
 468              	.LVL32:
 469              	.L29:
 149:modules/motor/LKmotor/LK9025.c ****         CANTransmit(sender_instance, 0.2);
 470              		.loc 1 149 9 is_stmt 1 view .LVU169
 471 0120 9FED060A 		vldr.32	s0, .L30+12
 472 0124 024B     		ldr	r3, .L30
 473 0126 1868     		ldr	r0, [r3]
 474 0128 FFF7FEFF 		bl	CANTransmit
 475              	.LVL33:
 476              		.loc 1 150 1 is_stmt 0 view .LVU170
 477 012c F7E7     		b	.L8
 478              	.L31:
 479 012e 00BF     		.align	2
 480              	.L30:
 481 0130 00000000 		.word	sender_instance
 482 0134 00000000 		.word	idx
 483 0138 00000000 		.word	lkmotor_instance
 484 013c CDCC4C3E 		.word	1045220557
 485              		.cfi_endproc
 486              	.LFE274:
 488              		.section	.text.LKMotorStop,"ax",%progbits
 489              		.align	1
ARM GAS  C:\Users\ADMINI~1\AppData\Local\Temp\ccGvSvhR.s 			page 14


 490              		.global	LKMotorStop
 491              		.syntax unified
 492              		.thumb
 493              		.thumb_func
 495              	LKMotorStop:
 496              	.LVL34:
 497              	.LFB275:
 151:modules/motor/LKmotor/LK9025.c **** 
 152:modules/motor/LKmotor/LK9025.c **** void LKMotorStop(LKMotorInstance *motor)
 153:modules/motor/LKmotor/LK9025.c **** {
 498              		.loc 1 153 1 is_stmt 1 view -0
 499              		.cfi_startproc
 500              		@ args = 0, pretend = 0, frame = 0
 501              		@ frame_needed = 0, uses_anonymous_args = 0
 502              		@ link register save eliminated.
 154:modules/motor/LKmotor/LK9025.c ****     motor->stop_flag = MOTOR_STOP;
 503              		.loc 1 154 5 view .LVU172
 504              		.loc 1 154 22 is_stmt 0 view .LVU173
 505 0000 0023     		movs	r3, #0
 506 0002 80F8A431 		strb	r3, [r0, #420]
 155:modules/motor/LKmotor/LK9025.c **** }
 507              		.loc 1 155 1 view .LVU174
 508 0006 7047     		bx	lr
 509              		.cfi_endproc
 510              	.LFE275:
 512              		.section	.text.LKMotorEnable,"ax",%progbits
 513              		.align	1
 514              		.global	LKMotorEnable
 515              		.syntax unified
 516              		.thumb
 517              		.thumb_func
 519              	LKMotorEnable:
 520              	.LVL35:
 521              	.LFB276:
 156:modules/motor/LKmotor/LK9025.c **** 
 157:modules/motor/LKmotor/LK9025.c **** void LKMotorEnable(LKMotorInstance *motor)
 158:modules/motor/LKmotor/LK9025.c **** {
 522              		.loc 1 158 1 is_stmt 1 view -0
 523              		.cfi_startproc
 524              		@ args = 0, pretend = 0, frame = 0
 525              		@ frame_needed = 0, uses_anonymous_args = 0
 526              		@ link register save eliminated.
 159:modules/motor/LKmotor/LK9025.c ****     motor->stop_flag = MOTOR_ENALBED;
 527              		.loc 1 159 5 view .LVU176
 528              		.loc 1 159 22 is_stmt 0 view .LVU177
 529 0000 0123     		movs	r3, #1
 530 0002 80F8A431 		strb	r3, [r0, #420]
 160:modules/motor/LKmotor/LK9025.c **** }
 531              		.loc 1 160 1 view .LVU178
 532 0006 7047     		bx	lr
 533              		.cfi_endproc
 534              	.LFE276:
 536              		.section	.text.LKMotorInit,"ax",%progbits
 537              		.align	1
 538              		.global	LKMotorInit
 539              		.syntax unified
 540              		.thumb
ARM GAS  C:\Users\ADMINI~1\AppData\Local\Temp\ccGvSvhR.s 			page 15


 541              		.thumb_func
 543              	LKMotorInit:
 544              	.LVL36:
 545              	.LFB273:
  54:modules/motor/LKmotor/LK9025.c ****     LKMotorInstance *motor = (LKMotorInstance *)malloc(sizeof(LKMotorInstance));
 546              		.loc 1 54 1 is_stmt 1 view -0
 547              		.cfi_startproc
 548              		@ args = 0, pretend = 0, frame = 16
 549              		@ frame_needed = 0, uses_anonymous_args = 0
  54:modules/motor/LKmotor/LK9025.c ****     LKMotorInstance *motor = (LKMotorInstance *)malloc(sizeof(LKMotorInstance));
 550              		.loc 1 54 1 is_stmt 0 view .LVU180
 551 0000 30B5     		push	{r4, r5, lr}
 552              	.LCFI2:
 553              		.cfi_def_cfa_offset 12
 554              		.cfi_offset 4, -12
 555              		.cfi_offset 5, -8
 556              		.cfi_offset 14, -4
 557 0002 85B0     		sub	sp, sp, #20
 558              	.LCFI3:
 559              		.cfi_def_cfa_offset 32
 560 0004 0546     		mov	r5, r0
  55:modules/motor/LKmotor/LK9025.c ****     motor = (LKMotorInstance *)malloc(sizeof(LKMotorInstance));
 561              		.loc 1 55 5 is_stmt 1 view .LVU181
  56:modules/motor/LKmotor/LK9025.c ****     memset(motor, 0, sizeof(LKMotorInstance));
 562              		.loc 1 56 5 view .LVU182
  56:modules/motor/LKmotor/LK9025.c ****     memset(motor, 0, sizeof(LKMotorInstance));
 563              		.loc 1 56 32 is_stmt 0 view .LVU183
 564 0006 4FF4D870 		mov	r0, #432
 565              	.LVL37:
  56:modules/motor/LKmotor/LK9025.c ****     memset(motor, 0, sizeof(LKMotorInstance));
 566              		.loc 1 56 32 view .LVU184
 567 000a FFF7FEFF 		bl	malloc
 568              	.LVL38:
 569 000e 0446     		mov	r4, r0
 570              	.LVL39:
  57:modules/motor/LKmotor/LK9025.c **** 
 571              		.loc 1 57 5 is_stmt 1 view .LVU185
 572 0010 4FF4D872 		mov	r2, #432
 573 0014 0021     		movs	r1, #0
 574 0016 FFF7FEFF 		bl	memset
 575              	.LVL40:
  59:modules/motor/LKmotor/LK9025.c ****     PIDInit(&motor->current_PID, &config->controller_param_init_config.current_PID);
 576              		.loc 1 59 5 view .LVU186
  59:modules/motor/LKmotor/LK9025.c ****     PIDInit(&motor->current_PID, &config->controller_param_init_config.current_PID);
 577              		.loc 1 59 27 is_stmt 0 view .LVU187
 578 001a 04F12003 		add	r3, r4, #32
 579 001e 05F19402 		add	r2, r5, #148
 580 0022 92E80300 		ldm	r2, {r0, r1}
 581 0026 83E80300 		stm	r3, {r0, r1}
  60:modules/motor/LKmotor/LK9025.c ****     PIDInit(&motor->speed_PID, &config->controller_param_init_config.speed_PID);
 582              		.loc 1 60 5 is_stmt 1 view .LVU188
 583 002a 05F11001 		add	r1, r5, #16
 584 002e 04F13800 		add	r0, r4, #56
 585 0032 FFF7FEFF 		bl	PIDInit
 586              	.LVL41:
  61:modules/motor/LKmotor/LK9025.c ****     PIDInit(&motor->angle_PID, &config->controller_param_init_config.angle_PID);
 587              		.loc 1 61 5 view .LVU189
ARM GAS  C:\Users\ADMINI~1\AppData\Local\Temp\ccGvSvhR.s 			page 16


 588 0036 05F13C01 		add	r1, r5, #60
 589 003a 04F1B000 		add	r0, r4, #176
 590 003e FFF7FEFF 		bl	PIDInit
 591              	.LVL42:
  62:modules/motor/LKmotor/LK9025.c ****     motor->other_angle_feedback_ptr = config->controller_param_init_config.other_angle_feedback_ptr
 592              		.loc 1 62 5 view .LVU190
 593 0042 05F16801 		add	r1, r5, #104
 594 0046 04F59470 		add	r0, r4, #296
 595 004a FFF7FEFF 		bl	PIDInit
 596              	.LVL43:
  63:modules/motor/LKmotor/LK9025.c ****     motor->other_speed_feedback_ptr = config->controller_param_init_config.other_speed_feedback_ptr
 597              		.loc 1 63 5 view .LVU191
  63:modules/motor/LKmotor/LK9025.c ****     motor->other_speed_feedback_ptr = config->controller_param_init_config.other_speed_feedback_ptr
 598              		.loc 1 63 75 is_stmt 0 view .LVU192
 599 004e 2B68     		ldr	r3, [r5]
  63:modules/motor/LKmotor/LK9025.c ****     motor->other_speed_feedback_ptr = config->controller_param_init_config.other_speed_feedback_ptr
 600              		.loc 1 63 37 view .LVU193
 601 0050 A362     		str	r3, [r4, #40]
  64:modules/motor/LKmotor/LK9025.c **** 
 602              		.loc 1 64 5 is_stmt 1 view .LVU194
  64:modules/motor/LKmotor/LK9025.c **** 
 603              		.loc 1 64 75 is_stmt 0 view .LVU195
 604 0052 6B68     		ldr	r3, [r5, #4]
  64:modules/motor/LKmotor/LK9025.c **** 
 605              		.loc 1 64 37 view .LVU196
 606 0054 E362     		str	r3, [r4, #44]
  66:modules/motor/LKmotor/LK9025.c ****     config->can_init_config.can_module_callback = LKMotorDecode;
 607              		.loc 1 66 5 is_stmt 1 view .LVU197
  66:modules/motor/LKmotor/LK9025.c ****     config->can_init_config.can_module_callback = LKMotorDecode;
 608              		.loc 1 66 32 is_stmt 0 view .LVU198
 609 0056 C5F8B840 		str	r4, [r5, #184]
  67:modules/motor/LKmotor/LK9025.c ****     config->can_init_config.rx_id = 0x140 + config->can_init_config.tx_id;
 610              		.loc 1 67 5 is_stmt 1 view .LVU199
  67:modules/motor/LKmotor/LK9025.c ****     config->can_init_config.rx_id = 0x140 + config->can_init_config.tx_id;
 611              		.loc 1 67 49 is_stmt 0 view .LVU200
 612 005a 204B     		ldr	r3, .L37
 613 005c C5F8B430 		str	r3, [r5, #180]
  68:modules/motor/LKmotor/LK9025.c ****     config->can_init_config.tx_id = config->can_init_config.tx_id + 0x280 - 1; // ËøôÊ†∑Âú®ÂèëÈÄÅÂÜ
 614              		.loc 1 68 5 is_stmt 1 view .LVU201
  68:modules/motor/LKmotor/LK9025.c ****     config->can_init_config.tx_id = config->can_init_config.tx_id + 0x280 - 1; // ËøôÊ†∑Âú®ÂèëÈÄÅÂÜ
 615              		.loc 1 68 68 is_stmt 0 view .LVU202
 616 0060 D5F8A430 		ldr	r3, [r5, #164]
  68:modules/motor/LKmotor/LK9025.c ****     config->can_init_config.tx_id = config->can_init_config.tx_id + 0x280 - 1; // ËøôÊ†∑Âú®ÂèëÈÄÅÂÜ
 617              		.loc 1 68 43 view .LVU203
 618 0064 03F5A072 		add	r2, r3, #320
  68:modules/motor/LKmotor/LK9025.c ****     config->can_init_config.tx_id = config->can_init_config.tx_id + 0x280 - 1; // ËøôÊ†∑Âú®ÂèëÈÄÅÂÜ
 619              		.loc 1 68 35 view .LVU204
 620 0068 C5F8A820 		str	r2, [r5, #168]
  69:modules/motor/LKmotor/LK9025.c ****     motor->motor_can_ins = CANRegister(&config->can_init_config);
 621              		.loc 1 69 5 is_stmt 1 view .LVU205
  69:modules/motor/LKmotor/LK9025.c ****     motor->motor_can_ins = CANRegister(&config->can_init_config);
 622              		.loc 1 69 75 is_stmt 0 view .LVU206
 623 006c 03F27F23 		addw	r3, r3, #639
  69:modules/motor/LKmotor/LK9025.c ****     motor->motor_can_ins = CANRegister(&config->can_init_config);
 624              		.loc 1 69 35 view .LVU207
 625 0070 C5F8A430 		str	r3, [r5, #164]
  70:modules/motor/LKmotor/LK9025.c **** 
ARM GAS  C:\Users\ADMINI~1\AppData\Local\Temp\ccGvSvhR.s 			page 17


 626              		.loc 1 70 5 is_stmt 1 view .LVU208
  70:modules/motor/LKmotor/LK9025.c **** 
 627              		.loc 1 70 28 is_stmt 0 view .LVU209
 628 0074 05F1A000 		add	r0, r5, #160
 629 0078 FFF7FEFF 		bl	CANRegister
 630              	.LVL44:
  70:modules/motor/LKmotor/LK9025.c **** 
 631              		.loc 1 70 26 discriminator 1 view .LVU210
 632 007c C4F8A801 		str	r0, [r4, #424]
  72:modules/motor/LKmotor/LK9025.c ****     {
 633              		.loc 1 72 5 is_stmt 1 view .LVU211
  72:modules/motor/LKmotor/LK9025.c ****     {
 634              		.loc 1 72 13 is_stmt 0 view .LVU212
 635 0080 174B     		ldr	r3, .L37+4
 636 0082 1B78     		ldrb	r3, [r3]	@ zero_extendqisi2
  72:modules/motor/LKmotor/LK9025.c ****     {
 637              		.loc 1 72 8 view .LVU213
 638 0084 4BB9     		cbnz	r3, .L35
  74:modules/motor/LKmotor/LK9025.c ****         sender_instance->tx_id = 0x280; //  ‰øÆÊîπtx_id‰∏∫0x280,Áî®‰∫éÂ§öÁîµÊú∫ÂèëÈÄÅ,‰∏çÁî®ÁÆ°ÂÖ∂‰
 639              		.loc 1 74 9 is_stmt 1 view .LVU214
  74:modules/motor/LKmotor/LK9025.c ****         sender_instance->tx_id = 0x280; //  ‰øÆÊîπtx_id‰∏∫0x280,Áî®‰∫éÂ§öÁîµÊú∫ÂèëÈÄÅ,‰∏çÁî®ÁÆ°ÂÖ∂‰
 640              		.loc 1 74 25 is_stmt 0 view .LVU215
 641 0086 174B     		ldr	r3, .L37+8
 642 0088 1860     		str	r0, [r3]
  75:modules/motor/LKmotor/LK9025.c ****     }
 643              		.loc 1 75 9 is_stmt 1 view .LVU216
  75:modules/motor/LKmotor/LK9025.c ****     }
 644              		.loc 1 75 32 is_stmt 0 view .LVU217
 645 008a 0023     		movs	r3, #0
 646 008c 6FF07F02 		mvn	r2, #127
 647 0090 0277     		strb	r2, [r0, #28]
 648 0092 0222     		movs	r2, #2
 649 0094 4277     		strb	r2, [r0, #29]
 650 0096 8377     		strb	r3, [r0, #30]
 651 0098 C377     		strb	r3, [r0, #31]
 652              	.L35:
  78:modules/motor/LKmotor/LK9025.c ****     DWT_GetDeltaT(&motor->measure.feed_dwt_cnt);
 653              		.loc 1 78 5 is_stmt 1 view .LVU218
 654 009a 2046     		mov	r0, r4
 655 009c FFF7FEFF 		bl	LKMotorEnable
 656              	.LVL45:
  79:modules/motor/LKmotor/LK9025.c ****     lkmotor_instance[idx++] = motor;
 657              		.loc 1 79 5 view .LVU219
 658 00a0 04F11C00 		add	r0, r4, #28
 659 00a4 FFF7FEFF 		bl	DWT_GetDeltaT
 660              	.LVL46:
  80:modules/motor/LKmotor/LK9025.c **** 
 661              		.loc 1 80 5 view .LVU220
  80:modules/motor/LKmotor/LK9025.c **** 
 662              		.loc 1 80 25 is_stmt 0 view .LVU221
 663 00a8 0D4A     		ldr	r2, .L37+4
 664 00aa 1378     		ldrb	r3, [r2]	@ zero_extendqisi2
 665 00ac 591C     		adds	r1, r3, #1
 666 00ae 1170     		strb	r1, [r2]
  80:modules/motor/LKmotor/LK9025.c **** 
 667              		.loc 1 80 29 view .LVU222
 668 00b0 0D4A     		ldr	r2, .L37+12
ARM GAS  C:\Users\ADMINI~1\AppData\Local\Temp\ccGvSvhR.s 			page 18


 669 00b2 42F82340 		str	r4, [r2, r3, lsl #2]
  82:modules/motor/LKmotor/LK9025.c ****         .callback = LKMotorLostCallback,
 670              		.loc 1 82 5 is_stmt 1 view .LVU223
  82:modules/motor/LKmotor/LK9025.c ****         .callback = LKMotorLostCallback,
 671              		.loc 1 82 26 is_stmt 0 view .LVU224
 672 00b6 0023     		movs	r3, #0
 673 00b8 0193     		str	r3, [sp, #4]
 674 00ba 0293     		str	r3, [sp, #8]
 675 00bc 0393     		str	r3, [sp, #12]
 676 00be 0523     		movs	r3, #5
 677 00c0 ADF80430 		strh	r3, [sp, #4]	@ movhi
 678 00c4 094B     		ldr	r3, .L37+16
 679 00c6 0293     		str	r3, [sp, #8]
 680 00c8 0394     		str	r4, [sp, #12]
  87:modules/motor/LKmotor/LK9025.c **** 
 681              		.loc 1 87 5 is_stmt 1 view .LVU225
  87:modules/motor/LKmotor/LK9025.c **** 
 682              		.loc 1 87 21 is_stmt 0 view .LVU226
 683 00ca 01A8     		add	r0, sp, #4
 684 00cc FFF7FEFF 		bl	DaemonRegister
 685              	.LVL47:
  87:modules/motor/LKmotor/LK9025.c **** 
 686              		.loc 1 87 19 discriminator 1 view .LVU227
 687 00d0 C4F8AC01 		str	r0, [r4, #428]
  89:modules/motor/LKmotor/LK9025.c **** }
 688              		.loc 1 89 5 is_stmt 1 view .LVU228
  90:modules/motor/LKmotor/LK9025.c **** 
 689              		.loc 1 90 1 is_stmt 0 view .LVU229
 690 00d4 2046     		mov	r0, r4
 691 00d6 05B0     		add	sp, sp, #20
 692              	.LCFI4:
 693              		.cfi_def_cfa_offset 12
 694              		@ sp needed
 695 00d8 30BD     		pop	{r4, r5, pc}
 696              	.LVL48:
 697              	.L38:
  90:modules/motor/LKmotor/LK9025.c **** 
 698              		.loc 1 90 1 view .LVU230
 699 00da 00BF     		.align	2
 700              	.L37:
 701 00dc 00000000 		.word	LKMotorDecode
 702 00e0 00000000 		.word	idx
 703 00e4 00000000 		.word	sender_instance
 704 00e8 00000000 		.word	lkmotor_instance
 705 00ec 00000000 		.word	LKMotorLostCallback
 706              		.cfi_endproc
 707              	.LFE273:
 709              		.section	.text.LKMotorSetRef,"ax",%progbits
 710              		.align	1
 711              		.global	LKMotorSetRef
 712              		.syntax unified
 713              		.thumb
 714              		.thumb_func
 716              	LKMotorSetRef:
 717              	.LVL49:
 718              	.LFB277:
 161:modules/motor/LKmotor/LK9025.c **** 
ARM GAS  C:\Users\ADMINI~1\AppData\Local\Temp\ccGvSvhR.s 			page 19


 162:modules/motor/LKmotor/LK9025.c **** void LKMotorSetRef(LKMotorInstance *motor, float ref)
 163:modules/motor/LKmotor/LK9025.c **** {
 719              		.loc 1 163 1 is_stmt 1 view -0
 720              		.cfi_startproc
 721              		@ args = 0, pretend = 0, frame = 0
 722              		@ frame_needed = 0, uses_anonymous_args = 0
 723              		@ link register save eliminated.
 164:modules/motor/LKmotor/LK9025.c ****     motor->pid_ref = ref;
 724              		.loc 1 164 5 view .LVU232
 725              		.loc 1 164 20 is_stmt 0 view .LVU233
 726 0000 80ED680A 		vstr.32	s0, [r0, #416]
 165:modules/motor/LKmotor/LK9025.c **** }
 727              		.loc 1 165 1 view .LVU234
 728 0004 7047     		bx	lr
 729              		.cfi_endproc
 730              	.LFE277:
 732              		.section	.text.LKMotorIsOnline,"ax",%progbits
 733              		.align	1
 734              		.global	LKMotorIsOnline
 735              		.syntax unified
 736              		.thumb
 737              		.thumb_func
 739              	LKMotorIsOnline:
 740              	.LVL50:
 741              	.LFB278:
 166:modules/motor/LKmotor/LK9025.c **** 
 167:modules/motor/LKmotor/LK9025.c **** uint8_t LKMotorIsOnline(LKMotorInstance *motor)
 168:modules/motor/LKmotor/LK9025.c **** {
 742              		.loc 1 168 1 is_stmt 1 view -0
 743              		.cfi_startproc
 744              		@ args = 0, pretend = 0, frame = 0
 745              		@ frame_needed = 0, uses_anonymous_args = 0
 746              		.loc 1 168 1 is_stmt 0 view .LVU236
 747 0000 08B5     		push	{r3, lr}
 748              	.LCFI5:
 749              		.cfi_def_cfa_offset 8
 750              		.cfi_offset 3, -8
 751              		.cfi_offset 14, -4
 169:modules/motor/LKmotor/LK9025.c ****     return DaemonIsOnline(motor->daemon);
 752              		.loc 1 169 5 is_stmt 1 view .LVU237
 753              		.loc 1 169 12 is_stmt 0 view .LVU238
 754 0002 D0F8AC01 		ldr	r0, [r0, #428]
 755              	.LVL51:
 756              		.loc 1 169 12 view .LVU239
 757 0006 FFF7FEFF 		bl	DaemonIsOnline
 758              	.LVL52:
 170:modules/motor/LKmotor/LK9025.c **** }
 759              		.loc 1 170 1 view .LVU240
 760 000a 08BD     		pop	{r3, pc}
 761              		.cfi_endproc
 762              	.LFE278:
 764              		.section	.bss.sender_instance,"aw",%nobits
 765              		.align	2
 768              	sender_instance:
 769 0000 00000000 		.space	4
 770              		.section	.bss.lkmotor_instance,"aw",%nobits
 771              		.align	2
ARM GAS  C:\Users\ADMINI~1\AppData\Local\Temp\ccGvSvhR.s 			page 20


 774              	lkmotor_instance:
 775 0000 00000000 		.space	16
 775      00000000 
 775      00000000 
 775      00000000 
 776              		.section	.bss.idx,"aw",%nobits
 779              	idx:
 780 0000 00       		.space	1
 781              		.text
 782              	.Letext0:
 783              		.file 2 "D:/Msys2/mingw64/arm-none-eabi/include/machine/_default_types.h"
 784              		.file 3 "D:/Msys2/mingw64/arm-none-eabi/include/sys/_stdint.h"
 785              		.file 4 "Drivers/CMSIS/Device/ST/STM32F4xx/Include/stm32f407xx.h"
 786              		.file 5 "Drivers/CMSIS/Device/ST/STM32F4xx/Include/stm32f4xx.h"
 787              		.file 6 "D:/Msys2/mingw64/lib/gcc/arm-none-eabi/13.3.0/include/stddef.h"
 788              		.file 7 "Drivers/STM32F4xx_HAL_Driver/Inc/stm32f4xx_hal_can.h"
 789              		.file 8 "bsp/can/bsp_can.h"
 790              		.file 9 "modules/algorithm/controller.h"
 791              		.file 10 "modules/motor/motor_def.h"
 792              		.file 11 "modules/daemon/daemon.h"
 793              		.file 12 "modules/motor/LKmotor/LK9025.h"
 794              		.file 13 "bsp/dwt/bsp_dwt.h"
 795              		.file 14 "D:/Msys2/mingw64/arm-none-eabi/include/string.h"
 796              		.file 15 "D:/Msys2/mingw64/arm-none-eabi/include/stdlib.h"
 797              		.file 16 "<built-in>"
ARM GAS  C:\Users\ADMINI~1\AppData\Local\Temp\ccGvSvhR.s 			page 21

