ARM GAS  C:\Users\10542\AppData\Local\Temp\ccBdPNlf.s 			page 1


   1              		.cpu cortex-m4
   2              		.arch armv7e-m
   3              		.fpu fpv4-sp-d16
   4              		.eabi_attribute 27, 1
   5              		.eabi_attribute 28, 1
   6              		.eabi_attribute 20, 1
   7              		.eabi_attribute 21, 1
   8              		.eabi_attribute 23, 3
   9              		.eabi_attribute 24, 1
  10              		.eabi_attribute 25, 1
  11              		.eabi_attribute 26, 1
  12              		.eabi_attribute 30, 1
  13              		.eabi_attribute 34, 1
  14              		.eabi_attribute 18, 4
  15              		.file	"rm_referee.c"
  16              		.text
  17              	.Ltext0:
  18              		.cfi_sections	.debug_frame
  19              		.file 1 "modules/referee/rm_referee.c"
  20              		.section	.text.RefereeLostCallback,"ax",%progbits
  21              		.align	1
  22              		.syntax unified
  23              		.thumb
  24              		.thumb_func
  26              	RefereeLostCallback:
  27              	.LVL0:
  28              	.LFB278:
   1:modules/referee/rm_referee.c **** /**
   2:modules/referee/rm_referee.c ****  * @file rm_referee.C
   3:modules/referee/rm_referee.c ****  * @author kidneygood (you@domain.com)
   4:modules/referee/rm_referee.c ****  * @brief
   5:modules/referee/rm_referee.c ****  * @version 0.1
   6:modules/referee/rm_referee.c ****  * @date 2022-11-18
   7:modules/referee/rm_referee.c ****  *
   8:modules/referee/rm_referee.c ****  * @copyright Copyright (c) 2022
   9:modules/referee/rm_referee.c ****  *
  10:modules/referee/rm_referee.c ****  */
  11:modules/referee/rm_referee.c **** 
  12:modules/referee/rm_referee.c **** #include "rm_referee.h"
  13:modules/referee/rm_referee.c **** #include "string.h"
  14:modules/referee/rm_referee.c **** #include "crc_ref.h"
  15:modules/referee/rm_referee.c **** #include "bsp_usart.h"
  16:modules/referee/rm_referee.c **** #include "task.h"
  17:modules/referee/rm_referee.c **** #include "daemon.h"
  18:modules/referee/rm_referee.c **** #include "bsp_log.h"
  19:modules/referee/rm_referee.c **** #include "cmsis_os.h"
  20:modules/referee/rm_referee.c **** 
  21:modules/referee/rm_referee.c **** #define RE_RX_BUFFER_SIZE 255u // иЈҒеҲӨзі»з»ҹжҺҘж”¶зј“еҶІеҢәеӨ§е°Ҹ
  22:modules/referee/rm_referee.c **** 
  23:modules/referee/rm_referee.c **** static USARTInstance *referee_usart_instance; // иЈҒеҲӨзі»з»ҹдёІеҸЈе®һдҫӢ
  24:modules/referee/rm_referee.c **** static DaemonInstance *referee_daemon;		  // иЈҒеҲӨзі»з»ҹе®ҲжҠӨиҝӣзЁӢ
  25:modules/referee/rm_referee.c **** static referee_info_t referee_info;			  // иЈҒеҲӨзі»з»ҹж•°жҚ®
  26:modules/referee/rm_referee.c **** 
  27:modules/referee/rm_referee.c **** /**
  28:modules/referee/rm_referee.c ****  * @brief  иҜ»еҸ–иЈҒеҲӨж•°жҚ®,дёӯж–ӯдёӯиҜ»еҸ–дҝқиҜҒйҖҹеәҰ
  29:modules/referee/rm_referee.c ****  * @param  buff: иҜ»еҸ–еҲ°зҡ„иЈҒеҲӨзі»з»ҹеҺҹе§Ӣж•°жҚ®
  30:modules/referee/rm_referee.c ****  * @retval жҳҜеҗҰеҜ№жӯЈиҜҜеҲӨж–ӯеҒҡеӨ„зҗҶ
ARM GAS  C:\Users\10542\AppData\Local\Temp\ccBdPNlf.s 			page 2


  31:modules/referee/rm_referee.c ****  * @attention  еңЁжӯӨеҲӨж–ӯеё§еӨҙе’ҢCRCж ЎйӘҢ,ж— иҜҜеҶҚеҶҷе…Ҙж•°жҚ®пјҢдёҚйҮҚеӨҚеҲӨж–ӯеё§еӨҙ
  32:modules/referee/rm_referee.c ****  */
  33:modules/referee/rm_referee.c **** static void JudgeReadData(uint8_t *buff)
  34:modules/referee/rm_referee.c **** {
  35:modules/referee/rm_referee.c **** 	uint16_t judge_length; // з»ҹи®ЎдёҖеё§ж•°жҚ®й•ҝеәҰ
  36:modules/referee/rm_referee.c **** 	if (buff == NULL)	   // з©әж•°жҚ®еҢ…пјҢеҲҷдёҚдҪңд»»дҪ•еӨ„зҗҶ
  37:modules/referee/rm_referee.c **** 		return;
  38:modules/referee/rm_referee.c **** 
  39:modules/referee/rm_referee.c **** 	// еҶҷе…Ҙеё§еӨҙж•°жҚ®(5-byte),з”ЁдәҺеҲӨж–ӯжҳҜеҗҰејҖе§ӢеӯҳеӮЁиЈҒеҲӨж•°жҚ®
  40:modules/referee/rm_referee.c **** 	memcpy(&referee_info.FrameHeader, buff, LEN_HEADER);
  41:modules/referee/rm_referee.c **** 
  42:modules/referee/rm_referee.c **** 	// еҲӨж–ӯеё§еӨҙж•°жҚ®(0)жҳҜеҗҰдёә0xA5
  43:modules/referee/rm_referee.c **** 	if (buff[SOF] == REFEREE_SOF)
  44:modules/referee/rm_referee.c **** 	{
  45:modules/referee/rm_referee.c **** 		// её§еӨҙCRC8ж ЎйӘҢ
  46:modules/referee/rm_referee.c **** 		if (Verify_CRC8_Check_Sum(buff, LEN_HEADER) == TRUE)
  47:modules/referee/rm_referee.c **** 		{
  48:modules/referee/rm_referee.c **** 			// з»ҹи®ЎдёҖеё§ж•°жҚ®й•ҝеәҰ(byte),з”ЁдәҺCR16ж ЎйӘҢ
  49:modules/referee/rm_referee.c **** 			judge_length = buff[DATA_LENGTH] + LEN_HEADER + LEN_CMDID + LEN_TAIL;
  50:modules/referee/rm_referee.c **** 			// её§е°ҫCRC16ж ЎйӘҢ
  51:modules/referee/rm_referee.c **** 			if (Verify_CRC16_Check_Sum(buff, judge_length) == TRUE)
  52:modules/referee/rm_referee.c **** 			{
  53:modules/referee/rm_referee.c **** 				// 2дёӘ8дҪҚжӢјжҲҗ16дҪҚint
  54:modules/referee/rm_referee.c **** 				referee_info.CmdID = (buff[6] << 8 | buff[5]);
  55:modules/referee/rm_referee.c **** 				// и§Јжһҗж•°жҚ®е‘Ҫд»Өз Ғ,е°Ҷж•°жҚ®жӢ·иҙқеҲ°зӣёеә”з»“жһ„дҪ“дёӯ(жіЁж„ҸжӢ·иҙқж•°жҚ®зҡ„й•ҝеәҰ)
  56:modules/referee/rm_referee.c **** 				// з¬¬8дёӘеӯ—иҠӮејҖе§ӢжүҚжҳҜж•°жҚ® data=7
  57:modules/referee/rm_referee.c **** 				switch (referee_info.CmdID)
  58:modules/referee/rm_referee.c **** 				{
  59:modules/referee/rm_referee.c **** 				case ID_game_state: // 0x0001
  60:modules/referee/rm_referee.c **** 					memcpy(&referee_info.GameState, (buff + DATA_Offset), LEN_game_state);
  61:modules/referee/rm_referee.c **** 					break;
  62:modules/referee/rm_referee.c **** 				case ID_game_result: // 0x0002
  63:modules/referee/rm_referee.c **** 					memcpy(&referee_info.GameResult, (buff + DATA_Offset), LEN_game_result);
  64:modules/referee/rm_referee.c **** 					break;
  65:modules/referee/rm_referee.c **** 				case ID_game_robot_survivors: // 0x0003
  66:modules/referee/rm_referee.c **** 					memcpy(&referee_info.GameRobotHP, (buff + DATA_Offset), LEN_game_robot_HP);
  67:modules/referee/rm_referee.c **** 					break;
  68:modules/referee/rm_referee.c **** 				case ID_event_data: // 0x0101
  69:modules/referee/rm_referee.c **** 					memcpy(&referee_info.EventData, (buff + DATA_Offset), LEN_event_data);
  70:modules/referee/rm_referee.c **** 					break;
  71:modules/referee/rm_referee.c **** 				case ID_supply_projectile_action: // 0x0102
  72:modules/referee/rm_referee.c **** 					memcpy(&referee_info.SupplyProjectileAction, (buff + DATA_Offset), LEN_supply_projectile_actio
  73:modules/referee/rm_referee.c **** 					break;
  74:modules/referee/rm_referee.c **** 				case ID_game_robot_state: // 0x0201
  75:modules/referee/rm_referee.c **** 					memcpy(&referee_info.GameRobotState, (buff + DATA_Offset), LEN_game_robot_state);
  76:modules/referee/rm_referee.c **** 					break;
  77:modules/referee/rm_referee.c **** 				case ID_power_heat_data: // 0x0202
  78:modules/referee/rm_referee.c **** 					memcpy(&referee_info.PowerHeatData, (buff + DATA_Offset), LEN_power_heat_data);
  79:modules/referee/rm_referee.c **** 					break;
  80:modules/referee/rm_referee.c **** 				case ID_game_robot_pos: // 0x0203
  81:modules/referee/rm_referee.c **** 					memcpy(&referee_info.GameRobotPos, (buff + DATA_Offset), LEN_game_robot_pos);
  82:modules/referee/rm_referee.c **** 					break;
  83:modules/referee/rm_referee.c **** 				case ID_buff_musk: // 0x0204
  84:modules/referee/rm_referee.c **** 					memcpy(&referee_info.BuffMusk, (buff + DATA_Offset), LEN_buff_musk);
  85:modules/referee/rm_referee.c **** 					break;
  86:modules/referee/rm_referee.c **** 				case ID_aerial_robot_energy: // 0x0205
  87:modules/referee/rm_referee.c **** 					memcpy(&referee_info.AerialRobotEnergy, (buff + DATA_Offset), LEN_aerial_robot_energy);
ARM GAS  C:\Users\10542\AppData\Local\Temp\ccBdPNlf.s 			page 3


  88:modules/referee/rm_referee.c **** 					break;
  89:modules/referee/rm_referee.c **** 				case ID_robot_hurt: // 0x0206
  90:modules/referee/rm_referee.c **** 					memcpy(&referee_info.RobotHurt, (buff + DATA_Offset), LEN_robot_hurt);
  91:modules/referee/rm_referee.c **** 					break;
  92:modules/referee/rm_referee.c **** 				case ID_shoot_data: // 0x0207
  93:modules/referee/rm_referee.c **** 					memcpy(&referee_info.ShootData, (buff + DATA_Offset), LEN_shoot_data);
  94:modules/referee/rm_referee.c **** 					break;
  95:modules/referee/rm_referee.c **** 				case ID_student_interactive: // 0x0301   syhtodoжҺҘж”¶д»Јз ҒжңӘжөӢиҜ•
  96:modules/referee/rm_referee.c **** 					memcpy(&referee_info.ReceiveData, (buff + DATA_Offset), LEN_receive_data);
  97:modules/referee/rm_referee.c **** 					break;
  98:modules/referee/rm_referee.c **** 				}
  99:modules/referee/rm_referee.c **** 			}
 100:modules/referee/rm_referee.c **** 		}
 101:modules/referee/rm_referee.c **** 		// йҰ–ең°еқҖеҠ её§й•ҝеәҰ,жҢҮеҗ‘CRC16дёӢдёҖеӯ—иҠӮ,з”ЁжқҘеҲӨж–ӯжҳҜеҗҰдёә0xA5,д»ҺиҖҢеҲӨж–ӯдёҖдёӘж•°ж
 102:modules/referee/rm_referee.c **** 		if (*(buff + sizeof(xFrameHeader) + LEN_CMDID + referee_info.FrameHeader.DataLength + LEN_TAIL) =
 103:modules/referee/rm_referee.c **** 		{ // еҰӮжһңдёҖдёӘж•°жҚ®еҢ…еҮәзҺ°дәҶеӨҡеё§ж•°жҚ®,еҲҷеҶҚж¬Ўи°ғз”Ёи§ЈжһҗеҮҪж•°,зӣҙеҲ°жүҖжңүж•°жҚ®еҢ…
 104:modules/referee/rm_referee.c **** 			JudgeReadData(buff + sizeof(xFrameHeader) + LEN_CMDID + referee_info.FrameHeader.DataLength + LE
 105:modules/referee/rm_referee.c **** 		}
 106:modules/referee/rm_referee.c **** 	}
 107:modules/referee/rm_referee.c **** }
 108:modules/referee/rm_referee.c **** 
 109:modules/referee/rm_referee.c **** /*иЈҒеҲӨзі»з»ҹдёІеҸЈжҺҘж”¶еӣһи°ғеҮҪж•°,и§Јжһҗж•°жҚ® */
 110:modules/referee/rm_referee.c **** static void RefereeRxCallback()
 111:modules/referee/rm_referee.c **** {
 112:modules/referee/rm_referee.c **** 	DaemonReload(referee_daemon);
 113:modules/referee/rm_referee.c **** 	JudgeReadData(referee_usart_instance->recv_buff);
 114:modules/referee/rm_referee.c **** }
 115:modules/referee/rm_referee.c **** // иЈҒеҲӨзі»з»ҹдёўеӨұеӣһи°ғеҮҪж•°,йҮҚж–°еҲқе§ӢеҢ–иЈҒеҲӨзі»з»ҹдёІеҸЈ
 116:modules/referee/rm_referee.c **** static void RefereeLostCallback(void *arg)
 117:modules/referee/rm_referee.c **** {
  29              		.loc 1 117 1 view -0
  30              		.cfi_startproc
  31              		@ args = 0, pretend = 0, frame = 0
  32              		@ frame_needed = 0, uses_anonymous_args = 0
  33              		.loc 1 117 1 is_stmt 0 view .LVU1
  34 0000 08B5     		push	{r3, lr}
  35              	.LCFI0:
  36              		.cfi_def_cfa_offset 8
  37              		.cfi_offset 3, -8
  38              		.cfi_offset 14, -4
 118:modules/referee/rm_referee.c **** 	USARTServiceInit(referee_usart_instance);
  39              		.loc 1 118 2 is_stmt 1 view .LVU2
  40 0002 024B     		ldr	r3, .L3
  41 0004 1868     		ldr	r0, [r3]
  42              	.LVL1:
  43              		.loc 1 118 2 is_stmt 0 view .LVU3
  44 0006 FFF7FEFF 		bl	USARTServiceInit
  45              	.LVL2:
 119:modules/referee/rm_referee.c **** 	LOGWARNING("[rm_ref] lost referee data");
  46              		.loc 1 119 42 is_stmt 1 view .LVU4
 120:modules/referee/rm_referee.c **** }
  47              		.loc 1 120 1 is_stmt 0 view .LVU5
  48 000a 08BD     		pop	{r3, pc}
  49              	.L4:
  50              		.align	2
  51              	.L3:
  52 000c 00000000 		.word	referee_usart_instance
ARM GAS  C:\Users\10542\AppData\Local\Temp\ccBdPNlf.s 			page 4


  53              		.cfi_endproc
  54              	.LFE278:
  56              		.section	.text.JudgeReadData,"ax",%progbits
  57              		.align	1
  58              		.syntax unified
  59              		.thumb
  60              		.thumb_func
  62              	JudgeReadData:
  63              	.LVL3:
  64              	.LFB276:
  34:modules/referee/rm_referee.c **** 	uint16_t judge_length; // з»ҹи®ЎдёҖеё§ж•°жҚ®й•ҝеәҰ
  65              		.loc 1 34 1 is_stmt 1 view -0
  66              		.cfi_startproc
  67              		@ args = 0, pretend = 0, frame = 0
  68              		@ frame_needed = 0, uses_anonymous_args = 0
  35:modules/referee/rm_referee.c **** 	if (buff == NULL)	   // з©әж•°жҚ®еҢ…пјҢеҲҷдёҚдҪңд»»дҪ•еӨ„зҗҶ
  69              		.loc 1 35 2 view .LVU7
  36:modules/referee/rm_referee.c **** 		return;
  70              		.loc 1 36 2 view .LVU8
  36:modules/referee/rm_referee.c **** 		return;
  71              		.loc 1 36 5 is_stmt 0 view .LVU9
  72 0000 0028     		cmp	r0, #0
  73 0002 00F0F280 		beq	.L27
  34:modules/referee/rm_referee.c **** 	uint16_t judge_length; // з»ҹи®ЎдёҖеё§ж•°жҚ®й•ҝеәҰ
  74              		.loc 1 34 1 view .LVU10
  75 0006 10B5     		push	{r4, lr}
  76              	.LCFI1:
  77              		.cfi_def_cfa_offset 8
  78              		.cfi_offset 4, -8
  79              		.cfi_offset 14, -4
  80 0008 0446     		mov	r4, r0
  40:modules/referee/rm_referee.c **** 
  81              		.loc 1 40 2 is_stmt 1 view .LVU11
  82 000a 784B     		ldr	r3, .L33
  83 000c 0268     		ldr	r2, [r0]	@ unaligned
  84 000e C3F80720 		str	r2, [r3, #7]	@ unaligned
  85 0012 0279     		ldrb	r2, [r0, #4]	@ zero_extendqisi2
  86 0014 DA72     		strb	r2, [r3, #11]
  43:modules/referee/rm_referee.c **** 	{
  87              		.loc 1 43 2 view .LVU12
  43:modules/referee/rm_referee.c **** 	{
  88              		.loc 1 43 10 is_stmt 0 view .LVU13
  89 0016 0378     		ldrb	r3, [r0]	@ zero_extendqisi2
  43:modules/referee/rm_referee.c **** 	{
  90              		.loc 1 43 5 view .LVU14
  91 0018 A52B     		cmp	r3, #165
  92 001a 00D0     		beq	.L30
  93              	.LVL4:
  94              	.L5:
 107:modules/referee/rm_referee.c **** 
  95              		.loc 1 107 1 view .LVU15
  96 001c 10BD     		pop	{r4, pc}
  97              	.LVL5:
  98              	.L30:
  46:modules/referee/rm_referee.c **** 		{
  99              		.loc 1 46 3 is_stmt 1 view .LVU16
  46:modules/referee/rm_referee.c **** 		{
ARM GAS  C:\Users\10542\AppData\Local\Temp\ccBdPNlf.s 			page 5


 100              		.loc 1 46 7 is_stmt 0 view .LVU17
 101 001e 0521     		movs	r1, #5
 102 0020 FFF7FEFF 		bl	Verify_CRC8_Check_Sum
 103              	.LVL6:
  46:modules/referee/rm_referee.c **** 		{
 104              		.loc 1 46 6 discriminator 1 view .LVU18
 105 0024 0128     		cmp	r0, #1
 106 0026 09D0     		beq	.L31
 107              	.L7:
 102:modules/referee/rm_referee.c **** 		{ // еҰӮжһңдёҖдёӘж•°жҚ®еҢ…еҮәзҺ°дәҶеӨҡеё§ж•°жҚ®,еҲҷеҶҚж¬Ўи°ғз”Ёи§ЈжһҗеҮҪж•°,зӣҙеҲ°жүҖжңүж•°жҚ®еҢ…
 108              		.loc 1 102 3 is_stmt 1 view .LVU19
 102:modules/referee/rm_referee.c **** 		{ // еҰӮжһңдёҖдёӘж•°жҚ®еҢ…еҮәзҺ°дәҶеӨҡеё§ж•°жҚ®,еҲҷеҶҚж¬Ўи°ғз”Ёи§ЈжһҗеҮҪж•°,зӣҙеҲ°жүҖжңүж•°жҚ®еҢ…
 109              		.loc 1 102 75 is_stmt 0 view .LVU20
 110 0028 704B     		ldr	r3, .L33
 111 002a 1B89     		ldrh	r3, [r3, #8]
 102:modules/referee/rm_referee.c **** 		{ // еҰӮжһңдёҖдёӘж•°жҚ®еҢ…еҮәзҺ°дәҶеӨҡеё§ж•°жҚ®,еҲҷеҶҚж¬Ўи°ғз”Ёи§ЈжһҗеҮҪж•°,зӣҙеҲ°жүҖжңүж•°жҚ®еҢ…
 112              		.loc 1 102 87 view .LVU21
 113 002c 0933     		adds	r3, r3, #9
 114 002e E018     		adds	r0, r4, r3
 102:modules/referee/rm_referee.c **** 		{ // еҰӮжһңдёҖдёӘж•°жҚ®еҢ…еҮәзҺ°дәҶеӨҡеё§ж•°жҚ®,еҲҷеҶҚж¬Ўи°ғз”Ёи§ЈжһҗеҮҪж•°,зӣҙеҲ°жүҖжңүж•°жҚ®еҢ…
 115              		.loc 1 102 7 view .LVU22
 116 0030 E35C     		ldrb	r3, [r4, r3]	@ zero_extendqisi2
 102:modules/referee/rm_referee.c **** 		{ // еҰӮжһңдёҖдёӘж•°жҚ®еҢ…еҮәзҺ°дәҶеӨҡеё§ж•°жҚ®,еҲҷеҶҚж¬Ўи°ғз”Ёи§ЈжһҗеҮҪж•°,зӣҙеҲ°жүҖжңүж•°жҚ®еҢ…
 117              		.loc 1 102 6 view .LVU23
 118 0032 A52B     		cmp	r3, #165
 119 0034 F2D1     		bne	.L5
 104:modules/referee/rm_referee.c **** 		}
 120              		.loc 1 104 4 is_stmt 1 view .LVU24
 121 0036 FFF7E3FF 		bl	JudgeReadData
 122              	.LVL7:
 123 003a EFE7     		b	.L5
 124              	.L31:
  49:modules/referee/rm_referee.c **** 			// её§е°ҫCRC16ж ЎйӘҢ
 125              		.loc 1 49 4 view .LVU25
  49:modules/referee/rm_referee.c **** 			// её§е°ҫCRC16ж ЎйӘҢ
 126              		.loc 1 49 23 is_stmt 0 view .LVU26
 127 003c 6178     		ldrb	r1, [r4, #1]	@ zero_extendqisi2
 128              	.LVL8:
  51:modules/referee/rm_referee.c **** 			{
 129              		.loc 1 51 4 is_stmt 1 view .LVU27
  51:modules/referee/rm_referee.c **** 			{
 130              		.loc 1 51 8 is_stmt 0 view .LVU28
 131 003e 0931     		adds	r1, r1, #9
 132              	.LVL9:
  51:modules/referee/rm_referee.c **** 			{
 133              		.loc 1 51 8 view .LVU29
 134 0040 2046     		mov	r0, r4
 135 0042 FFF7FEFF 		bl	Verify_CRC16_Check_Sum
 136              	.LVL10:
  51:modules/referee/rm_referee.c **** 			{
 137              		.loc 1 51 7 discriminator 1 view .LVU30
 138 0046 0128     		cmp	r0, #1
 139 0048 EED1     		bne	.L7
  54:modules/referee/rm_referee.c **** 				// и§Јжһҗж•°жҚ®е‘Ҫд»Өз Ғ,е°Ҷж•°жҚ®жӢ·иҙқеҲ°зӣёеә”з»“жһ„дҪ“дёӯ(жіЁж„ҸжӢ·иҙқж•°жҚ®зҡ„й•ҝеәҰ)
 140              		.loc 1 54 5 is_stmt 1 view .LVU31
  54:modules/referee/rm_referee.c **** 				// и§Јжһҗж•°жҚ®е‘Ҫд»Өз Ғ,е°Ҷж•°жҚ®жӢ·иҙқеҲ°зӣёеә”з»“жһ„дҪ“дёӯ(жіЁж„ҸжӢ·иҙқж•°жҚ®зҡ„й•ҝеәҰ)
 141              		.loc 1 54 31 is_stmt 0 view .LVU32
ARM GAS  C:\Users\10542\AppData\Local\Temp\ccBdPNlf.s 			page 6


 142 004a A279     		ldrb	r2, [r4, #6]	@ zero_extendqisi2
  54:modules/referee/rm_referee.c **** 				// и§Јжһҗж•°жҚ®е‘Ҫд»Өз Ғ,е°Ҷж•°жҚ®жӢ·иҙқеҲ°зӣёеә”з»“жһ„дҪ“дёӯ(жіЁж„ҸжӢ·иҙқж•°жҚ®зҡ„й•ҝеәҰ)
 143              		.loc 1 54 46 view .LVU33
 144 004c 6379     		ldrb	r3, [r4, #5]	@ zero_extendqisi2
  54:modules/referee/rm_referee.c **** 				// и§Јжһҗж•°жҚ®е‘Ҫд»Өз Ғ,е°Ҷж•°жҚ®жӢ·иҙқеҲ°зӣёеә”з»“жһ„дҪ“дёӯ(жіЁж„ҸжӢ·иҙқж•°жҚ®зҡ„й•ҝеәҰ)
 145              		.loc 1 54 40 view .LVU34
 146 004e 43EA0223 		orr	r3, r3, r2, lsl #8
  54:modules/referee/rm_referee.c **** 				// и§Јжһҗж•°жҚ®е‘Ҫд»Өз Ғ,е°Ҷж•°жҚ®жӢ·иҙқеҲ°зӣёеә”з»“жһ„дҪ“дёӯ(жіЁж„ҸжӢ·иҙқж•°жҚ®зҡ„й•ҝеәҰ)
 147              		.loc 1 54 24 view .LVU35
 148 0052 664A     		ldr	r2, .L33
 149 0054 9381     		strh	r3, [r2, #12]	@ movhi
  57:modules/referee/rm_referee.c **** 				{
 150              		.loc 1 57 5 is_stmt 1 view .LVU36
 151 0056 B3F5027F 		cmp	r3, #520
 152 005a 24D2     		bcs	.L8
 153 005c B3F5007F 		cmp	r3, #512
 154 0060 09D9     		bls	.L32
 155 0062 A3F20123 		subw	r3, r3, #513
 156 0066 062B     		cmp	r3, #6
 157 0068 DED8     		bhi	.L7
 158 006a DFE803F0 		tbb	[pc, r3]
 159              	.L15:
 160 006e 68       		.byte	(.L21-.L15)/2
 161 006f 79       		.byte	(.L20-.L15)/2
 162 0070 8B       		.byte	(.L19-.L15)/2
 163 0071 9D       		.byte	(.L18-.L15)/2
 164 0072 A7       		.byte	(.L17-.L15)/2
 165 0073 AD       		.byte	(.L16-.L15)/2
 166 0074 B2       		.byte	(.L14-.L15)/2
 167 0075 00       		.p2align 1
 168              	.L32:
 169 0076 032B     		cmp	r3, #3
 170 0078 39D0     		beq	.L10
 171 007a 07D8     		bhi	.L11
 172 007c 012B     		cmp	r3, #1
 173 007e 27D0     		beq	.L12
 174 0080 022B     		cmp	r3, #2
 175 0082 D1D1     		bne	.L7
  63:modules/referee/rm_referee.c **** 					break;
 176              		.loc 1 63 6 view .LVU37
 177 0084 E279     		ldrb	r2, [r4, #7]	@ zero_extendqisi2
 178 0086 594B     		ldr	r3, .L33
 179 0088 5A76     		strb	r2, [r3, #25]
  64:modules/referee/rm_referee.c **** 				case ID_game_robot_survivors: // 0x0003
 180              		.loc 1 64 6 view .LVU38
 181 008a CDE7     		b	.L7
 182              	.L11:
  57:modules/referee/rm_referee.c **** 				{
 183              		.loc 1 57 5 is_stmt 0 view .LVU39
 184 008c 40F20112 		movw	r2, #257
 185 0090 9342     		cmp	r3, r2
 186 0092 4ED0     		beq	.L22
 187 0094 B3F5817F 		cmp	r3, #258
 188 0098 C6D1     		bne	.L7
  72:modules/referee/rm_referee.c **** 					break;
 189              		.loc 1 72 6 is_stmt 1 view .LVU40
 190 009a D4F80720 		ldr	r2, [r4, #7]	@ unaligned
ARM GAS  C:\Users\10542\AppData\Local\Temp\ccBdPNlf.s 			page 7


 191 009e 534B     		ldr	r3, .L33
 192 00a0 C3F83E20 		str	r2, [r3, #62]	@ unaligned
  73:modules/referee/rm_referee.c **** 				case ID_game_robot_state: // 0x0201
 193              		.loc 1 73 6 view .LVU41
 194 00a4 C0E7     		b	.L7
 195              	.L8:
  57:modules/referee/rm_referee.c **** 				{
 196              		.loc 1 57 5 is_stmt 0 view .LVU42
 197 00a6 40F20132 		movw	r2, #769
 198 00aa 9342     		cmp	r3, r2
 199 00ac BCD1     		bne	.L7
  96:modules/referee/rm_referee.c **** 					break;
 200              		.loc 1 96 6 is_stmt 1 view .LVU43
 201 00ae 4F4B     		ldr	r3, .L33
 202 00b0 D4F80710 		ldr	r1, [r4, #7]	@ unaligned
 203 00b4 D4F80B20 		ldr	r2, [r4, #11]	@ unaligned
 204 00b8 C3F87F10 		str	r1, [r3, #127]	@ unaligned
 205 00bc C3F88320 		str	r2, [r3, #131]	@ unaligned
 206 00c0 B4F80F10 		ldrh	r1, [r4, #15]	@ unaligned
 207 00c4 627C     		ldrb	r2, [r4, #17]	@ zero_extendqisi2
 208 00c6 A3F88710 		strh	r1, [r3, #135]	@ unaligned
 209 00ca 83F88920 		strb	r2, [r3, #137]
  97:modules/referee/rm_referee.c **** 				}
 210              		.loc 1 97 6 view .LVU44
 211 00ce ABE7     		b	.L7
 212              	.L12:
  60:modules/referee/rm_referee.c **** 					break;
 213              		.loc 1 60 6 view .LVU45
 214 00d0 464B     		ldr	r3, .L33
 215 00d2 D4F80710 		ldr	r1, [r4, #7]	@ unaligned
 216 00d6 D4F80B20 		ldr	r2, [r4, #11]	@ unaligned
 217 00da C3F80E10 		str	r1, [r3, #14]	@ unaligned
 218 00de C3F81220 		str	r2, [r3, #18]	@ unaligned
 219 00e2 B4F80F10 		ldrh	r1, [r4, #15]	@ unaligned
 220 00e6 627C     		ldrb	r2, [r4, #17]	@ zero_extendqisi2
 221 00e8 D982     		strh	r1, [r3, #22]	@ unaligned
 222 00ea 1A76     		strb	r2, [r3, #24]
  61:modules/referee/rm_referee.c **** 				case ID_game_result: // 0x0002
 223              		.loc 1 61 6 view .LVU46
 224 00ec 9CE7     		b	.L7
 225              	.L10:
  66:modules/referee/rm_referee.c **** 					break;
 226              		.loc 1 66 6 view .LVU47
 227 00ee 3F4B     		ldr	r3, .L33
 228 00f0 D4F807C0 		ldr	ip, [r4, #7]	@ unaligned
 229 00f4 D4F80B00 		ldr	r0, [r4, #11]	@ unaligned
 230 00f8 D4F80F10 		ldr	r1, [r4, #15]	@ unaligned
 231 00fc D4F81320 		ldr	r2, [r4, #19]	@ unaligned
 232 0100 C3F81AC0 		str	ip, [r3, #26]	@ unaligned
 233 0104 C3F81E00 		str	r0, [r3, #30]	@ unaligned
 234 0108 C3F82210 		str	r1, [r3, #34]	@ unaligned
 235 010c C3F82620 		str	r2, [r3, #38]	@ unaligned
 236 0110 D4F817C0 		ldr	ip, [r4, #23]	@ unaligned
 237 0114 D4F81B00 		ldr	r0, [r4, #27]	@ unaligned
 238 0118 D4F81F10 		ldr	r1, [r4, #31]	@ unaligned
 239 011c D4F82320 		ldr	r2, [r4, #35]	@ unaligned
 240 0120 C3F82AC0 		str	ip, [r3, #42]	@ unaligned
ARM GAS  C:\Users\10542\AppData\Local\Temp\ccBdPNlf.s 			page 8


 241 0124 C3F82E00 		str	r0, [r3, #46]	@ unaligned
 242 0128 C3F83210 		str	r1, [r3, #50]	@ unaligned
 243 012c C3F83620 		str	r2, [r3, #54]	@ unaligned
  67:modules/referee/rm_referee.c **** 				case ID_event_data: // 0x0101
 244              		.loc 1 67 6 view .LVU48
 245 0130 7AE7     		b	.L7
 246              	.L22:
  69:modules/referee/rm_referee.c **** 					break;
 247              		.loc 1 69 6 view .LVU49
 248 0132 D4F80720 		ldr	r2, [r4, #7]	@ unaligned
 249 0136 2D4B     		ldr	r3, .L33
 250 0138 C3F83A20 		str	r2, [r3, #58]	@ unaligned
  70:modules/referee/rm_referee.c **** 				case ID_supply_projectile_action: // 0x0102
 251              		.loc 1 70 6 view .LVU50
 252 013c 74E7     		b	.L7
 253              	.L21:
  75:modules/referee/rm_referee.c **** 					break;
 254              		.loc 1 75 6 view .LVU51
 255 013e 2B4B     		ldr	r3, .L33
 256 0140 D4F80700 		ldr	r0, [r4, #7]	@ unaligned
 257 0144 D4F80B10 		ldr	r1, [r4, #11]	@ unaligned
 258 0148 D4F80F20 		ldr	r2, [r4, #15]	@ unaligned
 259 014c C3F84200 		str	r0, [r3, #66]	@ unaligned
 260 0150 C3F84610 		str	r1, [r3, #70]	@ unaligned
 261 0154 C3F84A20 		str	r2, [r3, #74]	@ unaligned
 262 0158 E27C     		ldrb	r2, [r4, #19]	@ zero_extendqisi2
 263 015a 83F84E20 		strb	r2, [r3, #78]
  76:modules/referee/rm_referee.c **** 				case ID_power_heat_data: // 0x0202
 264              		.loc 1 76 6 view .LVU52
 265 015e 63E7     		b	.L7
 266              	.L20:
  78:modules/referee/rm_referee.c **** 					break;
 267              		.loc 1 78 6 view .LVU53
 268 0160 224B     		ldr	r3, .L33
 269 0162 D4F807C0 		ldr	ip, [r4, #7]	@ unaligned
 270 0166 D4F80B00 		ldr	r0, [r4, #11]	@ unaligned
 271 016a D4F80F10 		ldr	r1, [r4, #15]	@ unaligned
 272 016e D4F81320 		ldr	r2, [r4, #19]	@ unaligned
 273 0172 C3F84FC0 		str	ip, [r3, #79]	@ unaligned
 274 0176 C3F85300 		str	r0, [r3, #83]	@ unaligned
 275 017a C3F85710 		str	r1, [r3, #87]	@ unaligned
 276 017e C3F85B20 		str	r2, [r3, #91]	@ unaligned
  79:modules/referee/rm_referee.c **** 				case ID_game_robot_pos: // 0x0203
 277              		.loc 1 79 6 view .LVU54
 278 0182 51E7     		b	.L7
 279              	.L19:
  81:modules/referee/rm_referee.c **** 					break;
 280              		.loc 1 81 6 view .LVU55
 281 0184 194B     		ldr	r3, .L33
 282 0186 D4F807C0 		ldr	ip, [r4, #7]	@ unaligned
 283 018a D4F80B00 		ldr	r0, [r4, #11]	@ unaligned
 284 018e D4F80F10 		ldr	r1, [r4, #15]	@ unaligned
 285 0192 D4F81320 		ldr	r2, [r4, #19]	@ unaligned
 286 0196 C3F85FC0 		str	ip, [r3, #95]	@ unaligned
 287 019a C3F86300 		str	r0, [r3, #99]	@ unaligned
 288 019e C3F86710 		str	r1, [r3, #103]	@ unaligned
 289 01a2 C3F86B20 		str	r2, [r3, #107]	@ unaligned
ARM GAS  C:\Users\10542\AppData\Local\Temp\ccBdPNlf.s 			page 9


  82:modules/referee/rm_referee.c **** 				case ID_buff_musk: // 0x0204
 290              		.loc 1 82 6 view .LVU56
 291 01a6 3FE7     		b	.L7
 292              	.L18:
  84:modules/referee/rm_referee.c **** 					break;
 293              		.loc 1 84 6 view .LVU57
 294 01a8 104B     		ldr	r3, .L33
 295 01aa D4F80720 		ldr	r2, [r4, #7]	@ unaligned
 296 01ae C3F86F20 		str	r2, [r3, #111]	@ unaligned
 297 01b2 B4F80B20 		ldrh	r2, [r4, #11]	@ unaligned
 298 01b6 A3F87320 		strh	r2, [r3, #115]	@ unaligned
  85:modules/referee/rm_referee.c **** 				case ID_aerial_robot_energy: // 0x0205
 299              		.loc 1 85 6 view .LVU58
 300 01ba 35E7     		b	.L7
 301              	.L17:
  87:modules/referee/rm_referee.c **** 					break;
 302              		.loc 1 87 6 view .LVU59
 303 01bc B4F80720 		ldrh	r2, [r4, #7]	@ unaligned
 304 01c0 0A4B     		ldr	r3, .L33
 305 01c2 A3F87520 		strh	r2, [r3, #117]	@ unaligned
  88:modules/referee/rm_referee.c **** 				case ID_robot_hurt: // 0x0206
 306              		.loc 1 88 6 view .LVU60
 307 01c6 2FE7     		b	.L7
 308              	.L16:
  90:modules/referee/rm_referee.c **** 					break;
 309              		.loc 1 90 6 view .LVU61
 310 01c8 E279     		ldrb	r2, [r4, #7]	@ zero_extendqisi2
 311 01ca 084B     		ldr	r3, .L33
 312 01cc 83F87720 		strb	r2, [r3, #119]
  91:modules/referee/rm_referee.c **** 				case ID_shoot_data: // 0x0207
 313              		.loc 1 91 6 view .LVU62
 314 01d0 2AE7     		b	.L7
 315              	.L14:
  93:modules/referee/rm_referee.c **** 					break;
 316              		.loc 1 93 6 view .LVU63
 317 01d2 064B     		ldr	r3, .L33
 318 01d4 D4F80700 		ldr	r0, [r4, #7]	@ unaligned
 319 01d8 9867     		str	r0, [r3, #120]
 320 01da B4F80B10 		ldrh	r1, [r4, #11]	@ unaligned
 321 01de 627B     		ldrb	r2, [r4, #13]	@ zero_extendqisi2
 322 01e0 A3F87C10 		strh	r1, [r3, #124]	@ unaligned
 323 01e4 83F87E20 		strb	r2, [r3, #126]
  94:modules/referee/rm_referee.c **** 				case ID_student_interactive: // 0x0301   syhtodoжҺҘж”¶д»Јз ҒжңӘжөӢиҜ•
 324              		.loc 1 94 6 view .LVU64
 325 01e8 1EE7     		b	.L7
 326              	.LVL11:
 327              	.L27:
 328              	.LCFI2:
 329              		.cfi_def_cfa_offset 0
 330              		.cfi_restore 4
 331              		.cfi_restore 14
  94:modules/referee/rm_referee.c **** 				case ID_student_interactive: // 0x0301   syhtodoжҺҘж”¶д»Јз ҒжңӘжөӢиҜ•
 332              		.loc 1 94 6 is_stmt 0 view .LVU65
 333 01ea 7047     		bx	lr
 334              	.L34:
 335              		.align	2
 336              	.L33:
ARM GAS  C:\Users\10542\AppData\Local\Temp\ccBdPNlf.s 			page 10


 337 01ec 00000000 		.word	referee_info
 338              		.cfi_endproc
 339              	.LFE276:
 341              		.section	.text.RefereeRxCallback,"ax",%progbits
 342              		.align	1
 343              		.syntax unified
 344              		.thumb
 345              		.thumb_func
 347              	RefereeRxCallback:
 348              	.LFB277:
 111:modules/referee/rm_referee.c **** 	DaemonReload(referee_daemon);
 349              		.loc 1 111 1 is_stmt 1 view -0
 350              		.cfi_startproc
 351              		@ args = 0, pretend = 0, frame = 0
 352              		@ frame_needed = 0, uses_anonymous_args = 0
 353 0000 08B5     		push	{r3, lr}
 354              	.LCFI3:
 355              		.cfi_def_cfa_offset 8
 356              		.cfi_offset 3, -8
 357              		.cfi_offset 14, -4
 112:modules/referee/rm_referee.c **** 	JudgeReadData(referee_usart_instance->recv_buff);
 358              		.loc 1 112 2 view .LVU67
 359 0002 044B     		ldr	r3, .L37
 360 0004 1868     		ldr	r0, [r3]
 361 0006 FFF7FEFF 		bl	DaemonReload
 362              	.LVL12:
 113:modules/referee/rm_referee.c **** }
 363              		.loc 1 113 2 view .LVU68
 364 000a 034B     		ldr	r3, .L37+4
 365 000c 1868     		ldr	r0, [r3]
 366 000e FFF7FEFF 		bl	JudgeReadData
 367              	.LVL13:
 114:modules/referee/rm_referee.c **** // иЈҒеҲӨзі»з»ҹдёўеӨұеӣһи°ғеҮҪж•°,йҮҚж–°еҲқе§ӢеҢ–иЈҒеҲӨзі»з»ҹдёІеҸЈ
 368              		.loc 1 114 1 is_stmt 0 view .LVU69
 369 0012 08BD     		pop	{r3, pc}
 370              	.L38:
 371              		.align	2
 372              	.L37:
 373 0014 00000000 		.word	referee_daemon
 374 0018 00000000 		.word	referee_usart_instance
 375              		.cfi_endproc
 376              	.LFE277:
 378              		.section	.text.RefereeInit,"ax",%progbits
 379              		.align	1
 380              		.global	RefereeInit
 381              		.syntax unified
 382              		.thumb
 383              		.thumb_func
 385              	RefereeInit:
 386              	.LVL14:
 387              	.LFB279:
 121:modules/referee/rm_referee.c **** 
 122:modules/referee/rm_referee.c **** /* иЈҒеҲӨзі»з»ҹйҖҡдҝЎеҲқе§ӢеҢ– */
 123:modules/referee/rm_referee.c **** referee_info_t *RefereeInit(UART_HandleTypeDef *referee_usart_handle)
 124:modules/referee/rm_referee.c **** {
 388              		.loc 1 124 1 is_stmt 1 view -0
 389              		.cfi_startproc
ARM GAS  C:\Users\10542\AppData\Local\Temp\ccBdPNlf.s 			page 11


 390              		@ args = 0, pretend = 0, frame = 24
 391              		@ frame_needed = 0, uses_anonymous_args = 0
 392              		.loc 1 124 1 is_stmt 0 view .LVU71
 393 0000 00B5     		push	{lr}
 394              	.LCFI4:
 395              		.cfi_def_cfa_offset 4
 396              		.cfi_offset 14, -4
 397 0002 87B0     		sub	sp, sp, #28
 398              	.LCFI5:
 399              		.cfi_def_cfa_offset 32
 125:modules/referee/rm_referee.c **** 	USART_Init_Config_s conf;
 400              		.loc 1 125 2 is_stmt 1 view .LVU72
 126:modules/referee/rm_referee.c **** 	conf.module_callback = RefereeRxCallback;
 401              		.loc 1 126 2 view .LVU73
 402              		.loc 1 126 23 is_stmt 0 view .LVU74
 403 0004 0E4B     		ldr	r3, .L41
 404 0006 0593     		str	r3, [sp, #20]
 127:modules/referee/rm_referee.c **** 	conf.usart_handle = referee_usart_handle;
 405              		.loc 1 127 2 is_stmt 1 view .LVU75
 406              		.loc 1 127 20 is_stmt 0 view .LVU76
 407 0008 0490     		str	r0, [sp, #16]
 128:modules/referee/rm_referee.c **** 	conf.recv_buff_size = RE_RX_BUFFER_SIZE; // mx 255(u8)
 408              		.loc 1 128 2 is_stmt 1 view .LVU77
 409              		.loc 1 128 22 is_stmt 0 view .LVU78
 410 000a FF23     		movs	r3, #255
 411 000c 8DF80C30 		strb	r3, [sp, #12]
 129:modules/referee/rm_referee.c **** 	referee_usart_instance = USARTRegister(&conf);
 412              		.loc 1 129 2 is_stmt 1 view .LVU79
 413              		.loc 1 129 27 is_stmt 0 view .LVU80
 414 0010 03A8     		add	r0, sp, #12
 415              	.LVL15:
 416              		.loc 1 129 27 view .LVU81
 417 0012 FFF7FEFF 		bl	USARTRegister
 418              	.LVL16:
 419              		.loc 1 129 25 discriminator 1 view .LVU82
 420 0016 0B4B     		ldr	r3, .L41+4
 421 0018 1860     		str	r0, [r3]
 130:modules/referee/rm_referee.c **** 
 131:modules/referee/rm_referee.c **** 	Daemon_Init_Config_s daemon_conf = {
 422              		.loc 1 131 2 is_stmt 1 view .LVU83
 423              		.loc 1 131 23 is_stmt 0 view .LVU84
 424 001a 0023     		movs	r3, #0
 425 001c 0093     		str	r3, [sp]
 426 001e 0193     		str	r3, [sp, #4]
 427 0020 0293     		str	r3, [sp, #8]
 428 0022 1E23     		movs	r3, #30
 429 0024 ADF80030 		strh	r3, [sp]	@ movhi
 430 0028 074B     		ldr	r3, .L41+8
 431 002a 0193     		str	r3, [sp, #4]
 432 002c 0290     		str	r0, [sp, #8]
 132:modules/referee/rm_referee.c **** 		.callback = RefereeLostCallback,
 133:modules/referee/rm_referee.c **** 		.owner_id = referee_usart_instance,
 134:modules/referee/rm_referee.c **** 		.reload_count = 30, // 0.3sжІЎжңүж”¶еҲ°ж•°жҚ®,еҲҷи®ӨдёәдёўеӨұ,йҮҚеҗҜдёІеҸЈжҺҘж”¶
 135:modules/referee/rm_referee.c **** 	};
 136:modules/referee/rm_referee.c **** 	referee_daemon = DaemonRegister(&daemon_conf);
 433              		.loc 1 136 2 is_stmt 1 view .LVU85
 434              		.loc 1 136 19 is_stmt 0 view .LVU86
ARM GAS  C:\Users\10542\AppData\Local\Temp\ccBdPNlf.s 			page 12


 435 002e 6846     		mov	r0, sp
 436 0030 FFF7FEFF 		bl	DaemonRegister
 437              	.LVL17:
 438              		.loc 1 136 17 discriminator 1 view .LVU87
 439 0034 054B     		ldr	r3, .L41+12
 440 0036 1860     		str	r0, [r3]
 137:modules/referee/rm_referee.c **** 
 138:modules/referee/rm_referee.c **** 	return &referee_info;
 441              		.loc 1 138 2 is_stmt 1 view .LVU88
 139:modules/referee/rm_referee.c **** }
 442              		.loc 1 139 1 is_stmt 0 view .LVU89
 443 0038 0548     		ldr	r0, .L41+16
 444 003a 07B0     		add	sp, sp, #28
 445              	.LCFI6:
 446              		.cfi_def_cfa_offset 4
 447              		@ sp needed
 448 003c 5DF804FB 		ldr	pc, [sp], #4
 449              	.L42:
 450              		.align	2
 451              	.L41:
 452 0040 00000000 		.word	RefereeRxCallback
 453 0044 00000000 		.word	referee_usart_instance
 454 0048 00000000 		.word	RefereeLostCallback
 455 004c 00000000 		.word	referee_daemon
 456 0050 00000000 		.word	referee_info
 457              		.cfi_endproc
 458              	.LFE279:
 460              		.section	.text.RefereeSend,"ax",%progbits
 461              		.align	1
 462              		.global	RefereeSend
 463              		.syntax unified
 464              		.thumb
 465              		.thumb_func
 467              	RefereeSend:
 468              	.LVL18:
 469              	.LFB280:
 140:modules/referee/rm_referee.c **** 
 141:modules/referee/rm_referee.c **** /**
 142:modules/referee/rm_referee.c ****  * @brief иЈҒеҲӨзі»з»ҹж•°жҚ®еҸ‘йҖҒеҮҪж•°
 143:modules/referee/rm_referee.c ****  * @param
 144:modules/referee/rm_referee.c ****  */
 145:modules/referee/rm_referee.c **** void RefereeSend(uint8_t *send, uint16_t tx_len)
 146:modules/referee/rm_referee.c **** {
 470              		.loc 1 146 1 is_stmt 1 view -0
 471              		.cfi_startproc
 472              		@ args = 0, pretend = 0, frame = 0
 473              		@ frame_needed = 0, uses_anonymous_args = 0
 474              		.loc 1 146 1 is_stmt 0 view .LVU91
 475 0000 08B5     		push	{r3, lr}
 476              	.LCFI7:
 477              		.cfi_def_cfa_offset 8
 478              		.cfi_offset 3, -8
 479              		.cfi_offset 14, -4
 480 0002 0A46     		mov	r2, r1
 147:modules/referee/rm_referee.c **** 	USARTSend(referee_usart_instance, send, tx_len, USART_TRANSFER_DMA);
 481              		.loc 1 147 2 is_stmt 1 view .LVU92
 482 0004 0323     		movs	r3, #3
ARM GAS  C:\Users\10542\AppData\Local\Temp\ccBdPNlf.s 			page 13


 483 0006 0146     		mov	r1, r0
 484              	.LVL19:
 485              		.loc 1 147 2 is_stmt 0 view .LVU93
 486 0008 0348     		ldr	r0, .L45
 487              	.LVL20:
 488              		.loc 1 147 2 view .LVU94
 489 000a 0068     		ldr	r0, [r0]
 490 000c FFF7FEFF 		bl	USARTSend
 491              	.LVL21:
 148:modules/referee/rm_referee.c **** 	osDelay(115);
 492              		.loc 1 148 2 is_stmt 1 view .LVU95
 493 0010 7320     		movs	r0, #115
 494 0012 FFF7FEFF 		bl	osDelay
 495              	.LVL22:
 149:modules/referee/rm_referee.c **** }
 496              		.loc 1 149 1 is_stmt 0 view .LVU96
 497 0016 08BD     		pop	{r3, pc}
 498              	.L46:
 499              		.align	2
 500              	.L45:
 501 0018 00000000 		.word	referee_usart_instance
 502              		.cfi_endproc
 503              	.LFE280:
 505              		.section	.bss.referee_info,"aw",%nobits
 506              		.align	2
 509              	referee_info:
 510 0000 00000000 		.space	139
 510      00000000 
 510      00000000 
 510      00000000 
 510      00000000 
 511              		.section	.bss.referee_daemon,"aw",%nobits
 512              		.align	2
 515              	referee_daemon:
 516 0000 00000000 		.space	4
 517              		.section	.bss.referee_usart_instance,"aw",%nobits
 518              		.align	2
 521              	referee_usart_instance:
 522 0000 00000000 		.space	4
 523              		.text
 524              	.Letext0:
 525              		.file 2 "E:/MSYS2/mingw64/arm-none-eabi/include/machine/_default_types.h"
 526              		.file 3 "E:/MSYS2/mingw64/arm-none-eabi/include/sys/_stdint.h"
 527              		.file 4 "Drivers/CMSIS/Device/ST/STM32F4xx/Include/stm32f407xx.h"
 528              		.file 5 "Drivers/STM32F4xx_HAL_Driver/Inc/stm32f4xx_hal_def.h"
 529              		.file 6 "Drivers/STM32F4xx_HAL_Driver/Inc/stm32f4xx_hal_dma.h"
 530              		.file 7 "Drivers/STM32F4xx_HAL_Driver/Inc/stm32f4xx_hal_uart.h"
 531              		.file 8 "modules/referee/referee_protocol.h"
 532              		.file 9 "bsp/usart/bsp_usart.h"
 533              		.file 10 "modules/referee/rm_referee.h"
 534              		.file 11 "modules/daemon/daemon.h"
 535              		.file 12 "Middlewares/Third_Party/FreeRTOS/Source/CMSIS_RTOS/cmsis_os.h"
 536              		.file 13 "modules/referee/crc_ref.h"
ARM GAS  C:\Users\10542\AppData\Local\Temp\ccBdPNlf.s 			page 14

