ARM GAS  C:\Users\10542\AppData\Local\Temp\ccSBnHYj.s 			page 1


   1              		.cpu cortex-m4
   2              		.arch armv7e-m
   3              		.fpu fpv4-sp-d16
   4              		.eabi_attribute 27, 1
   5              		.eabi_attribute 28, 1
   6              		.eabi_attribute 20, 1
   7              		.eabi_attribute 21, 1
   8              		.eabi_attribute 23, 3
   9              		.eabi_attribute 24, 1
  10              		.eabi_attribute 25, 1
  11              		.eabi_attribute 26, 1
  12              		.eabi_attribute 30, 1
  13              		.eabi_attribute 34, 1
  14              		.eabi_attribute 18, 4
  15              		.file	"robot_cmd.c"
  16              		.text
  17              	.Ltext0:
  18              		.cfi_sections	.debug_frame
  19              		.file 1 "application/cmd/robot_cmd.c"
  20              		.section	.text.CalcOffsetAngle,"ax",%progbits
  21              		.align	1
  22              		.syntax unified
  23              		.thumb
  24              		.thumb_func
  26              	CalcOffsetAngle:
  27              	.LFB277:
   1:application/cmd/robot_cmd.c **** // app
   2:application/cmd/robot_cmd.c **** #include "robot_def.h"
   3:application/cmd/robot_cmd.c **** #include "robot_cmd.h"
   4:application/cmd/robot_cmd.c **** // module
   5:application/cmd/robot_cmd.c **** #include "remote_control.h"
   6:application/cmd/robot_cmd.c **** #include "ins_task.h"
   7:application/cmd/robot_cmd.c **** #include "referee_task.h"
   8:application/cmd/robot_cmd.c **** #include "referee_UI.h"
   9:application/cmd/robot_cmd.c **** #include "master_process.h"
  10:application/cmd/robot_cmd.c **** #include "message_center.h"
  11:application/cmd/robot_cmd.c **** #include "general_def.h"
  12:application/cmd/robot_cmd.c **** #include "dji_motor.h"
  13:application/cmd/robot_cmd.c **** #include "bmi088.h"
  14:application/cmd/robot_cmd.c **** #include "buzzer.h"
  15:application/cmd/robot_cmd.c **** #include "led.h"
  16:application/cmd/robot_cmd.c **** // bsp
  17:application/cmd/robot_cmd.c **** #include "bsp_dwt.h"
  18:application/cmd/robot_cmd.c **** #include "bsp_log.h"
  19:application/cmd/robot_cmd.c **** 
  20:application/cmd/robot_cmd.c **** /* ж†єжНЃremote_control.hдЄ≠зЪДйАЪйБУеАЉиЗ™еК®иЃ°зЃЧзЪДеПВжХ∞ */
  21:application/cmd/robot_cmd.c **** #define HALF_RC_CH_MAX ((RC_CH_VALUE_MAX - RC_CH_VALUE_MIN) / 2.0f)
  22:application/cmd/robot_cmd.c **** 
  23:application/cmd/robot_cmd.c **** /* cmdеЇФзФ®еМЕеРЂзЪДж®°еЭЧеЃЮдЊЛжМЗйТИеТМдЇ§дЇТдњ°жБѓе≠ШеВ®*/
  24:application/cmd/robot_cmd.c **** static Robot_Config_s *robot_config;
  25:application/cmd/robot_cmd.c **** 
  26:application/cmd/robot_cmd.c **** #ifdef GIMBAL_BOARD // еѓєеПМжЭњзЪДеЕЉеЃє,жЭ°дїґзЉЦиѓС
  27:application/cmd/robot_cmd.c **** #include "can_comm.h"
  28:application/cmd/robot_cmd.c **** static CANCommInstance *cmd_can_comm; // еПМжЭњйАЪдњ°
  29:application/cmd/robot_cmd.c **** #endif
  30:application/cmd/robot_cmd.c **** #ifdef ONE_BOARD
  31:application/cmd/robot_cmd.c **** static Publisher_t *chassis_cmd_pub;   // еЇХзЫШжОІеИґжґИжБѓеПСеЄГиАЕ
ARM GAS  C:\Users\10542\AppData\Local\Temp\ccSBnHYj.s 			page 2


  32:application/cmd/robot_cmd.c **** static Subscriber_t *chassis_feed_sub; // еЇХзЫШеПНй¶Идњ°жБѓиЃҐйШЕиАЕ
  33:application/cmd/robot_cmd.c **** #endif                                 // ONE_BOARD
  34:application/cmd/robot_cmd.c **** 
  35:application/cmd/robot_cmd.c **** static Chassis_Ctrl_Cmd_s chassis_cmd_send;      // еПСйАБзїЩеЇХзЫШеЇФзФ®зЪДдњ°жБѓ,еМЕжЛђжОІеИґдњ°ж
  36:application/cmd/robot_cmd.c **** static Chassis_Upload_Data_s chassis_fetch_data; // дїОеЇХзЫШеЇФзФ®жО•жФґзЪДеПНй¶Идњ°жБѓдњ°жБѓ,еЇХз
  37:application/cmd/robot_cmd.c **** 
  38:application/cmd/robot_cmd.c **** static RC_ctrl_t *rc_data;              // йБ•жОІеЩ®жХ∞жНЃ,еИЭеІЛеМЦжЧґињФеЫЮ
  39:application/cmd/robot_cmd.c **** static Vision_Recv_s *vision_recv_data; // иІЖиІЙжО•жФґжХ∞жНЃжМЗйТИ,еИЭеІЛеМЦжЧґињФеЫЮ
  40:application/cmd/robot_cmd.c **** static Vision_Send_s vision_send_data;  // иІЖиІЙеПСйАБжХ∞жНЃ
  41:application/cmd/robot_cmd.c **** 
  42:application/cmd/robot_cmd.c **** static Publisher_t *gimbal_cmd_pub;            // дЇСеП∞жОІеИґжґИжБѓеПСеЄГиАЕ
  43:application/cmd/robot_cmd.c **** static Subscriber_t *gimbal_feed_sub;          // дЇСеП∞еПНй¶Идњ°жБѓиЃҐйШЕиАЕ
  44:application/cmd/robot_cmd.c **** static Gimbal_Ctrl_Cmd_s gimbal_cmd_send;      // дЉ†йАТзїЩдЇСеП∞зЪДжОІеИґдњ°жБѓ
  45:application/cmd/robot_cmd.c **** static Gimbal_Upload_Data_s gimbal_fetch_data; // дїОдЇСеП∞иОЈеПЦзЪДеПНй¶Идњ°жБѓ
  46:application/cmd/robot_cmd.c **** 
  47:application/cmd/robot_cmd.c **** static Publisher_t *shoot_cmd_pub;           // еПСе∞ДжОІеИґжґИжБѓеПСеЄГиАЕ
  48:application/cmd/robot_cmd.c **** static Subscriber_t *shoot_feed_sub;         // еПСе∞ДеПНй¶Идњ°жБѓиЃҐйШЕиАЕ
  49:application/cmd/robot_cmd.c **** static Shoot_Ctrl_Cmd_s shoot_cmd_send;      // дЉ†йАТзїЩеПСе∞ДзЪДжОІеИґдњ°жБѓ
  50:application/cmd/robot_cmd.c **** static Shoot_Upload_Data_s shoot_fetch_data; // дїОеПСе∞ДиОЈеПЦзЪДеПНй¶Идњ°жБѓ
  51:application/cmd/robot_cmd.c **** 
  52:application/cmd/robot_cmd.c **** static referee_info_t* referee_data; // зФ®дЇОиОЈеПЦи£БеИ§з≥їзїЯзЪДжХ∞жНЃ 
  53:application/cmd/robot_cmd.c **** static Referee_Interactive_info_t ui_data; // UIжХ∞жНЃпЉМе∞ЖеЇХзЫШдЄ≠зЪДжХ∞жНЃдЉ†еЕ•ж≠§зїУжЮДдљУзЪД
  54:application/cmd/robot_cmd.c **** 
  55:application/cmd/robot_cmd.c **** static Robot_Status_e robot_state; // жЬЇеЩ®дЇЇжХідљУеЈ•дљЬзКґжАБ
  56:application/cmd/robot_cmd.c **** 
  57:application/cmd/robot_cmd.c **** BuzzzerInstance *buzzer_alarm;
  58:application/cmd/robot_cmd.c **** LEDInstance *led_alarm;
  59:application/cmd/robot_cmd.c **** 
  60:application/cmd/robot_cmd.c **** void RobotCMDInit()
  61:application/cmd/robot_cmd.c **** {
  62:application/cmd/robot_cmd.c ****     robot_config = RobotConfigInit(INFANTRY_ROBOT_3);
  63:application/cmd/robot_cmd.c **** 
  64:application/cmd/robot_cmd.c ****     Buzzer_config_s buzzer_config ={
  65:application/cmd/robot_cmd.c ****             .alarm_level = ALARM_LEVEL_HIGH, //иЃЊзљЃи≠¶жК•з≠ЙзЇІ еРМдЄАзКґжАБдЄЛ йЂШз≠ЙзЇІзЪДеУНеЇ
  66:application/cmd/robot_cmd.c ****             .loudness=  0.4, //иЃЊзљЃеУНеЇ¶
  67:application/cmd/robot_cmd.c ****             .octave=  OCTAVE_1, // иЃЊзљЃйЯ≥йШґ
  68:application/cmd/robot_cmd.c ****         };
  69:application/cmd/robot_cmd.c ****     buzzer_alarm = BuzzerRegister(&buzzer_config);    
  70:application/cmd/robot_cmd.c **** 
  71:application/cmd/robot_cmd.c ****     LED_config_s LED_config ={
  72:application/cmd/robot_cmd.c ****             .color = PINK,
  73:application/cmd/robot_cmd.c ****             .flash = ALWAYS_ON,
  74:application/cmd/robot_cmd.c ****             .flash_count = 0,
  75:application/cmd/robot_cmd.c ****         };
  76:application/cmd/robot_cmd.c ****     led_alarm = LEDRegister(&LED_config);
  77:application/cmd/robot_cmd.c **** 
  78:application/cmd/robot_cmd.c ****     rc_data = RemoteControlInit(&huart3);   // дњЃжФєдЄЇеѓєеЇФдЄ≤еП£,ж≥®жДПе¶ВжЮЬжШѓиЗ™з†ФжЭњdbusеН
  79:application/cmd/robot_cmd.c ****     vision_recv_data = VisionInit(&huart1); // иІЖиІЙйАЪдњ°дЄ≤еП£
  80:application/cmd/robot_cmd.c **** 
  81:application/cmd/robot_cmd.c ****     referee_data = UITaskInit(&huart6,&ui_data); // и£БеИ§з≥їзїЯеИЭеІЛеМЦ,дЉЪеРМжЧґеИЭеІЛеМЦUI 
  82:application/cmd/robot_cmd.c **** 
  83:application/cmd/robot_cmd.c ****     gimbal_cmd_pub = PubRegister("gimbal_cmd", sizeof(Gimbal_Ctrl_Cmd_s));
  84:application/cmd/robot_cmd.c ****     gimbal_feed_sub = SubRegister("gimbal_feed", sizeof(Gimbal_Upload_Data_s));
  85:application/cmd/robot_cmd.c ****     shoot_cmd_pub = PubRegister("shoot_cmd", sizeof(Shoot_Ctrl_Cmd_s));
  86:application/cmd/robot_cmd.c ****     shoot_feed_sub = SubRegister("shoot_feed", sizeof(Shoot_Upload_Data_s));
  87:application/cmd/robot_cmd.c **** 
  88:application/cmd/robot_cmd.c **** #ifdef ONE_BOARD // еПМжЭњеЕЉеЃє
ARM GAS  C:\Users\10542\AppData\Local\Temp\ccSBnHYj.s 			page 3


  89:application/cmd/robot_cmd.c ****     chassis_cmd_pub = PubRegister("chassis_cmd", sizeof(Chassis_Ctrl_Cmd_s));
  90:application/cmd/robot_cmd.c ****     chassis_feed_sub = SubRegister("chassis_feed", sizeof(Chassis_Upload_Data_s));
  91:application/cmd/robot_cmd.c **** #endif // ONE_BOARD
  92:application/cmd/robot_cmd.c **** #ifdef GIMBAL_BOARD
  93:application/cmd/robot_cmd.c ****     CANComm_Init_Config_s comm_conf = {
  94:application/cmd/robot_cmd.c ****         .can_config = {
  95:application/cmd/robot_cmd.c ****             .can_handle = &hcan1,
  96:application/cmd/robot_cmd.c ****             .tx_id = 0x312,
  97:application/cmd/robot_cmd.c ****             .rx_id = 0x311,
  98:application/cmd/robot_cmd.c ****         },
  99:application/cmd/robot_cmd.c ****         .recv_data_len = sizeof(Chassis_Upload_Data_s),
 100:application/cmd/robot_cmd.c ****         .send_data_len = sizeof(Chassis_Ctrl_Cmd_s),
 101:application/cmd/robot_cmd.c ****     };
 102:application/cmd/robot_cmd.c ****     cmd_can_comm = CANCommInit(&comm_conf);
 103:application/cmd/robot_cmd.c **** #endif // GIMBAL_BOARD
 104:application/cmd/robot_cmd.c ****     gimbal_cmd_send.pitch = 0.0f;
 105:application/cmd/robot_cmd.c **** 
 106:application/cmd/robot_cmd.c ****     robot_state = ROBOT_READY; // еРѓеК®жЧґжЬЇеЩ®дЇЇињЫеЕ•еЈ•дљЬж®°еЉП,еРОзї≠еК†еЕ•жЙАжЬЙеЇФзФ®еИЭе
 107:application/cmd/robot_cmd.c **** }
 108:application/cmd/robot_cmd.c **** 
 109:application/cmd/robot_cmd.c **** /**
 110:application/cmd/robot_cmd.c ****  * @brief ж†єжНЃgimbal appдЉ†еЫЮзЪДељУеЙНзФµжЬЇиІТеЇ¶иЃ°зЃЧеТМйЫґдљНзЪДиѓѓеЈЃ
 111:application/cmd/robot_cmd.c ****  *        еНХеЬИзїЭеѓєиІТеЇ¶зЪДиМГеЫіжШѓ0~360,иѓіжШОжЦЗж°£дЄ≠жЬЙеЫЊз§Ї
 112:application/cmd/robot_cmd.c ****  *
 113:application/cmd/robot_cmd.c ****  */
 114:application/cmd/robot_cmd.c **** static void CalcOffsetAngle()
 115:application/cmd/robot_cmd.c **** {
  28              		.loc 1 115 1 view -0
  29              		.cfi_startproc
  30              		@ args = 0, pretend = 0, frame = 0
  31              		@ frame_needed = 0, uses_anonymous_args = 0
  32              		@ link register save eliminated.
 116:application/cmd/robot_cmd.c ****     // еИЂеРНangleжПРйЂШеПѓиѓїжАІ,дЄНзДґе§™йХњдЇЖдЄНе•љзЬЛ,иЩљзДґеЯЇжЬђдЄНдЉЪеК®ињЩдЄ™еЗљжХ∞
 117:application/cmd/robot_cmd.c ****     static float angle;
  33              		.loc 1 117 5 view .LVU1
 118:application/cmd/robot_cmd.c ****     float yaw_align_angle;
  34              		.loc 1 118 5 view .LVU2
 119:application/cmd/robot_cmd.c ****     angle = gimbal_fetch_data.yaw_motor_single_round_angle; // дїОдЇСеП∞иОЈеПЦзЪДељУеЙНyawзФµжЬЇеНХ
  35              		.loc 1 119 5 view .LVU3
  36              		.loc 1 119 30 is_stmt 0 view .LVU4
  37 0000 394B     		ldr	r3, .L25
  38 0002 1B8D     		ldrh	r3, [r3, #40]
  39              		.loc 1 119 11 view .LVU5
  40 0004 07EE903A 		vmov	s15, r3	@ int
  41 0008 F8EE677A 		vcvt.f32.u32	s15, s15
  42 000c 374A     		ldr	r2, .L25+4
  43 000e C2ED007A 		vstr.32	s15, [r2]
 120:application/cmd/robot_cmd.c ****     yaw_align_angle = robot_config->gimbal_param.gimbal_offset.yaw_offset * ECD_ANGLE_COEF_DJI;
  44              		.loc 1 120 5 is_stmt 1 view .LVU6
  45              		.loc 1 120 35 is_stmt 0 view .LVU7
  46 0012 374A     		ldr	r2, .L25+8
  47 0014 1268     		ldr	r2, [r2]
  48              		.loc 1 120 63 view .LVU8
  49 0016 D2ED696A 		vldr.32	s13, [r2, #420]
  50              		.loc 1 120 21 view .LVU9
  51 001a 9FED367A 		vldr.32	s14, .L25+12
  52 001e 26EE877A 		vmul.f32	s14, s13, s14
ARM GAS  C:\Users\10542\AppData\Local\Temp\ccSBnHYj.s 			page 4


  53              	.LVL0:
 121:application/cmd/robot_cmd.c ****     if (robot_config->gimbal_param.gimbal_offset.yaw_offset > 4096)                               /
  54              		.loc 1 121 5 is_stmt 1 view .LVU10
  55              		.loc 1 121 8 is_stmt 0 view .LVU11
  56 0022 9FED356A 		vldr.32	s12, .L25+16
  57 0026 F4EEC66A 		vcmpe.f32	s13, s12
  58 002a F1EE10FA 		vmrs	APSR_nzcv, FPSCR
  59 002e 31DD     		ble	.L24
 122:application/cmd/robot_cmd.c ****     {
 123:application/cmd/robot_cmd.c ****         if (angle > yaw_align_angle && angle <= 180.0f + yaw_align_angle)
  60              		.loc 1 123 9 is_stmt 1 view .LVU12
  61              		.loc 1 123 12 is_stmt 0 view .LVU13
  62 0030 F4EEC77A 		vcmpe.f32	s15, s14
  63 0034 F1EE10FA 		vmrs	APSR_nzcv, FPSCR
  64 0038 0EDD     		ble	.L4
  65              		.loc 1 123 56 discriminator 1 view .LVU14
  66 003a DFED306A 		vldr.32	s13, .L25+20
  67 003e 77EE266A 		vadd.f32	s13, s14, s13
  68              		.loc 1 123 37 discriminator 1 view .LVU15
  69 0042 F4EEE67A 		vcmpe.f32	s15, s13
  70 0046 F1EE10FA 		vmrs	APSR_nzcv, FPSCR
  71 004a 05D8     		bhi	.L4
 124:application/cmd/robot_cmd.c ****             chassis_cmd_send.offset_angle = angle - yaw_align_angle;
  72              		.loc 1 124 13 is_stmt 1 view .LVU16
  73              		.loc 1 124 51 is_stmt 0 view .LVU17
  74 004c 77EEC77A 		vsub.f32	s15, s15, s14
  75              		.loc 1 124 43 view .LVU18
  76 0050 2B4B     		ldr	r3, .L25+24
  77 0052 C3ED037A 		vstr.32	s15, [r3, #12]
  78 0056 7047     		bx	lr
  79              	.L4:
 125:application/cmd/robot_cmd.c ****         else if (angle > yaw_align_angle - 180.0f && angle <= yaw_align_angle)
  80              		.loc 1 125 14 is_stmt 1 view .LVU19
  81              		.loc 1 125 42 is_stmt 0 view .LVU20
  82 0058 DFED286A 		vldr.32	s13, .L25+20
  83 005c 77EE666A 		vsub.f32	s13, s14, s13
  84              		.loc 1 125 17 view .LVU21
  85 0060 F4EEE67A 		vcmpe.f32	s15, s13
  86 0064 F1EE10FA 		vmrs	APSR_nzcv, FPSCR
  87 0068 0ADD     		ble	.L8
  88              		.loc 1 125 51 discriminator 1 view .LVU22
  89 006a F4EEC77A 		vcmpe.f32	s15, s14
  90 006e F1EE10FA 		vmrs	APSR_nzcv, FPSCR
  91 0072 05D8     		bhi	.L8
 126:application/cmd/robot_cmd.c ****             chassis_cmd_send.offset_angle = angle - yaw_align_angle;
  92              		.loc 1 126 13 is_stmt 1 view .LVU23
  93              		.loc 1 126 51 is_stmt 0 view .LVU24
  94 0074 77EEC77A 		vsub.f32	s15, s15, s14
  95              		.loc 1 126 43 view .LVU25
  96 0078 214B     		ldr	r3, .L25+24
  97 007a C3ED037A 		vstr.32	s15, [r3, #12]
  98 007e 7047     		bx	lr
  99              	.L8:
 127:application/cmd/robot_cmd.c ****         else
 128:application/cmd/robot_cmd.c ****             chassis_cmd_send.offset_angle = 360.0f - yaw_align_angle + angle;
 100              		.loc 1 128 13 is_stmt 1 view .LVU26
 101              		.loc 1 128 52 is_stmt 0 view .LVU27
ARM GAS  C:\Users\10542\AppData\Local\Temp\ccSBnHYj.s 			page 5


 102 0080 DFED206A 		vldr.32	s13, .L25+28
 103 0084 36EEC77A 		vsub.f32	s14, s13, s14
 104              	.LVL1:
 105              		.loc 1 128 70 view .LVU28
 106 0088 77EE877A 		vadd.f32	s15, s15, s14
 107              		.loc 1 128 43 view .LVU29
 108 008c 1C4B     		ldr	r3, .L25+24
 109 008e C3ED037A 		vstr.32	s15, [r3, #12]
 110 0092 7047     		bx	lr
 111              	.LVL2:
 112              	.L24:
 129:application/cmd/robot_cmd.c ****     }
 130:application/cmd/robot_cmd.c ****     else
 131:application/cmd/robot_cmd.c ****     {
 132:application/cmd/robot_cmd.c ****         if (angle > yaw_align_angle && angle <= 180.0f + yaw_align_angle)
 113              		.loc 1 132 9 is_stmt 1 view .LVU30
 114              		.loc 1 132 12 is_stmt 0 view .LVU31
 115 0094 F4EEC77A 		vcmpe.f32	s15, s14
 116 0098 F1EE10FA 		vmrs	APSR_nzcv, FPSCR
 117 009c 0EDD     		ble	.L11
 118              		.loc 1 132 56 discriminator 1 view .LVU32
 119 009e DFED176A 		vldr.32	s13, .L25+20
 120 00a2 77EE266A 		vadd.f32	s13, s14, s13
 121              		.loc 1 132 37 discriminator 1 view .LVU33
 122 00a6 F4EEE67A 		vcmpe.f32	s15, s13
 123 00aa F1EE10FA 		vmrs	APSR_nzcv, FPSCR
 124 00ae 05D8     		bhi	.L11
 133:application/cmd/robot_cmd.c ****             chassis_cmd_send.offset_angle = angle - yaw_align_angle;
 125              		.loc 1 133 13 is_stmt 1 view .LVU34
 126              		.loc 1 133 51 is_stmt 0 view .LVU35
 127 00b0 77EEC77A 		vsub.f32	s15, s15, s14
 128              		.loc 1 133 43 view .LVU36
 129 00b4 124B     		ldr	r3, .L25+24
 130 00b6 C3ED037A 		vstr.32	s15, [r3, #12]
 131 00ba 7047     		bx	lr
 132              	.L11:
 134:application/cmd/robot_cmd.c ****         else if (angle > 0.0f  && angle <= yaw_align_angle)
 133              		.loc 1 134 14 is_stmt 1 view .LVU37
 134              		.loc 1 134 17 is_stmt 0 view .LVU38
 135 00bc 53B1     		cbz	r3, .L14
 136              		.loc 1 134 32 discriminator 1 view .LVU39
 137 00be F4EEC77A 		vcmpe.f32	s15, s14
 138 00c2 F1EE10FA 		vmrs	APSR_nzcv, FPSCR
 139 00c6 05D8     		bhi	.L14
 135:application/cmd/robot_cmd.c ****             chassis_cmd_send.offset_angle = angle - yaw_align_angle;
 140              		.loc 1 135 13 is_stmt 1 view .LVU40
 141              		.loc 1 135 51 is_stmt 0 view .LVU41
 142 00c8 77EEC77A 		vsub.f32	s15, s15, s14
 143              		.loc 1 135 43 view .LVU42
 144 00cc 0C4B     		ldr	r3, .L25+24
 145 00ce C3ED037A 		vstr.32	s15, [r3, #12]
 146 00d2 7047     		bx	lr
 147              	.L14:
 136:application/cmd/robot_cmd.c ****         else
 137:application/cmd/robot_cmd.c ****             chassis_cmd_send.offset_angle = 360.0f - yaw_align_angle - angle;
 148              		.loc 1 137 13 is_stmt 1 view .LVU43
 149              		.loc 1 137 52 is_stmt 0 view .LVU44
ARM GAS  C:\Users\10542\AppData\Local\Temp\ccSBnHYj.s 			page 6


 150 00d4 DFED0B6A 		vldr.32	s13, .L25+28
 151 00d8 36EEC77A 		vsub.f32	s14, s13, s14
 152              	.LVL3:
 153              		.loc 1 137 70 view .LVU45
 154 00dc 77EE677A 		vsub.f32	s15, s14, s15
 155              		.loc 1 137 43 view .LVU46
 156 00e0 074B     		ldr	r3, .L25+24
 157 00e2 C3ED037A 		vstr.32	s15, [r3, #12]
 138:application/cmd/robot_cmd.c ****     }
 139:application/cmd/robot_cmd.c **** }
 158              		.loc 1 139 1 view .LVU47
 159 00e6 7047     		bx	lr
 160              	.L26:
 161              		.align	2
 162              	.L25:
 163 00e8 00000000 		.word	gimbal_fetch_data
 164 00ec 00000000 		.word	angle.6
 165 00f0 00000000 		.word	robot_config
 166 00f4 ACFF333D 		.word	1026817964
 167 00f8 00008045 		.word	1166016512
 168 00fc 00003443 		.word	1127481344
 169 0100 00000000 		.word	chassis_cmd_send
 170 0104 0000B443 		.word	1135869952
 171              		.cfi_endproc
 172              	.LFE277:
 174              		.section	.text.LimitSetAngle,"ax",%progbits
 175              		.align	1
 176              		.syntax unified
 177              		.thumb
 178              		.thumb_func
 180              	LimitSetAngle:
 181              	.LVL4:
 182              	.LFB278:
 140:application/cmd/robot_cmd.c **** 
 141:application/cmd/robot_cmd.c **** /**
 142:application/cmd/robot_cmd.c ****  * @brief ж†єжНЃgimbal fetch dataињЫи°МyawеТМpitchйЩРеєЕ
 143:application/cmd/robot_cmd.c ****  *        yawиљіиМГеЫідЄЇ[-90,90],pitchиљіиМГеЫідЄЇ[PITCH_MIN_ANGLE,PITCH_MAX_ANGLE]
 144:application/cmd/robot_cmd.c ****  *
 145:application/cmd/robot_cmd.c ****  */
 146:application/cmd/robot_cmd.c **** static void LimitSetAngle(float add_yaw, float add_pitch)
 147:application/cmd/robot_cmd.c **** {
 183              		.loc 1 147 1 is_stmt 1 view -0
 184              		.cfi_startproc
 185              		@ args = 0, pretend = 0, frame = 0
 186              		@ frame_needed = 0, uses_anonymous_args = 0
 187              		@ link register save eliminated.
 148:application/cmd/robot_cmd.c ****     static float bias_angle;    // yawиљіиІТеЇ¶иѓѓеЈЃеАЉ
 188              		.loc 1 148 5 view .LVU49
 149:application/cmd/robot_cmd.c ****     bias_angle = gimbal_cmd_send.yaw + gimbal_fetch_data.gimbal_imu_data.YawTotalAngle;     // yawи
 189              		.loc 1 149 5 view .LVU50
 190              		.loc 1 149 33 is_stmt 0 view .LVU51
 191 0000 2A4B     		ldr	r3, .L47
 192 0002 93ED007A 		vldr.32	s14, [r3]
 193              		.loc 1 149 73 view .LVU52
 194 0006 2A4A     		ldr	r2, .L47+4
 195 0008 D2ED097A 		vldr.32	s15, [r2, #36]
 196              		.loc 1 149 38 view .LVU53
ARM GAS  C:\Users\10542\AppData\Local\Temp\ccSBnHYj.s 			page 7


 197 000c 77EE277A 		vadd.f32	s15, s14, s15
 198              		.loc 1 149 16 view .LVU54
 199 0010 284A     		ldr	r2, .L47+8
 200 0012 C2ED007A 		vstr.32	s15, [r2]
 150:application/cmd/robot_cmd.c ****     // дЇСеП∞иљѓдїґйЩРдљН,еРСеЈ¶/еРСдЄКеБПзІїдЄЇж≠£
 151:application/cmd/robot_cmd.c ****     // if (chassis_cmd_send.offset_angle + fabs(bias_angle) >= 90.0f || gimbal_cmd_send.pitch >= PI
 152:application/cmd/robot_cmd.c ****      if (gimbal_cmd_send.pitch >= robot_config->gimbal_param.gimbal_offset.pitch_max_angle)
 201              		.loc 1 152 6 is_stmt 1 view .LVU55
 202              		.loc 1 152 25 is_stmt 0 view .LVU56
 203 0016 D3ED017A 		vldr.32	s15, [r3, #4]
 204              		.loc 1 152 47 view .LVU57
 205 001a 274B     		ldr	r3, .L47+12
 206 001c 1B68     		ldr	r3, [r3]
 207              		.loc 1 152 75 view .LVU58
 208 001e D3ED6A6A 		vldr.32	s13, [r3, #424]
 209              		.loc 1 152 9 view .LVU59
 210 0022 F4EEE67A 		vcmpe.f32	s15, s13
 211 0026 F1EE10FA 		vmrs	APSR_nzcv, FPSCR
 212 002a 03DB     		blt	.L28
 153:application/cmd/robot_cmd.c ****     { // дЇСеП∞yawиљі/pitchиљіж≠£еРСеБПзІї
 154:application/cmd/robot_cmd.c ****         if (chassis_cmd_send.chassis_mode == CHASSIS_FOLLOW_GIMBAL_YAW){
 213              		.loc 1 154 9 is_stmt 1 view .LVU60
 214              		.loc 1 154 29 is_stmt 0 view .LVU61
 215 002c 234A     		ldr	r2, .L47+16
 216 002e 127D     		ldrb	r2, [r2, #20]	@ zero_extendqisi2
 217              		.loc 1 154 12 view .LVU62
 218 0030 032A     		cmp	r2, #3
 219 0032 0ED0     		beq	.L44
 220              	.L28:
 155:application/cmd/robot_cmd.c **** 
 156:application/cmd/robot_cmd.c ****         if (add_yaw < 0.0f)
 157:application/cmd/robot_cmd.c ****             gimbal_cmd_send.yaw -= add_yaw;
 158:application/cmd/robot_cmd.c **** 
 159:application/cmd/robot_cmd.c ****         if (add_pitch > 0.0f)
 160:application/cmd/robot_cmd.c ****             gimbal_cmd_send.pitch -= add_pitch;
 161:application/cmd/robot_cmd.c ****     }
 162:application/cmd/robot_cmd.c **** }
 163:application/cmd/robot_cmd.c ****     // if (chassis_cmd_send.offset_angle - fabs(bias_angle) <= -90.0f || gimbal_cmd_send.pitch <= P
 164:application/cmd/robot_cmd.c ****     if (gimbal_cmd_send.pitch <= robot_config->gimbal_param.gimbal_offset.pitch_min_angle)
 221              		.loc 1 164 5 is_stmt 1 view .LVU63
 222              		.loc 1 164 24 is_stmt 0 view .LVU64
 223 0034 1D4A     		ldr	r2, .L47
 224 0036 D2ED017A 		vldr.32	s15, [r2, #4]
 225              		.loc 1 164 74 view .LVU65
 226 003a 93ED6B7A 		vldr.32	s14, [r3, #428]
 227              		.loc 1 164 8 view .LVU66
 228 003e F4EEC77A 		vcmpe.f32	s15, s14
 229 0042 F1EE10FA 		vmrs	APSR_nzcv, FPSCR
 230 0046 03D8     		bhi	.L27
 165:application/cmd/robot_cmd.c ****     { // дЇСеП∞yawиљі/pitchиљіиіЯеРСеБПзІї
 166:application/cmd/robot_cmd.c ****         if (chassis_cmd_send.chassis_mode == CHASSIS_FOLLOW_GIMBAL_YAW){
 231              		.loc 1 166 9 is_stmt 1 view .LVU67
 232              		.loc 1 166 29 is_stmt 0 view .LVU68
 233 0048 1C4B     		ldr	r3, .L47+16
 234 004a 1B7D     		ldrb	r3, [r3, #20]	@ zero_extendqisi2
 235              		.loc 1 166 12 view .LVU69
 236 004c 032B     		cmp	r3, #3
ARM GAS  C:\Users\10542\AppData\Local\Temp\ccSBnHYj.s 			page 8


 237 004e 16D0     		beq	.L45
 238              	.L27:
 167:application/cmd/robot_cmd.c ****         if (add_yaw > 0.0f)
 168:application/cmd/robot_cmd.c ****             gimbal_cmd_send.yaw -= add_yaw;
 169:application/cmd/robot_cmd.c ****         
 170:application/cmd/robot_cmd.c ****         if (add_pitch < 0.0f)
 171:application/cmd/robot_cmd.c ****             gimbal_cmd_send.pitch -= add_pitch;    
 172:application/cmd/robot_cmd.c ****     }
 173:application/cmd/robot_cmd.c **** }
 174:application/cmd/robot_cmd.c **** }
 239              		.loc 1 174 1 view .LVU70
 240 0050 7047     		bx	lr
 241              	.L44:
 156:application/cmd/robot_cmd.c ****             gimbal_cmd_send.yaw -= add_yaw;
 242              		.loc 1 156 9 is_stmt 1 view .LVU71
 156:application/cmd/robot_cmd.c ****             gimbal_cmd_send.yaw -= add_yaw;
 243              		.loc 1 156 12 is_stmt 0 view .LVU72
 244 0052 B5EEC00A 		vcmpe.f32	s0, #0
 245 0056 F1EE10FA 		vmrs	APSR_nzcv, FPSCR
 246 005a 0AD4     		bmi	.L46
 247              	.L30:
 159:application/cmd/robot_cmd.c ****             gimbal_cmd_send.pitch -= add_pitch;
 248              		.loc 1 159 9 is_stmt 1 view .LVU73
 159:application/cmd/robot_cmd.c ****             gimbal_cmd_send.pitch -= add_pitch;
 249              		.loc 1 159 12 is_stmt 0 view .LVU74
 250 005c F5EEC00A 		vcmpe.f32	s1, #0
 251 0060 F1EE10FA 		vmrs	APSR_nzcv, FPSCR
 252 0064 E6DD     		ble	.L28
 160:application/cmd/robot_cmd.c ****     }
 253              		.loc 1 160 13 is_stmt 1 view .LVU75
 160:application/cmd/robot_cmd.c ****     }
 254              		.loc 1 160 35 is_stmt 0 view .LVU76
 255 0066 77EEE07A 		vsub.f32	s15, s15, s1
 256 006a 104A     		ldr	r2, .L47
 257 006c C2ED017A 		vstr.32	s15, [r2, #4]
 258 0070 E0E7     		b	.L28
 259              	.L46:
 157:application/cmd/robot_cmd.c **** 
 260              		.loc 1 157 13 is_stmt 1 view .LVU77
 157:application/cmd/robot_cmd.c **** 
 261              		.loc 1 157 33 is_stmt 0 view .LVU78
 262 0072 37EE407A 		vsub.f32	s14, s14, s0
 263 0076 0D4A     		ldr	r2, .L47
 264 0078 82ED007A 		vstr.32	s14, [r2]
 265 007c EEE7     		b	.L30
 266              	.L45:
 167:application/cmd/robot_cmd.c ****             gimbal_cmd_send.yaw -= add_yaw;
 267              		.loc 1 167 9 is_stmt 1 view .LVU79
 167:application/cmd/robot_cmd.c ****             gimbal_cmd_send.yaw -= add_yaw;
 268              		.loc 1 167 12 is_stmt 0 view .LVU80
 269 007e B5EEC00A 		vcmpe.f32	s0, #0
 270 0082 F1EE10FA 		vmrs	APSR_nzcv, FPSCR
 271 0086 05DD     		ble	.L35
 168:application/cmd/robot_cmd.c ****         
 272              		.loc 1 168 13 is_stmt 1 view .LVU81
 168:application/cmd/robot_cmd.c ****         
 273              		.loc 1 168 28 is_stmt 0 view .LVU82
ARM GAS  C:\Users\10542\AppData\Local\Temp\ccSBnHYj.s 			page 9


 274 0088 92ED007A 		vldr.32	s14, [r2]
 168:application/cmd/robot_cmd.c ****         
 275              		.loc 1 168 33 view .LVU83
 276 008c 37EE407A 		vsub.f32	s14, s14, s0
 277 0090 82ED007A 		vstr.32	s14, [r2]
 278              	.L35:
 170:application/cmd/robot_cmd.c ****             gimbal_cmd_send.pitch -= add_pitch;    
 279              		.loc 1 170 9 is_stmt 1 view .LVU84
 170:application/cmd/robot_cmd.c ****             gimbal_cmd_send.pitch -= add_pitch;    
 280              		.loc 1 170 12 is_stmt 0 view .LVU85
 281 0094 F5EEC00A 		vcmpe.f32	s1, #0
 282 0098 F1EE10FA 		vmrs	APSR_nzcv, FPSCR
 283 009c D8D5     		bpl	.L27
 171:application/cmd/robot_cmd.c ****     }
 284              		.loc 1 171 13 is_stmt 1 view .LVU86
 171:application/cmd/robot_cmd.c ****     }
 285              		.loc 1 171 35 is_stmt 0 view .LVU87
 286 009e 77EEE07A 		vsub.f32	s15, s15, s1
 287 00a2 024B     		ldr	r3, .L47
 288 00a4 C3ED017A 		vstr.32	s15, [r3, #4]
 289              		.loc 1 174 1 view .LVU88
 290 00a8 D2E7     		b	.L27
 291              	.L48:
 292 00aa 00BF     		.align	2
 293              	.L47:
 294 00ac 00000000 		.word	gimbal_cmd_send
 295 00b0 00000000 		.word	gimbal_fetch_data
 296 00b4 00000000 		.word	bias_angle.3
 297 00b8 00000000 		.word	robot_config
 298 00bc 00000000 		.word	chassis_cmd_send
 299              		.cfi_endproc
 300              	.LFE278:
 302              		.section	.text.RemoteControlSet,"ax",%progbits
 303              		.align	1
 304              		.syntax unified
 305              		.thumb
 306              		.thumb_func
 308              	RemoteControlSet:
 309              	.LFB279:
 175:application/cmd/robot_cmd.c **** 
 176:application/cmd/robot_cmd.c **** /**
 177:application/cmd/robot_cmd.c ****  * @brief жОІеИґиЊУеЕ•дЄЇйБ•жОІеЩ®(и∞ГиѓХжЧґ)зЪДж®°еЉПеТМжОІеИґйЗПиЃЊзљЃ
 178:application/cmd/robot_cmd.c ****  *
 179:application/cmd/robot_cmd.c ****  */ 
 180:application/cmd/robot_cmd.c **** static float add_yaw_auto, add_pitch_auto;    // дЇСеП∞иЗ™зЮДиІТеЇ¶еҐЮйЗП 
 181:application/cmd/robot_cmd.c **** static int8_t temp, count;
 182:application/cmd/robot_cmd.c **** static void RemoteControlSet()
 183:application/cmd/robot_cmd.c **** {
 310              		.loc 1 183 1 is_stmt 1 view -0
 311              		.cfi_startproc
 312              		@ args = 0, pretend = 0, frame = 0
 313              		@ frame_needed = 0, uses_anonymous_args = 0
 314              		@ link register save eliminated.
 184:application/cmd/robot_cmd.c ****     static float add_yaw, add_pitch; // иІТеЇ¶еҐЮйЗП
 315              		.loc 1 184 5 view .LVU90
 185:application/cmd/robot_cmd.c ****     static shoot_mode_e last_shoot_mode = SHOOT_ZERO_FORCE; 
 316              		.loc 1 185 5 view .LVU91
ARM GAS  C:\Users\10542\AppData\Local\Temp\ccSBnHYj.s 			page 10


 186:application/cmd/robot_cmd.c ****     static float add_auto_pitch_angle=0.0f;
 317              		.loc 1 186 5 view .LVU92
 187:application/cmd/robot_cmd.c ****     static float add_sin = 0.0f;    // дЇСеП∞иѓЖеИЂж®°еЉП
 318              		.loc 1 187 5 view .LVU93
 188:application/cmd/robot_cmd.c ****     
 189:application/cmd/robot_cmd.c **** #ifdef ONE_BOARD
 190:application/cmd/robot_cmd.c ****     // еНХзЛђжОІеИґдЇСеП∞еТМеЇХзЫШ
 191:application/cmd/robot_cmd.c ****     if (switch_is_down(rc_data[TEMP].rc.switch_left))      
 319              		.loc 1 191 5 view .LVU94
 320              		.loc 1 191 9 is_stmt 0 view .LVU95
 321 0000 724B     		ldr	r3, .L75
 322 0002 1B68     		ldr	r3, [r3]
 323 0004 9A7A     		ldrb	r2, [r3, #10]	@ zero_extendqisi2
 324              		.loc 1 191 8 view .LVU96
 325 0006 022A     		cmp	r2, #2
 326 0008 5AD0     		beq	.L64
 327              	.L50:
 192:application/cmd/robot_cmd.c ****     {   // еЈ¶дЊІеЉАеЕ≥зКґжАБ[дЄЛ],еП≥дЊІеЉАеЕ≥зКґжАБдЄНдЄЇ[дЄЛ],еЇХзЫШжЧ†еКЫ,дЇСеП∞йЩАиЮЇдї™ж®°еЉП
 193:application/cmd/robot_cmd.c ****         if (!switch_is_down(rc_data[TEMP].rc.switch_right))
 194:application/cmd/robot_cmd.c ****         {
 195:application/cmd/robot_cmd.c ****             gimbal_cmd_send.gimbal_mode = GIMBAL_GYRO_MODE;
 196:application/cmd/robot_cmd.c ****         }
 197:application/cmd/robot_cmd.c ****         chassis_cmd_send.chassis_mode = CHASSIS_ZERO_FORCE;
 198:application/cmd/robot_cmd.c ****     }
 199:application/cmd/robot_cmd.c **** 
 200:application/cmd/robot_cmd.c ****     if (switch_is_down(rc_data[TEMP].rc.switch_right))      
 328              		.loc 1 200 5 is_stmt 1 view .LVU97
 329              		.loc 1 200 9 is_stmt 0 view .LVU98
 330 000a DA7A     		ldrb	r2, [r3, #11]	@ zero_extendqisi2
 331              		.loc 1 200 8 view .LVU99
 332 000c 022A     		cmp	r2, #2
 333 000e 61D0     		beq	.L65
 334              	.L52:
 201:application/cmd/robot_cmd.c ****     {   // еЈ¶дЊІеЉАеЕ≥зКґжАБдЄНдЄЇ[дЄЛ],еП≥дЊІеЉАеЕ≥зКґжАБдЄЇ[дЄЛ],еЇХзЫШзЉЦз†БеЩ®жОІеИґ,дЇСеП∞жЧ†
 202:application/cmd/robot_cmd.c ****         if (!switch_is_down(rc_data[TEMP].rc.switch_left))
 203:application/cmd/robot_cmd.c ****         {
 204:application/cmd/robot_cmd.c ****             chassis_cmd_send.chassis_mode = CHASSIS_NO_FOLLOW;   
 205:application/cmd/robot_cmd.c ****         }
 206:application/cmd/robot_cmd.c ****         gimbal_cmd_send.gimbal_mode = GIMBAL_ZERO_FORCE;
 207:application/cmd/robot_cmd.c ****     }
 208:application/cmd/robot_cmd.c ****     // зїДеРИжОІеИґеЇХзЫШеТМдЇСеП∞
 209:application/cmd/robot_cmd.c ****     if (switch_is_mid(rc_data[TEMP].rc.switch_right))       
 335              		.loc 1 209 5 is_stmt 1 view .LVU100
 336              		.loc 1 209 9 is_stmt 0 view .LVU101
 337 0010 DA7A     		ldrb	r2, [r3, #11]	@ zero_extendqisi2
 338              		.loc 1 209 8 view .LVU102
 339 0012 032A     		cmp	r2, #3
 340 0014 68D0     		beq	.L66
 341              	.L54:
 210:application/cmd/robot_cmd.c ****     {  
 211:application/cmd/robot_cmd.c ****         // еЈ¶дЊІеЉАеЕ≥зКґжАБ[дЄ≠],еП≥дЊІеЉАеЕ≥зКґжАБдЄЇ[дЄ≠],еЇХзЫШиЈЯйЪПдЇСеП∞
 212:application/cmd/robot_cmd.c ****         if (switch_is_mid(rc_data[TEMP].rc.switch_left))
 213:application/cmd/robot_cmd.c ****             chassis_cmd_send.chassis_mode = CHASSIS_FOLLOW_GIMBAL_YAW;
 214:application/cmd/robot_cmd.c **** 
 215:application/cmd/robot_cmd.c ****         // еЈ¶дЊІеЉАеЕ≥зКґжАБ[дЄК],еП≥дЊІеЉАеЕ≥зКґжАБдЄЇ[дЄ≠],еЇХзЫШе∞ПйЩАиЮЇ
 216:application/cmd/robot_cmd.c ****         if (switch_is_up(rc_data[TEMP].rc.switch_left))
 217:application/cmd/robot_cmd.c ****             chassis_cmd_send.chassis_mode = CHASSIS_ROTATE;
ARM GAS  C:\Users\10542\AppData\Local\Temp\ccSBnHYj.s 			page 11


 218:application/cmd/robot_cmd.c ****         
 219:application/cmd/robot_cmd.c ****         gimbal_cmd_send.gimbal_mode = GIMBAL_GYRO_MODE;
 220:application/cmd/robot_cmd.c ****     }
 221:application/cmd/robot_cmd.c **** 
 222:application/cmd/robot_cmd.c **** #endif
 223:application/cmd/robot_cmd.c **** #ifdef GIMBAL_BOARD
 224:application/cmd/robot_cmd.c ****     if (switch_is_down(rc_data[TEMP].rc.switch_right))      
 225:application/cmd/robot_cmd.c ****     {   // еЈ¶дЊІеЉАеЕ≥зКґжАБдЄНдЄЇ[дЄЛ],еП≥дЊІеЉАеЕ≥зКґжАБдЄЇ[дЄЛ],еЇХзЫШзЉЦз†БеЩ®жОІеИґ,дЇСеП∞жЧ†
 226:application/cmd/robot_cmd.c ****         gimbal_cmd_send.gimbal_mode = GIMBAL_ZERO_FORCE;
 227:application/cmd/robot_cmd.c ****     }
 228:application/cmd/robot_cmd.c **** 
 229:application/cmd/robot_cmd.c ****     if (switch_is_mid(rc_data[TEMP].rc.switch_right))      
 230:application/cmd/robot_cmd.c ****     {   // еЈ¶дЊІеЉАеЕ≥зКґжАБдЄНдЄЇ[дЄЛ],еП≥дЊІеЉАеЕ≥зКґжАБдЄЇ[дЄЛ],еЇХзЫШзЉЦз†БеЩ®жОІеИґ,дЇСеП∞жЧ†
 231:application/cmd/robot_cmd.c ****         gimbal_cmd_send.gimbal_mode = GIMBAL_GYRO_MODE;
 232:application/cmd/robot_cmd.c ****     }
 233:application/cmd/robot_cmd.c **** #endif
 234:application/cmd/robot_cmd.c **** 
 235:application/cmd/robot_cmd.c ****     // дЇСеП∞йЩАиЮЇдї™ж®°еЉП,еєґдЄФиІЖиІЙжЬ™иѓЖеИЂеИ∞зЫЃж†З,зЇѓйБ•жОІеЩ®жЛ®жЭЖжОІеИґ
 236:application/cmd/robot_cmd.c ****     add_yaw = 0.0020f * (float)rc_data[TEMP].rc.rocker_l_;
 342              		.loc 1 236 5 is_stmt 1 view .LVU103
 343              		.loc 1 236 48 is_stmt 0 view .LVU104
 344 0016 B3F90020 		ldrsh	r2, [r3]
 345 001a 07EE102A 		vmov	s14, r2	@ int
 346              		.loc 1 236 25 view .LVU105
 347 001e B8EEC77A 		vcvt.f32.s32	s14, s14
 348              		.loc 1 236 23 view .LVU106
 349 0022 DFED6B7A 		vldr.32	s15, .L75+4
 350 0026 27EE277A 		vmul.f32	s14, s14, s15
 351              		.loc 1 236 13 view .LVU107
 352 002a 6A4A     		ldr	r2, .L75+8
 353 002c 82ED007A 		vstr.32	s14, [r2]
 237:application/cmd/robot_cmd.c ****     add_pitch = 0.0005f * (float)rc_data[TEMP].rc.rocker_l1;
 354              		.loc 1 237 5 is_stmt 1 view .LVU108
 355              		.loc 1 237 50 is_stmt 0 view .LVU109
 356 0030 B3F90220 		ldrsh	r2, [r3, #2]
 357 0034 07EE902A 		vmov	s15, r2	@ int
 358              		.loc 1 237 27 view .LVU110
 359 0038 F8EEE77A 		vcvt.f32.s32	s15, s15
 360              		.loc 1 237 25 view .LVU111
 361 003c DFED666A 		vldr.32	s13, .L75+12
 362 0040 67EEA67A 		vmul.f32	s15, s15, s13
 363              		.loc 1 237 15 view .LVU112
 364 0044 654A     		ldr	r2, .L75+16
 365 0046 C2ED007A 		vstr.32	s15, [r2]
 238:application/cmd/robot_cmd.c **** 
 239:application/cmd/robot_cmd.c ****     // if (robot_state == ROBOT_READY)
 240:application/cmd/robot_cmd.c ****     // { 
 241:application/cmd/robot_cmd.c ****     //     if (gimbal_cmd_send.gimbal_mode == GIMBAL_GYRO_MODE && vision_recv_data->target_state ==
 242:application/cmd/robot_cmd.c ****     //     { // жМЙзЕІжСЗжЭЖзЪДиЊУеЗЇе§Іе∞ПињЫи°МиІТеЇ¶еҐЮйЗП,жЛ®жЭЖеРСеП≥/еРСдЄКдЄЇж≠£
 243:application/cmd/robot_cmd.c ****     //         gimbal_cmd_send.yaw += add_yaw;
 244:application/cmd/robot_cmd.c ****     //         gimbal_cmd_send.pitch += add_pitch;   
 245:application/cmd/robot_cmd.c ****     //     }
 246:application/cmd/robot_cmd.c ****         if (gimbal_cmd_send.gimbal_mode == GIMBAL_GYRO_MODE)
 366              		.loc 1 246 9 is_stmt 1 view .LVU113
 367              		.loc 1 246 28 is_stmt 0 view .LVU114
 368 004a 654A     		ldr	r2, .L75+20
 369 004c 127C     		ldrb	r2, [r2, #16]	@ zero_extendqisi2
ARM GAS  C:\Users\10542\AppData\Local\Temp\ccSBnHYj.s 			page 12


 370              		.loc 1 246 12 view .LVU115
 371 004e 012A     		cmp	r2, #1
 372 0050 5CD0     		beq	.L67
 373              	.L57:
 247:application/cmd/robot_cmd.c ****         { // жМЙзЕІжСЗжЭЖзЪДиЊУеЗЇе§Іе∞ПињЫи°МиІТеЇ¶еҐЮйЗП,жЛ®жЭЖеРСеП≥/еРСдЄКдЄЇж≠£ 
 248:application/cmd/robot_cmd.c ****             gimbal_cmd_send.yaw += add_yaw;
 249:application/cmd/robot_cmd.c ****             gimbal_cmd_send.pitch += add_pitch;   
 250:application/cmd/robot_cmd.c **** 
 251:application/cmd/robot_cmd.c ****             if (vision_recv_data->pitch != 0)
 252:application/cmd/robot_cmd.c ****             {
 253:application/cmd/robot_cmd.c ****                 gimbal_cmd_send.yaw = -vision_recv_data->yaw;
 254:application/cmd/robot_cmd.c ****                 gimbal_cmd_send.pitch = vision_recv_data->pitch;  
 255:application/cmd/robot_cmd.c **** 
 256:application/cmd/robot_cmd.c ****                 add_yaw = -vision_recv_data->yaw;
 257:application/cmd/robot_cmd.c ****                 add_pitch = vision_recv_data->pitch;      
 258:application/cmd/robot_cmd.c **** 
 259:application/cmd/robot_cmd.c ****             } 
 260:application/cmd/robot_cmd.c ****         }
 261:application/cmd/robot_cmd.c **** 
 262:application/cmd/robot_cmd.c ****     //  if (robot_state == ROBOT_READY)
 263:application/cmd/robot_cmd.c ****     // { 
 264:application/cmd/robot_cmd.c ****     //     if (gimbal_cmd_send.gimbal_mode == GIMBAL_GYRO_MODE)
 265:application/cmd/robot_cmd.c ****     //     { // жМЙзЕІжСЗжЭЖзЪДиЊУеЗЇе§Іе∞ПињЫи°МиІТеЇ¶еҐЮйЗП,жЛ®жЭЖеРСеП≥/еРСдЄКдЄЇж≠£ 
 266:application/cmd/robot_cmd.c ****     //         gimbal_cmd_send.mini_yaw += add_yaw;
 267:application/cmd/robot_cmd.c ****     //         gimbal_cmd_send.pitch += add_pitch;   
 268:application/cmd/robot_cmd.c **** 
 269:application/cmd/robot_cmd.c ****     //         if (vision_recv_data->target_state == TARGET_CONVERGING)
 270:application/cmd/robot_cmd.c ****     //         {
 271:application/cmd/robot_cmd.c ****     //             gimbal_cmd_send.mini_yaw = -vision_recv_data->yaw;
 272:application/cmd/robot_cmd.c ****     //             gimbal_cmd_send.pitch = vision_recv_data->pitch;  
 273:application/cmd/robot_cmd.c **** 
 274:application/cmd/robot_cmd.c ****     //             add_yaw = -vision_recv_data->yaw;
 275:application/cmd/robot_cmd.c ****     //             add_pitch = vision_recv_data->pitch;      
 276:application/cmd/robot_cmd.c **** 
 277:application/cmd/robot_cmd.c ****     //         } 
 278:application/cmd/robot_cmd.c ****     //     }
 279:application/cmd/robot_cmd.c ****     // }
 280:application/cmd/robot_cmd.c ****     //     // if (gimbal_cmd_send.gimbal_mode == GIMBAL_GYRO_MODE)
 281:application/cmd/robot_cmd.c ****         // {
 282:application/cmd/robot_cmd.c ****         //     if (count > 2)
 283:application/cmd/robot_cmd.c ****         //     {
 284:application/cmd/robot_cmd.c ****         //         temp++;
 285:application/cmd/robot_cmd.c ****         //         count = 0;
 286:application/cmd/robot_cmd.c ****         //     }
 287:application/cmd/robot_cmd.c ****             
 288:application/cmd/robot_cmd.c ****         //     add_sin += 0.01f * 3.14f;
 289:application/cmd/robot_cmd.c ****         //     add_pitch_auto = 25.0f * arm_sin_f32(add_sin) + 5.0f;
 290:application/cmd/robot_cmd.c ****         //     add_yaw_auto = 360 * abs(temp) / 255;
 291:application/cmd/robot_cmd.c ****             
 292:application/cmd/robot_cmd.c ****         //     if(temp>=255)
 293:application/cmd/robot_cmd.c ****         //     {
 294:application/cmd/robot_cmd.c ****         //         temp = 0;
 295:application/cmd/robot_cmd.c ****                 
 296:application/cmd/robot_cmd.c ****         //     }
 297:application/cmd/robot_cmd.c **** 
 298:application/cmd/robot_cmd.c ****         //     if (add_sin >= 2 * PI)
 299:application/cmd/robot_cmd.c ****         //         add_sin = 0.0f;
ARM GAS  C:\Users\10542\AppData\Local\Temp\ccSBnHYj.s 			page 13


 300:application/cmd/robot_cmd.c **** 
 301:application/cmd/robot_cmd.c ****         //     count++;
 302:application/cmd/robot_cmd.c **** 
 303:application/cmd/robot_cmd.c ****         //     // жМЙзЕІжСЗжЭЖзЪДиЊУеЗЇе§Іе∞ПињЫи°МиІТеЇ¶еҐЮйЗП,жЛ®жЭЖеРСеП≥/еРСдЄКдЄЇж≠£
 304:application/cmd/robot_cmd.c ****         //     gimbal_cmd_send.yaw = add_yaw_auto;
 305:application/cmd/robot_cmd.c **** 
 306:application/cmd/robot_cmd.c ****         //     gimbal_cmd_send.pitch = add_pitch_auto;    
 307:application/cmd/robot_cmd.c **** 
 308:application/cmd/robot_cmd.c ****         
 309:application/cmd/robot_cmd.c ****         //   }
 310:application/cmd/robot_cmd.c ****     // }
 311:application/cmd/robot_cmd.c **** 
 312:application/cmd/robot_cmd.c ****     // // // дЇСеП∞иІТеЇ¶йЩРеєЕ,и¶БжФЊеЬ®еҐЮйЗПдї•еРО
 313:application/cmd/robot_cmd.c ****     // LimitSetAngle(add_yaw, add_pitch);
 314:application/cmd/robot_cmd.c **** 
 315:application/cmd/robot_cmd.c ****     // // еЇХзЫШеПВжХ∞,зЫЃеЙНж≤°жЬЙеК†еЕ•е∞ПйЩАиЮЇ(и∞ГиѓХдЉЉдєОжЪВжЧґж≤°жЬЙењЕи¶Б),з≥їжХ∞дЄЇ2.0m/s(
 316:application/cmd/robot_cmd.c ****     chassis_cmd_send.vx = 3.0f / HALF_RC_CH_MAX * (float)rc_data[TEMP].rc.rocker_r_;    // ж®™зІїжЦ
 374              		.loc 1 316 5 is_stmt 1 view .LVU116
 375              		.loc 1 316 74 is_stmt 0 view .LVU117
 376 0052 B3F90420 		ldrsh	r2, [r3, #4]
 377 0056 07EE902A 		vmov	s15, r2	@ int
 378              		.loc 1 316 51 view .LVU118
 379 005a F8EEE77A 		vcvt.f32.s32	s15, s15
 380              		.loc 1 316 49 view .LVU119
 381 005e 9FED617A 		vldr.32	s14, .L75+24
 382 0062 67EE877A 		vmul.f32	s15, s15, s14
 383              		.loc 1 316 25 view .LVU120
 384 0066 604A     		ldr	r2, .L75+28
 385 0068 C2ED007A 		vstr.32	s15, [r2]
 317:application/cmd/robot_cmd.c ****     chassis_cmd_send.vy = 3.5f / HALF_RC_CH_MAX * (float)rc_data[TEMP].rc.rocker_r1;    // еЙНињЫжЦ
 386              		.loc 1 317 5 is_stmt 1 view .LVU121
 387              		.loc 1 317 74 is_stmt 0 view .LVU122
 388 006c B3F90610 		ldrsh	r1, [r3, #6]
 389 0070 07EE901A 		vmov	s15, r1	@ int
 390              		.loc 1 317 51 view .LVU123
 391 0074 F8EEE77A 		vcvt.f32.s32	s15, s15
 392              		.loc 1 317 49 view .LVU124
 393 0078 9FED5C7A 		vldr.32	s14, .L75+32
 394 007c 67EE877A 		vmul.f32	s15, s15, s14
 395              		.loc 1 317 25 view .LVU125
 396 0080 C2ED017A 		vstr.32	s15, [r2, #4]
 318:application/cmd/robot_cmd.c ****     chassis_cmd_send.wz = 2.5f / HALF_RC_CH_MAX * (float)rc_data[TEMP].rc.rocker_l_;    // жЧЛиљђжЦ
 397              		.loc 1 318 5 is_stmt 1 view .LVU126
 398              		.loc 1 318 74 is_stmt 0 view .LVU127
 399 0084 B3F90010 		ldrsh	r1, [r3]
 400 0088 07EE901A 		vmov	s15, r1	@ int
 401              		.loc 1 318 51 view .LVU128
 402 008c F8EEE77A 		vcvt.f32.s32	s15, s15
 403              		.loc 1 318 49 view .LVU129
 404 0090 9FED577A 		vldr.32	s14, .L75+36
 405 0094 67EE877A 		vmul.f32	s15, s15, s14
 406              		.loc 1 318 25 view .LVU130
 407 0098 C2ED027A 		vstr.32	s15, [r2, #8]
 319:application/cmd/robot_cmd.c **** 
 320:application/cmd/robot_cmd.c ****     // chassis_cmd_send.vx = vision_recv_data->data.speed_vector.vx;
 321:application/cmd/robot_cmd.c ****     // chassis_cmd_send.vy = vision_recv_data->data.speed_vector.vy;
 322:application/cmd/robot_cmd.c ****     // chassis_cmd_send.wz = 0;
ARM GAS  C:\Users\10542\AppData\Local\Temp\ccSBnHYj.s 			page 14


 323:application/cmd/robot_cmd.c ****     // chassis_cmd_send.wz = -vision_recv_data->data.speed_vector.wz;
 324:application/cmd/robot_cmd.c ****     // // еПСе∞ДеПВжХ∞
 325:application/cmd/robot_cmd.c ****     // if (switch_is_mid(rc_data[TEMP].rc.switch_left)) // еП≥дЊІеЉАеЕ≥зКґжАБ[дЄК],еЉєиИ±жЙУеЉА
 326:application/cmd/robot_cmd.c ****     //     ;                                            // еЉєиИ±иИµжЬЇжОІеИґ,еЊЕжЈїеК†servo_motorж
 327:application/cmd/robot_cmd.c ****     // else
 328:application/cmd/robot_cmd.c ****     //     ; // еЉєиИ±иИµжЬЇжОІеИґ,еЊЕжЈїеК†servo_motorж®°еЭЧ,еЕ≥йЧ≠
 329:application/cmd/robot_cmd.c **** 
 330:application/cmd/robot_cmd.c ****     // еП≥дЊІеЉАеЕ≥[дЄ≠],еПСе∞ДеЉАеРѓ
 331:application/cmd/robot_cmd.c ****     if (switch_is_mid(rc_data[TEMP].rc.switch_right)) 
 408              		.loc 1 331 5 is_stmt 1 view .LVU131
 409              		.loc 1 331 9 is_stmt 0 view .LVU132
 410 009c DA7A     		ldrb	r2, [r3, #11]	@ zero_extendqisi2
 411              		.loc 1 331 8 view .LVU133
 412 009e 032A     		cmp	r2, #3
 413 00a0 66D0     		beq	.L68
 414              	.L58:
 332:application/cmd/robot_cmd.c ****     {   // ењЂжЛ®еП≥дЊІеЉАеЕ≥[дЄ≠]->еП≥дЊІеЉАеЕ≥[дЄК]->еП≥дЊІеЉАеЕ≥[дЄ≠],жС©жУ¶иљЃеЉАеРѓ
 333:application/cmd/robot_cmd.c ****         shoot_cmd_send.shoot_mode = SHOOT_ON;
 334:application/cmd/robot_cmd.c ****         if (last_shoot_mode == SHOOT_OFF && shoot_cmd_send.friction_mode == FRICTION_ON)
 335:application/cmd/robot_cmd.c ****             shoot_cmd_send.friction_mode = FRICTION_OFF;
 336:application/cmd/robot_cmd.c ****         else if (last_shoot_mode == SHOOT_OFF && shoot_cmd_send.friction_mode != FRICTION_ON)
 337:application/cmd/robot_cmd.c ****             shoot_cmd_send.friction_mode = FRICTION_ON;
 338:application/cmd/robot_cmd.c ****             
 339:application/cmd/robot_cmd.c ****         // дЊІжЛ®иљЃдЄЛжЛ®,иљђеК®жЛ®зЫШ
 340:application/cmd/robot_cmd.c ****         if (rc_data[TEMP].rc.dial > 500)
 341:application/cmd/robot_cmd.c ****             shoot_cmd_send.load_mode = LOAD_BURSTFIRE;
 342:application/cmd/robot_cmd.c ****         else
 343:application/cmd/robot_cmd.c ****             shoot_cmd_send.load_mode = LOAD_STOP;
 344:application/cmd/robot_cmd.c ****     }
 345:application/cmd/robot_cmd.c ****     
 346:application/cmd/robot_cmd.c ****     // еП≥дЊІеЉАеЕ≥[дЄК],еПСе∞ДеЕ≥йЧ≠
 347:application/cmd/robot_cmd.c ****     if (switch_is_up(rc_data[TEMP].rc.switch_right)) 
 415              		.loc 1 347 5 is_stmt 1 view .LVU134
 416              		.loc 1 347 8 is_stmt 0 view .LVU135
 417 00a2 012A     		cmp	r2, #1
 418 00a4 00F08A80 		beq	.L69
 419              	.L62:
 348:application/cmd/robot_cmd.c ****     {
 349:application/cmd/robot_cmd.c ****         shoot_cmd_send.shoot_mode = SHOOT_OFF;
 350:application/cmd/robot_cmd.c ****     }
 351:application/cmd/robot_cmd.c **** 
 352:application/cmd/robot_cmd.c ****     // еЈ¶еП≥дЊІеЉАеЕ≥еЭЗдЄЇ[дЄЛ],жС©жУ¶иљЃеЕ≥йЧ≠
 353:application/cmd/robot_cmd.c ****     if (switch_is_down(rc_data[TEMP].rc.switch_right))
 420              		.loc 1 353 5 is_stmt 1 view .LVU136
 421              		.loc 1 353 8 is_stmt 0 view .LVU137
 422 00a8 022A     		cmp	r2, #2
 423 00aa 00F08B80 		beq	.L70
 424              	.L63:
 354:application/cmd/robot_cmd.c ****     {
 355:application/cmd/robot_cmd.c ****         shoot_cmd_send.friction_mode = FRICTION_OFF;        
 356:application/cmd/robot_cmd.c ****     }
 357:application/cmd/robot_cmd.c ****     // дњЭзХЩдЄКдЄАжђ°еПСе∞Дж®°еЉП
 358:application/cmd/robot_cmd.c ****     last_shoot_mode = shoot_cmd_send.shoot_mode;
 425              		.loc 1 358 5 is_stmt 1 view .LVU138
 426              		.loc 1 358 37 is_stmt 0 view .LVU139
 427 00ae 514B     		ldr	r3, .L75+40
 428 00b0 1978     		ldrb	r1, [r3]	@ zero_extendqisi2
ARM GAS  C:\Users\10542\AppData\Local\Temp\ccSBnHYj.s 			page 15


 429              		.loc 1 358 21 view .LVU140
 430 00b2 514A     		ldr	r2, .L75+44
 431 00b4 1170     		strb	r1, [r2]
 359:application/cmd/robot_cmd.c **** 
 360:application/cmd/robot_cmd.c ****     // е∞ДйҐСжОІеИґ,еЫЇеЃЪжѓПзІТ1еПС,еРОзї≠еПѓдї•ж†єжНЃеЈ¶дЊІжЛ®иљЃзЪДеАЉе§Іе∞ПеИЗжНҐе∞ДйҐС,
 361:application/cmd/robot_cmd.c ****     shoot_cmd_send.shoot_rate = 16;
 432              		.loc 1 361 5 is_stmt 1 view .LVU141
 433              		.loc 1 361 31 is_stmt 0 view .LVU142
 434 00b6 4FF08342 		mov	r2, #1098907648
 435 00ba C3F80620 		str	r2, [r3, #6]	@ unaligned
 362:application/cmd/robot_cmd.c **** }
 436              		.loc 1 362 1 view .LVU143
 437 00be 7047     		bx	lr
 438              	.L64:
 193:application/cmd/robot_cmd.c ****         {
 439              		.loc 1 193 9 is_stmt 1 view .LVU144
 193:application/cmd/robot_cmd.c ****         {
 440              		.loc 1 193 14 is_stmt 0 view .LVU145
 441 00c0 DA7A     		ldrb	r2, [r3, #11]	@ zero_extendqisi2
 193:application/cmd/robot_cmd.c ****         {
 442              		.loc 1 193 12 view .LVU146
 443 00c2 022A     		cmp	r2, #2
 444 00c4 02D0     		beq	.L51
 195:application/cmd/robot_cmd.c ****         }
 445              		.loc 1 195 13 is_stmt 1 view .LVU147
 195:application/cmd/robot_cmd.c ****         }
 446              		.loc 1 195 41 is_stmt 0 view .LVU148
 447 00c6 464A     		ldr	r2, .L75+20
 448 00c8 0121     		movs	r1, #1
 449 00ca 1174     		strb	r1, [r2, #16]
 450              	.L51:
 197:application/cmd/robot_cmd.c ****     }
 451              		.loc 1 197 9 is_stmt 1 view .LVU149
 197:application/cmd/robot_cmd.c ****     }
 452              		.loc 1 197 39 is_stmt 0 view .LVU150
 453 00cc 464A     		ldr	r2, .L75+28
 454 00ce 0021     		movs	r1, #0
 455 00d0 1175     		strb	r1, [r2, #20]
 456 00d2 9AE7     		b	.L50
 457              	.L65:
 202:application/cmd/robot_cmd.c ****         {
 458              		.loc 1 202 9 is_stmt 1 view .LVU151
 202:application/cmd/robot_cmd.c ****         {
 459              		.loc 1 202 14 is_stmt 0 view .LVU152
 460 00d4 9A7A     		ldrb	r2, [r3, #10]	@ zero_extendqisi2
 202:application/cmd/robot_cmd.c ****         {
 461              		.loc 1 202 12 view .LVU153
 462 00d6 022A     		cmp	r2, #2
 463 00d8 02D0     		beq	.L53
 204:application/cmd/robot_cmd.c ****         }
 464              		.loc 1 204 13 is_stmt 1 view .LVU154
 204:application/cmd/robot_cmd.c ****         }
 465              		.loc 1 204 43 is_stmt 0 view .LVU155
 466 00da 434A     		ldr	r2, .L75+28
 467 00dc 0221     		movs	r1, #2
 468 00de 1175     		strb	r1, [r2, #20]
 469              	.L53:
ARM GAS  C:\Users\10542\AppData\Local\Temp\ccSBnHYj.s 			page 16


 206:application/cmd/robot_cmd.c ****     }
 470              		.loc 1 206 9 is_stmt 1 view .LVU156
 206:application/cmd/robot_cmd.c ****     }
 471              		.loc 1 206 37 is_stmt 0 view .LVU157
 472 00e0 3F4A     		ldr	r2, .L75+20
 473 00e2 0021     		movs	r1, #0
 474 00e4 1174     		strb	r1, [r2, #16]
 475 00e6 93E7     		b	.L52
 476              	.L66:
 212:application/cmd/robot_cmd.c ****             chassis_cmd_send.chassis_mode = CHASSIS_FOLLOW_GIMBAL_YAW;
 477              		.loc 1 212 9 is_stmt 1 view .LVU158
 212:application/cmd/robot_cmd.c ****             chassis_cmd_send.chassis_mode = CHASSIS_FOLLOW_GIMBAL_YAW;
 478              		.loc 1 212 13 is_stmt 0 view .LVU159
 479 00e8 9A7A     		ldrb	r2, [r3, #10]	@ zero_extendqisi2
 212:application/cmd/robot_cmd.c ****             chassis_cmd_send.chassis_mode = CHASSIS_FOLLOW_GIMBAL_YAW;
 480              		.loc 1 212 12 view .LVU160
 481 00ea 032A     		cmp	r2, #3
 482 00ec 06D0     		beq	.L71
 483              	.L55:
 216:application/cmd/robot_cmd.c ****             chassis_cmd_send.chassis_mode = CHASSIS_ROTATE;
 484              		.loc 1 216 9 is_stmt 1 view .LVU161
 216:application/cmd/robot_cmd.c ****             chassis_cmd_send.chassis_mode = CHASSIS_ROTATE;
 485              		.loc 1 216 13 is_stmt 0 view .LVU162
 486 00ee 9A7A     		ldrb	r2, [r3, #10]	@ zero_extendqisi2
 216:application/cmd/robot_cmd.c ****             chassis_cmd_send.chassis_mode = CHASSIS_ROTATE;
 487              		.loc 1 216 12 view .LVU163
 488 00f0 012A     		cmp	r2, #1
 489 00f2 07D0     		beq	.L72
 490              	.L56:
 219:application/cmd/robot_cmd.c ****     }
 491              		.loc 1 219 9 is_stmt 1 view .LVU164
 219:application/cmd/robot_cmd.c ****     }
 492              		.loc 1 219 37 is_stmt 0 view .LVU165
 493 00f4 3A4A     		ldr	r2, .L75+20
 494 00f6 0121     		movs	r1, #1
 495 00f8 1174     		strb	r1, [r2, #16]
 496 00fa 8CE7     		b	.L54
 497              	.L71:
 213:application/cmd/robot_cmd.c **** 
 498              		.loc 1 213 13 is_stmt 1 view .LVU166
 213:application/cmd/robot_cmd.c **** 
 499              		.loc 1 213 43 is_stmt 0 view .LVU167
 500 00fc 3A4A     		ldr	r2, .L75+28
 501 00fe 0321     		movs	r1, #3
 502 0100 1175     		strb	r1, [r2, #20]
 503 0102 F4E7     		b	.L55
 504              	.L72:
 217:application/cmd/robot_cmd.c ****         
 505              		.loc 1 217 13 is_stmt 1 view .LVU168
 217:application/cmd/robot_cmd.c ****         
 506              		.loc 1 217 43 is_stmt 0 view .LVU169
 507 0104 384A     		ldr	r2, .L75+28
 508 0106 0121     		movs	r1, #1
 509 0108 1175     		strb	r1, [r2, #20]
 510 010a F3E7     		b	.L56
 511              	.L67:
 248:application/cmd/robot_cmd.c ****             gimbal_cmd_send.pitch += add_pitch;   
ARM GAS  C:\Users\10542\AppData\Local\Temp\ccSBnHYj.s 			page 17


 512              		.loc 1 248 13 is_stmt 1 view .LVU170
 248:application/cmd/robot_cmd.c ****             gimbal_cmd_send.pitch += add_pitch;   
 513              		.loc 1 248 28 is_stmt 0 view .LVU171
 514 010c 344A     		ldr	r2, .L75+20
 515 010e D2ED006A 		vldr.32	s13, [r2]
 248:application/cmd/robot_cmd.c ****             gimbal_cmd_send.pitch += add_pitch;   
 516              		.loc 1 248 33 view .LVU172
 517 0112 37EE267A 		vadd.f32	s14, s14, s13
 518 0116 82ED007A 		vstr.32	s14, [r2]
 249:application/cmd/robot_cmd.c **** 
 519              		.loc 1 249 13 is_stmt 1 view .LVU173
 249:application/cmd/robot_cmd.c **** 
 520              		.loc 1 249 28 is_stmt 0 view .LVU174
 521 011a 92ED017A 		vldr.32	s14, [r2, #4]
 249:application/cmd/robot_cmd.c **** 
 522              		.loc 1 249 35 view .LVU175
 523 011e 77EE877A 		vadd.f32	s15, s15, s14
 524 0122 C2ED017A 		vstr.32	s15, [r2, #4]
 251:application/cmd/robot_cmd.c ****             {
 525              		.loc 1 251 13 is_stmt 1 view .LVU176
 251:application/cmd/robot_cmd.c ****             {
 526              		.loc 1 251 33 is_stmt 0 view .LVU177
 527 0126 354A     		ldr	r2, .L75+48
 528 0128 1268     		ldr	r2, [r2]
 529 012a D2F80210 		ldr	r1, [r2, #2]	@ unaligned
 251:application/cmd/robot_cmd.c ****             {
 530              		.loc 1 251 16 view .LVU178
 531 012e 07EE901A 		vmov	s15, r1
 532 0132 F5EE407A 		vcmp.f32	s15, #0
 533 0136 F1EE10FA 		vmrs	APSR_nzcv, FPSCR
 534 013a 8AD0     		beq	.L57
 253:application/cmd/robot_cmd.c ****                 gimbal_cmd_send.pitch = vision_recv_data->pitch;  
 535              		.loc 1 253 17 is_stmt 1 view .LVU179
 253:application/cmd/robot_cmd.c ****                 gimbal_cmd_send.pitch = vision_recv_data->pitch;  
 536              		.loc 1 253 56 is_stmt 0 view .LVU180
 537 013c D2F80610 		ldr	r1, [r2, #6]	@ unaligned
 253:application/cmd/robot_cmd.c ****                 gimbal_cmd_send.pitch = vision_recv_data->pitch;  
 538              		.loc 1 253 39 view .LVU181
 539 0140 07EE901A 		vmov	s15, r1
 540 0144 F1EE677A 		vneg.f32	s15, s15
 253:application/cmd/robot_cmd.c ****                 gimbal_cmd_send.pitch = vision_recv_data->pitch;  
 541              		.loc 1 253 37 view .LVU182
 542 0148 2549     		ldr	r1, .L75+20
 543 014a C1ED007A 		vstr.32	s15, [r1]
 254:application/cmd/robot_cmd.c **** 
 544              		.loc 1 254 17 is_stmt 1 view .LVU183
 254:application/cmd/robot_cmd.c **** 
 545              		.loc 1 254 57 is_stmt 0 view .LVU184
 546 014e D2F80200 		ldr	r0, [r2, #2]	@ unaligned
 254:application/cmd/robot_cmd.c **** 
 547              		.loc 1 254 39 view .LVU185
 548 0152 4860     		str	r0, [r1, #4]	@ float
 256:application/cmd/robot_cmd.c ****                 add_pitch = vision_recv_data->pitch;      
 549              		.loc 1 256 17 is_stmt 1 view .LVU186
 256:application/cmd/robot_cmd.c ****                 add_pitch = vision_recv_data->pitch;      
 550              		.loc 1 256 44 is_stmt 0 view .LVU187
 551 0154 D2F80610 		ldr	r1, [r2, #6]	@ unaligned
ARM GAS  C:\Users\10542\AppData\Local\Temp\ccSBnHYj.s 			page 18


 256:application/cmd/robot_cmd.c ****                 add_pitch = vision_recv_data->pitch;      
 552              		.loc 1 256 27 view .LVU188
 553 0158 07EE901A 		vmov	s15, r1
 554 015c F1EE677A 		vneg.f32	s15, s15
 256:application/cmd/robot_cmd.c ****                 add_pitch = vision_recv_data->pitch;      
 555              		.loc 1 256 25 view .LVU189
 556 0160 1C49     		ldr	r1, .L75+8
 557 0162 C1ED007A 		vstr.32	s15, [r1]
 257:application/cmd/robot_cmd.c **** 
 558              		.loc 1 257 17 is_stmt 1 view .LVU190
 257:application/cmd/robot_cmd.c **** 
 559              		.loc 1 257 45 is_stmt 0 view .LVU191
 560 0166 D2F80210 		ldr	r1, [r2, #2]	@ unaligned
 257:application/cmd/robot_cmd.c **** 
 561              		.loc 1 257 27 view .LVU192
 562 016a 1C4A     		ldr	r2, .L75+16
 563 016c 1160     		str	r1, [r2]	@ float
 564 016e 70E7     		b	.L57
 565              	.L68:
 333:application/cmd/robot_cmd.c ****         if (last_shoot_mode == SHOOT_OFF && shoot_cmd_send.friction_mode == FRICTION_ON)
 566              		.loc 1 333 9 is_stmt 1 view .LVU193
 333:application/cmd/robot_cmd.c ****         if (last_shoot_mode == SHOOT_OFF && shoot_cmd_send.friction_mode == FRICTION_ON)
 567              		.loc 1 333 35 is_stmt 0 view .LVU194
 568 0170 2049     		ldr	r1, .L75+40
 569 0172 0220     		movs	r0, #2
 570 0174 0870     		strb	r0, [r1]
 334:application/cmd/robot_cmd.c ****             shoot_cmd_send.friction_mode = FRICTION_OFF;
 571              		.loc 1 334 9 is_stmt 1 view .LVU195
 334:application/cmd/robot_cmd.c ****             shoot_cmd_send.friction_mode = FRICTION_OFF;
 572              		.loc 1 334 29 is_stmt 0 view .LVU196
 573 0176 2049     		ldr	r1, .L75+44
 574 0178 0978     		ldrb	r1, [r1]	@ zero_extendqisi2
 334:application/cmd/robot_cmd.c ****             shoot_cmd_send.friction_mode = FRICTION_OFF;
 575              		.loc 1 334 12 view .LVU197
 576 017a 0129     		cmp	r1, #1
 577 017c 0AD0     		beq	.L73
 578              	.L59:
 336:application/cmd/robot_cmd.c ****             shoot_cmd_send.friction_mode = FRICTION_ON;
 579              		.loc 1 336 14 is_stmt 1 view .LVU198
 336:application/cmd/robot_cmd.c ****             shoot_cmd_send.friction_mode = FRICTION_ON;
 580              		.loc 1 336 17 is_stmt 0 view .LVU199
 581 017e 0129     		cmp	r1, #1
 582 0180 10D0     		beq	.L74
 583              	.L60:
 340:application/cmd/robot_cmd.c ****             shoot_cmd_send.load_mode = LOAD_BURSTFIRE;
 584              		.loc 1 340 9 is_stmt 1 view .LVU200
 340:application/cmd/robot_cmd.c ****             shoot_cmd_send.load_mode = LOAD_BURSTFIRE;
 585              		.loc 1 340 29 is_stmt 0 view .LVU201
 586 0182 B3F90830 		ldrsh	r3, [r3, #8]
 340:application/cmd/robot_cmd.c ****             shoot_cmd_send.load_mode = LOAD_BURSTFIRE;
 587              		.loc 1 340 12 view .LVU202
 588 0186 B3F5FA7F 		cmp	r3, #500
 589 018a 13DD     		ble	.L61
 341:application/cmd/robot_cmd.c ****         else
 590              		.loc 1 341 13 is_stmt 1 view .LVU203
 341:application/cmd/robot_cmd.c ****         else
 591              		.loc 1 341 38 is_stmt 0 view .LVU204
ARM GAS  C:\Users\10542\AppData\Local\Temp\ccSBnHYj.s 			page 19


 592 018c 194B     		ldr	r3, .L75+40
 593 018e 0421     		movs	r1, #4
 594 0190 5970     		strb	r1, [r3, #1]
 595 0192 86E7     		b	.L58
 596              	.L73:
 334:application/cmd/robot_cmd.c ****             shoot_cmd_send.friction_mode = FRICTION_OFF;
 597              		.loc 1 334 59 discriminator 1 view .LVU205
 598 0194 1748     		ldr	r0, .L75+40
 599 0196 C078     		ldrb	r0, [r0, #3]	@ zero_extendqisi2
 334:application/cmd/robot_cmd.c ****             shoot_cmd_send.friction_mode = FRICTION_OFF;
 600              		.loc 1 334 42 discriminator 1 view .LVU206
 601 0198 0128     		cmp	r0, #1
 602 019a F0D1     		bne	.L59
 335:application/cmd/robot_cmd.c ****         else if (last_shoot_mode == SHOOT_OFF && shoot_cmd_send.friction_mode != FRICTION_ON)
 603              		.loc 1 335 13 is_stmt 1 view .LVU207
 335:application/cmd/robot_cmd.c ****         else if (last_shoot_mode == SHOOT_OFF && shoot_cmd_send.friction_mode != FRICTION_ON)
 604              		.loc 1 335 42 is_stmt 0 view .LVU208
 605 019c 1549     		ldr	r1, .L75+40
 606 019e 0020     		movs	r0, #0
 607 01a0 C870     		strb	r0, [r1, #3]
 608 01a2 EEE7     		b	.L60
 609              	.L74:
 336:application/cmd/robot_cmd.c ****             shoot_cmd_send.friction_mode = FRICTION_ON;
 610              		.loc 1 336 64 discriminator 1 view .LVU209
 611 01a4 1349     		ldr	r1, .L75+40
 612 01a6 C978     		ldrb	r1, [r1, #3]	@ zero_extendqisi2
 336:application/cmd/robot_cmd.c ****             shoot_cmd_send.friction_mode = FRICTION_ON;
 613              		.loc 1 336 47 discriminator 1 view .LVU210
 614 01a8 0129     		cmp	r1, #1
 615 01aa EAD0     		beq	.L60
 337:application/cmd/robot_cmd.c ****             
 616              		.loc 1 337 13 is_stmt 1 view .LVU211
 337:application/cmd/robot_cmd.c ****             
 617              		.loc 1 337 42 is_stmt 0 view .LVU212
 618 01ac 1149     		ldr	r1, .L75+40
 619 01ae 0120     		movs	r0, #1
 620 01b0 C870     		strb	r0, [r1, #3]
 621 01b2 E6E7     		b	.L60
 622              	.L61:
 343:application/cmd/robot_cmd.c ****     }
 623              		.loc 1 343 13 is_stmt 1 view .LVU213
 343:application/cmd/robot_cmd.c ****     }
 624              		.loc 1 343 38 is_stmt 0 view .LVU214
 625 01b4 0F4B     		ldr	r3, .L75+40
 626 01b6 0021     		movs	r1, #0
 627 01b8 5970     		strb	r1, [r3, #1]
 628 01ba 72E7     		b	.L58
 629              	.L69:
 349:application/cmd/robot_cmd.c ****     }
 630              		.loc 1 349 9 is_stmt 1 view .LVU215
 349:application/cmd/robot_cmd.c ****     }
 631              		.loc 1 349 35 is_stmt 0 view .LVU216
 632 01bc 0D4B     		ldr	r3, .L75+40
 633 01be 0121     		movs	r1, #1
 634 01c0 1970     		strb	r1, [r3]
 635 01c2 71E7     		b	.L62
 636              	.L70:
ARM GAS  C:\Users\10542\AppData\Local\Temp\ccSBnHYj.s 			page 20


 355:application/cmd/robot_cmd.c ****     }
 637              		.loc 1 355 9 is_stmt 1 view .LVU217
 355:application/cmd/robot_cmd.c ****     }
 638              		.loc 1 355 38 is_stmt 0 view .LVU218
 639 01c4 0B4B     		ldr	r3, .L75+40
 640 01c6 0022     		movs	r2, #0
 641 01c8 DA70     		strb	r2, [r3, #3]
 642 01ca 70E7     		b	.L63
 643              	.L76:
 644              		.align	2
 645              	.L75:
 646 01cc 00000000 		.word	rc_data
 647 01d0 6F12033B 		.word	990057071
 648 01d4 00000000 		.word	add_yaw.2
 649 01d8 6F12033A 		.word	973279855
 650 01dc 00000000 		.word	add_pitch.1
 651 01e0 00000000 		.word	gimbal_cmd_send
 652 01e4 09F2943B 		.word	999617033
 653 01e8 00000000 		.word	chassis_cmd_send
 654 01ec 0BC5AD3B 		.word	1001243915
 655 01f0 103E783B 		.word	997735952
 656 01f4 00000000 		.word	shoot_cmd_send
 657 01f8 00000000 		.word	last_shoot_mode.0
 658 01fc 00000000 		.word	vision_recv_data
 659              		.cfi_endproc
 660              	.LFE279:
 662              		.section	.text.MouseKeySet,"ax",%progbits
 663              		.align	1
 664              		.syntax unified
 665              		.thumb
 666              		.thumb_func
 668              	MouseKeySet:
 669              	.LFB280:
 363:application/cmd/robot_cmd.c **** 
 364:application/cmd/robot_cmd.c **** /**
 365:application/cmd/robot_cmd.c ****  * @brief иЊУеЕ•дЄЇйФЃйЉ†жЧґж®°еЉПеТМжОІеИґйЗПиЃЊзљЃ
 366:application/cmd/robot_cmd.c ****  *
 367:application/cmd/robot_cmd.c ****  */
 368:application/cmd/robot_cmd.c **** static void MouseKeySet()
 369:application/cmd/robot_cmd.c **** {
 670              		.loc 1 369 1 is_stmt 1 view -0
 671              		.cfi_startproc
 672              		@ args = 0, pretend = 0, frame = 0
 673              		@ frame_needed = 0, uses_anonymous_args = 0
 674 0000 10B5     		push	{r4, lr}
 675              	.LCFI0:
 676              		.cfi_def_cfa_offset 8
 677              		.cfi_offset 4, -8
 678              		.cfi_offset 14, -4
 370:application/cmd/robot_cmd.c ****     static float add_yaw, add_pitch; // иІТеЇ¶еҐЮйЗП
 679              		.loc 1 370 5 view .LVU220
 371:application/cmd/robot_cmd.c ****     add_yaw = (float)rc_data[TEMP].mouse.x / 660 * 10; // з≥їжХ∞еЊЕжµЛ
 680              		.loc 1 371 5 view .LVU221
 681              		.loc 1 371 29 is_stmt 0 view .LVU222
 682 0002 504C     		ldr	r4, .L97
 683 0004 2368     		ldr	r3, [r4]
 684              		.loc 1 371 41 view .LVU223
ARM GAS  C:\Users\10542\AppData\Local\Temp\ccSBnHYj.s 			page 21


 685 0006 B3F90C20 		ldrsh	r2, [r3, #12]
 686 000a 07EE902A 		vmov	s15, r2	@ int
 687              		.loc 1 371 15 view .LVU224
 688 000e F8EEE77A 		vcvt.f32.s32	s15, s15
 689              		.loc 1 371 44 view .LVU225
 690 0012 DFED4D6A 		vldr.32	s13, .L97+4
 691 0016 87EEA60A 		vdiv.f32	s0, s15, s13
 692              		.loc 1 371 50 view .LVU226
 693 001a B2EE047A 		vmov.f32	s14, #1.0e+1
 694 001e 20EE070A 		vmul.f32	s0, s0, s14
 695              		.loc 1 371 13 view .LVU227
 696 0022 4A4A     		ldr	r2, .L97+8
 697 0024 82ED000A 		vstr.32	s0, [r2]
 372:application/cmd/robot_cmd.c ****     add_pitch = -(float)rc_data[TEMP].mouse.y / 660 * 10;
 698              		.loc 1 372 5 is_stmt 1 view .LVU228
 699              		.loc 1 372 44 is_stmt 0 view .LVU229
 700 0028 B3F90E20 		ldrsh	r2, [r3, #14]
 701 002c 07EE902A 		vmov	s15, r2	@ int
 702              		.loc 1 372 18 view .LVU230
 703 0030 F8EEE77A 		vcvt.f32.s32	s15, s15
 704              		.loc 1 372 17 view .LVU231
 705 0034 F1EE677A 		vneg.f32	s15, s15
 706              		.loc 1 372 47 view .LVU232
 707 0038 C7EEA60A 		vdiv.f32	s1, s15, s13
 708              		.loc 1 372 53 view .LVU233
 709 003c 60EE870A 		vmul.f32	s1, s1, s14
 710              		.loc 1 372 15 view .LVU234
 711 0040 434A     		ldr	r2, .L97+12
 712 0042 C2ED000A 		vstr.32	s1, [r2]
 373:application/cmd/robot_cmd.c **** 
 374:application/cmd/robot_cmd.c ****     chassis_cmd_send.vx = rc_data[TEMP].key[KEY_PRESS].a * 300 - rc_data[TEMP].key[KEY_PRESS].d * 3
 713              		.loc 1 374 5 is_stmt 1 view .LVU235
 714              		.loc 1 374 55 is_stmt 0 view .LVU236
 715 0046 9A7C     		ldrb	r2, [r3, #18]	@ zero_extendqisi2
 716 0048 C2F3C003 		ubfx	r3, r2, #3, #1
 717              		.loc 1 374 94 view .LVU237
 718 004c C2F38001 		ubfx	r1, r2, #2, #1
 719              		.loc 1 374 64 view .LVU238
 720 0050 5B1A     		subs	r3, r3, r1
 721 0052 4FF49670 		mov	r0, #300
 722 0056 00FB03F3 		mul	r3, r0, r3
 723              		.loc 1 374 25 view .LVU239
 724 005a 3E49     		ldr	r1, .L97+16
 725 005c 07EE903A 		vmov	s15, r3	@ int
 726 0060 F8EEE77A 		vcvt.f32.s32	s15, s15
 727 0064 C1ED007A 		vstr.32	s15, [r1]
 375:application/cmd/robot_cmd.c ****     chassis_cmd_send.vy = rc_data[TEMP].key[KEY_PRESS].w * 300 - rc_data[TEMP].key[KEY_PRESS].s * 3
 728              		.loc 1 375 5 is_stmt 1 view .LVU240
 729              		.loc 1 375 55 is_stmt 0 view .LVU241
 730 0068 02F00103 		and	r3, r2, #1
 731              		.loc 1 375 94 view .LVU242
 732 006c C2F34002 		ubfx	r2, r2, #1, #1
 733              		.loc 1 375 64 view .LVU243
 734 0070 9B1A     		subs	r3, r3, r2
 735 0072 00FB03F3 		mul	r3, r0, r3
 736              		.loc 1 375 25 view .LVU244
 737 0076 07EE903A 		vmov	s15, r3	@ int
ARM GAS  C:\Users\10542\AppData\Local\Temp\ccSBnHYj.s 			page 22


 738 007a F8EEE77A 		vcvt.f32.s32	s15, s15
 739 007e C1ED017A 		vstr.32	s15, [r1, #4]
 376:application/cmd/robot_cmd.c **** 
 377:application/cmd/robot_cmd.c ****     gimbal_cmd_send.yaw += add_yaw;
 740              		.loc 1 377 5 is_stmt 1 view .LVU245
 741              		.loc 1 377 20 is_stmt 0 view .LVU246
 742 0082 354B     		ldr	r3, .L97+20
 743 0084 D3ED007A 		vldr.32	s15, [r3]
 744              		.loc 1 377 25 view .LVU247
 745 0088 70EE277A 		vadd.f32	s15, s0, s15
 746 008c C3ED007A 		vstr.32	s15, [r3]
 378:application/cmd/robot_cmd.c ****     gimbal_cmd_send.pitch += add_pitch;
 747              		.loc 1 378 5 is_stmt 1 view .LVU248
 748              		.loc 1 378 20 is_stmt 0 view .LVU249
 749 0090 D3ED017A 		vldr.32	s15, [r3, #4]
 750              		.loc 1 378 27 view .LVU250
 751 0094 70EEA77A 		vadd.f32	s15, s1, s15
 752 0098 C3ED017A 		vstr.32	s15, [r3, #4]
 379:application/cmd/robot_cmd.c **** 
 380:application/cmd/robot_cmd.c ****     // дЇСеП∞иІТеЇ¶йЩРеєЕ,и¶БжФЊеЬ®еҐЮйЗПдї•еРО
 381:application/cmd/robot_cmd.c ****     LimitSetAngle(add_yaw, add_pitch);
 753              		.loc 1 381 5 is_stmt 1 view .LVU251
 754 009c FFF7FEFF 		bl	LimitSetAngle
 755              	.LVL5:
 382:application/cmd/robot_cmd.c **** 
 383:application/cmd/robot_cmd.c ****     switch (rc_data[TEMP].key_count[KEY_PRESS][Key_G] % 2) // GйФЃиЃЊзљЃж®°еЉП
 756              		.loc 1 383 5 view .LVU252
 757              		.loc 1 383 20 is_stmt 0 view .LVU253
 758 00a0 2268     		ldr	r2, [r4]
 759              		.loc 1 383 47 view .LVU254
 760 00a2 92F82230 		ldrb	r3, [r2, #34]	@ zero_extendqisi2
 761              		.loc 1 383 5 view .LVU255
 762 00a6 13F00103 		ands	r3, r3, #1
 763 00aa 07D0     		beq	.L78
 764 00ac 03BB     		cbnz	r3, .L79
 384:application/cmd/robot_cmd.c ****     {
 385:application/cmd/robot_cmd.c ****     case 0:
 386:application/cmd/robot_cmd.c ****         chassis_cmd_send.chassis_mode = CHASSIS_FOLLOW_GIMBAL_YAW;
 387:application/cmd/robot_cmd.c ****         gimbal_cmd_send.gimbal_mode = GIMBAL_GYRO_MODE;
 388:application/cmd/robot_cmd.c ****         break;
 389:application/cmd/robot_cmd.c ****     case 1:
 390:application/cmd/robot_cmd.c ****         chassis_cmd_send.chassis_mode = CHASSIS_ROTATE;
 391:application/cmd/robot_cmd.c ****         gimbal_cmd_send.gimbal_mode = GIMBAL_GYRO_MODE;
 392:application/cmd/robot_cmd.c ****         break;
 393:application/cmd/robot_cmd.c ****     default:
 394:application/cmd/robot_cmd.c ****         chassis_cmd_send.chassis_mode = CHASSIS_FOLLOW_GIMBAL_YAW;
 765              		.loc 1 394 9 is_stmt 1 view .LVU256
 766              		.loc 1 394 39 is_stmt 0 view .LVU257
 767 00ae 294B     		ldr	r3, .L97+16
 768 00b0 0321     		movs	r1, #3
 769 00b2 1975     		strb	r1, [r3, #20]
 395:application/cmd/robot_cmd.c ****         gimbal_cmd_send.gimbal_mode = GIMBAL_GYRO_MODE;
 770              		.loc 1 395 9 is_stmt 1 view .LVU258
 771              		.loc 1 395 37 is_stmt 0 view .LVU259
 772 00b4 284B     		ldr	r3, .L97+20
 773 00b6 0121     		movs	r1, #1
 774 00b8 1974     		strb	r1, [r3, #16]
ARM GAS  C:\Users\10542\AppData\Local\Temp\ccSBnHYj.s 			page 23


 396:application/cmd/robot_cmd.c ****         break;
 775              		.loc 1 396 9 is_stmt 1 view .LVU260
 776 00ba 05E0     		b	.L81
 777              	.L78:
 386:application/cmd/robot_cmd.c ****         gimbal_cmd_send.gimbal_mode = GIMBAL_GYRO_MODE;
 778              		.loc 1 386 9 view .LVU261
 386:application/cmd/robot_cmd.c ****         gimbal_cmd_send.gimbal_mode = GIMBAL_GYRO_MODE;
 779              		.loc 1 386 39 is_stmt 0 view .LVU262
 780 00bc 254B     		ldr	r3, .L97+16
 781 00be 0321     		movs	r1, #3
 782 00c0 1975     		strb	r1, [r3, #20]
 387:application/cmd/robot_cmd.c ****         break;
 783              		.loc 1 387 9 is_stmt 1 view .LVU263
 387:application/cmd/robot_cmd.c ****         break;
 784              		.loc 1 387 37 is_stmt 0 view .LVU264
 785 00c2 254B     		ldr	r3, .L97+20
 786 00c4 0121     		movs	r1, #1
 787 00c6 1974     		strb	r1, [r3, #16]
 388:application/cmd/robot_cmd.c ****     case 1:
 788              		.loc 1 388 9 is_stmt 1 view .LVU265
 789              	.L81:
 397:application/cmd/robot_cmd.c ****     }
 398:application/cmd/robot_cmd.c ****     // switch (rc_data[TEMP].key_count[KEY_PRESS][Key_Z] % 3) // ZйФЃиЃЊзљЃеЉєйАЯ
 399:application/cmd/robot_cmd.c ****     // {
 400:application/cmd/robot_cmd.c ****     // case 0:
 401:application/cmd/robot_cmd.c ****     //     shoot_cmd_send.bullet_speed = 15;
 402:application/cmd/robot_cmd.c ****     //     break;
 403:application/cmd/robot_cmd.c ****     // case 1:
 404:application/cmd/robot_cmd.c ****     //     shoot_cmd_send.bullet_speed = 18;
 405:application/cmd/robot_cmd.c ****     //     break;
 406:application/cmd/robot_cmd.c ****     // default:
 407:application/cmd/robot_cmd.c ****     //     shoot_cmd_send.bullet_speed = 30;
 408:application/cmd/robot_cmd.c ****     //     break;
 409:application/cmd/robot_cmd.c ****     // }
 410:application/cmd/robot_cmd.c ****     // switch (rc_data[TEMP].key_count[KEY_PRESS][Key_E] % 4) // EйФЃиЃЊзљЃеПСе∞Дж®°еЉП
 411:application/cmd/robot_cmd.c ****     // {
 412:application/cmd/robot_cmd.c ****     // case 0:
 413:application/cmd/robot_cmd.c ****     //     shoot_cmd_send.load_mode = LOAD_STOP;
 414:application/cmd/robot_cmd.c ****     //     break;
 415:application/cmd/robot_cmd.c ****     // case 1:
 416:application/cmd/robot_cmd.c ****     //     shoot_cmd_send.load_mode = LOAD_1_BULLET;
 417:application/cmd/robot_cmd.c ****     //     break;
 418:application/cmd/robot_cmd.c ****     // case 2:
 419:application/cmd/robot_cmd.c ****     //     shoot_cmd_send.load_mode = LOAD_3_BULLET;
 420:application/cmd/robot_cmd.c ****     //     break;
 421:application/cmd/robot_cmd.c ****     // default:
 422:application/cmd/robot_cmd.c ****     //     shoot_cmd_send.load_mode = LOAD_BURSTFIRE;
 423:application/cmd/robot_cmd.c ****     //     break;
 424:application/cmd/robot_cmd.c ****     // }
 425:application/cmd/robot_cmd.c **** 
 426:application/cmd/robot_cmd.c ****     switch (rc_data[TEMP].key_count[KEY_PRESS][Key_R] % 2) // RйФЃеЉАеЕ≥еЉєиИ±
 790              		.loc 1 426 5 view .LVU266
 791              		.loc 1 426 47 is_stmt 0 view .LVU267
 792 00c8 92F82030 		ldrb	r3, [r2, #32]	@ zero_extendqisi2
 793              		.loc 1 426 5 view .LVU268
 794 00cc 13F0010F 		tst	r3, #1
 795 00d0 14D1     		bne	.L82
ARM GAS  C:\Users\10542\AppData\Local\Temp\ccSBnHYj.s 			page 24


 427:application/cmd/robot_cmd.c ****     {
 428:application/cmd/robot_cmd.c ****     case 0:
 429:application/cmd/robot_cmd.c ****         shoot_cmd_send.lid_mode = LID_OPEN;
 796              		.loc 1 429 9 is_stmt 1 view .LVU269
 797              		.loc 1 429 33 is_stmt 0 view .LVU270
 798 00d2 224B     		ldr	r3, .L97+24
 799 00d4 0021     		movs	r1, #0
 800 00d6 9970     		strb	r1, [r3, #2]
 430:application/cmd/robot_cmd.c ****         break;
 801              		.loc 1 430 9 is_stmt 1 view .LVU271
 802              	.L83:
 431:application/cmd/robot_cmd.c ****     default:
 432:application/cmd/robot_cmd.c ****         shoot_cmd_send.lid_mode = LID_CLOSE;
 433:application/cmd/robot_cmd.c ****         break;
 434:application/cmd/robot_cmd.c ****     }
 435:application/cmd/robot_cmd.c **** 
 436:application/cmd/robot_cmd.c ****     switch (rc_data[TEMP].key_count[KEY_PRESS][Key_F] % 2) // FйФЃеЉАеЕ≥жС©жУ¶иљЃ
 803              		.loc 1 436 5 view .LVU272
 804              		.loc 1 436 47 is_stmt 0 view .LVU273
 805 00d8 92F82130 		ldrb	r3, [r2, #33]	@ zero_extendqisi2
 806              		.loc 1 436 5 view .LVU274
 807 00dc 13F00103 		ands	r3, r3, #1
 808 00e0 10D0     		beq	.L84
 809 00e2 CBB9     		cbnz	r3, .L85
 437:application/cmd/robot_cmd.c ****     {
 438:application/cmd/robot_cmd.c ****     case 0:
 439:application/cmd/robot_cmd.c ****         shoot_cmd_send.shoot_mode = SHOOT_ON;
 440:application/cmd/robot_cmd.c ****         shoot_cmd_send.friction_mode = FRICTION_OFF;
 441:application/cmd/robot_cmd.c ****         break;
 442:application/cmd/robot_cmd.c ****     case 1:
 443:application/cmd/robot_cmd.c ****         shoot_cmd_send.shoot_mode = SHOOT_ON;
 444:application/cmd/robot_cmd.c ****         shoot_cmd_send.friction_mode = FRICTION_ON;
 445:application/cmd/robot_cmd.c ****         break;    
 446:application/cmd/robot_cmd.c ****     default:
 447:application/cmd/robot_cmd.c ****         shoot_cmd_send.shoot_mode = SHOOT_ON;
 810              		.loc 1 447 9 is_stmt 1 view .LVU275
 811              		.loc 1 447 35 is_stmt 0 view .LVU276
 812 00e4 1D4B     		ldr	r3, .L97+24
 813 00e6 0221     		movs	r1, #2
 814 00e8 1970     		strb	r1, [r3]
 448:application/cmd/robot_cmd.c ****         shoot_cmd_send.friction_mode = FRICTION_OFF;
 815              		.loc 1 448 9 is_stmt 1 view .LVU277
 816              		.loc 1 448 38 is_stmt 0 view .LVU278
 817 00ea 0021     		movs	r1, #0
 818 00ec D970     		strb	r1, [r3, #3]
 449:application/cmd/robot_cmd.c ****         break;
 819              		.loc 1 449 9 is_stmt 1 view .LVU279
 820 00ee 0EE0     		b	.L87
 821              	.L79:
 390:application/cmd/robot_cmd.c ****         gimbal_cmd_send.gimbal_mode = GIMBAL_GYRO_MODE;
 822              		.loc 1 390 9 view .LVU280
 390:application/cmd/robot_cmd.c ****         gimbal_cmd_send.gimbal_mode = GIMBAL_GYRO_MODE;
 823              		.loc 1 390 39 is_stmt 0 view .LVU281
 824 00f0 0123     		movs	r3, #1
 825 00f2 1849     		ldr	r1, .L97+16
 826 00f4 0B75     		strb	r3, [r1, #20]
 391:application/cmd/robot_cmd.c ****         break;
ARM GAS  C:\Users\10542\AppData\Local\Temp\ccSBnHYj.s 			page 25


 827              		.loc 1 391 9 is_stmt 1 view .LVU282
 391:application/cmd/robot_cmd.c ****         break;
 828              		.loc 1 391 37 is_stmt 0 view .LVU283
 829 00f6 1849     		ldr	r1, .L97+20
 830 00f8 0B74     		strb	r3, [r1, #16]
 392:application/cmd/robot_cmd.c ****     default:
 831              		.loc 1 392 9 is_stmt 1 view .LVU284
 832 00fa E5E7     		b	.L81
 833              	.L82:
 432:application/cmd/robot_cmd.c ****         break;
 834              		.loc 1 432 9 view .LVU285
 432:application/cmd/robot_cmd.c ****         break;
 835              		.loc 1 432 33 is_stmt 0 view .LVU286
 836 00fc 174B     		ldr	r3, .L97+24
 837 00fe 0121     		movs	r1, #1
 838 0100 9970     		strb	r1, [r3, #2]
 433:application/cmd/robot_cmd.c ****     }
 839              		.loc 1 433 9 is_stmt 1 view .LVU287
 840 0102 E9E7     		b	.L83
 841              	.L84:
 439:application/cmd/robot_cmd.c ****         shoot_cmd_send.friction_mode = FRICTION_OFF;
 842              		.loc 1 439 9 view .LVU288
 439:application/cmd/robot_cmd.c ****         shoot_cmd_send.friction_mode = FRICTION_OFF;
 843              		.loc 1 439 35 is_stmt 0 view .LVU289
 844 0104 154B     		ldr	r3, .L97+24
 845 0106 0221     		movs	r1, #2
 846 0108 1970     		strb	r1, [r3]
 440:application/cmd/robot_cmd.c ****         break;
 847              		.loc 1 440 9 is_stmt 1 view .LVU290
 440:application/cmd/robot_cmd.c ****         break;
 848              		.loc 1 440 38 is_stmt 0 view .LVU291
 849 010a 0021     		movs	r1, #0
 850 010c D970     		strb	r1, [r3, #3]
 441:application/cmd/robot_cmd.c ****     case 1:
 851              		.loc 1 441 9 is_stmt 1 view .LVU292
 852              	.L87:
 450:application/cmd/robot_cmd.c ****     }
 451:application/cmd/robot_cmd.c **** 
 452:application/cmd/robot_cmd.c ****     if (shoot_cmd_send.friction_mode == FRICTION_ON)    // еЉАеРѓжС©жУ¶иљЃеРОеЈ¶йФЃеПСе∞Д
 853              		.loc 1 452 5 view .LVU293
 854              		.loc 1 452 23 is_stmt 0 view .LVU294
 855 010e 134B     		ldr	r3, .L97+24
 856 0110 DB78     		ldrb	r3, [r3, #3]	@ zero_extendqisi2
 857              		.loc 1 452 8 view .LVU295
 858 0112 012B     		cmp	r3, #1
 859 0114 06D0     		beq	.L96
 860              	.L77:
 453:application/cmd/robot_cmd.c ****     {
 454:application/cmd/robot_cmd.c ****         switch (rc_data[TEMP].mouse.press_l) 
 455:application/cmd/robot_cmd.c ****         {
 456:application/cmd/robot_cmd.c ****         case 0:
 457:application/cmd/robot_cmd.c ****             shoot_cmd_send.load_mode = LOAD_STOP;
 458:application/cmd/robot_cmd.c ****             break;
 459:application/cmd/robot_cmd.c ****         case 1:
 460:application/cmd/robot_cmd.c ****             // if (referee_data->PowerHeatData.shooter_17mm_1_barrel_heat)
 461:application/cmd/robot_cmd.c ****             shoot_cmd_send.load_mode = LOAD_BURSTFIRE;
 462:application/cmd/robot_cmd.c ****             break;
ARM GAS  C:\Users\10542\AppData\Local\Temp\ccSBnHYj.s 			page 26


 463:application/cmd/robot_cmd.c ****         default:
 464:application/cmd/robot_cmd.c ****             shoot_cmd_send.load_mode = LOAD_STOP;
 465:application/cmd/robot_cmd.c ****             break;
 466:application/cmd/robot_cmd.c ****         }
 467:application/cmd/robot_cmd.c ****     }
 468:application/cmd/robot_cmd.c **** 
 469:application/cmd/robot_cmd.c ****     // switch (rc_data[TEMP].key_count[KEY_PRESS][Key_C] % 4) // CйФЃиЃЊзљЃеЇХзЫШйАЯеЇ¶
 470:application/cmd/robot_cmd.c ****     // {
 471:application/cmd/robot_cmd.c ****     // case 0:
 472:application/cmd/robot_cmd.c ****     //     chassis_cmd_send.chassis_speed_buff = 40;
 473:application/cmd/robot_cmd.c ****     //     break;
 474:application/cmd/robot_cmd.c ****     // case 1:
 475:application/cmd/robot_cmd.c ****     //     chassis_cmd_send.chassis_speed_buff = 60;
 476:application/cmd/robot_cmd.c ****     //     break;
 477:application/cmd/robot_cmd.c ****     // case 2:
 478:application/cmd/robot_cmd.c ****     //     chassis_cmd_send.chassis_speed_buff = 80;
 479:application/cmd/robot_cmd.c ****     //     break;
 480:application/cmd/robot_cmd.c ****     // default:
 481:application/cmd/robot_cmd.c ****     //     chassis_cmd_send.chassis_speed_buff = 100;
 482:application/cmd/robot_cmd.c ****     //     break;
 483:application/cmd/robot_cmd.c ****     // }
 484:application/cmd/robot_cmd.c ****     // switch (rc_data[TEMP].key[KEY_PRESS].shift) // еЊЕжЈїеК† жМЙshiftеЕБиЃЄиґЕеКЯзОЗ жґИиАЧзЉУеЖ
 485:application/cmd/robot_cmd.c ****     // {
 486:application/cmd/robot_cmd.c ****     // case 1:
 487:application/cmd/robot_cmd.c **** 
 488:application/cmd/robot_cmd.c ****     //     break;
 489:application/cmd/robot_cmd.c **** 
 490:application/cmd/robot_cmd.c ****     // default:
 491:application/cmd/robot_cmd.c **** 
 492:application/cmd/robot_cmd.c ****     //     break;
 493:application/cmd/robot_cmd.c ****     // }
 494:application/cmd/robot_cmd.c **** 
 495:application/cmd/robot_cmd.c **** }
 861              		.loc 1 495 1 view .LVU296
 862 0116 10BD     		pop	{r4, pc}
 863              	.L85:
 443:application/cmd/robot_cmd.c ****         shoot_cmd_send.friction_mode = FRICTION_ON;
 864              		.loc 1 443 9 is_stmt 1 view .LVU297
 443:application/cmd/robot_cmd.c ****         shoot_cmd_send.friction_mode = FRICTION_ON;
 865              		.loc 1 443 35 is_stmt 0 view .LVU298
 866 0118 104B     		ldr	r3, .L97+24
 867 011a 0221     		movs	r1, #2
 868 011c 1970     		strb	r1, [r3]
 444:application/cmd/robot_cmd.c ****         break;    
 869              		.loc 1 444 9 is_stmt 1 view .LVU299
 444:application/cmd/robot_cmd.c ****         break;    
 870              		.loc 1 444 38 is_stmt 0 view .LVU300
 871 011e 0121     		movs	r1, #1
 872 0120 D970     		strb	r1, [r3, #3]
 445:application/cmd/robot_cmd.c ****     default:
 873              		.loc 1 445 9 is_stmt 1 view .LVU301
 874 0122 F4E7     		b	.L87
 875              	.L96:
 454:application/cmd/robot_cmd.c ****         {
 876              		.loc 1 454 9 view .LVU302
 454:application/cmd/robot_cmd.c ****         {
 877              		.loc 1 454 36 is_stmt 0 view .LVU303
ARM GAS  C:\Users\10542\AppData\Local\Temp\ccSBnHYj.s 			page 27


 878 0124 137C     		ldrb	r3, [r2, #16]	@ zero_extendqisi2
 454:application/cmd/robot_cmd.c ****         {
 879              		.loc 1 454 9 view .LVU304
 880 0126 2BB1     		cbz	r3, .L89
 881 0128 012B     		cmp	r3, #1
 882 012a 07D0     		beq	.L90
 464:application/cmd/robot_cmd.c ****             break;
 883              		.loc 1 464 13 is_stmt 1 view .LVU305
 464:application/cmd/robot_cmd.c ****             break;
 884              		.loc 1 464 38 is_stmt 0 view .LVU306
 885 012c 0B4B     		ldr	r3, .L97+24
 886 012e 0022     		movs	r2, #0
 887 0130 5A70     		strb	r2, [r3, #1]
 465:application/cmd/robot_cmd.c ****         }
 888              		.loc 1 465 13 is_stmt 1 view .LVU307
 889              		.loc 1 495 1 is_stmt 0 view .LVU308
 890 0132 F0E7     		b	.L77
 891              	.L89:
 457:application/cmd/robot_cmd.c ****             break;
 892              		.loc 1 457 13 is_stmt 1 view .LVU309
 457:application/cmd/robot_cmd.c ****             break;
 893              		.loc 1 457 38 is_stmt 0 view .LVU310
 894 0134 094B     		ldr	r3, .L97+24
 895 0136 0022     		movs	r2, #0
 896 0138 5A70     		strb	r2, [r3, #1]
 458:application/cmd/robot_cmd.c ****         case 1:
 897              		.loc 1 458 13 is_stmt 1 view .LVU311
 898 013a ECE7     		b	.L77
 899              	.L90:
 461:application/cmd/robot_cmd.c ****             break;
 900              		.loc 1 461 13 view .LVU312
 461:application/cmd/robot_cmd.c ****             break;
 901              		.loc 1 461 38 is_stmt 0 view .LVU313
 902 013c 074B     		ldr	r3, .L97+24
 903 013e 0422     		movs	r2, #4
 904 0140 5A70     		strb	r2, [r3, #1]
 462:application/cmd/robot_cmd.c ****         default:
 905              		.loc 1 462 13 is_stmt 1 view .LVU314
 906 0142 E8E7     		b	.L77
 907              	.L98:
 908              		.align	2
 909              	.L97:
 910 0144 00000000 		.word	rc_data
 911 0148 00002544 		.word	1143275520
 912 014c 00000000 		.word	add_yaw.5
 913 0150 00000000 		.word	add_pitch.4
 914 0154 00000000 		.word	chassis_cmd_send
 915 0158 00000000 		.word	gimbal_cmd_send
 916 015c 00000000 		.word	shoot_cmd_send
 917              		.cfi_endproc
 918              	.LFE280:
 920              		.section	.rodata.RobotCMDInit.str1.4,"aMS",%progbits,1
 921              		.align	2
 922              	.LC1:
 923 0000 67696D62 		.ascii	"gimbal_cmd\000"
 923      616C5F63 
 923      6D6400
ARM GAS  C:\Users\10542\AppData\Local\Temp\ccSBnHYj.s 			page 28


 924 000b 00       		.align	2
 925              	.LC2:
 926 000c 67696D62 		.ascii	"gimbal_feed\000"
 926      616C5F66 
 926      65656400 
 927              		.align	2
 928              	.LC3:
 929 0018 73686F6F 		.ascii	"shoot_cmd\000"
 929      745F636D 
 929      6400
 930 0022 0000     		.align	2
 931              	.LC4:
 932 0024 73686F6F 		.ascii	"shoot_feed\000"
 932      745F6665 
 932      656400
 933 002f 00       		.align	2
 934              	.LC5:
 935 0030 63686173 		.ascii	"chassis_cmd\000"
 935      7369735F 
 935      636D6400 
 936              		.align	2
 937              	.LC6:
 938 003c 63686173 		.ascii	"chassis_feed\000"
 938      7369735F 
 938      66656564 
 938      00
 939              		.section	.text.RobotCMDInit,"ax",%progbits
 940              		.align	1
 941              		.global	RobotCMDInit
 942              		.syntax unified
 943              		.thumb
 944              		.thumb_func
 946              	RobotCMDInit:
 947              	.LFB276:
  61:application/cmd/robot_cmd.c ****     robot_config = RobotConfigInit(INFANTRY_ROBOT_3);
 948              		.loc 1 61 1 view -0
 949              		.cfi_startproc
 950              		@ args = 0, pretend = 0, frame = 16
 951              		@ frame_needed = 0, uses_anonymous_args = 0
 952 0000 10B5     		push	{r4, lr}
 953              	.LCFI1:
 954              		.cfi_def_cfa_offset 8
 955              		.cfi_offset 4, -8
 956              		.cfi_offset 14, -4
 957 0002 84B0     		sub	sp, sp, #16
 958              	.LCFI2:
 959              		.cfi_def_cfa_offset 24
  62:application/cmd/robot_cmd.c **** 
 960              		.loc 1 62 5 view .LVU316
  62:application/cmd/robot_cmd.c **** 
 961              		.loc 1 62 20 is_stmt 0 view .LVU317
 962 0004 0320     		movs	r0, #3
 963 0006 FFF7FEFF 		bl	RobotConfigInit
 964              	.LVL6:
  62:application/cmd/robot_cmd.c **** 
 965              		.loc 1 62 18 discriminator 1 view .LVU318
 966 000a 2B4B     		ldr	r3, .L101
ARM GAS  C:\Users\10542\AppData\Local\Temp\ccSBnHYj.s 			page 29


 967 000c 1860     		str	r0, [r3]
  64:application/cmd/robot_cmd.c ****             .alarm_level = ALARM_LEVEL_HIGH, //иЃЊзљЃи≠¶жК•з≠ЙзЇІ еРМдЄАзКґжАБдЄЛ йЂШз≠ЙзЇІзЪДеУНеЇ
 968              		.loc 1 64 5 is_stmt 1 view .LVU319
  64:application/cmd/robot_cmd.c ****             .alarm_level = ALARM_LEVEL_HIGH, //иЃЊзљЃи≠¶жК•з≠ЙзЇІ еРМдЄАзКґжАБдЄЛ йЂШз≠ЙзЇІзЪДеУНеЇ
 969              		.loc 1 64 21 is_stmt 0 view .LVU320
 970 000e 0024     		movs	r4, #0
 971 0010 8DF80840 		strb	r4, [sp, #8]
 972 0014 8DF80940 		strb	r4, [sp, #9]
 973 0018 284B     		ldr	r3, .L101+4
 974 001a 0393     		str	r3, [sp, #12]	@ float
  69:application/cmd/robot_cmd.c **** 
 975              		.loc 1 69 5 is_stmt 1 view .LVU321
  69:application/cmd/robot_cmd.c **** 
 976              		.loc 1 69 20 is_stmt 0 view .LVU322
 977 001c 02A8     		add	r0, sp, #8
 978 001e FFF7FEFF 		bl	BuzzerRegister
 979              	.LVL7:
  69:application/cmd/robot_cmd.c **** 
 980              		.loc 1 69 18 discriminator 1 view .LVU323
 981 0022 274B     		ldr	r3, .L101+8
 982 0024 1860     		str	r0, [r3]
  71:application/cmd/robot_cmd.c ****             .color = PINK,
 983              		.loc 1 71 5 is_stmt 1 view .LVU324
  71:application/cmd/robot_cmd.c ****             .color = PINK,
 984              		.loc 1 71 18 is_stmt 0 view .LVU325
 985 0026 274B     		ldr	r3, .L101+12
 986 0028 1B68     		ldr	r3, [r3]
 987 002a ADF80430 		strh	r3, [sp, #4]	@ movhi
 988 002e 1B0C     		lsrs	r3, r3, #16
 989 0030 8DF80630 		strb	r3, [sp, #6]
  76:application/cmd/robot_cmd.c **** 
 990              		.loc 1 76 5 is_stmt 1 view .LVU326
  76:application/cmd/robot_cmd.c **** 
 991              		.loc 1 76 17 is_stmt 0 view .LVU327
 992 0034 01A8     		add	r0, sp, #4
 993 0036 FFF7FEFF 		bl	LEDRegister
 994              	.LVL8:
  76:application/cmd/robot_cmd.c **** 
 995              		.loc 1 76 15 discriminator 1 view .LVU328
 996 003a 234B     		ldr	r3, .L101+16
 997 003c 1860     		str	r0, [r3]
  78:application/cmd/robot_cmd.c ****     vision_recv_data = VisionInit(&huart1); // иІЖиІЙйАЪдњ°дЄ≤еП£
 998              		.loc 1 78 5 is_stmt 1 view .LVU329
  78:application/cmd/robot_cmd.c ****     vision_recv_data = VisionInit(&huart1); // иІЖиІЙйАЪдњ°дЄ≤еП£
 999              		.loc 1 78 15 is_stmt 0 view .LVU330
 1000 003e 2348     		ldr	r0, .L101+20
 1001 0040 FFF7FEFF 		bl	RemoteControlInit
 1002              	.LVL9:
  78:application/cmd/robot_cmd.c ****     vision_recv_data = VisionInit(&huart1); // иІЖиІЙйАЪдњ°дЄ≤еП£
 1003              		.loc 1 78 13 discriminator 1 view .LVU331
 1004 0044 224B     		ldr	r3, .L101+24
 1005 0046 1860     		str	r0, [r3]
  79:application/cmd/robot_cmd.c **** 
 1006              		.loc 1 79 5 is_stmt 1 view .LVU332
  79:application/cmd/robot_cmd.c **** 
 1007              		.loc 1 79 24 is_stmt 0 view .LVU333
 1008 0048 2248     		ldr	r0, .L101+28
ARM GAS  C:\Users\10542\AppData\Local\Temp\ccSBnHYj.s 			page 30


 1009 004a FFF7FEFF 		bl	VisionInit
 1010              	.LVL10:
  79:application/cmd/robot_cmd.c **** 
 1011              		.loc 1 79 22 discriminator 1 view .LVU334
 1012 004e 224B     		ldr	r3, .L101+32
 1013 0050 1860     		str	r0, [r3]
  81:application/cmd/robot_cmd.c **** 
 1014              		.loc 1 81 5 is_stmt 1 view .LVU335
  81:application/cmd/robot_cmd.c **** 
 1015              		.loc 1 81 20 is_stmt 0 view .LVU336
 1016 0052 2249     		ldr	r1, .L101+36
 1017 0054 2248     		ldr	r0, .L101+40
 1018 0056 FFF7FEFF 		bl	UITaskInit
 1019              	.LVL11:
  81:application/cmd/robot_cmd.c **** 
 1020              		.loc 1 81 18 discriminator 1 view .LVU337
 1021 005a 224B     		ldr	r3, .L101+44
 1022 005c 1860     		str	r0, [r3]
  83:application/cmd/robot_cmd.c ****     gimbal_feed_sub = SubRegister("gimbal_feed", sizeof(Gimbal_Upload_Data_s));
 1023              		.loc 1 83 5 is_stmt 1 view .LVU338
  83:application/cmd/robot_cmd.c ****     gimbal_feed_sub = SubRegister("gimbal_feed", sizeof(Gimbal_Upload_Data_s));
 1024              		.loc 1 83 22 is_stmt 0 view .LVU339
 1025 005e 1121     		movs	r1, #17
 1026 0060 2148     		ldr	r0, .L101+48
 1027 0062 FFF7FEFF 		bl	PubRegister
 1028              	.LVL12:
  83:application/cmd/robot_cmd.c ****     gimbal_feed_sub = SubRegister("gimbal_feed", sizeof(Gimbal_Upload_Data_s));
 1029              		.loc 1 83 20 discriminator 1 view .LVU340
 1030 0066 214B     		ldr	r3, .L101+52
 1031 0068 1860     		str	r0, [r3]
  84:application/cmd/robot_cmd.c ****     shoot_cmd_pub = PubRegister("shoot_cmd", sizeof(Shoot_Ctrl_Cmd_s));
 1032              		.loc 1 84 5 is_stmt 1 view .LVU341
  84:application/cmd/robot_cmd.c ****     shoot_cmd_pub = PubRegister("shoot_cmd", sizeof(Shoot_Ctrl_Cmd_s));
 1033              		.loc 1 84 23 is_stmt 0 view .LVU342
 1034 006a 2C21     		movs	r1, #44
 1035 006c 2048     		ldr	r0, .L101+56
 1036 006e FFF7FEFF 		bl	SubRegister
 1037              	.LVL13:
  84:application/cmd/robot_cmd.c ****     shoot_cmd_pub = PubRegister("shoot_cmd", sizeof(Shoot_Ctrl_Cmd_s));
 1038              		.loc 1 84 21 discriminator 1 view .LVU343
 1039 0072 204B     		ldr	r3, .L101+60
 1040 0074 1860     		str	r0, [r3]
  85:application/cmd/robot_cmd.c ****     shoot_feed_sub = SubRegister("shoot_feed", sizeof(Shoot_Upload_Data_s));
 1041              		.loc 1 85 5 is_stmt 1 view .LVU344
  85:application/cmd/robot_cmd.c ****     shoot_feed_sub = SubRegister("shoot_feed", sizeof(Shoot_Upload_Data_s));
 1042              		.loc 1 85 21 is_stmt 0 view .LVU345
 1043 0076 0A21     		movs	r1, #10
 1044 0078 1F48     		ldr	r0, .L101+64
 1045 007a FFF7FEFF 		bl	PubRegister
 1046              	.LVL14:
  85:application/cmd/robot_cmd.c ****     shoot_feed_sub = SubRegister("shoot_feed", sizeof(Shoot_Upload_Data_s));
 1047              		.loc 1 85 19 discriminator 1 view .LVU346
 1048 007e 1F4B     		ldr	r3, .L101+68
 1049 0080 1860     		str	r0, [r3]
  86:application/cmd/robot_cmd.c **** 
 1050              		.loc 1 86 5 is_stmt 1 view .LVU347
  86:application/cmd/robot_cmd.c **** 
ARM GAS  C:\Users\10542\AppData\Local\Temp\ccSBnHYj.s 			page 31


 1051              		.loc 1 86 22 is_stmt 0 view .LVU348
 1052 0082 2146     		mov	r1, r4
 1053 0084 1E48     		ldr	r0, .L101+72
 1054 0086 FFF7FEFF 		bl	SubRegister
 1055              	.LVL15:
  86:application/cmd/robot_cmd.c **** 
 1056              		.loc 1 86 20 discriminator 1 view .LVU349
 1057 008a 1E4B     		ldr	r3, .L101+76
 1058 008c 1860     		str	r0, [r3]
  89:application/cmd/robot_cmd.c ****     chassis_feed_sub = SubRegister("chassis_feed", sizeof(Chassis_Upload_Data_s));
 1059              		.loc 1 89 5 is_stmt 1 view .LVU350
  89:application/cmd/robot_cmd.c ****     chassis_feed_sub = SubRegister("chassis_feed", sizeof(Chassis_Upload_Data_s));
 1060              		.loc 1 89 23 is_stmt 0 view .LVU351
 1061 008e 1921     		movs	r1, #25
 1062 0090 1D48     		ldr	r0, .L101+80
 1063 0092 FFF7FEFF 		bl	PubRegister
 1064              	.LVL16:
  89:application/cmd/robot_cmd.c ****     chassis_feed_sub = SubRegister("chassis_feed", sizeof(Chassis_Upload_Data_s));
 1065              		.loc 1 89 21 discriminator 1 view .LVU352
 1066 0096 1D4B     		ldr	r3, .L101+84
 1067 0098 1860     		str	r0, [r3]
  90:application/cmd/robot_cmd.c **** #endif // ONE_BOARD
 1068              		.loc 1 90 5 is_stmt 1 view .LVU353
  90:application/cmd/robot_cmd.c **** #endif // ONE_BOARD
 1069              		.loc 1 90 24 is_stmt 0 view .LVU354
 1070 009a 0E21     		movs	r1, #14
 1071 009c 1C48     		ldr	r0, .L101+88
 1072 009e FFF7FEFF 		bl	SubRegister
 1073              	.LVL17:
  90:application/cmd/robot_cmd.c **** #endif // ONE_BOARD
 1074              		.loc 1 90 22 discriminator 1 view .LVU355
 1075 00a2 1C4B     		ldr	r3, .L101+92
 1076 00a4 1860     		str	r0, [r3]
 104:application/cmd/robot_cmd.c **** 
 1077              		.loc 1 104 5 is_stmt 1 view .LVU356
 104:application/cmd/robot_cmd.c **** 
 1078              		.loc 1 104 27 is_stmt 0 view .LVU357
 1079 00a6 1C4B     		ldr	r3, .L101+96
 1080 00a8 0022     		movs	r2, #0
 1081 00aa 5A60     		str	r2, [r3, #4]	@ float
 106:application/cmd/robot_cmd.c **** }
 1082              		.loc 1 106 5 is_stmt 1 view .LVU358
 106:application/cmd/robot_cmd.c **** }
 1083              		.loc 1 106 17 is_stmt 0 view .LVU359
 1084 00ac 1B4B     		ldr	r3, .L101+100
 1085 00ae 0122     		movs	r2, #1
 1086 00b0 1A70     		strb	r2, [r3]
 107:application/cmd/robot_cmd.c **** 
 1087              		.loc 1 107 1 view .LVU360
 1088 00b2 04B0     		add	sp, sp, #16
 1089              	.LCFI3:
 1090              		.cfi_def_cfa_offset 8
 1091              		@ sp needed
 1092 00b4 10BD     		pop	{r4, pc}
 1093              	.L102:
 1094 00b6 00BF     		.align	2
 1095              	.L101:
ARM GAS  C:\Users\10542\AppData\Local\Temp\ccSBnHYj.s 			page 32


 1096 00b8 00000000 		.word	robot_config
 1097 00bc CDCCCC3E 		.word	1053609165
 1098 00c0 00000000 		.word	buzzer_alarm
 1099 00c4 00000000 		.word	.LANCHOR0
 1100 00c8 00000000 		.word	led_alarm
 1101 00cc 00000000 		.word	huart3
 1102 00d0 00000000 		.word	rc_data
 1103 00d4 00000000 		.word	huart1
 1104 00d8 00000000 		.word	vision_recv_data
 1105 00dc 00000000 		.word	ui_data
 1106 00e0 00000000 		.word	huart6
 1107 00e4 00000000 		.word	referee_data
 1108 00e8 00000000 		.word	.LC1
 1109 00ec 00000000 		.word	gimbal_cmd_pub
 1110 00f0 0C000000 		.word	.LC2
 1111 00f4 00000000 		.word	gimbal_feed_sub
 1112 00f8 18000000 		.word	.LC3
 1113 00fc 00000000 		.word	shoot_cmd_pub
 1114 0100 24000000 		.word	.LC4
 1115 0104 00000000 		.word	shoot_feed_sub
 1116 0108 30000000 		.word	.LC5
 1117 010c 00000000 		.word	chassis_cmd_pub
 1118 0110 3C000000 		.word	.LC6
 1119 0114 00000000 		.word	chassis_feed_sub
 1120 0118 00000000 		.word	gimbal_cmd_send
 1121 011c 00000000 		.word	robot_state
 1122              		.cfi_endproc
 1123              	.LFE276:
 1125              		.section	.text.RobotCMDTask,"ax",%progbits
 1126              		.align	1
 1127              		.global	RobotCMDTask
 1128              		.syntax unified
 1129              		.thumb
 1130              		.thumb_func
 1132              	RobotCMDTask:
 1133              	.LFB283:
 496:application/cmd/robot_cmd.c **** 
 497:application/cmd/robot_cmd.c **** /**
 498:application/cmd/robot_cmd.c ****  * @brief  жК•и≠¶е§ДзРЖпЉМеѓєдЇОдЄНеРМйЗНи¶Бж®°еЭЧз¶їзЇњжИЦиАЕйБ•жОІеЩ®з¶їзЇњпЉМињЫи°МдЄНеРМз±їеЮЛж
 499:application/cmd/robot_cmd.c ****  *
 500:application/cmd/robot_cmd.c ****  */
 501:application/cmd/robot_cmd.c **** static void AlarmHandler()
 502:application/cmd/robot_cmd.c **** {
 503:application/cmd/robot_cmd.c ****     uint8_t temp = 0;
 504:application/cmd/robot_cmd.c **** 
 505:application/cmd/robot_cmd.c ****     if (robot_state == ROBOT_READY)
 506:application/cmd/robot_cmd.c ****     {
 507:application/cmd/robot_cmd.c ****         // жЧ†еКЫж®°еЉПдЄЛпЉМзїњзБѓжЕҐйЧ™еєґдЄФдЄНжК•и≠¶
 508:application/cmd/robot_cmd.c ****         if (chassis_cmd_send.chassis_mode == CHASSIS_ZERO_FORCE && gimbal_cmd_send.gimbal_mode == G
 509:application/cmd/robot_cmd.c ****         {
 510:application/cmd/robot_cmd.c ****             LEDSetStatus(led_alarm, ALARM_ON); 
 511:application/cmd/robot_cmd.c ****             LEDSetFlash(led_alarm, GREEN, FLASH_LOW); 
 512:application/cmd/robot_cmd.c ****             BuzzerSetStatus(buzzer_alarm, ALARM_OFF);
 513:application/cmd/robot_cmd.c ****         }
 514:application/cmd/robot_cmd.c ****         else
 515:application/cmd/robot_cmd.c ****         { // жЬЙеКЫж®°еЉПдЄЛпЉМз≤ЙзБѓеСЉеРЄеПШеМЦеєґдЄФдЄНжК•и≠¶
 516:application/cmd/robot_cmd.c ****             LEDSetStatus(led_alarm, ALARM_OFF); 
ARM GAS  C:\Users\10542\AppData\Local\Temp\ccSBnHYj.s 			page 33


 517:application/cmd/robot_cmd.c ****             BuzzerSetStatus(buzzer_alarm, ALARM_OFF);
 518:application/cmd/robot_cmd.c ****         }
 519:application/cmd/robot_cmd.c ****     }
 520:application/cmd/robot_cmd.c ****     if (robot_state == ROBOT_STOP) 
 521:application/cmd/robot_cmd.c ****     {
 522:application/cmd/robot_cmd.c ****         // еЇХзЫШж®°еЭЧз¶їзЇњ
 523:application/cmd/robot_cmd.c ****         if (chassis_fetch_data.motor_state == GIMBAL_MOTOR_OFFLINE)
 524:application/cmd/robot_cmd.c ****         { // йїДзБѓењЂйЧ™пЉМйЧ™зГБжђ°жХ∞еѓєеЇФдЄНеРМзФµжЬЇпЉМиЬВйЄ£еЩ®жК•и≠¶е£∞дЄЇDo
 525:application/cmd/robot_cmd.c ****             temp++;
 526:application/cmd/robot_cmd.c ****             LEDSetStatus(led_alarm, ALARM_ON); 
 527:application/cmd/robot_cmd.c ****             LEDSetFlashTime(led_alarm, chassis_fetch_data.motor_offline_count);
 528:application/cmd/robot_cmd.c ****             LEDSetFlash(led_alarm, YELLOW, FLASH_HIGH);
 529:application/cmd/robot_cmd.c ****             BuzzerSetStatus(buzzer_alarm, ALARM_ON);
 530:application/cmd/robot_cmd.c ****             BuzzerSetOctave(buzzer_alarm, OCTAVE_1);
 531:application/cmd/robot_cmd.c ****         }
 532:application/cmd/robot_cmd.c **** 
 533:application/cmd/robot_cmd.c ****         // дЇСеП∞ж®°еЭЧз¶їзЇњ
 534:application/cmd/robot_cmd.c ****         if (gimbal_fetch_data.motor_state == CHASSIS_MOTOR_OFFLINE)
 535:application/cmd/robot_cmd.c ****         { // зЇҐзБѓењЂйЧ™пЉМйЧ™зГБжђ°жХ∞еѓєеЇФдЄНеРМзФµжЬЇпЉМиЬВйЄ£еЩ®жК•и≠¶е£∞дЄЇRe
 536:application/cmd/robot_cmd.c ****             temp++;
 537:application/cmd/robot_cmd.c ****             LEDSetStatus(led_alarm, ALARM_ON); 
 538:application/cmd/robot_cmd.c ****             LEDSetFlashTime(led_alarm, gimbal_fetch_data.motor_offline_count);
 539:application/cmd/robot_cmd.c ****             LEDSetFlash(led_alarm, RED, FLASH_HIGH);
 540:application/cmd/robot_cmd.c ****             BuzzerSetStatus(buzzer_alarm, ALARM_ON);
 541:application/cmd/robot_cmd.c ****             BuzzerSetOctave(buzzer_alarm, OCTAVE_2);
 542:application/cmd/robot_cmd.c ****         }
 543:application/cmd/robot_cmd.c **** 
 544:application/cmd/robot_cmd.c ****         // еПСе∞Дж®°еЭЧз¶їзЇњ
 545:application/cmd/robot_cmd.c **** 
 546:application/cmd/robot_cmd.c ****         // йБ•жОІеЩ®з¶їзЇњжИЦиАЕжА•еБЬж®°еЉП
 547:application/cmd/robot_cmd.c ****         if (temp == 0)
 548:application/cmd/robot_cmd.c ****         { // йїДзБѓеЄЄдЇЃеєґдЄФдЄНжК•и≠¶
 549:application/cmd/robot_cmd.c ****             LEDSetStatus(led_alarm, ALARM_ON); 
 550:application/cmd/robot_cmd.c ****             LEDSetFlash(led_alarm, YELLOW, ALWAYS_ON);
 551:application/cmd/robot_cmd.c ****             BuzzerSetStatus(buzzer_alarm, ALARM_OFF);
 552:application/cmd/robot_cmd.c ****         }
 553:application/cmd/robot_cmd.c **** 
 554:application/cmd/robot_cmd.c ****         if (temp > 1 || chassis_fetch_data.motor_offline_count > 1 || gimbal_fetch_data.motor_offli
 555:application/cmd/robot_cmd.c ****         { // иґЕињЗдЄАдЄ™ж®°еЭЧжИЦе§ЪдЄ™зФµжЬЇз¶їзЇњпЉМзЇҐзБѓеЄЄйЗПеєґдЄФдЄНжК•и≠¶
 556:application/cmd/robot_cmd.c ****             LEDSetStatus(led_alarm, ALARM_ON); 
 557:application/cmd/robot_cmd.c ****             LEDSetFlash(led_alarm, RED, ALWAYS_ON);
 558:application/cmd/robot_cmd.c ****             BuzzerSetStatus(buzzer_alarm, ALARM_OFF);      
 559:application/cmd/robot_cmd.c ****         }
 560:application/cmd/robot_cmd.c ****     }
 561:application/cmd/robot_cmd.c **** }
 562:application/cmd/robot_cmd.c **** 
 563:application/cmd/robot_cmd.c **** /**
 564:application/cmd/robot_cmd.c ****  * @brief  зіІжА•еБЬж≠Ґ,еМЕжЛђйБ•жОІеЩ®еЈ¶дЄКдЊІжЛ®иљЃжЙУжї°/йЗНи¶Бж®°еЭЧз¶їзЇњ/еПМжЭњйАЪдњ°е§±жХИз
 565:application/cmd/robot_cmd.c ****  *
 566:application/cmd/robot_cmd.c ****  */
 567:application/cmd/robot_cmd.c **** static void EmergencyHandler()
 568:application/cmd/robot_cmd.c **** {
 569:application/cmd/robot_cmd.c ****     // жЛ®иљЃзЪДеРСдЄКжЛ®иґЕињЗдЄАеНКжИЦиАЕйБ•жОІеЩ®з¶їзЇњињЫеЕ•жА•еБЬж®°еЉП.ж≥®жДПеРСжЙУжЧґдЄЛжЛ®и
 570:application/cmd/robot_cmd.c ****     if (rc_data[TEMP].rc.dial < -400 || robot_state == ROBOT_STOP || !RemoteControlIsOnline())
 571:application/cmd/robot_cmd.c ****     {
 572:application/cmd/robot_cmd.c ****         robot_state = ROBOT_STOP;
 573:application/cmd/robot_cmd.c ****         gimbal_cmd_send.gimbal_mode = GIMBAL_ZERO_FORCE;
ARM GAS  C:\Users\10542\AppData\Local\Temp\ccSBnHYj.s 			page 34


 574:application/cmd/robot_cmd.c ****         chassis_cmd_send.chassis_mode = CHASSIS_ZERO_FORCE;
 575:application/cmd/robot_cmd.c ****         shoot_cmd_send.shoot_mode = SHOOT_OFF;
 576:application/cmd/robot_cmd.c ****         shoot_cmd_send.friction_mode = FRICTION_OFF;
 577:application/cmd/robot_cmd.c ****         shoot_cmd_send.load_mode = LOAD_STOP;
 578:application/cmd/robot_cmd.c ****         LOGERROR("[CMD] emergency stop!");
 579:application/cmd/robot_cmd.c ****     }
 580:application/cmd/robot_cmd.c ****     if (gimbal_fetch_data.motor_state == GIMBAL_MOTOR_OFFLINE || chassis_fetch_data.motor_state == 
 581:application/cmd/robot_cmd.c ****     {
 582:application/cmd/robot_cmd.c ****         robot_state = ROBOT_STOP;
 583:application/cmd/robot_cmd.c ****         gimbal_cmd_send.gimbal_mode = GIMBAL_ZERO_FORCE;
 584:application/cmd/robot_cmd.c ****         chassis_cmd_send.chassis_mode = CHASSIS_ZERO_FORCE;
 585:application/cmd/robot_cmd.c ****         shoot_cmd_send.shoot_mode = SHOOT_OFF;
 586:application/cmd/robot_cmd.c ****         shoot_cmd_send.friction_mode = FRICTION_OFF;
 587:application/cmd/robot_cmd.c ****         shoot_cmd_send.load_mode = LOAD_STOP;
 588:application/cmd/robot_cmd.c ****         LOGERROR("[CMD] motor offline!");         
 589:application/cmd/robot_cmd.c ****     }
 590:application/cmd/robot_cmd.c ****     // йБ•жОІеЩ®еЈ¶дЊІеТМеП≥дЊІеЉАеЕ≥еЭЗдЄЇ[дЄЛ]пЉМйБ•жОІеЩ®еТМж®°еЭЧеЭЗеЬ®зЇњ,жБҐе§Нж≠£еЄЄињРи°М
 591:application/cmd/robot_cmd.c ****     if (switch_is_down(rc_data[TEMP].rc.switch_left) && switch_is_down(rc_data[TEMP].rc.switch_righ
 592:application/cmd/robot_cmd.c ****     {
 593:application/cmd/robot_cmd.c ****         if (gimbal_fetch_data.motor_state == GIMBAL_MOTOR_ONLINE && chassis_fetch_data.motor_state 
 594:application/cmd/robot_cmd.c ****         {
 595:application/cmd/robot_cmd.c ****             robot_state = ROBOT_READY;       
 596:application/cmd/robot_cmd.c ****             LOGINFO("[CMD] reinstate, robot ready");            
 597:application/cmd/robot_cmd.c ****         }
 598:application/cmd/robot_cmd.c ****     }
 599:application/cmd/robot_cmd.c **** 
 600:application/cmd/robot_cmd.c ****     AlarmHandler(); // жК•и≠¶е§ДзРЖ
 601:application/cmd/robot_cmd.c **** }
 602:application/cmd/robot_cmd.c **** 
 603:application/cmd/robot_cmd.c **** /* жЬЇеЩ®дЇЇж†ЄењГжОІеИґдїїеК°,200HzйҐСзОЗињРи°М(ењЕй°їйЂШдЇОиІЖиІЙеПСйАБйҐСзОЗ) */
 604:application/cmd/robot_cmd.c **** void RobotCMDTask()
 605:application/cmd/robot_cmd.c **** {
 1134              		.loc 1 605 1 is_stmt 1 view -0
 1135              		.cfi_startproc
 1136              		@ args = 0, pretend = 0, frame = 0
 1137              		@ frame_needed = 0, uses_anonymous_args = 0
 1138 0000 08B5     		push	{r3, lr}
 1139              	.LCFI4:
 1140              		.cfi_def_cfa_offset 8
 1141              		.cfi_offset 3, -8
 1142              		.cfi_offset 14, -4
 606:application/cmd/robot_cmd.c ****     // дїОеЕґдїЦеЇФзФ®иОЈеПЦеЫЮдЉ†жХ∞жНЃ
 607:application/cmd/robot_cmd.c **** #ifdef ONE_BOARD
 608:application/cmd/robot_cmd.c ****     SubGetMessage(chassis_feed_sub, (void *)&chassis_fetch_data);
 1143              		.loc 1 608 5 view .LVU362
 1144 0002 3749     		ldr	r1, .L115
 1145 0004 374B     		ldr	r3, .L115+4
 1146 0006 1868     		ldr	r0, [r3]
 1147 0008 FFF7FEFF 		bl	SubGetMessage
 1148              	.LVL18:
 609:application/cmd/robot_cmd.c **** #endif // ONE_BOARD
 610:application/cmd/robot_cmd.c **** #ifdef GIMBAL_BOARD
 611:application/cmd/robot_cmd.c ****     chassis_fetch_data = *(Chassis_Upload_Data_s *)CANCommGet(cmd_can_comm);
 612:application/cmd/robot_cmd.c **** #endif // GIMBAL_BOARD
 613:application/cmd/robot_cmd.c ****     SubGetMessage(shoot_feed_sub, &shoot_fetch_data);
 1149              		.loc 1 613 5 view .LVU363
 1150 000c 3649     		ldr	r1, .L115+8
ARM GAS  C:\Users\10542\AppData\Local\Temp\ccSBnHYj.s 			page 35


 1151 000e 374B     		ldr	r3, .L115+12
 1152 0010 1868     		ldr	r0, [r3]
 1153 0012 FFF7FEFF 		bl	SubGetMessage
 1154              	.LVL19:
 614:application/cmd/robot_cmd.c ****     SubGetMessage(gimbal_feed_sub, &gimbal_fetch_data);
 1155              		.loc 1 614 5 view .LVU364
 1156 0016 3649     		ldr	r1, .L115+16
 1157 0018 364B     		ldr	r3, .L115+20
 1158 001a 1868     		ldr	r0, [r3]
 1159 001c FFF7FEFF 		bl	SubGetMessage
 1160              	.LVL20:
 615:application/cmd/robot_cmd.c **** 
 616:application/cmd/robot_cmd.c ****     // ж†єжНЃgimbalзЪДеПНй¶ИеАЉиЃ°зЃЧдЇСеП∞еТМеЇХзЫШж≠£жЦєеРСзЪДе§єиІТ,дЄНйЬАи¶БдЉ†еПВ,йАЪињЗstatic
 617:application/cmd/robot_cmd.c ****     CalcOffsetAngle();
 1161              		.loc 1 617 5 view .LVU365
 1162 0020 FFF7FEFF 		bl	CalcOffsetAngle
 1163              	.LVL21:
 618:application/cmd/robot_cmd.c **** 
 619:application/cmd/robot_cmd.c ****     // BйФЃеЉАеЕ≥йБ•жОІеЩ®
 620:application/cmd/robot_cmd.c ****     switch (rc_data[TEMP].key_count[KEY_PRESS][Key_B] % 2) 
 1164              		.loc 1 620 5 view .LVU366
 1165              		.loc 1 620 20 is_stmt 0 view .LVU367
 1166 0024 344B     		ldr	r3, .L115+24
 1167 0026 1B68     		ldr	r3, [r3]
 1168              		.loc 1 620 47 view .LVU368
 1169 0028 93F82730 		ldrb	r3, [r3, #39]	@ zero_extendqisi2
 1170              		.loc 1 620 5 view .LVU369
 1171 002c 13F00103 		ands	r3, r3, #1
 1172 0030 04D0     		beq	.L104
 1173 0032 002B     		cmp	r3, #0
 1174 0034 30D1     		bne	.L105
 621:application/cmd/robot_cmd.c ****     {
 622:application/cmd/robot_cmd.c ****     case 0:
 623:application/cmd/robot_cmd.c ****         RemoteControlSet();
 624:application/cmd/robot_cmd.c ****         rc_data[TEMP].key_count[KEY_PRESS][Key_G] = 0;  // еИЭеІЛеМЦйФЃзЫШжОІеИґ
 625:application/cmd/robot_cmd.c ****         rc_data[TEMP].key_count[KEY_PRESS][Key_F] = 0;  
 626:application/cmd/robot_cmd.c ****         ui_data.Referee_Interactive_Flag.refresh_flag = 0;
 627:application/cmd/robot_cmd.c ****         break;    
 628:application/cmd/robot_cmd.c ****     case 1:
 629:application/cmd/robot_cmd.c ****         MouseKeySet();
 630:application/cmd/robot_cmd.c ****         if (!ui_data.Referee_Interactive_Flag.refresh_flag)
 631:application/cmd/robot_cmd.c ****             ui_data.Referee_Interactive_Flag.refresh_flag = 1; // UIзХМйЭҐеИЈжЦ∞
 632:application/cmd/robot_cmd.c **** 
 633:application/cmd/robot_cmd.c ****         if (rc_data[TEMP].rc.dial < -400)
 634:application/cmd/robot_cmd.c ****             rc_data[TEMP].key_count[KEY_PRESS][Key_B] = 0; 
 635:application/cmd/robot_cmd.c ****         break;            
 636:application/cmd/robot_cmd.c ****     default:
 637:application/cmd/robot_cmd.c ****         RemoteControlSet();
 1175              		.loc 1 637 9 is_stmt 1 view .LVU370
 1176 0036 FFF7FEFF 		bl	RemoteControlSet
 1177              	.LVL22:
 638:application/cmd/robot_cmd.c ****         break;
 1178              		.loc 1 638 9 view .LVU371
 1179 003a 0DE0     		b	.L107
 1180              	.L104:
 623:application/cmd/robot_cmd.c ****         rc_data[TEMP].key_count[KEY_PRESS][Key_G] = 0;  // еИЭеІЛеМЦйФЃзЫШжОІеИґ
 1181              		.loc 1 623 9 view .LVU372
ARM GAS  C:\Users\10542\AppData\Local\Temp\ccSBnHYj.s 			page 36


 1182 003c FFF7FEFF 		bl	RemoteControlSet
 1183              	.LVL23:
 624:application/cmd/robot_cmd.c ****         rc_data[TEMP].key_count[KEY_PRESS][Key_F] = 0;  
 1184              		.loc 1 624 9 view .LVU373
 624:application/cmd/robot_cmd.c ****         rc_data[TEMP].key_count[KEY_PRESS][Key_F] = 0;  
 1185              		.loc 1 624 16 is_stmt 0 view .LVU374
 1186 0040 2D4B     		ldr	r3, .L115+24
 1187 0042 1A68     		ldr	r2, [r3]
 624:application/cmd/robot_cmd.c ****         rc_data[TEMP].key_count[KEY_PRESS][Key_F] = 0;  
 1188              		.loc 1 624 51 view .LVU375
 1189 0044 0023     		movs	r3, #0
 1190 0046 82F82230 		strb	r3, [r2, #34]
 625:application/cmd/robot_cmd.c ****         ui_data.Referee_Interactive_Flag.refresh_flag = 0;
 1191              		.loc 1 625 9 is_stmt 1 view .LVU376
 625:application/cmd/robot_cmd.c ****         ui_data.Referee_Interactive_Flag.refresh_flag = 0;
 1192              		.loc 1 625 51 is_stmt 0 view .LVU377
 1193 004a 82F82130 		strb	r3, [r2, #33]
 626:application/cmd/robot_cmd.c ****         break;    
 1194              		.loc 1 626 9 is_stmt 1 view .LVU378
 626:application/cmd/robot_cmd.c ****         break;    
 1195              		.loc 1 626 55 is_stmt 0 view .LVU379
 1196 004e 2B4A     		ldr	r2, .L115+28
 1197 0050 1178     		ldrb	r1, [r2]	@ zero_extendqisi2
 1198 0052 63F38711 		bfi	r1, r3, #6, #2
 1199 0056 1170     		strb	r1, [r2]
 627:application/cmd/robot_cmd.c ****     case 1:
 1200              		.loc 1 627 9 is_stmt 1 view .LVU380
 1201              	.L107:
 639:application/cmd/robot_cmd.c ****     }
 640:application/cmd/robot_cmd.c **** 
 641:application/cmd/robot_cmd.c ****     // EmergencyHandler(); // е§ДзРЖж®°еЭЧз¶їзЇњеТМйБ•жОІеЩ®жА•еБЬз≠ЙзіІжА•жГЕеЖµ
 642:application/cmd/robot_cmd.c **** 
 643:application/cmd/robot_cmd.c ****     // иОЈеПЦи£БеИ§з≥їзїЯеКЯзОЗжОІеИґ
 644:application/cmd/robot_cmd.c ****     if (!referee_data->GameRobotState.chassis_power_limit)
 1202              		.loc 1 644 5 view .LVU381
 1203              		.loc 1 644 22 is_stmt 0 view .LVU382
 1204 0058 294B     		ldr	r3, .L115+32
 1205 005a 1A68     		ldr	r2, [r3]
 1206              		.loc 1 644 38 view .LVU383
 1207 005c B2F84C30 		ldrh	r3, [r2, #76]	@ unaligned
 1208              		.loc 1 644 8 view .LVU384
 1209 0060 002B     		cmp	r3, #0
 1210 0062 30D1     		bne	.L109
 645:application/cmd/robot_cmd.c ****         chassis_cmd_send.power_limit = 100;
 1211              		.loc 1 645 9 is_stmt 1 view .LVU385
 1212              		.loc 1 645 38 is_stmt 0 view .LVU386
 1213 0064 274B     		ldr	r3, .L115+36
 1214 0066 2849     		ldr	r1, .L115+40
 1215 0068 1961     		str	r1, [r3, #16]	@ float
 1216              	.L110:
 646:application/cmd/robot_cmd.c ****     else
 647:application/cmd/robot_cmd.c ****         chassis_cmd_send.power_limit = referee_data->GameRobotState.chassis_power_limit;
 648:application/cmd/robot_cmd.c **** 
 649:application/cmd/robot_cmd.c ****     if (referee_data->GameState.stage_remain_time > 250)
 1217              		.loc 1 649 5 is_stmt 1 view .LVU387
 1218              		.loc 1 649 32 is_stmt 0 view .LVU388
 1219 006a B2F80F30 		ldrh	r3, [r2, #15]	@ unaligned
ARM GAS  C:\Users\10542\AppData\Local\Temp\ccSBnHYj.s 			page 37


 1220              		.loc 1 649 8 view .LVU389
 1221 006e FA2B     		cmp	r3, #250
 1222 0070 31D9     		bls	.L111
 650:application/cmd/robot_cmd.c ****         chassis_cmd_send.chassis_mode = CHASSIS_NO_FOLLOW;
 1223              		.loc 1 650 9 is_stmt 1 view .LVU390
 1224              		.loc 1 650 39 is_stmt 0 view .LVU391
 1225 0072 244B     		ldr	r3, .L115+36
 1226 0074 0222     		movs	r2, #2
 1227 0076 1A75     		strb	r2, [r3, #20]
 1228              	.L112:
 651:application/cmd/robot_cmd.c ****     else
 652:application/cmd/robot_cmd.c ****         chassis_cmd_send.chassis_mode = CHASSIS_ROTATE;
 653:application/cmd/robot_cmd.c **** 
 654:application/cmd/robot_cmd.c ****     // иОЈеПЦи£БеИ§з≥їзїЯжХ∞жНЃ
 655:application/cmd/robot_cmd.c ****     // жИСжЦєйҐЬиЙ≤idе∞ПдЇО7жШѓзЇҐиЙ≤,е§ІдЇО7жШѓиУЭиЙ≤,ж≥®жДПињЩйЗМеПСйАБзЪДжШѓеѓєжЦєзЪДйҐЬиЙ≤, 0:b
 656:application/cmd/robot_cmd.c ****     // vision_send_data.enemy_color = referee_data->GameRobotState.robot_id > 7 ? 1 : 0;
 657:application/cmd/robot_cmd.c ****     // ељУеЙНеП™еБЪдЇЖ17mmзГ≠йЗПзЪДжХ∞жНЃиОЈеПЦ,еРОзї≠ж†єжНЃrobot_defдЄ≠зЪДеЃПеИЗжНҐеПМжЮ™зЃ°еТМиЛ±
 658:application/cmd/robot_cmd.c ****     // vision_send_data.bullet_speed = referee_data->GameRobotState.shooter_barrel_cooling_value;
 659:application/cmd/robot_cmd.c ****     // vision_send_data.rest_heat = referee_data->PowerHeatData.shooter_heat0;
 660:application/cmd/robot_cmd.c **** 
 661:application/cmd/robot_cmd.c ****     // жО®йАБжґИжБѓ,еПМжЭњйАЪдњ°,иІЖиІЙйАЪдњ°з≠Й
 662:application/cmd/robot_cmd.c ****     // еЕґдїЦеЇФзФ®жЙАйЬАзЪДжОІеИґжХ∞жНЃеЬ®remotecontrolsetmodeеТМmousekeysetmodeдЄ≠еЃМжИРиЃЊзљЃ
 663:application/cmd/robot_cmd.c **** #ifdef ONE_BOARD
 664:application/cmd/robot_cmd.c ****     PubPushMessage(chassis_cmd_pub, (void *)&chassis_cmd_send);
 1229              		.loc 1 664 5 is_stmt 1 view .LVU392
 1230 0078 2249     		ldr	r1, .L115+36
 1231 007a 244B     		ldr	r3, .L115+44
 1232 007c 1868     		ldr	r0, [r3]
 1233 007e FFF7FEFF 		bl	PubPushMessage
 1234              	.LVL24:
 665:application/cmd/robot_cmd.c **** #endif // ONE_BOARD
 666:application/cmd/robot_cmd.c **** #ifdef GIMBAL_BOARD
 667:application/cmd/robot_cmd.c ****     CANCommSend(cmd_can_comm, (void *)&chassis_cmd_send);
 668:application/cmd/robot_cmd.c **** #endif // GIMBAL_BOARD
 669:application/cmd/robot_cmd.c ****     PubPushMessage(shoot_cmd_pub, (void *)&shoot_cmd_send);
 1235              		.loc 1 669 5 view .LVU393
 1236 0082 2349     		ldr	r1, .L115+48
 1237 0084 234B     		ldr	r3, .L115+52
 1238 0086 1868     		ldr	r0, [r3]
 1239 0088 FFF7FEFF 		bl	PubPushMessage
 1240              	.LVL25:
 670:application/cmd/robot_cmd.c ****     PubPushMessage(gimbal_cmd_pub, (void *)&gimbal_cmd_send);
 1241              		.loc 1 670 5 view .LVU394
 1242 008c 2249     		ldr	r1, .L115+56
 1243 008e 234B     		ldr	r3, .L115+60
 1244 0090 1868     		ldr	r0, [r3]
 1245 0092 FFF7FEFF 		bl	PubPushMessage
 1246              	.LVL26:
 671:application/cmd/robot_cmd.c **** }
 1247              		.loc 1 671 1 is_stmt 0 view .LVU395
 1248 0096 08BD     		pop	{r3, pc}
 1249              	.L105:
 629:application/cmd/robot_cmd.c ****         if (!ui_data.Referee_Interactive_Flag.refresh_flag)
 1250              		.loc 1 629 9 is_stmt 1 view .LVU396
 1251 0098 FFF7FEFF 		bl	MouseKeySet
 1252              	.LVL27:
 630:application/cmd/robot_cmd.c ****             ui_data.Referee_Interactive_Flag.refresh_flag = 1; // UIзХМйЭҐеИЈжЦ∞
ARM GAS  C:\Users\10542\AppData\Local\Temp\ccSBnHYj.s 			page 38


 1253              		.loc 1 630 9 view .LVU397
 630:application/cmd/robot_cmd.c ****             ui_data.Referee_Interactive_Flag.refresh_flag = 1; // UIзХМйЭҐеИЈжЦ∞
 1254              		.loc 1 630 13 is_stmt 0 view .LVU398
 1255 009c 174B     		ldr	r3, .L115+28
 1256 009e 1B78     		ldrb	r3, [r3]	@ zero_extendqisi2
 630:application/cmd/robot_cmd.c ****             ui_data.Referee_Interactive_Flag.refresh_flag = 1; // UIзХМйЭҐеИЈжЦ∞
 1257              		.loc 1 630 12 view .LVU399
 1258 00a0 3F2B     		cmp	r3, #63
 1259 00a2 05D8     		bhi	.L108
 631:application/cmd/robot_cmd.c **** 
 1260              		.loc 1 631 13 is_stmt 1 view .LVU400
 631:application/cmd/robot_cmd.c **** 
 1261              		.loc 1 631 59 is_stmt 0 view .LVU401
 1262 00a4 154B     		ldr	r3, .L115+28
 1263 00a6 1A78     		ldrb	r2, [r3]	@ zero_extendqisi2
 1264 00a8 0121     		movs	r1, #1
 1265 00aa 61F38712 		bfi	r2, r1, #6, #2
 1266 00ae 1A70     		strb	r2, [r3]
 1267              	.L108:
 633:application/cmd/robot_cmd.c ****             rc_data[TEMP].key_count[KEY_PRESS][Key_B] = 0; 
 1268              		.loc 1 633 9 is_stmt 1 view .LVU402
 633:application/cmd/robot_cmd.c ****             rc_data[TEMP].key_count[KEY_PRESS][Key_B] = 0; 
 1269              		.loc 1 633 20 is_stmt 0 view .LVU403
 1270 00b0 114B     		ldr	r3, .L115+24
 1271 00b2 1B68     		ldr	r3, [r3]
 633:application/cmd/robot_cmd.c ****             rc_data[TEMP].key_count[KEY_PRESS][Key_B] = 0; 
 1272              		.loc 1 633 29 view .LVU404
 1273 00b4 B3F90820 		ldrsh	r2, [r3, #8]
 633:application/cmd/robot_cmd.c ****             rc_data[TEMP].key_count[KEY_PRESS][Key_B] = 0; 
 1274              		.loc 1 633 12 view .LVU405
 1275 00b8 12F5C87F 		cmn	r2, #400
 1276 00bc CCDA     		bge	.L107
 634:application/cmd/robot_cmd.c ****         break;            
 1277              		.loc 1 634 13 is_stmt 1 view .LVU406
 634:application/cmd/robot_cmd.c ****         break;            
 1278              		.loc 1 634 55 is_stmt 0 view .LVU407
 1279 00be 0022     		movs	r2, #0
 1280 00c0 83F82720 		strb	r2, [r3, #39]
 1281 00c4 C8E7     		b	.L107
 1282              	.L109:
 647:application/cmd/robot_cmd.c **** 
 1283              		.loc 1 647 9 is_stmt 1 view .LVU408
 647:application/cmd/robot_cmd.c **** 
 1284              		.loc 1 647 38 is_stmt 0 view .LVU409
 1285 00c6 07EE903A 		vmov	s15, r3	@ int
 1286 00ca F8EE677A 		vcvt.f32.u32	s15, s15
 1287 00ce 0D4B     		ldr	r3, .L115+36
 1288 00d0 C3ED047A 		vstr.32	s15, [r3, #16]
 1289 00d4 C9E7     		b	.L110
 1290              	.L111:
 652:application/cmd/robot_cmd.c **** 
 1291              		.loc 1 652 9 is_stmt 1 view .LVU410
 652:application/cmd/robot_cmd.c **** 
 1292              		.loc 1 652 39 is_stmt 0 view .LVU411
 1293 00d6 0B4B     		ldr	r3, .L115+36
 1294 00d8 0122     		movs	r2, #1
 1295 00da 1A75     		strb	r2, [r3, #20]
ARM GAS  C:\Users\10542\AppData\Local\Temp\ccSBnHYj.s 			page 39


 1296 00dc CCE7     		b	.L112
 1297              	.L116:
 1298 00de 00BF     		.align	2
 1299              	.L115:
 1300 00e0 00000000 		.word	chassis_fetch_data
 1301 00e4 00000000 		.word	chassis_feed_sub
 1302 00e8 00000000 		.word	shoot_fetch_data
 1303 00ec 00000000 		.word	shoot_feed_sub
 1304 00f0 00000000 		.word	gimbal_fetch_data
 1305 00f4 00000000 		.word	gimbal_feed_sub
 1306 00f8 00000000 		.word	rc_data
 1307 00fc 00000000 		.word	ui_data
 1308 0100 00000000 		.word	referee_data
 1309 0104 00000000 		.word	chassis_cmd_send
 1310 0108 0000C842 		.word	1120403456
 1311 010c 00000000 		.word	chassis_cmd_pub
 1312 0110 00000000 		.word	shoot_cmd_send
 1313 0114 00000000 		.word	shoot_cmd_pub
 1314 0118 00000000 		.word	gimbal_cmd_send
 1315 011c 00000000 		.word	gimbal_cmd_pub
 1316              		.cfi_endproc
 1317              	.LFE283:
 1319              		.section	.bss.last_shoot_mode.0,"aw",%nobits
 1322              	last_shoot_mode.0:
 1323 0000 00       		.space	1
 1324              		.section	.bss.add_pitch.1,"aw",%nobits
 1325              		.align	2
 1328              	add_pitch.1:
 1329 0000 00000000 		.space	4
 1330              		.section	.bss.add_yaw.2,"aw",%nobits
 1331              		.align	2
 1334              	add_yaw.2:
 1335 0000 00000000 		.space	4
 1336              		.section	.bss.bias_angle.3,"aw",%nobits
 1337              		.align	2
 1340              	bias_angle.3:
 1341 0000 00000000 		.space	4
 1342              		.section	.bss.add_pitch.4,"aw",%nobits
 1343              		.align	2
 1346              	add_pitch.4:
 1347 0000 00000000 		.space	4
 1348              		.section	.bss.add_yaw.5,"aw",%nobits
 1349              		.align	2
 1352              	add_yaw.5:
 1353 0000 00000000 		.space	4
 1354              		.section	.bss.angle.6,"aw",%nobits
 1355              		.align	2
 1358              	angle.6:
 1359 0000 00000000 		.space	4
 1360              		.global	led_alarm
 1361              		.section	.bss.led_alarm,"aw",%nobits
 1362              		.align	2
 1365              	led_alarm:
 1366 0000 00000000 		.space	4
 1367              		.global	buzzer_alarm
 1368              		.section	.bss.buzzer_alarm,"aw",%nobits
 1369              		.align	2
ARM GAS  C:\Users\10542\AppData\Local\Temp\ccSBnHYj.s 			page 40


 1372              	buzzer_alarm:
 1373 0000 00000000 		.space	4
 1374              		.section	.bss.robot_state,"aw",%nobits
 1377              	robot_state:
 1378 0000 00       		.space	1
 1379              		.section	.bss.ui_data,"aw",%nobits
 1380              		.align	2
 1383              	ui_data:
 1384 0000 00000000 		.space	19
 1384      00000000 
 1384      00000000 
 1384      00000000 
 1384      000000
 1385              		.section	.bss.referee_data,"aw",%nobits
 1386              		.align	2
 1389              	referee_data:
 1390 0000 00000000 		.space	4
 1391              		.section	.bss.shoot_fetch_data,"aw",%nobits
 1392              		.align	2
 1395              	shoot_fetch_data:
 1396              		.section	.bss.shoot_cmd_send,"aw",%nobits
 1397              		.align	2
 1400              	shoot_cmd_send:
 1401 0000 00000000 		.space	10
 1401      00000000 
 1401      0000
 1402              		.section	.bss.shoot_feed_sub,"aw",%nobits
 1403              		.align	2
 1406              	shoot_feed_sub:
 1407 0000 00000000 		.space	4
 1408              		.section	.bss.shoot_cmd_pub,"aw",%nobits
 1409              		.align	2
 1412              	shoot_cmd_pub:
 1413 0000 00000000 		.space	4
 1414              		.section	.bss.gimbal_fetch_data,"aw",%nobits
 1415              		.align	2
 1418              	gimbal_fetch_data:
 1419 0000 00000000 		.space	44
 1419      00000000 
 1419      00000000 
 1419      00000000 
 1419      00000000 
 1420              		.section	.bss.gimbal_cmd_send,"aw",%nobits
 1421              		.align	2
 1424              	gimbal_cmd_send:
 1425 0000 00000000 		.space	17
 1425      00000000 
 1425      00000000 
 1425      00000000 
 1425      00
 1426              		.section	.bss.gimbal_feed_sub,"aw",%nobits
 1427              		.align	2
 1430              	gimbal_feed_sub:
 1431 0000 00000000 		.space	4
 1432              		.section	.bss.gimbal_cmd_pub,"aw",%nobits
 1433              		.align	2
 1436              	gimbal_cmd_pub:
ARM GAS  C:\Users\10542\AppData\Local\Temp\ccSBnHYj.s 			page 41


 1437 0000 00000000 		.space	4
 1438              		.section	.bss.vision_recv_data,"aw",%nobits
 1439              		.align	2
 1442              	vision_recv_data:
 1443 0000 00000000 		.space	4
 1444              		.section	.bss.rc_data,"aw",%nobits
 1445              		.align	2
 1448              	rc_data:
 1449 0000 00000000 		.space	4
 1450              		.section	.bss.chassis_fetch_data,"aw",%nobits
 1451              		.align	2
 1454              	chassis_fetch_data:
 1455 0000 00000000 		.space	14
 1455      00000000 
 1455      00000000 
 1455      0000
 1456              		.section	.bss.chassis_cmd_send,"aw",%nobits
 1457              		.align	2
 1460              	chassis_cmd_send:
 1461 0000 00000000 		.space	25
 1461      00000000 
 1461      00000000 
 1461      00000000 
 1461      00000000 
 1462              		.section	.bss.chassis_feed_sub,"aw",%nobits
 1463              		.align	2
 1466              	chassis_feed_sub:
 1467 0000 00000000 		.space	4
 1468              		.section	.bss.chassis_cmd_pub,"aw",%nobits
 1469              		.align	2
 1472              	chassis_cmd_pub:
 1473 0000 00000000 		.space	4
 1474              		.section	.bss.robot_config,"aw",%nobits
 1475              		.align	2
 1478              	robot_config:
 1479 0000 00000000 		.space	4
 1480              		.section	.rodata
 1481              		.align	2
 1482              		.set	.LANCHOR0,. + 0
 1483              	.LC0:
 1484 0000 02       		.byte	2
 1485 0001 04       		.byte	4
 1486 0002 00       		.byte	0
 1487              		.text
 1488              	.Letext0:
 1489              		.file 2 "E:/MSYS2/mingw64/arm-none-eabi/include/machine/_default_types.h"
 1490              		.file 3 "E:/MSYS2/mingw64/arm-none-eabi/include/sys/_stdint.h"
 1491              		.file 4 "Drivers/CMSIS/Device/ST/STM32F4xx/Include/stm32f407xx.h"
 1492              		.file 5 "Drivers/CMSIS/Device/ST/STM32F4xx/Include/stm32f4xx.h"
 1493              		.file 6 "Drivers/STM32F4xx_HAL_Driver/Inc/stm32f4xx_hal_def.h"
 1494              		.file 7 "Drivers/STM32F4xx_HAL_Driver/Inc/stm32f4xx_hal_dma.h"
 1495              		.file 8 "Drivers/STM32F4xx_HAL_Driver/Inc/stm32f4xx_hal_can.h"
 1496              		.file 9 "Drivers/STM32F4xx_HAL_Driver/Inc/stm32f4xx_hal_uart.h"
 1497              		.file 10 "modules/imu/ins_task.h"
 1498              		.file 11 "modules/master_machine/master_process.h"
 1499              		.file 12 "bsp/can/bsp_can.h"
 1500              		.file 13 "modules/algorithm/controller.h"
ARM GAS  C:\Users\10542\AppData\Local\Temp\ccSBnHYj.s 			page 42


 1501              		.file 14 "modules/motor/motor_def.h"
 1502              		.file 15 "application/config/config.h"
 1503              		.file 16 "application/robot_def.h"
 1504              		.file 17 "Inc/usart.h"
 1505              		.file 18 "modules/remote/remote_control.h"
 1506              		.file 19 "modules/referee/referee_protocol.h"
 1507              		.file 20 "modules/referee/rm_referee.h"
 1508              		.file 21 "modules/message_center/message_center.h"
 1509              		.file 22 "modules/alarm/alarm_def.h"
 1510              		.file 23 "modules/alarm/buzzer/buzzer.h"
 1511              		.file 24 "modules/alarm/led/led.h"
 1512              		.file 25 "modules/referee/referee_task.h"
ARM GAS  C:\Users\10542\AppData\Local\Temp\ccSBnHYj.s 			page 43

