ARM GAS  C:\Users\10542\AppData\Local\Temp\ccIaUaMv.s 			page 1


   1              		.cpu cortex-m4
   2              		.arch armv7e-m
   3              		.fpu fpv4-sp-d16
   4              		.eabi_attribute 27, 1
   5              		.eabi_attribute 28, 1
   6              		.eabi_attribute 20, 1
   7              		.eabi_attribute 21, 1
   8              		.eabi_attribute 23, 3
   9              		.eabi_attribute 24, 1
  10              		.eabi_attribute 25, 1
  11              		.eabi_attribute 26, 1
  12              		.eabi_attribute 30, 1
  13              		.eabi_attribute 34, 1
  14              		.eabi_attribute 18, 4
  15              		.file	"robot_def.c"
  16              		.text
  17              	.Ltext0:
  18              		.cfi_sections	.debug_frame
  19              		.file 1 "application/robot_def.c"
  20              		.section	.text.RobotConfigInit,"ax",%progbits
  21              		.align	1
  22              		.global	RobotConfigInit
  23              		.syntax unified
  24              		.thumb
  25              		.thumb_func
  27              	RobotConfigInit:
  28              	.LVL0:
  29              	.LFB276:
   1:application/robot_def.c **** /**
   2:application/robot_def.c ****  * @file robot_def.h
   3:application/robot_def.c ****  * @author Zero lanmeiop@163.com
   4:application/robot_def.c ****  * @author Zero
   5:application/robot_def.c ****  * @version 0.1
   6:application/robot_def.c ****  * @date 2025-03-04
   7:application/robot_def.c ****  *
   8:application/robot_def.c ****  * @copyright Copyright (c) HNU YueLu EC 2022 all rights reserved
   9:application/robot_def.c ****  *
  10:application/robot_def.c ****  */
  11:application/robot_def.c **** #include "robot_def.h"
  12:application/robot_def.c **** 
  13:application/robot_def.c **** #include "infantry_config.h"
  14:application/robot_def.c **** #include "sentinel_config.h"
  15:application/robot_def.c **** #include "hero_config.h"
  16:application/robot_def.c **** 
  17:application/robot_def.c **** static Robot_Config_s *robot_instance = {NULL}; 
  18:application/robot_def.c **** 
  19:application/robot_def.c **** Robot_Config_s *RobotConfigInit(uint8_t id)
  20:application/robot_def.c **** {
  30              		.loc 1 20 1 view -0
  31              		.cfi_startproc
  32              		@ args = 0, pretend = 0, frame = 0
  33              		@ frame_needed = 0, uses_anonymous_args = 0
  34              		.loc 1 20 1 is_stmt 0 view .LVU1
  35 0000 38B5     		push	{r3, r4, r5, lr}
  36              	.LCFI0:
  37              		.cfi_def_cfa_offset 16
  38              		.cfi_offset 3, -16
ARM GAS  C:\Users\10542\AppData\Local\Temp\ccIaUaMv.s 			page 2


  39              		.cfi_offset 4, -12
  40              		.cfi_offset 5, -8
  41              		.cfi_offset 14, -4
  42 0002 0546     		mov	r5, r0
  21:application/robot_def.c ****     Robot_Config_s *instance = (Robot_Config_s *)malloc(sizeof(Robot_Config_s));
  43              		.loc 1 21 5 is_stmt 1 view .LVU2
  44              		.loc 1 21 50 is_stmt 0 view .LVU3
  45 0004 4FF4AD60 		mov	r0, #1384
  46              	.LVL1:
  47              		.loc 1 21 50 view .LVU4
  48 0008 FFF7FEFF 		bl	malloc
  49              	.LVL2:
  50 000c 0446     		mov	r4, r0
  51              	.LVL3:
  22:application/robot_def.c ****     memset(instance, 0, sizeof(Robot_Config_s));
  52              		.loc 1 22 5 is_stmt 1 view .LVU5
  53 000e 4FF4AD62 		mov	r2, #1384
  54 0012 0021     		movs	r1, #0
  55 0014 FFF7FEFF 		bl	memset
  56              	.LVL4:
  23:application/robot_def.c **** 
  24:application/robot_def.c ****     if (id == ROBOT_ID)
  57              		.loc 1 24 5 view .LVU6
  58              		.loc 1 24 8 is_stmt 0 view .LVU7
  59 0018 012D     		cmp	r5, #1
  60 001a 03D0     		beq	.L4
  61              	.L2:
  25:application/robot_def.c ****     {
  26:application/robot_def.c ****         switch (id)
  27:application/robot_def.c ****         {
  28:application/robot_def.c ****         case HERO_ROBOT:
  29:application/robot_def.c ****             instance = HeroConfigInit();
  30:application/robot_def.c ****             break;
  31:application/robot_def.c ****         case ENGINEER_ROBOT:
  32:application/robot_def.c ****             break;
  33:application/robot_def.c ****         case INFANTRY_ROBOT_3:
  34:application/robot_def.c ****             instance = InfantryConfigInit(INFANTRY_ROBOT_3);
  35:application/robot_def.c ****             break;
  36:application/robot_def.c ****         case INFANTRY_ROBOT_4:
  37:application/robot_def.c ****             instance = InfantryConfigInit(INFANTRY_ROBOT_4);
  38:application/robot_def.c ****             break;
  39:application/robot_def.c ****         case INFANTRY_ROBOT_5:
  40:application/robot_def.c ****             instance = InfantryConfigInit(INFANTRY_ROBOT_5);
  41:application/robot_def.c ****             break;
  42:application/robot_def.c ****         case AERIAL_ROBOT:
  43:application/robot_def.c ****             break;
  44:application/robot_def.c ****         case SENTINEL_ROBOT:
  45:application/robot_def.c ****             instance = SentinelConfigInit();
  46:application/robot_def.c ****             break;
  47:application/robot_def.c ****         case DART_ROBOT:
  48:application/robot_def.c ****             break;
  49:application/robot_def.c ****         default:
  50:application/robot_def.c ****             break;
  51:application/robot_def.c ****         }
  52:application/robot_def.c ****     }
  53:application/robot_def.c **** 
  54:application/robot_def.c ****     robot_instance = instance;
ARM GAS  C:\Users\10542\AppData\Local\Temp\ccIaUaMv.s 			page 3


  62              		.loc 1 54 5 is_stmt 1 view .LVU8
  63              		.loc 1 54 20 is_stmt 0 view .LVU9
  64 001c 034B     		ldr	r3, .L5
  65 001e 1C60     		str	r4, [r3]
  55:application/robot_def.c ****     return instance;
  66              		.loc 1 55 5 is_stmt 1 view .LVU10
  56:application/robot_def.c **** }
  67              		.loc 1 56 1 is_stmt 0 view .LVU11
  68 0020 2046     		mov	r0, r4
  69 0022 38BD     		pop	{r3, r4, r5, pc}
  70              	.LVL5:
  71              	.L4:
  26:application/robot_def.c ****         {
  72              		.loc 1 26 9 is_stmt 1 view .LVU12
  29:application/robot_def.c ****             break;
  73              		.loc 1 29 13 view .LVU13
  29:application/robot_def.c ****             break;
  74              		.loc 1 29 24 is_stmt 0 view .LVU14
  75 0024 FFF7FEFF 		bl	HeroConfigInit
  76              	.LVL6:
  77 0028 0446     		mov	r4, r0
  78              	.LVL7:
  30:application/robot_def.c ****         case ENGINEER_ROBOT:
  79              		.loc 1 30 13 is_stmt 1 view .LVU15
  80 002a F7E7     		b	.L2
  81              	.L6:
  82              		.align	2
  83              	.L5:
  84 002c 00000000 		.word	robot_instance
  85              		.cfi_endproc
  86              	.LFE276:
  88              		.section	.text.ChassisConfigFeed,"ax",%progbits
  89              		.align	1
  90              		.global	ChassisConfigFeed
  91              		.syntax unified
  92              		.thumb
  93              		.thumb_func
  95              	ChassisConfigFeed:
  96              	.LFB277:
  57:application/robot_def.c **** 
  58:application/robot_def.c **** Chassis_Config_s *ChassisConfigFeed(void)
  59:application/robot_def.c **** {
  97              		.loc 1 59 1 view -0
  98              		.cfi_startproc
  99              		@ args = 0, pretend = 0, frame = 0
 100              		@ frame_needed = 0, uses_anonymous_args = 0
 101              		@ link register save eliminated.
  60:application/robot_def.c ****     return &robot_instance->chassis_param;
 102              		.loc 1 60 5 view .LVU17
  61:application/robot_def.c **** }
 103              		.loc 1 61 1 is_stmt 0 view .LVU18
 104 0000 014B     		ldr	r3, .L8
 105 0002 1868     		ldr	r0, [r3]
 106 0004 7047     		bx	lr
 107              	.L9:
 108 0006 00BF     		.align	2
 109              	.L8:
ARM GAS  C:\Users\10542\AppData\Local\Temp\ccIaUaMv.s 			page 4


 110 0008 00000000 		.word	robot_instance
 111              		.cfi_endproc
 112              	.LFE277:
 114              		.section	.text.GimbalConfigFeed,"ax",%progbits
 115              		.align	1
 116              		.global	GimbalConfigFeed
 117              		.syntax unified
 118              		.thumb
 119              		.thumb_func
 121              	GimbalConfigFeed:
 122              	.LFB278:
  62:application/robot_def.c **** 
  63:application/robot_def.c **** Gimbal_Config_s *GimbalConfigFeed(void)
  64:application/robot_def.c **** {
 123              		.loc 1 64 1 is_stmt 1 view -0
 124              		.cfi_startproc
 125              		@ args = 0, pretend = 0, frame = 0
 126              		@ frame_needed = 0, uses_anonymous_args = 0
 127              		@ link register save eliminated.
  65:application/robot_def.c ****     return &robot_instance->gimbal_param;
 128              		.loc 1 65 5 view .LVU20
 129              		.loc 1 65 27 is_stmt 0 view .LVU21
 130 0000 024B     		ldr	r3, .L11
 131 0002 1868     		ldr	r0, [r3]
  66:application/robot_def.c **** }
 132              		.loc 1 66 1 view .LVU22
 133 0004 00F5D070 		add	r0, r0, #416
 134 0008 7047     		bx	lr
 135              	.L12:
 136 000a 00BF     		.align	2
 137              	.L11:
 138 000c 00000000 		.word	robot_instance
 139              		.cfi_endproc
 140              	.LFE278:
 142              		.section	.text.ShootConfigFeed,"ax",%progbits
 143              		.align	1
 144              		.global	ShootConfigFeed
 145              		.syntax unified
 146              		.thumb
 147              		.thumb_func
 149              	ShootConfigFeed:
 150              	.LFB279:
  67:application/robot_def.c **** Shoot_Config_s *ShootConfigFeed(void)
  68:application/robot_def.c **** {
 151              		.loc 1 68 1 is_stmt 1 view -0
 152              		.cfi_startproc
 153              		@ args = 0, pretend = 0, frame = 0
 154              		@ frame_needed = 0, uses_anonymous_args = 0
 155              		@ link register save eliminated.
  69:application/robot_def.c ****     return &robot_instance->shoot_param;
 156              		.loc 1 69 5 view .LVU24
 157              		.loc 1 69 27 is_stmt 0 view .LVU25
 158 0000 024B     		ldr	r3, .L14
 159 0002 1868     		ldr	r0, [r3]
  70:application/robot_def.c **** }...
 160              		.loc 1 70 1 view .LVU26
 161 0004 00F57970 		add	r0, r0, #996
ARM GAS  C:\Users\10542\AppData\Local\Temp\ccIaUaMv.s 			page 5


 162 0008 7047     		bx	lr
 163              	.L15:
 164 000a 00BF     		.align	2
 165              	.L14:
 166 000c 00000000 		.word	robot_instance
 167              		.cfi_endproc
 168              	.LFE279:
 170              		.section	.bss.robot_instance,"aw",%nobits
 171              		.align	2
 174              	robot_instance:
 175 0000 00000000 		.space	4
 176              		.text
 177              	.Letext0:
 178              		.file 2 "E:/MSYS2/mingw64/arm-none-eabi/include/machine/_default_types.h"
 179              		.file 3 "E:/MSYS2/mingw64/arm-none-eabi/include/sys/_stdint.h"
 180              		.file 4 "Drivers/CMSIS/Device/ST/STM32F4xx/Include/stm32f407xx.h"
 181              		.file 5 "Drivers/CMSIS/Device/ST/STM32F4xx/Include/stm32f4xx.h"
 182              		.file 6 "E:/MSYS2/mingw64/lib/gcc/arm-none-eabi/13.3.0/include/stddef.h"
 183              		.file 7 "Drivers/STM32F4xx_HAL_Driver/Inc/stm32f4xx_hal_can.h"
 184              		.file 8 "bsp/can/bsp_can.h"
 185              		.file 9 "modules/algorithm/controller.h"
 186              		.file 10 "modules/motor/motor_def.h"
 187              		.file 11 "application/config/config.h"
 188              		.file 12 "application/config/sentinel_robot/sentinel_config.h"
 189              		.file 13 "application/config/hero_robot/hero_config.h"
 190              		.file 14 "application/config/infantry_robot/infantry_config.h"
 191              		.file 15 "E:/MSYS2/mingw64/arm-none-eabi/include/string.h"
 192              		.file 16 "E:/MSYS2/mingw64/arm-none-eabi/include/stdlib.h"
 193              		.file 17 "<built-in>"
ARM GAS  C:\Users\10542\AppData\Local\Temp\ccIaUaMv.s 			page 6

