ARM GAS  C:\Users\10542\AppData\Local\Temp\ccoAsWax.s 			page 1


   1              		.cpu cortex-m4
   2              		.arch armv7e-m
   3              		.fpu fpv4-sp-d16
   4              		.eabi_attribute 27, 1
   5              		.eabi_attribute 28, 1
   6              		.eabi_attribute 20, 1
   7              		.eabi_attribute 21, 1
   8              		.eabi_attribute 23, 3
   9              		.eabi_attribute 24, 1
  10              		.eabi_attribute 25, 1
  11              		.eabi_attribute 26, 1
  12              		.eabi_attribute 30, 1
  13              		.eabi_attribute 34, 1
  14              		.eabi_attribute 18, 4
  15              		.file	"robot.c"
  16              		.text
  17              	.Ltext0:
  18              		.cfi_sections	.debug_frame
  19              		.file 1 "application/robot.c"
  20              		.section	.text.StartINSTASK,"ax",%progbits
  21              		.align	1
  22              		.global	StartINSTASK
  23              		.syntax unified
  24              		.thumb
  25              		.thumb_func
  27              	StartINSTASK:
  28              	.LVL0:
  29              	.LFB279:
  30              		.file 2 "application/robot_task.h"
   1:application/robot_task.h **** /* µ│©µäÅĶ»źµ¢ćõ╗ČÕ║öÕÅ¬ńö©õ║Äõ╗╗ÕŖĪÕłØÕ¦ŗÕī¢,ÕÅ¬ĶāĮĶó½robot.cÕīģÕÉ½*/
   2:application/robot_task.h **** #pragma once
   3:application/robot_task.h **** 
   4:application/robot_task.h **** #include "FreeRTOS.h"
   5:application/robot_task.h **** #include "task.h"
   6:application/robot_task.h **** #include "main.h"
   7:application/robot_task.h **** #include "cmsis_os.h"
   8:application/robot_task.h **** 
   9:application/robot_task.h **** #include "robot.h"
  10:application/robot_task.h **** #include "ins_task.h"
  11:application/robot_task.h **** #include "motor_task.h"
  12:application/robot_task.h **** #include "referee_task.h"
  13:application/robot_task.h **** #include "master_process.h"
  14:application/robot_task.h **** #include "daemon.h"
  15:application/robot_task.h **** 
  16:application/robot_task.h **** #include "HT04.h"
  17:application/robot_task.h **** #include "drmotor.h"
  18:application/robot_task.h **** #include "xmmotor.h"
  19:application/robot_task.h **** 
  20:application/robot_task.h **** #include "buzzer.h"
  21:application/robot_task.h **** #include "led.h"
  22:application/robot_task.h **** 
  23:application/robot_task.h **** #include "bsp_log.h"
  24:application/robot_task.h **** 
  25:application/robot_task.h **** osThreadId insTaskHandle;
  26:application/robot_task.h **** osThreadId robotTaskHandle;
  27:application/robot_task.h **** osThreadId motorTaskHandle;
  28:application/robot_task.h **** osThreadId daemonTaskHandle;
ARM GAS  C:\Users\10542\AppData\Local\Temp\ccoAsWax.s 			page 2


  29:application/robot_task.h **** osThreadId uiTaskHandle;
  30:application/robot_task.h **** 
  31:application/robot_task.h **** void StartINSTASK(void const *argument);
  32:application/robot_task.h **** void StartMOTORTASK(void const *argument);
  33:application/robot_task.h **** void StartDAEMONTASK(void const *argument);
  34:application/robot_task.h **** void StartROBOTTASK(void const *argument);
  35:application/robot_task.h **** void StartUITASK(void const *argument);
  36:application/robot_task.h **** 
  37:application/robot_task.h **** /**
  38:application/robot_task.h ****  * @brief ÕłØÕ¦ŗÕī¢µ£║ÕÖ©õ║║õ╗╗ÕŖĪ,µēĆµ£ēµīüń╗ŁĶ┐ÉĶĪīńÜäõ╗╗ÕŖĪķāĮÕ£©Ķ┐ÖķćīÕłØÕ¦ŗÕī¢
  39:application/robot_task.h ****  *
  40:application/robot_task.h ****  */
  41:application/robot_task.h **** void OSTaskInit()
  42:application/robot_task.h **** {
  43:application/robot_task.h ****     osThreadDef(instask, StartINSTASK, osPriorityAboveNormal, 0, 1024);
  44:application/robot_task.h ****     insTaskHandle = osThreadCreate(osThread(instask), NULL); // ńö▒õ║Äµś»ķś╗ÕĪ×Ķ»╗ÕÅ¢õ╝Āµä¤ÕÖ©,õĖ║Õ
  45:application/robot_task.h ****     // // ÕÉÄń╗Łõ┐«µö╣õĖ║Ķ»╗ÕÅ¢õ╝Āµä¤ÕÖ©µĢ░µŹ«ÕćåÕżćÕźĮńÜäõĖŁµ¢ŁÕżäńÉå,
  46:application/robot_task.h **** 
  47:application/robot_task.h ****     osThreadDef(motortask, StartMOTORTASK, osPriorityNormal, 0, 256);
  48:application/robot_task.h ****     motorTaskHandle = osThreadCreate(osThread(motortask), NULL);
  49:application/robot_task.h **** 
  50:application/robot_task.h ****     osThreadDef(daemontask, StartDAEMONTASK, osPriorityNormal, 0, 128);
  51:application/robot_task.h ****     daemonTaskHandle = osThreadCreate(osThread(daemontask), NULL);
  52:application/robot_task.h **** 
  53:application/robot_task.h ****     osThreadDef(robottask, StartROBOTTASK, osPriorityNormal, 0, 1024);
  54:application/robot_task.h ****     robotTaskHandle = osThreadCreate(osThread(robottask), NULL);
  55:application/robot_task.h **** 
  56:application/robot_task.h ****     osThreadDef(uitask, StartUITASK, osPriorityNormal, 0, 512);
  57:application/robot_task.h ****     uiTaskHandle = osThreadCreate(osThread(uitask), NULL);
  58:application/robot_task.h **** 
  59:application/robot_task.h ****     // HTMotorControlInit(); // µ▓Īµ£ēµ│©ÕåīHTńöĄµ£║ÕłÖõĖŹõ╝Üµē¦ĶĪī
  60:application/robot_task.h **** 
  61:application/robot_task.h ****     // DRMotorControlInit();   // ÕÅ¬ĶāĮµ│©ÕåīõĖĆõĖ¬ńöĄµ£║õ╗╗ÕŖĪ
  62:application/robot_task.h **** 
  63:application/robot_task.h ****     XMMotorControlInit();
  64:application/robot_task.h **** }
  65:application/robot_task.h **** 
  66:application/robot_task.h **** __attribute__((noreturn)) void StartINSTASK(void const *argument)
  67:application/robot_task.h **** {
  31              		.loc 2 67 1 view -0
  32              		.cfi_startproc
  33              		@ Volatile: function does not return.
  34              		@ args = 0, pretend = 0, frame = 0
  35              		@ frame_needed = 0, uses_anonymous_args = 0
  36              		.loc 2 67 1 is_stmt 0 view .LVU1
  37 0000 08B5     		push	{r3, lr}
  38              	.LCFI0:
  39              		.cfi_def_cfa_offset 8
  40              		.cfi_offset 3, -8
  41              		.cfi_offset 14, -4
  68:application/robot_task.h ****     static float ins_start;
  42              		.loc 2 68 5 is_stmt 1 view .LVU2
  69:application/robot_task.h ****     static float ins_dt;
  43              		.loc 2 69 5 view .LVU3
  70:application/robot_task.h ****     INS_Init(); // ńĪ«õ┐ØBMI088Ķó½µŁŻńĪ«ÕłØÕ¦ŗÕī¢.
  44              		.loc 2 70 5 view .LVU4
  45 0002 FFF7FEFF 		bl	INS_Init
ARM GAS  C:\Users\10542\AppData\Local\Temp\ccoAsWax.s 			page 3


  46              	.LVL1:
  47              	.L2:
  71:application/robot_task.h ****     LOGINFO("[freeRTOS] INS Task Start");
  48              		.loc 2 71 41 view .LVU5
  72:application/robot_task.h ****     for (;;)
  49              		.loc 2 72 5 view .LVU6
  73:application/robot_task.h ****     {
  74:application/robot_task.h ****         // 1kHz
  75:application/robot_task.h ****         ins_start = DWT_GetTimeline_ms();
  50              		.loc 2 75 9 view .LVU7
  51              		.loc 2 75 21 is_stmt 0 view .LVU8
  52 0006 FFF7FEFF 		bl	DWT_GetTimeline_ms
  53              	.LVL2:
  54              		.loc 2 75 19 discriminator 1 view .LVU9
  55 000a 0A4C     		ldr	r4, .L4
  56 000c 84ED000A 		vstr.32	s0, [r4]
  76:application/robot_task.h ****         INS_Task();
  57              		.loc 2 76 9 is_stmt 1 view .LVU10
  58 0010 FFF7FEFF 		bl	INS_Task
  59              	.LVL3:
  77:application/robot_task.h ****         ins_dt = DWT_GetTimeline_ms() - ins_start;
  60              		.loc 2 77 9 view .LVU11
  61              		.loc 2 77 18 is_stmt 0 view .LVU12
  62 0014 FFF7FEFF 		bl	DWT_GetTimeline_ms
  63              	.LVL4:
  64              		.loc 2 77 39 discriminator 1 view .LVU13
  65 0018 D4ED007A 		vldr.32	s15, [r4]
  66 001c 30EE670A 		vsub.f32	s0, s0, s15
  67              		.loc 2 77 16 discriminator 1 view .LVU14
  68 0020 054B     		ldr	r3, .L4+4
  69 0022 83ED000A 		vstr.32	s0, [r3]
  78:application/robot_task.h ****         if (ins_dt > 1)
  70              		.loc 2 78 9 is_stmt 1 view .LVU15
  79:application/robot_task.h ****             LOGERROR("[freeRTOS] INS Task is being DELAY! dt = [%f]", &ins_dt);
  80:application/robot_task.h ****         VisionSend(); // Ķ¦Żń«ŚÕ«īµłÉÕÉÄÕÅæķĆüĶ¦åĶ¦ēµĢ░µŹ«,õĮåµś»ÕĮōÕēŹńÜäÕ«×ńÄ░õĖŹÕż¬õ╝śķøģ,ÕÉÄń╗Ł
  71              		.loc 2 80 9 view .LVU16
  72 0026 FFF7FEFF 		bl	VisionSend
  73              	.LVL5:
  81:application/robot_task.h ****         osDelay(1);
  74              		.loc 2 81 9 view .LVU17
  75 002a 0120     		movs	r0, #1
  76 002c FFF7FEFF 		bl	osDelay
  77              	.LVL6:
  72:application/robot_task.h ****     {
  78              		.loc 2 72 5 view .LVU18
  79 0030 E9E7     		b	.L2
  80              	.L5:
  81 0032 00BF     		.align	2
  82              	.L4:
  83 0034 00000000 		.word	ins_start.7
  84 0038 00000000 		.word	ins_dt.6
  85              		.cfi_endproc
  86              	.LFE279:
  88              		.section	.text.StartMOTORTASK,"ax",%progbits
  89              		.align	1
  90              		.global	StartMOTORTASK
  91              		.syntax unified
ARM GAS  C:\Users\10542\AppData\Local\Temp\ccoAsWax.s 			page 4


  92              		.thumb
  93              		.thumb_func
  95              	StartMOTORTASK:
  96              	.LFB280:
  82:application/robot_task.h ****     }
  83:application/robot_task.h **** }
  84:application/robot_task.h **** 
  85:application/robot_task.h **** __attribute__((noreturn)) void StartMOTORTASK(void const *argument)
  86:application/robot_task.h **** {
  97              		.loc 2 86 1 view -0
  98              		.cfi_startproc
  99              		@ Volatile: function does not return.
 100              		@ args = 0, pretend = 0, frame = 0
 101              		@ frame_needed = 0, uses_anonymous_args = 0
 102              	.LVL7:
 103              		.loc 2 86 1 is_stmt 0 view .LVU20
 104 0000 08B5     		push	{r3, lr}
 105              	.LCFI1:
 106              		.cfi_def_cfa_offset 8
 107              		.cfi_offset 3, -8
 108              		.cfi_offset 14, -4
 109              	.LVL8:
 110              	.L7:
  87:application/robot_task.h ****     static float motor_dt;
 111              		.loc 2 87 5 is_stmt 1 view .LVU21
  88:application/robot_task.h ****     static float motor_start;
 112              		.loc 2 88 5 view .LVU22
  89:application/robot_task.h ****     LOGINFO("[freeRTOS] MOTOR Task Start");
 113              		.loc 2 89 43 view .LVU23
  90:application/robot_task.h ****     for (;;)
 114              		.loc 2 90 5 view .LVU24
  91:application/robot_task.h ****     {
  92:application/robot_task.h ****         motor_start = DWT_GetTimeline_ms();
 115              		.loc 2 92 9 view .LVU25
 116              		.loc 2 92 23 is_stmt 0 view .LVU26
 117 0002 FFF7FEFF 		bl	DWT_GetTimeline_ms
 118              	.LVL9:
 119              		.loc 2 92 21 discriminator 1 view .LVU27
 120 0006 094C     		ldr	r4, .L9
 121 0008 84ED000A 		vstr.32	s0, [r4]
  93:application/robot_task.h ****         MotorControlTask();
 122              		.loc 2 93 9 is_stmt 1 view .LVU28
 123 000c FFF7FEFF 		bl	MotorControlTask
 124              	.LVL10:
  94:application/robot_task.h ****         motor_dt = DWT_GetTimeline_ms() - motor_start;
 125              		.loc 2 94 9 view .LVU29
 126              		.loc 2 94 20 is_stmt 0 view .LVU30
 127 0010 FFF7FEFF 		bl	DWT_GetTimeline_ms
 128              	.LVL11:
 129              		.loc 2 94 41 discriminator 1 view .LVU31
 130 0014 D4ED007A 		vldr.32	s15, [r4]
 131 0018 30EE670A 		vsub.f32	s0, s0, s15
 132              		.loc 2 94 18 discriminator 1 view .LVU32
 133 001c 044B     		ldr	r3, .L9+4
 134 001e 83ED000A 		vstr.32	s0, [r3]
  95:application/robot_task.h ****         if (motor_dt > 1)
 135              		.loc 2 95 9 is_stmt 1 view .LVU33
ARM GAS  C:\Users\10542\AppData\Local\Temp\ccoAsWax.s 			page 5


  96:application/robot_task.h ****             LOGERROR("[freeRTOS] MOTOR Task is being DELAY! dt = [%f]", &motor_dt);
  97:application/robot_task.h ****         osDelay(1);
 136              		.loc 2 97 9 view .LVU34
 137 0022 0120     		movs	r0, #1
 138 0024 FFF7FEFF 		bl	osDelay
 139              	.LVL12:
  90:application/robot_task.h ****     {
 140              		.loc 2 90 5 view .LVU35
 141 0028 EBE7     		b	.L7
 142              	.L10:
 143 002a 00BF     		.align	2
 144              	.L9:
 145 002c 00000000 		.word	motor_start.5
 146 0030 00000000 		.word	motor_dt.4
 147              		.cfi_endproc
 148              	.LFE280:
 150              		.section	.text.StartDAEMONTASK,"ax",%progbits
 151              		.align	1
 152              		.global	StartDAEMONTASK
 153              		.syntax unified
 154              		.thumb
 155              		.thumb_func
 157              	StartDAEMONTASK:
 158              	.LVL13:
 159              	.LFB281:
  98:application/robot_task.h ****     }
  99:application/robot_task.h **** }
 100:application/robot_task.h **** 
 101:application/robot_task.h **** __attribute__((noreturn)) void StartDAEMONTASK(void const *argument)
 102:application/robot_task.h **** {
 160              		.loc 2 102 1 view -0
 161              		.cfi_startproc
 162              		@ Volatile: function does not return.
 163              		@ args = 0, pretend = 0, frame = 0
 164              		@ frame_needed = 0, uses_anonymous_args = 0
 165              		.loc 2 102 1 is_stmt 0 view .LVU37
 166 0000 08B5     		push	{r3, lr}
 167              	.LCFI2:
 168              		.cfi_def_cfa_offset 8
 169              		.cfi_offset 3, -8
 170              		.cfi_offset 14, -4
 103:application/robot_task.h ****     static float daemon_dt;
 171              		.loc 2 103 5 is_stmt 1 view .LVU38
 104:application/robot_task.h ****     static float daemon_start;
 172              		.loc 2 104 5 view .LVU39
 105:application/robot_task.h ****     BuzzerInit();
 173              		.loc 2 105 5 view .LVU40
 174 0002 FFF7FEFF 		bl	BuzzerInit
 175              	.LVL14:
 106:application/robot_task.h ****     LEDInit();
 176              		.loc 2 106 5 view .LVU41
 177 0006 FFF7FEFF 		bl	LEDInit
 178              	.LVL15:
 179              	.L12:
 107:application/robot_task.h ****     LOGINFO("[freeRTOS] Daemon Task Start");
 180              		.loc 2 107 44 view .LVU42
 108:application/robot_task.h ****     for (;;)
ARM GAS  C:\Users\10542\AppData\Local\Temp\ccoAsWax.s 			page 6


 181              		.loc 2 108 5 view .LVU43
 109:application/robot_task.h ****     {
 110:application/robot_task.h ****         // 100Hz
 111:application/robot_task.h ****         daemon_start = DWT_GetTimeline_ms();
 182              		.loc 2 111 9 view .LVU44
 183              		.loc 2 111 24 is_stmt 0 view .LVU45
 184 000a FFF7FEFF 		bl	DWT_GetTimeline_ms
 185              	.LVL16:
 186              		.loc 2 111 22 discriminator 1 view .LVU46
 187 000e 0B4C     		ldr	r4, .L14
 188 0010 84ED000A 		vstr.32	s0, [r4]
 112:application/robot_task.h ****         DaemonTask();
 189              		.loc 2 112 9 is_stmt 1 view .LVU47
 190 0014 FFF7FEFF 		bl	DaemonTask
 191              	.LVL17:
 113:application/robot_task.h ****         BuzzerTask();
 192              		.loc 2 113 9 view .LVU48
 193 0018 FFF7FEFF 		bl	BuzzerTask
 194              	.LVL18:
 114:application/robot_task.h ****         LEDTask();
 195              		.loc 2 114 9 view .LVU49
 196 001c FFF7FEFF 		bl	LEDTask
 197              	.LVL19:
 115:application/robot_task.h ****         daemon_dt = DWT_GetTimeline_ms() - daemon_start;
 198              		.loc 2 115 9 view .LVU50
 199              		.loc 2 115 21 is_stmt 0 view .LVU51
 200 0020 FFF7FEFF 		bl	DWT_GetTimeline_ms
 201              	.LVL20:
 202              		.loc 2 115 42 discriminator 1 view .LVU52
 203 0024 D4ED007A 		vldr.32	s15, [r4]
 204 0028 30EE670A 		vsub.f32	s0, s0, s15
 205              		.loc 2 115 19 discriminator 1 view .LVU53
 206 002c 044B     		ldr	r3, .L14+4
 207 002e 83ED000A 		vstr.32	s0, [r3]
 116:application/robot_task.h ****         if (daemon_dt > 10)
 208              		.loc 2 116 9 is_stmt 1 view .LVU54
 117:application/robot_task.h ****             LOGERROR("[freeRTOS] Daemon Task is being DELAY! dt = [%f]", &daemon_dt);
 118:application/robot_task.h ****         osDelay(10);
 209              		.loc 2 118 9 view .LVU55
 210 0032 0A20     		movs	r0, #10
 211 0034 FFF7FEFF 		bl	osDelay
 212              	.LVL21:
 108:application/robot_task.h ****     {
 213              		.loc 2 108 5 view .LVU56
 214 0038 E7E7     		b	.L12
 215              	.L15:
 216 003a 00BF     		.align	2
 217              	.L14:
 218 003c 00000000 		.word	daemon_start.3
 219 0040 00000000 		.word	daemon_dt.2
 220              		.cfi_endproc
 221              	.LFE281:
 223              		.section	.text.StartUITASK,"ax",%progbits
 224              		.align	1
 225              		.global	StartUITASK
 226              		.syntax unified
 227              		.thumb
ARM GAS  C:\Users\10542\AppData\Local\Temp\ccoAsWax.s 			page 7


 228              		.thumb_func
 230              	StartUITASK:
 231              	.LVL22:
 232              	.LFB283:
 119:application/robot_task.h ****     }
 120:application/robot_task.h **** }
 121:application/robot_task.h **** 
 122:application/robot_task.h **** __attribute__((noreturn)) void StartROBOTTASK(void const *argument)
 123:application/robot_task.h **** {
 124:application/robot_task.h ****     static float robot_dt;
 125:application/robot_task.h ****     static float robot_start;
 126:application/robot_task.h ****     LOGINFO("[freeRTOS] ROBOT core Task Start");
 127:application/robot_task.h ****     // 200Hz-500Hz,Ķŗźµ£ēķóØÕż¢ńÜäµÄ¦ÕłČõ╗╗ÕŖĪÕ”éÕ╣│ĶĪĪµŁźÕģĄÕÅ»ĶāĮķ£ĆĶ”üµÅÉÕŹćĶć│1kHz
 128:application/robot_task.h ****     for (;;)
 129:application/robot_task.h ****     {
 130:application/robot_task.h ****         robot_start = DWT_GetTimeline_ms();
 131:application/robot_task.h ****         RobotTask();
 132:application/robot_task.h ****         robot_dt = DWT_GetTimeline_ms() - robot_start;
 133:application/robot_task.h ****         if (robot_dt > 5)
 134:application/robot_task.h ****             LOGERROR("[freeRTOS] ROBOT core Task is being DELAY! dt = [%f]", &robot_dt);
 135:application/robot_task.h ****         osDelay(5);
 136:application/robot_task.h ****     }
 137:application/robot_task.h **** }
 138:application/robot_task.h **** 
 139:application/robot_task.h **** __attribute__((noreturn)) void StartUITASK(void const *argument)
 140:application/robot_task.h **** {
 233              		.loc 2 140 1 view -0
 234              		.cfi_startproc
 235              		@ Volatile: function does not return.
 236              		@ args = 0, pretend = 0, frame = 0
 237              		@ frame_needed = 0, uses_anonymous_args = 0
 238              		.loc 2 140 1 is_stmt 0 view .LVU58
 239 0000 08B5     		push	{r3, lr}
 240              	.LCFI3:
 241              		.cfi_def_cfa_offset 8
 242              		.cfi_offset 3, -8
 243              		.cfi_offset 14, -4
 141:application/robot_task.h ****     LOGINFO("[freeRTOS] UI Task Start");
 244              		.loc 2 141 40 is_stmt 1 view .LVU59
 142:application/robot_task.h ****     MyUIInit();
 245              		.loc 2 142 5 view .LVU60
 246 0002 FFF7FEFF 		bl	MyUIInit
 247              	.LVL23:
 248              	.L17:
 143:application/robot_task.h ****     LOGINFO("[freeRTOS] UI Init Done, communication with ref has established");
 249              		.loc 2 143 79 view .LVU61
 144:application/robot_task.h ****     for (;;)
 250              		.loc 2 144 5 view .LVU62
 145:application/robot_task.h ****     {
 146:application/robot_task.h ****         // µ»Åń╗ÖĶŻüÕłżń│╗ń╗¤ÕÅæķĆüõĖĆÕīģµĢ░µŹ«õ╝ÜµīéĶĄĘõĖĆµ¼Ī,Ķ»”Ķ¦üUITaskÕćĮµĢ░ńÜärefereeSend()
 147:application/robot_task.h ****         UITask();
 251              		.loc 2 147 9 view .LVU63
 252 0006 FFF7FEFF 		bl	UITask
 253              	.LVL24:
 148:application/robot_task.h ****         osDelay(1); // ÕŹ│õĮ┐µ▓Īµ£ēõ╗╗õĮĢUIķ£ĆĶ”üÕłĘµ¢░,õ╣¤µīéĶĄĘõĖĆµ¼Ī,ķś▓µŁóÕŹĪÕ£©UITaskõĖŁµŚĀµ│Ģ
 254              		.loc 2 148 9 discriminator 1 view .LVU64
 255 000a 0120     		movs	r0, #1
ARM GAS  C:\Users\10542\AppData\Local\Temp\ccoAsWax.s 			page 8


 256 000c FFF7FEFF 		bl	osDelay
 257              	.LVL25:
 144:application/robot_task.h ****     for (;;)
 258              		.loc 2 144 5 view .LVU65
 259 0010 F9E7     		b	.L17
 260              		.cfi_endproc
 261              	.LFE283:
 263              		.section	.text.BSPInit,"ax",%progbits
 264              		.align	1
 265              		.global	BSPInit
 266              		.syntax unified
 267              		.thumb
 268              		.thumb_func
 270              	BSPInit:
 271              	.LFB239:
 272              		.file 3 "bsp/bsp_init.h"
   1:bsp/bsp_init.h **** #ifndef BSP_INIT_h
   2:bsp/bsp_init.h **** #define BSP_INIT_h
   3:bsp/bsp_init.h **** 
   4:bsp/bsp_init.h **** #include "bsp_init.h"
   5:bsp/bsp_init.h **** #include "bsp_log.h"
   6:bsp/bsp_init.h **** #include "bsp_dwt.h"
   7:bsp/bsp_init.h **** #include "bsp_usb.h"
   8:bsp/bsp_init.h **** 
   9:bsp/bsp_init.h **** /**
  10:bsp/bsp_init.h ****  * @brief bspÕ▒éÕłØÕ¦ŗÕī¢ń╗¤õĖĆÕģźÕÅŻ,Ķ┐Öķćīõ╗ģÕłØÕ¦ŗÕī¢Õ┐ģķĪ╗ńÜäbspń╗äõ╗Č,ÕģČõ╗¢ń╗äõ╗ČńÜäÕłØÕ¦ŗÕī¢
  11:bsp/bsp_init.h ****  *        ķ£ĆÕ£©Õ«×µŚČń│╗ń╗¤ÕÉ»ÕŖ©ÕēŹĶ░āńö©,ńø«ÕēŹńö▒RobotoInit()Ķ░āńö©
  12:bsp/bsp_init.h ****  * 
  13:bsp/bsp_init.h ****  * @note ÕģČõ╗¢Õ«×õŠŗÕ×ŗńÜäÕż¢Ķ«ŠÕ”éCANÕÆīõĖ▓ÕÅŻõ╝ÜÕ£©µ│©ÕåīÕ«×õŠŗńÜäµŚČÕĆÖĶć¬ÕŖ©ÕłØÕ¦ŗÕī¢,õĖŹµ│©Õå
  14:bsp/bsp_init.h ****   */
  15:bsp/bsp_init.h **** // 
  16:bsp/bsp_init.h **** void BSPInit()
  17:bsp/bsp_init.h **** {
 273              		.loc 3 17 1 view -0
 274              		.cfi_startproc
 275              		@ args = 0, pretend = 0, frame = 0
 276              		@ frame_needed = 0, uses_anonymous_args = 0
 277 0000 08B5     		push	{r3, lr}
 278              	.LCFI4:
 279              		.cfi_def_cfa_offset 8
 280              		.cfi_offset 3, -8
 281              		.cfi_offset 14, -4
  18:bsp/bsp_init.h ****     DWT_Init(168);
 282              		.loc 3 18 5 view .LVU67
 283 0002 A820     		movs	r0, #168
 284 0004 FFF7FEFF 		bl	DWT_Init
 285              	.LVL26:
  19:bsp/bsp_init.h ****     BSPLogInit();
 286              		.loc 3 19 5 view .LVU68
 287 0008 FFF7FEFF 		bl	BSPLogInit
 288              	.LVL27:
  20:bsp/bsp_init.h **** }
 289              		.loc 3 20 1 is_stmt 0 view .LVU69
 290 000c 08BD     		pop	{r3, pc}
 291              		.cfi_endproc
 292              	.LFE239:
 294              		.section	.text.OSTaskInit,"ax",%progbits
ARM GAS  C:\Users\10542\AppData\Local\Temp\ccoAsWax.s 			page 9


 295              		.align	1
 296              		.global	OSTaskInit
 297              		.syntax unified
 298              		.thumb
 299              		.thumb_func
 301              	OSTaskInit:
 302              	.LFB278:
  42:application/robot_task.h ****     osThreadDef(instask, StartINSTASK, osPriorityAboveNormal, 0, 1024);
 303              		.loc 2 42 1 is_stmt 1 view -0
 304              		.cfi_startproc
 305              		@ args = 0, pretend = 0, frame = 144
 306              		@ frame_needed = 0, uses_anonymous_args = 0
 307 0000 10B5     		push	{r4, lr}
 308              	.LCFI5:
 309              		.cfi_def_cfa_offset 8
 310              		.cfi_offset 4, -8
 311              		.cfi_offset 14, -4
 312 0002 A4B0     		sub	sp, sp, #144
 313              	.LCFI6:
 314              		.cfi_def_cfa_offset 152
  43:application/robot_task.h ****     insTaskHandle = osThreadCreate(osThread(instask), NULL); // ńö▒õ║Äµś»ķś╗ÕĪ×Ķ»╗ÕÅ¢õ╝Āµä¤ÕÖ©,õĖ║Õ
 315              		.loc 2 43 5 view .LVU71
 316 0004 2E4C     		ldr	r4, .L23
 317 0006 0DF1740C 		add	ip, sp, #116
 318 000a A646     		mov	lr, r4
 319 000c BEE80F00 		ldmia	lr!, {r0, r1, r2, r3}
 320 0010 ACE80F00 		stmia	ip!, {r0, r1, r2, r3}
 321 0014 9EE80700 		ldm	lr, {r0, r1, r2}
 322 0018 8CE80700 		stm	ip, {r0, r1, r2}
  44:application/robot_task.h ****     // // ÕÉÄń╗Łõ┐«µö╣õĖ║Ķ»╗ÕÅ¢õ╝Āµä¤ÕÖ©µĢ░µŹ«ÕćåÕżćÕźĮńÜäõĖŁµ¢ŁÕżäńÉå,
 323              		.loc 2 44 5 view .LVU72
  44:application/robot_task.h ****     // // ÕÉÄń╗Łõ┐«µö╣õĖ║Ķ»╗ÕÅ¢õ╝Āµä¤ÕÖ©µĢ░µŹ«ÕćåÕżćÕźĮńÜäõĖŁµ¢ŁÕżäńÉå,
 324              		.loc 2 44 21 is_stmt 0 view .LVU73
 325 001c 0021     		movs	r1, #0
 326 001e 1DA8     		add	r0, sp, #116
 327 0020 FFF7FEFF 		bl	osThreadCreate
 328              	.LVL28:
  44:application/robot_task.h ****     // // ÕÉÄń╗Łõ┐«µö╣õĖ║Ķ»╗ÕÅ¢õ╝Āµä¤ÕÖ©µĢ░µŹ«ÕćåÕżćÕźĮńÜäõĖŁµ¢ŁÕżäńÉå,
 329              		.loc 2 44 19 discriminator 1 view .LVU74
 330 0024 274B     		ldr	r3, .L23+4
 331 0026 1860     		str	r0, [r3]
  47:application/robot_task.h ****     motorTaskHandle = osThreadCreate(osThread(motortask), NULL);
 332              		.loc 2 47 5 is_stmt 1 view .LVU75
 333 0028 0DF1580C 		add	ip, sp, #88
 334 002c 04F11C0E 		add	lr, r4, #28
 335 0030 BEE80F00 		ldmia	lr!, {r0, r1, r2, r3}
 336 0034 ACE80F00 		stmia	ip!, {r0, r1, r2, r3}
 337 0038 9EE80700 		ldm	lr, {r0, r1, r2}
 338 003c 8CE80700 		stm	ip, {r0, r1, r2}
  48:application/robot_task.h **** 
 339              		.loc 2 48 5 view .LVU76
  48:application/robot_task.h **** 
 340              		.loc 2 48 23 is_stmt 0 view .LVU77
 341 0040 0021     		movs	r1, #0
 342 0042 16A8     		add	r0, sp, #88
 343 0044 FFF7FEFF 		bl	osThreadCreate
 344              	.LVL29:
ARM GAS  C:\Users\10542\AppData\Local\Temp\ccoAsWax.s 			page 10


  48:application/robot_task.h **** 
 345              		.loc 2 48 21 discriminator 1 view .LVU78
 346 0048 1F4B     		ldr	r3, .L23+8
 347 004a 1860     		str	r0, [r3]
  50:application/robot_task.h ****     daemonTaskHandle = osThreadCreate(osThread(daemontask), NULL);
 348              		.loc 2 50 5 is_stmt 1 view .LVU79
 349 004c 0DF13C0C 		add	ip, sp, #60
 350 0050 04F1380E 		add	lr, r4, #56
 351 0054 BEE80F00 		ldmia	lr!, {r0, r1, r2, r3}
 352 0058 ACE80F00 		stmia	ip!, {r0, r1, r2, r3}
 353 005c 9EE80700 		ldm	lr, {r0, r1, r2}
 354 0060 8CE80700 		stm	ip, {r0, r1, r2}
  51:application/robot_task.h **** 
 355              		.loc 2 51 5 view .LVU80
  51:application/robot_task.h **** 
 356              		.loc 2 51 24 is_stmt 0 view .LVU81
 357 0064 0021     		movs	r1, #0
 358 0066 0FA8     		add	r0, sp, #60
 359 0068 FFF7FEFF 		bl	osThreadCreate
 360              	.LVL30:
  51:application/robot_task.h **** 
 361              		.loc 2 51 22 discriminator 1 view .LVU82
 362 006c 174B     		ldr	r3, .L23+12
 363 006e 1860     		str	r0, [r3]
  53:application/robot_task.h ****     robotTaskHandle = osThreadCreate(osThread(robottask), NULL);
 364              		.loc 2 53 5 is_stmt 1 view .LVU83
 365 0070 0DF1200C 		add	ip, sp, #32
 366 0074 04F1540E 		add	lr, r4, #84
 367 0078 BEE80F00 		ldmia	lr!, {r0, r1, r2, r3}
 368 007c ACE80F00 		stmia	ip!, {r0, r1, r2, r3}
 369 0080 9EE80700 		ldm	lr, {r0, r1, r2}
 370 0084 8CE80700 		stm	ip, {r0, r1, r2}
  54:application/robot_task.h **** 
 371              		.loc 2 54 5 view .LVU84
  54:application/robot_task.h **** 
 372              		.loc 2 54 23 is_stmt 0 view .LVU85
 373 0088 0021     		movs	r1, #0
 374 008a 08A8     		add	r0, sp, #32
 375 008c FFF7FEFF 		bl	osThreadCreate
 376              	.LVL31:
  54:application/robot_task.h **** 
 377              		.loc 2 54 21 discriminator 1 view .LVU86
 378 0090 0F4B     		ldr	r3, .L23+16
 379 0092 1860     		str	r0, [r3]
  56:application/robot_task.h ****     uiTaskHandle = osThreadCreate(osThread(uitask), NULL);
 380              		.loc 2 56 5 is_stmt 1 view .LVU87
 381 0094 0DF1040E 		add	lr, sp, #4
 382 0098 04F1700C 		add	ip, r4, #112
 383 009c BCE80F00 		ldmia	ip!, {r0, r1, r2, r3}
 384 00a0 AEE80F00 		stmia	lr!, {r0, r1, r2, r3}
 385 00a4 9CE80700 		ldm	ip, {r0, r1, r2}
 386 00a8 8EE80700 		stm	lr, {r0, r1, r2}
  57:application/robot_task.h **** 
 387              		.loc 2 57 5 view .LVU88
  57:application/robot_task.h **** 
 388              		.loc 2 57 20 is_stmt 0 view .LVU89
 389 00ac 0021     		movs	r1, #0
ARM GAS  C:\Users\10542\AppData\Local\Temp\ccoAsWax.s 			page 11


 390 00ae 01A8     		add	r0, sp, #4
 391 00b0 FFF7FEFF 		bl	osThreadCreate
 392              	.LVL32:
  57:application/robot_task.h **** 
 393              		.loc 2 57 18 discriminator 1 view .LVU90
 394 00b4 074B     		ldr	r3, .L23+20
 395 00b6 1860     		str	r0, [r3]
  63:application/robot_task.h **** }
 396              		.loc 2 63 5 is_stmt 1 view .LVU91
 397 00b8 FFF7FEFF 		bl	XMMotorControlInit
 398              	.LVL33:
  64:application/robot_task.h **** 
 399              		.loc 2 64 1 is_stmt 0 view .LVU92
 400 00bc 24B0     		add	sp, sp, #144
 401              	.LCFI7:
 402              		.cfi_def_cfa_offset 8
 403              		@ sp needed
 404 00be 10BD     		pop	{r4, pc}
 405              	.L24:
 406              		.align	2
 407              	.L23:
 408 00c0 00000000 		.word	.LANCHOR0
 409 00c4 00000000 		.word	insTaskHandle
 410 00c8 00000000 		.word	motorTaskHandle
 411 00cc 00000000 		.word	daemonTaskHandle
 412 00d0 00000000 		.word	robotTaskHandle
 413 00d4 00000000 		.word	uiTaskHandle
 414              		.cfi_endproc
 415              	.LFE278:
 417              		.section	.text.RobotInit,"ax",%progbits
 418              		.align	1
 419              		.global	RobotInit
 420              		.syntax unified
 421              		.thumb
 422              		.thumb_func
 424              	RobotInit:
 425              	.LFB284:
   1:application/robot.c **** #include "bsp_init.h"
   2:application/robot.c **** #include "robot.h"
   3:application/robot.c **** #include "robot_def.h"
   4:application/robot.c **** #include "robot_task.h"
   5:application/robot.c **** 
   6:application/robot.c **** // ń╝¢Ķ»æwarning,µÅÉķåÆÕ╝ĆÕÅæĶĆģõ┐«µö╣µ£║ÕÖ©õ║║ÕÅéµĢ░
   7:application/robot.c **** #ifndef ROBOT_DEF_PARAM_WARNING
   8:application/robot.c **** #define ROBOT_DEF_PARAM_WARNING
   9:application/robot.c **** #pragma message "check if you have configured the parameters in robot_def.h, IF NOT, please refer t
  10:application/robot.c **** #endif // !ROBOT_DEF_PARAM_WARNING
  11:application/robot.c **** 
  12:application/robot.c **** #if defined(ONE_BOARD) || defined(CHASSIS_BOARD)
  13:application/robot.c **** #include "chassis.h"
  14:application/robot.c **** #endif
  15:application/robot.c **** 
  16:application/robot.c **** #if defined(ONE_BOARD) || defined(GIMBAL_BOARD)
  17:application/robot.c **** #include "gimbal.h"
  18:application/robot.c **** #include "shoot.h"
  19:application/robot.c **** #include "robot_cmd.h"
  20:application/robot.c **** #endif
ARM GAS  C:\Users\10542\AppData\Local\Temp\ccoAsWax.s 			page 12


  21:application/robot.c **** 
  22:application/robot.c **** 
  23:application/robot.c **** void RobotInit()
  24:application/robot.c **** {  
 426              		.loc 1 24 1 is_stmt 1 view -0
 427              		.cfi_startproc
 428              		@ args = 0, pretend = 0, frame = 0
 429              		@ frame_needed = 0, uses_anonymous_args = 0
 430 0000 08B5     		push	{r3, lr}
 431              	.LCFI8:
 432              		.cfi_def_cfa_offset 8
 433              		.cfi_offset 3, -8
 434              		.cfi_offset 14, -4
  25:application/robot.c ****     // Õģ│ķŚŁõĖŁµ¢Ł,ķś▓µŁóÕ£©ÕłØÕ¦ŗÕī¢Ķ┐ćń©ŗõĖŁÕÅæńö¤õĖŁµ¢Ł
  26:application/robot.c ****     // Ķ»ĘõĖŹĶ”üÕ£©ÕłØÕ¦ŗÕī¢Ķ┐ćń©ŗõĖŁõĮ┐ńö©õĖŁµ¢ŁÕÆīÕ╗ČµŚČÕćĮµĢ░’╝ü
  27:application/robot.c ****     // ĶŗźÕ┐ģķĪ╗,ÕłÖÕÅ¬ÕģüĶ«ĖõĮ┐ńö©DWT_Delay()
  28:application/robot.c ****     __disable_irq();
 435              		.loc 1 28 5 view .LVU94
 436              	.LBB6:
 437              	.LBI6:
 438              		.file 4 "Drivers/CMSIS/Include/cmsis_gcc.h"
   1:Drivers/CMSIS/Include/cmsis_gcc.h **** /**************************************************************************//**
   2:Drivers/CMSIS/Include/cmsis_gcc.h ****  * @file     cmsis_gcc.h
   3:Drivers/CMSIS/Include/cmsis_gcc.h ****  * @brief    CMSIS compiler GCC header file
   4:Drivers/CMSIS/Include/cmsis_gcc.h ****  * @version  V5.0.4
   5:Drivers/CMSIS/Include/cmsis_gcc.h ****  * @date     09. April 2018
   6:Drivers/CMSIS/Include/cmsis_gcc.h ****  ******************************************************************************/
   7:Drivers/CMSIS/Include/cmsis_gcc.h **** /*
   8:Drivers/CMSIS/Include/cmsis_gcc.h ****  * Copyright (c) 2009-2018 Arm Limited. All rights reserved.
   9:Drivers/CMSIS/Include/cmsis_gcc.h ****  *
  10:Drivers/CMSIS/Include/cmsis_gcc.h ****  * SPDX-License-Identifier: Apache-2.0
  11:Drivers/CMSIS/Include/cmsis_gcc.h ****  *
  12:Drivers/CMSIS/Include/cmsis_gcc.h ****  * Licensed under the Apache License, Version 2.0 (the License); you may
  13:Drivers/CMSIS/Include/cmsis_gcc.h ****  * not use this file except in compliance with the License.
  14:Drivers/CMSIS/Include/cmsis_gcc.h ****  * You may obtain a copy of the License at
  15:Drivers/CMSIS/Include/cmsis_gcc.h ****  *
  16:Drivers/CMSIS/Include/cmsis_gcc.h ****  * www.apache.org/licenses/LICENSE-2.0
  17:Drivers/CMSIS/Include/cmsis_gcc.h ****  *
  18:Drivers/CMSIS/Include/cmsis_gcc.h ****  * Unless required by applicable law or agreed to in writing, software
  19:Drivers/CMSIS/Include/cmsis_gcc.h ****  * distributed under the License is distributed on an AS IS BASIS, WITHOUT
  20:Drivers/CMSIS/Include/cmsis_gcc.h ****  * WARRANTIES OR CONDITIONS OF ANY KIND, either express or implied.
  21:Drivers/CMSIS/Include/cmsis_gcc.h ****  * See the License for the specific language governing permissions and
  22:Drivers/CMSIS/Include/cmsis_gcc.h ****  * limitations under the License.
  23:Drivers/CMSIS/Include/cmsis_gcc.h ****  */
  24:Drivers/CMSIS/Include/cmsis_gcc.h **** 
  25:Drivers/CMSIS/Include/cmsis_gcc.h **** #ifndef __CMSIS_GCC_H
  26:Drivers/CMSIS/Include/cmsis_gcc.h **** #define __CMSIS_GCC_H
  27:Drivers/CMSIS/Include/cmsis_gcc.h **** 
  28:Drivers/CMSIS/Include/cmsis_gcc.h **** /* ignore some GCC warnings */
  29:Drivers/CMSIS/Include/cmsis_gcc.h **** #pragma GCC diagnostic push
  30:Drivers/CMSIS/Include/cmsis_gcc.h **** #pragma GCC diagnostic ignored "-Wsign-conversion"
  31:Drivers/CMSIS/Include/cmsis_gcc.h **** #pragma GCC diagnostic ignored "-Wconversion"
  32:Drivers/CMSIS/Include/cmsis_gcc.h **** #pragma GCC diagnostic ignored "-Wunused-parameter"
  33:Drivers/CMSIS/Include/cmsis_gcc.h **** 
  34:Drivers/CMSIS/Include/cmsis_gcc.h **** /* Fallback for __has_builtin */
  35:Drivers/CMSIS/Include/cmsis_gcc.h **** #ifndef __has_builtin
  36:Drivers/CMSIS/Include/cmsis_gcc.h ****   #define __has_builtin(x) (0)
ARM GAS  C:\Users\10542\AppData\Local\Temp\ccoAsWax.s 			page 13


  37:Drivers/CMSIS/Include/cmsis_gcc.h **** #endif
  38:Drivers/CMSIS/Include/cmsis_gcc.h **** 
  39:Drivers/CMSIS/Include/cmsis_gcc.h **** /* CMSIS compiler specific defines */
  40:Drivers/CMSIS/Include/cmsis_gcc.h **** #ifndef   __ASM
  41:Drivers/CMSIS/Include/cmsis_gcc.h ****   #define __ASM                                  __asm
  42:Drivers/CMSIS/Include/cmsis_gcc.h **** #endif
  43:Drivers/CMSIS/Include/cmsis_gcc.h **** #ifndef   __INLINE
  44:Drivers/CMSIS/Include/cmsis_gcc.h ****   #define __INLINE                               inline
  45:Drivers/CMSIS/Include/cmsis_gcc.h **** #endif
  46:Drivers/CMSIS/Include/cmsis_gcc.h **** #ifndef   __STATIC_INLINE
  47:Drivers/CMSIS/Include/cmsis_gcc.h ****   #define __STATIC_INLINE                        static inline
  48:Drivers/CMSIS/Include/cmsis_gcc.h **** #endif
  49:Drivers/CMSIS/Include/cmsis_gcc.h **** #ifndef   __STATIC_FORCEINLINE                 
  50:Drivers/CMSIS/Include/cmsis_gcc.h ****   #define __STATIC_FORCEINLINE                   __attribute__((always_inline)) static inline
  51:Drivers/CMSIS/Include/cmsis_gcc.h **** #endif                                           
  52:Drivers/CMSIS/Include/cmsis_gcc.h **** #ifndef   __NO_RETURN
  53:Drivers/CMSIS/Include/cmsis_gcc.h ****   #define __NO_RETURN                            __attribute__((__noreturn__))
  54:Drivers/CMSIS/Include/cmsis_gcc.h **** #endif
  55:Drivers/CMSIS/Include/cmsis_gcc.h **** #ifndef   __USED
  56:Drivers/CMSIS/Include/cmsis_gcc.h ****   #define __USED                                 __attribute__((used))
  57:Drivers/CMSIS/Include/cmsis_gcc.h **** #endif
  58:Drivers/CMSIS/Include/cmsis_gcc.h **** #ifndef   __WEAK
  59:Drivers/CMSIS/Include/cmsis_gcc.h ****   #define __WEAK                                 __attribute__((weak))
  60:Drivers/CMSIS/Include/cmsis_gcc.h **** #endif
  61:Drivers/CMSIS/Include/cmsis_gcc.h **** #ifndef   __PACKED
  62:Drivers/CMSIS/Include/cmsis_gcc.h ****   #define __PACKED                               __attribute__((packed, aligned(1)))
  63:Drivers/CMSIS/Include/cmsis_gcc.h **** #endif
  64:Drivers/CMSIS/Include/cmsis_gcc.h **** #ifndef   __PACKED_STRUCT
  65:Drivers/CMSIS/Include/cmsis_gcc.h ****   #define __PACKED_STRUCT                        struct __attribute__((packed, aligned(1)))
  66:Drivers/CMSIS/Include/cmsis_gcc.h **** #endif
  67:Drivers/CMSIS/Include/cmsis_gcc.h **** #ifndef   __PACKED_UNION
  68:Drivers/CMSIS/Include/cmsis_gcc.h ****   #define __PACKED_UNION                         union __attribute__((packed, aligned(1)))
  69:Drivers/CMSIS/Include/cmsis_gcc.h **** #endif
  70:Drivers/CMSIS/Include/cmsis_gcc.h **** #ifndef   __UNALIGNED_UINT32        /* deprecated */
  71:Drivers/CMSIS/Include/cmsis_gcc.h ****   #pragma GCC diagnostic push
  72:Drivers/CMSIS/Include/cmsis_gcc.h ****   #pragma GCC diagnostic ignored "-Wpacked"
  73:Drivers/CMSIS/Include/cmsis_gcc.h ****   #pragma GCC diagnostic ignored "-Wattributes"
  74:Drivers/CMSIS/Include/cmsis_gcc.h ****   struct __attribute__((packed)) T_UINT32 { uint32_t v; };
  75:Drivers/CMSIS/Include/cmsis_gcc.h ****   #pragma GCC diagnostic pop
  76:Drivers/CMSIS/Include/cmsis_gcc.h ****   #define __UNALIGNED_UINT32(x)                  (((struct T_UINT32 *)(x))->v)
  77:Drivers/CMSIS/Include/cmsis_gcc.h **** #endif
  78:Drivers/CMSIS/Include/cmsis_gcc.h **** #ifndef   __UNALIGNED_UINT16_WRITE
  79:Drivers/CMSIS/Include/cmsis_gcc.h ****   #pragma GCC diagnostic push
  80:Drivers/CMSIS/Include/cmsis_gcc.h ****   #pragma GCC diagnostic ignored "-Wpacked"
  81:Drivers/CMSIS/Include/cmsis_gcc.h ****   #pragma GCC diagnostic ignored "-Wattributes"
  82:Drivers/CMSIS/Include/cmsis_gcc.h ****   __PACKED_STRUCT T_UINT16_WRITE { uint16_t v; };
  83:Drivers/CMSIS/Include/cmsis_gcc.h ****   #pragma GCC diagnostic pop
  84:Drivers/CMSIS/Include/cmsis_gcc.h ****   #define __UNALIGNED_UINT16_WRITE(addr, val)    (void)((((struct T_UINT16_WRITE *)(void *)(addr))-
  85:Drivers/CMSIS/Include/cmsis_gcc.h **** #endif
  86:Drivers/CMSIS/Include/cmsis_gcc.h **** #ifndef   __UNALIGNED_UINT16_READ
  87:Drivers/CMSIS/Include/cmsis_gcc.h ****   #pragma GCC diagnostic push
  88:Drivers/CMSIS/Include/cmsis_gcc.h ****   #pragma GCC diagnostic ignored "-Wpacked"
  89:Drivers/CMSIS/Include/cmsis_gcc.h ****   #pragma GCC diagnostic ignored "-Wattributes"
  90:Drivers/CMSIS/Include/cmsis_gcc.h ****   __PACKED_STRUCT T_UINT16_READ { uint16_t v; };
  91:Drivers/CMSIS/Include/cmsis_gcc.h ****   #pragma GCC diagnostic pop
  92:Drivers/CMSIS/Include/cmsis_gcc.h ****   #define __UNALIGNED_UINT16_READ(addr)          (((const struct T_UINT16_READ *)(const void *)(add
  93:Drivers/CMSIS/Include/cmsis_gcc.h **** #endif
ARM GAS  C:\Users\10542\AppData\Local\Temp\ccoAsWax.s 			page 14


  94:Drivers/CMSIS/Include/cmsis_gcc.h **** #ifndef   __UNALIGNED_UINT32_WRITE
  95:Drivers/CMSIS/Include/cmsis_gcc.h ****   #pragma GCC diagnostic push
  96:Drivers/CMSIS/Include/cmsis_gcc.h ****   #pragma GCC diagnostic ignored "-Wpacked"
  97:Drivers/CMSIS/Include/cmsis_gcc.h ****   #pragma GCC diagnostic ignored "-Wattributes"
  98:Drivers/CMSIS/Include/cmsis_gcc.h ****   __PACKED_STRUCT T_UINT32_WRITE { uint32_t v; };
  99:Drivers/CMSIS/Include/cmsis_gcc.h ****   #pragma GCC diagnostic pop
 100:Drivers/CMSIS/Include/cmsis_gcc.h ****   #define __UNALIGNED_UINT32_WRITE(addr, val)    (void)((((struct T_UINT32_WRITE *)(void *)(addr))-
 101:Drivers/CMSIS/Include/cmsis_gcc.h **** #endif
 102:Drivers/CMSIS/Include/cmsis_gcc.h **** #ifndef   __UNALIGNED_UINT32_READ
 103:Drivers/CMSIS/Include/cmsis_gcc.h ****   #pragma GCC diagnostic push
 104:Drivers/CMSIS/Include/cmsis_gcc.h ****   #pragma GCC diagnostic ignored "-Wpacked"
 105:Drivers/CMSIS/Include/cmsis_gcc.h ****   #pragma GCC diagnostic ignored "-Wattributes"
 106:Drivers/CMSIS/Include/cmsis_gcc.h ****   __PACKED_STRUCT T_UINT32_READ { uint32_t v; };
 107:Drivers/CMSIS/Include/cmsis_gcc.h ****   #pragma GCC diagnostic pop
 108:Drivers/CMSIS/Include/cmsis_gcc.h ****   #define __UNALIGNED_UINT32_READ(addr)          (((const struct T_UINT32_READ *)(const void *)(add
 109:Drivers/CMSIS/Include/cmsis_gcc.h **** #endif
 110:Drivers/CMSIS/Include/cmsis_gcc.h **** #ifndef   __ALIGNED
 111:Drivers/CMSIS/Include/cmsis_gcc.h ****   #define __ALIGNED(x)                           __attribute__((aligned(x)))
 112:Drivers/CMSIS/Include/cmsis_gcc.h **** #endif
 113:Drivers/CMSIS/Include/cmsis_gcc.h **** #ifndef   __RESTRICT
 114:Drivers/CMSIS/Include/cmsis_gcc.h ****   #define __RESTRICT                             __restrict
 115:Drivers/CMSIS/Include/cmsis_gcc.h **** #endif
 116:Drivers/CMSIS/Include/cmsis_gcc.h **** 
 117:Drivers/CMSIS/Include/cmsis_gcc.h **** 
 118:Drivers/CMSIS/Include/cmsis_gcc.h **** /* ###########################  Core Function Access  ########################### */
 119:Drivers/CMSIS/Include/cmsis_gcc.h **** /** \ingroup  CMSIS_Core_FunctionInterface
 120:Drivers/CMSIS/Include/cmsis_gcc.h ****     \defgroup CMSIS_Core_RegAccFunctions CMSIS Core Register Access Functions
 121:Drivers/CMSIS/Include/cmsis_gcc.h ****   @{
 122:Drivers/CMSIS/Include/cmsis_gcc.h ****  */
 123:Drivers/CMSIS/Include/cmsis_gcc.h **** 
 124:Drivers/CMSIS/Include/cmsis_gcc.h **** /**
 125:Drivers/CMSIS/Include/cmsis_gcc.h ****   \brief   Enable IRQ Interrupts
 126:Drivers/CMSIS/Include/cmsis_gcc.h ****   \details Enables IRQ interrupts by clearing the I-bit in the CPSR.
 127:Drivers/CMSIS/Include/cmsis_gcc.h ****            Can only be executed in Privileged modes.
 128:Drivers/CMSIS/Include/cmsis_gcc.h ****  */
 129:Drivers/CMSIS/Include/cmsis_gcc.h **** __STATIC_FORCEINLINE void __enable_irq(void)
 130:Drivers/CMSIS/Include/cmsis_gcc.h **** {
 131:Drivers/CMSIS/Include/cmsis_gcc.h ****   __ASM volatile ("cpsie i" : : : "memory");
 132:Drivers/CMSIS/Include/cmsis_gcc.h **** }
 133:Drivers/CMSIS/Include/cmsis_gcc.h **** 
 134:Drivers/CMSIS/Include/cmsis_gcc.h **** 
 135:Drivers/CMSIS/Include/cmsis_gcc.h **** /**
 136:Drivers/CMSIS/Include/cmsis_gcc.h ****   \brief   Disable IRQ Interrupts
 137:Drivers/CMSIS/Include/cmsis_gcc.h ****   \details Disables IRQ interrupts by setting the I-bit in the CPSR.
 138:Drivers/CMSIS/Include/cmsis_gcc.h ****            Can only be executed in Privileged modes.
 139:Drivers/CMSIS/Include/cmsis_gcc.h ****  */
 140:Drivers/CMSIS/Include/cmsis_gcc.h **** __STATIC_FORCEINLINE void __disable_irq(void)
 439              		.loc 4 140 27 view .LVU95
 440              	.LBB7:
 141:Drivers/CMSIS/Include/cmsis_gcc.h **** {
 142:Drivers/CMSIS/Include/cmsis_gcc.h ****   __ASM volatile ("cpsid i" : : : "memory");
 441              		.loc 4 142 3 view .LVU96
 442              		.syntax unified
 443              	@ 142 "Drivers/CMSIS/Include/cmsis_gcc.h" 1
 444 0002 72B6     		cpsid i
 445              	@ 0 "" 2
 446              		.thumb
ARM GAS  C:\Users\10542\AppData\Local\Temp\ccoAsWax.s 			page 15


 447              		.syntax unified
 448              	.LBE7:
 449              	.LBE6:
  29:application/robot.c ****     
  30:application/robot.c ****     BSPInit();
 450              		.loc 1 30 5 view .LVU97
 451 0004 FFF7FEFF 		bl	BSPInit
 452              	.LVL34:
  31:application/robot.c **** 
  32:application/robot.c **** #if defined(ONE_BOARD) || defined(GIMBAL_BOARD)
  33:application/robot.c ****     RobotCMDInit();
 453              		.loc 1 33 5 view .LVU98
 454 0008 FFF7FEFF 		bl	RobotCMDInit
 455              	.LVL35:
  34:application/robot.c ****     GimbalInit();
 456              		.loc 1 34 5 view .LVU99
 457 000c FFF7FEFF 		bl	GimbalInit
 458              	.LVL36:
  35:application/robot.c ****     ShootInit();
 459              		.loc 1 35 5 view .LVU100
 460 0010 FFF7FEFF 		bl	ShootInit
 461              	.LVL37:
  36:application/robot.c **** #endif
  37:application/robot.c **** 
  38:application/robot.c **** #if defined(ONE_BOARD) || defined(CHASSIS_BOARD)
  39:application/robot.c ****     ChassisInit();
 462              		.loc 1 39 5 view .LVU101
 463 0014 FFF7FEFF 		bl	ChassisInit
 464              	.LVL38:
  40:application/robot.c **** #endif
  41:application/robot.c **** 
  42:application/robot.c ****     OSTaskInit(); // ÕłøÕ╗║Õ¤║ńĪĆõ╗╗ÕŖĪ
 465              		.loc 1 42 5 view .LVU102
 466 0018 FFF7FEFF 		bl	OSTaskInit
 467              	.LVL39:
  43:application/robot.c **** 
  44:application/robot.c ****     // ÕłØÕ¦ŗÕī¢Õ«īµłÉ,Õ╝ĆÕÉ»õĖŁµ¢Ł
  45:application/robot.c ****     __enable_irq();
 468              		.loc 1 45 5 view .LVU103
 469              	.LBB8:
 470              	.LBI8:
 129:Drivers/CMSIS/Include/cmsis_gcc.h **** {
 471              		.loc 4 129 27 view .LVU104
 472              	.LBB9:
 131:Drivers/CMSIS/Include/cmsis_gcc.h **** }
 473              		.loc 4 131 3 view .LVU105
 474              		.syntax unified
 475              	@ 131 "Drivers/CMSIS/Include/cmsis_gcc.h" 1
 476 001c 62B6     		cpsie i
 477              	@ 0 "" 2
 478              		.thumb
 479              		.syntax unified
 480              	.LBE9:
 481              	.LBE8:
  46:application/robot.c **** }
 482              		.loc 1 46 1 is_stmt 0 view .LVU106
 483 001e 08BD     		pop	{r3, pc}
ARM GAS  C:\Users\10542\AppData\Local\Temp\ccoAsWax.s 			page 16


 484              		.cfi_endproc
 485              	.LFE284:
 487              		.section	.text.RobotTask,"ax",%progbits
 488              		.align	1
 489              		.global	RobotTask
 490              		.syntax unified
 491              		.thumb
 492              		.thumb_func
 494              	RobotTask:
 495              	.LFB285:
  47:application/robot.c **** 
  48:application/robot.c **** 
  49:application/robot.c **** void RobotTask()
  50:application/robot.c **** {
 496              		.loc 1 50 1 is_stmt 1 view -0
 497              		.cfi_startproc
 498              		@ args = 0, pretend = 0, frame = 0
 499              		@ frame_needed = 0, uses_anonymous_args = 0
 500 0000 08B5     		push	{r3, lr}
 501              	.LCFI9:
 502              		.cfi_def_cfa_offset 8
 503              		.cfi_offset 3, -8
 504              		.cfi_offset 14, -4
  51:application/robot.c **** #if defined(ONE_BOARD) || defined(GIMBAL_BOARD)
  52:application/robot.c ****     RobotCMDTask();
 505              		.loc 1 52 5 view .LVU108
 506 0002 FFF7FEFF 		bl	RobotCMDTask
 507              	.LVL40:
  53:application/robot.c ****     GimbalTask();
 508              		.loc 1 53 5 view .LVU109
 509 0006 FFF7FEFF 		bl	GimbalTask
 510              	.LVL41:
  54:application/robot.c ****     ShootTask();
 511              		.loc 1 54 5 view .LVU110
 512 000a FFF7FEFF 		bl	ShootTask
 513              	.LVL42:
  55:application/robot.c **** #endif
  56:application/robot.c **** 
  57:application/robot.c **** #if defined(ONE_BOARD) || defined(CHASSIS_BOARD)
  58:application/robot.c ****     ChassisTask();
 514              		.loc 1 58 5 view .LVU111
 515 000e FFF7FEFF 		bl	ChassisTask
 516              	.LVL43:
  59:application/robot.c **** #endif
  60:application/robot.c **** 
  61:application/robot.c **** }...
 517              		.loc 1 61 1 is_stmt 0 view .LVU112
 518 0012 08BD     		pop	{r3, pc}
 519              		.cfi_endproc
 520              	.LFE285:
 522              		.section	.text.StartROBOTTASK,"ax",%progbits
 523              		.align	1
 524              		.global	StartROBOTTASK
 525              		.syntax unified
 526              		.thumb
 527              		.thumb_func
 529              	StartROBOTTASK:
ARM GAS  C:\Users\10542\AppData\Local\Temp\ccoAsWax.s 			page 17


 530              	.LFB282:
 123:application/robot_task.h ****     static float robot_dt;
 531              		.loc 2 123 1 is_stmt 1 view -0
 532              		.cfi_startproc
 533              		@ Volatile: function does not return.
 534              		@ args = 0, pretend = 0, frame = 0
 535              		@ frame_needed = 0, uses_anonymous_args = 0
 536              	.LVL44:
 123:application/robot_task.h ****     static float robot_dt;
 537              		.loc 2 123 1 is_stmt 0 view .LVU114
 538 0000 08B5     		push	{r3, lr}
 539              	.LCFI10:
 540              		.cfi_def_cfa_offset 8
 541              		.cfi_offset 3, -8
 542              		.cfi_offset 14, -4
 543              	.LVL45:
 544              	.L30:
 124:application/robot_task.h ****     static float robot_start;
 545              		.loc 2 124 5 is_stmt 1 view .LVU115
 125:application/robot_task.h ****     LOGINFO("[freeRTOS] ROBOT core Task Start");
 546              		.loc 2 125 5 view .LVU116
 126:application/robot_task.h ****     // 200Hz-500Hz,Ķŗźµ£ēķóØÕż¢ńÜäµÄ¦ÕłČõ╗╗ÕŖĪÕ”éÕ╣│ĶĪĪµŁźÕģĄÕÅ»ĶāĮķ£ĆĶ”üµÅÉÕŹćĶć│1kHz
 547              		.loc 2 126 48 view .LVU117
 128:application/robot_task.h ****     {
 548              		.loc 2 128 5 view .LVU118
 130:application/robot_task.h ****         RobotTask();
 549              		.loc 2 130 9 view .LVU119
 130:application/robot_task.h ****         RobotTask();
 550              		.loc 2 130 23 is_stmt 0 view .LVU120
 551 0002 FFF7FEFF 		bl	DWT_GetTimeline_ms
 552              	.LVL46:
 130:application/robot_task.h ****         RobotTask();
 553              		.loc 2 130 21 discriminator 1 view .LVU121
 554 0006 094C     		ldr	r4, .L32
 555 0008 84ED000A 		vstr.32	s0, [r4]
 131:application/robot_task.h ****         robot_dt = DWT_GetTimeline_ms() - robot_start;
 556              		.loc 2 131 9 is_stmt 1 view .LVU122
 557 000c FFF7FEFF 		bl	RobotTask
 558              	.LVL47:
 132:application/robot_task.h ****         if (robot_dt > 5)
 559              		.loc 2 132 9 view .LVU123
 132:application/robot_task.h ****         if (robot_dt > 5)
 560              		.loc 2 132 20 is_stmt 0 view .LVU124
 561 0010 FFF7FEFF 		bl	DWT_GetTimeline_ms
 562              	.LVL48:
 132:application/robot_task.h ****         if (robot_dt > 5)
 563              		.loc 2 132 41 discriminator 1 view .LVU125
 564 0014 D4ED007A 		vldr.32	s15, [r4]
 565 0018 30EE670A 		vsub.f32	s0, s0, s15
 132:application/robot_task.h ****         if (robot_dt > 5)
 566              		.loc 2 132 18 discriminator 1 view .LVU126
 567 001c 044B     		ldr	r3, .L32+4
 568 001e 83ED000A 		vstr.32	s0, [r3]
 133:application/robot_task.h ****             LOGERROR("[freeRTOS] ROBOT core Task is being DELAY! dt = [%f]", &robot_dt);
 569              		.loc 2 133 9 is_stmt 1 view .LVU127
 135:application/robot_task.h ****     }
 570              		.loc 2 135 9 view .LVU128
ARM GAS  C:\Users\10542\AppData\Local\Temp\ccoAsWax.s 			page 18


 571 0022 0520     		movs	r0, #5
 572 0024 FFF7FEFF 		bl	osDelay
 573              	.LVL49:
 128:application/robot_task.h ****     {
 574              		.loc 2 128 5 view .LVU129
 575 0028 EBE7     		b	.L30
 576              	.L33:
 577 002a 00BF     		.align	2
 578              	.L32:
 579 002c 00000000 		.word	robot_start.1
 580 0030 00000000 		.word	robot_dt.0
 581              		.cfi_endproc
 582              	.LFE282:
 584              		.section	.bss.robot_dt.0,"aw",%nobits
 585              		.align	2
 588              	robot_dt.0:
 589 0000 00000000 		.space	4
 590              		.section	.bss.robot_start.1,"aw",%nobits
 591              		.align	2
 594              	robot_start.1:
 595 0000 00000000 		.space	4
 596              		.section	.bss.daemon_dt.2,"aw",%nobits
 597              		.align	2
 600              	daemon_dt.2:
 601 0000 00000000 		.space	4
 602              		.section	.bss.daemon_start.3,"aw",%nobits
 603              		.align	2
 606              	daemon_start.3:
 607 0000 00000000 		.space	4
 608              		.section	.bss.motor_dt.4,"aw",%nobits
 609              		.align	2
 612              	motor_dt.4:
 613 0000 00000000 		.space	4
 614              		.section	.bss.motor_start.5,"aw",%nobits
 615              		.align	2
 618              	motor_start.5:
 619 0000 00000000 		.space	4
 620              		.section	.bss.ins_dt.6,"aw",%nobits
 621              		.align	2
 624              	ins_dt.6:
 625 0000 00000000 		.space	4
 626              		.section	.bss.ins_start.7,"aw",%nobits
 627              		.align	2
 630              	ins_start.7:
 631 0000 00000000 		.space	4
 632              		.section	.rodata.str1.4,"aMS",%progbits,1
 633              		.align	2
 634              	.LC8:
 635 0000 75697461 		.ascii	"uitask\000"
 635      736B00
 636 0007 00       		.align	2
 637              	.LC6:
 638 0008 726F626F 		.ascii	"robottask\000"
 638      74746173 
 638      6B00
 639 0012 0000     		.align	2
 640              	.LC4:
ARM GAS  C:\Users\10542\AppData\Local\Temp\ccoAsWax.s 			page 19


 641 0014 6461656D 		.ascii	"daemontask\000"
 641      6F6E7461 
 641      736B00
 642 001f 00       		.align	2
 643              	.LC2:
 644 0020 6D6F746F 		.ascii	"motortask\000"
 644      72746173 
 644      6B00
 645 002a 0000     		.align	2
 646              	.LC0:
 647 002c 696E7374 		.ascii	"instask\000"
 647      61736B00 
 648              		.global	uiTaskHandle
 649              		.section	.bss.uiTaskHandle,"aw",%nobits
 650              		.align	2
 653              	uiTaskHandle:
 654 0000 00000000 		.space	4
 655              		.global	daemonTaskHandle
 656              		.section	.bss.daemonTaskHandle,"aw",%nobits
 657              		.align	2
 660              	daemonTaskHandle:
 661 0000 00000000 		.space	4
 662              		.global	motorTaskHandle
 663              		.section	.bss.motorTaskHandle,"aw",%nobits
 664              		.align	2
 667              	motorTaskHandle:
 668 0000 00000000 		.space	4
 669              		.global	robotTaskHandle
 670              		.section	.bss.robotTaskHandle,"aw",%nobits
 671              		.align	2
 674              	robotTaskHandle:
 675 0000 00000000 		.space	4
 676              		.global	insTaskHandle
 677              		.section	.bss.insTaskHandle,"aw",%nobits
 678              		.align	2
 681              	insTaskHandle:
 682 0000 00000000 		.space	4
 683              		.section	.rodata
 684              		.align	2
 685              		.set	.LANCHOR0,. + 0
 686              	.LC10:
 687 0000 2C000000 		.word	.LC0
 688 0004 00000000 		.word	StartINSTASK
 689 0008 0100     		.short	1
 690 000a 0000     		.space	2
 691 000c 00000000 		.word	0
 692 0010 00040000 		.word	1024
 693 0014 00000000 		.word	0
 694 0018 00000000 		.word	0
 695              	.LC11:
 696 001c 20000000 		.word	.LC2
 697 0020 00000000 		.word	StartMOTORTASK
 698 0024 0000     		.short	0
 699 0026 0000     		.space	2
 700 0028 00000000 		.word	0
 701 002c 00010000 		.word	256
 702 0030 00000000 		.word	0
ARM GAS  C:\Users\10542\AppData\Local\Temp\ccoAsWax.s 			page 20


 703 0034 00000000 		.word	0
 704              	.LC12:
 705 0038 14000000 		.word	.LC4
 706 003c 00000000 		.word	StartDAEMONTASK
 707 0040 0000     		.short	0
 708 0042 0000     		.space	2
 709 0044 00000000 		.word	0
 710 0048 80000000 		.word	128
 711 004c 00000000 		.word	0
 712 0050 00000000 		.word	0
 713              	.LC13:
 714 0054 08000000 		.word	.LC6
 715 0058 00000000 		.word	StartROBOTTASK
 716 005c 0000     		.short	0
 717 005e 0000     		.space	2
 718 0060 00000000 		.word	0
 719 0064 00040000 		.word	1024
 720 0068 00000000 		.word	0
 721 006c 00000000 		.word	0
 722              	.LC14:
 723 0070 00000000 		.word	.LC8
 724 0074 00000000 		.word	StartUITASK
 725 0078 0000     		.short	0
 726 007a 0000     		.space	2
 727 007c 00000000 		.word	0
 728 0080 00020000 		.word	512
 729 0084 00000000 		.word	0
 730 0088 00000000 		.word	0
 731              		.text
 732              	.Letext0:
 733              		.file 5 "E:/MSYS2/mingw64/arm-none-eabi/include/machine/_default_types.h"
 734              		.file 6 "E:/MSYS2/mingw64/arm-none-eabi/include/sys/_stdint.h"
 735              		.file 7 "modules/imu/ins_task.h"
 736              		.file 8 "Middlewares/Third_Party/FreeRTOS/Source/portable/GCC/ARM_CM4F/portmacro.h"
 737              		.file 9 "Middlewares/Third_Party/FreeRTOS/Source/include/FreeRTOS.h"
 738              		.file 10 "Middlewares/Third_Party/FreeRTOS/Source/include/task.h"
 739              		.file 11 "Middlewares/Third_Party/FreeRTOS/Source/CMSIS_RTOS/cmsis_os.h"
 740              		.file 12 "application/chassis/chassis.h"
 741              		.file 13 "application/shoot/shoot.h"
 742              		.file 14 "application/gimbal/gimbal.h"
 743              		.file 15 "application/cmd/robot_cmd.h"
 744              		.file 16 "modules/referee/referee_task.h"
 745              		.file 17 "modules/alarm/led/led.h"
 746              		.file 18 "modules/alarm/buzzer/buzzer.h"
 747              		.file 19 "modules/daemon/daemon.h"
 748              		.file 20 "modules/motor/motor_task.h"
 749              		.file 21 "modules/master_machine/master_process.h"
 750              		.file 22 "bsp/dwt/bsp_dwt.h"
 751              		.file 23 "modules/motor/XMmotor/xmmotor.h"
 752              		.file 24 "bsp/log/bsp_log.h"
ARM GAS  C:\Users\10542\AppData\Local\Temp\ccoAsWax.s 			page 21

