ARM GAS  C:\Users\10542\AppData\Local\Temp\cc7v1umG.s 			page 1


   1              		.cpu cortex-m4
   2              		.arch armv7e-m
   3              		.fpu fpv4-sp-d16
   4              		.eabi_attribute 27, 1
   5              		.eabi_attribute 28, 1
   6              		.eabi_attribute 20, 1
   7              		.eabi_attribute 21, 1
   8              		.eabi_attribute 23, 3
   9              		.eabi_attribute 24, 1
  10              		.eabi_attribute 25, 1
  11              		.eabi_attribute 26, 1
  12              		.eabi_attribute 30, 1
  13              		.eabi_attribute 34, 1
  14              		.eabi_attribute 18, 4
  15              		.file	"shoot.c"
  16              		.text
  17              	.Ltext0:
  18              		.cfi_sections	.debug_frame
  19              		.file 1 "application/shoot/shoot.c"
  20              		.section	.rodata.ShootInit.str1.4,"aMS",%progbits,1
  21              		.align	2
  22              	.LC0:
  23 0000 73686F6F 		.ascii	"shoot_feed\000"
  23      745F6665 
  23      656400
  24 000b 00       		.align	2
  25              	.LC1:
  26 000c 73686F6F 		.ascii	"shoot_cmd\000"
  26      745F636D 
  26      6400
  27              		.section	.text.ShootInit,"ax",%progbits
  28              		.align	1
  29              		.global	ShootInit
  30              		.syntax unified
  31              		.thumb
  32              		.thumb_func
  34              	ShootInit:
  35              	.LFB271:
   1:application/shoot/shoot.c **** #include "shoot.h"
   2:application/shoot/shoot.c **** #include "robot_def.h"
   3:application/shoot/shoot.c **** 
   4:application/shoot/shoot.c **** #include "dji_motor.h"
   5:application/shoot/shoot.c **** #include "message_center.h"
   6:application/shoot/shoot.c **** #include "bsp_dwt.h"
   7:application/shoot/shoot.c **** #include "general_def.h"
   8:application/shoot/shoot.c **** 
   9:application/shoot/shoot.c **** static Shoot_Config_s *shoot_config;
  10:application/shoot/shoot.c **** 
  11:application/shoot/shoot.c **** /* ه¯¹ن؛ژهڈŒهڈ‘ه°„وœ؛و‍„çڑ„وœ؛ه™¨ن؛؛,ه°†ن¸‹é‌¢çڑ„و•°وچ®ه°پè£…وˆگç»“و‍„ن½“هچ³هڈ¯,ç”ںوˆگن¸¤ن»½shootه؛
  12:application/shoot/shoot.c **** static DJIMotorInstance *friction_lf, *friction_rf, *loader; // و‹¨ç›کç”µوœ؛
  13:application/shoot/shoot.c **** static DJIMotorInstance *friction_lb, *friction_rb;
  14:application/shoot/shoot.c **** // static servo_instance *lid; éœ€è¦په¢‍هٹ ه¼¹èˆ±ç›–
  15:application/shoot/shoot.c **** 
  16:application/shoot/shoot.c **** static Publisher_t *shoot_pub;
  17:application/shoot/shoot.c **** static Shoot_Ctrl_Cmd_s shoot_cmd_recv; // و‌¥è‡ھcmdçڑ„هڈ‘ه°„وژ§هˆ¶ن؟،وپ¯
  18:application/shoot/shoot.c **** static Subscriber_t *shoot_sub;
  19:application/shoot/shoot.c **** static Shoot_Upload_Data_s shoot_feedback_data; // و‌¥è‡ھcmdçڑ„هڈ‘ه°„وژ§هˆ¶ن؟،وپ¯
ARM GAS  C:\Users\10542\AppData\Local\Temp\cc7v1umG.s 			page 2


  20:application/shoot/shoot.c **** 
  21:application/shoot/shoot.c **** // dwtه®ڑو—¶,è®،ç®—ه†·هچ´ç”¨
  22:application/shoot/shoot.c **** static float hibernate_time = 0, dead_time = 0;
  23:application/shoot/shoot.c **** 
  24:application/shoot/shoot.c **** #define ONE_BULLET_DELTA_ANGLE 9400    // هڈ‘ه°„ن¸€هڈ‘ه¼¹ن¸¸و‹¨ç›کè½¬هٹ¨çڑ„è·‌ç¦»,ç”±وœ؛و¢°è®¾è®،ه›
  25:application/shoot/shoot.c **** #define REDUCTION_RATIO_LOADER 36.0f // 2006و‹¨ç›کç”µوœ؛çڑ„ه‡ڈé€ںو¯”,è‹±é›„éœ€è¦پن؟®و”¹ن¸؛3508çڑ„19
  26:application/shoot/shoot.c **** #define NUM_PER_CIRCLE 10            // و‹¨ç›کن¸€هœˆçڑ„è£…è½½é‡ڈ
  27:application/shoot/shoot.c **** 
  28:application/shoot/shoot.c **** void ShootInit()
  29:application/shoot/shoot.c **** {
  36              		.loc 1 29 1 view -0
  37              		.cfi_startproc
  38              		@ args = 0, pretend = 0, frame = 0
  39              		@ frame_needed = 0, uses_anonymous_args = 0
  40 0000 10B5     		push	{r4, lr}
  41              	.LCFI0:
  42              		.cfi_def_cfa_offset 8
  43              		.cfi_offset 4, -8
  44              		.cfi_offset 14, -4
  30:application/shoot/shoot.c ****     shoot_config = ShootConfigFeed();
  45              		.loc 1 30 5 view .LVU1
  46              		.loc 1 30 20 is_stmt 0 view .LVU2
  47 0002 FFF7FEFF 		bl	ShootConfigFeed
  48              	.LVL0:
  49              		.loc 1 30 18 discriminator 1 view .LVU3
  50 0006 274C     		ldr	r4, .L5
  51 0008 2060     		str	r0, [r4]
  31:application/shoot/shoot.c **** 
  32:application/shoot/shoot.c ****     // ه·¦ه‰چو‘©و“¦è½®
  33:application/shoot/shoot.c ****     shoot_config->friction_motor_config.can_init_config.tx_id = shoot_config->friction_motor_id[MOT
  52              		.loc 1 33 5 is_stmt 1 view .LVU4
  53              		.loc 1 33 96 is_stmt 0 view .LVU5
  54 000a 90F87C31 		ldrb	r3, [r0, #380]	@ zero_extendqisi2
  55              		.loc 1 33 63 view .LVU6
  56 000e C0F8A830 		str	r3, [r0, #168]
  34:application/shoot/shoot.c ****     shoot_config->friction_motor_config.controller_setting_init_config.motor_reverse_flag = MOTOR_D
  57              		.loc 1 34 5 is_stmt 1 view .LVU7
  58              		.loc 1 34 91 is_stmt 0 view .LVU8
  59 0012 0023     		movs	r3, #0
  60 0014 80F89A30 		strb	r3, [r0, #154]
  35:application/shoot/shoot.c ****     friction_lf = DJIMotorInit(&shoot_config->friction_motor_config);
  61              		.loc 1 35 5 is_stmt 1 view .LVU9
  62              		.loc 1 35 19 is_stmt 0 view .LVU10
  63 0018 0430     		adds	r0, r0, #4
  64 001a FFF7FEFF 		bl	DJIMotorInit
  65              	.LVL1:
  66              		.loc 1 35 17 discriminator 1 view .LVU11
  67 001e 224B     		ldr	r3, .L5+4
  68 0020 1860     		str	r0, [r3]
  36:application/shoot/shoot.c **** 
  37:application/shoot/shoot.c ****     // هڈ³ه‰چو‘©و“¦è½®
  38:application/shoot/shoot.c ****     shoot_config->friction_motor_config.can_init_config.tx_id = shoot_config->friction_motor_id[MOT
  69              		.loc 1 38 5 is_stmt 1 view .LVU12
  70              		.loc 1 38 77 is_stmt 0 view .LVU13
  71 0022 2068     		ldr	r0, [r4]
  72              		.loc 1 38 96 view .LVU14
  73 0024 90F87D31 		ldrb	r3, [r0, #381]	@ zero_extendqisi2
ARM GAS  C:\Users\10542\AppData\Local\Temp\cc7v1umG.s 			page 3


  74              		.loc 1 38 63 view .LVU15
  75 0028 C0F8A830 		str	r3, [r0, #168]
  39:application/shoot/shoot.c ****     shoot_config->friction_motor_config.controller_setting_init_config.motor_reverse_flag = MOTOR_D
  76              		.loc 1 39 5 is_stmt 1 view .LVU16
  77              		.loc 1 39 91 is_stmt 0 view .LVU17
  78 002c 0123     		movs	r3, #1
  79 002e 80F89A30 		strb	r3, [r0, #154]
  40:application/shoot/shoot.c ****     friction_rf = DJIMotorInit(&shoot_config->friction_motor_config);
  80              		.loc 1 40 5 is_stmt 1 view .LVU18
  81              		.loc 1 40 19 is_stmt 0 view .LVU19
  82 0032 0430     		adds	r0, r0, #4
  83 0034 FFF7FEFF 		bl	DJIMotorInit
  84              	.LVL2:
  85              		.loc 1 40 17 discriminator 1 view .LVU20
  86 0038 1C4B     		ldr	r3, .L5+8
  87 003a 1860     		str	r0, [r3]
  41:application/shoot/shoot.c **** 
  42:application/shoot/shoot.c ****     switch (shoot_config->shoot_type)
  88              		.loc 1 42 5 is_stmt 1 view .LVU21
  89              		.loc 1 42 25 is_stmt 0 view .LVU22
  90 003c 2068     		ldr	r0, [r4]
  91 003e 0378     		ldrb	r3, [r0]	@ zero_extendqisi2
  92              		.loc 1 42 5 view .LVU23
  93 0040 022B     		cmp	r3, #2
  94 0042 13D0     		beq	.L4
  95              	.L2:
  43:application/shoot/shoot.c ****     {
  44:application/shoot/shoot.c ****     case DUAL_SHOOT:
  45:application/shoot/shoot.c ****         break;
  46:application/shoot/shoot.c ****     case THREE_SHOOT:
  47:application/shoot/shoot.c ****         break;
  48:application/shoot/shoot.c ****     case FOUR_SHOOT:
  49:application/shoot/shoot.c ****         // ه·¦هگژو‘©و“¦è½®
  50:application/shoot/shoot.c ****         shoot_config->friction_motor_config.can_init_config.tx_id = shoot_config->friction_motor_id
  51:application/shoot/shoot.c ****         shoot_config->friction_motor_config.controller_setting_init_config.motor_reverse_flag = sho
  52:application/shoot/shoot.c ****         friction_lb = DJIMotorInit(&shoot_config->friction_motor_config);
  53:application/shoot/shoot.c ****         // هڈ³هگژو‘©و“¦è½®
  54:application/shoot/shoot.c ****         shoot_config->friction_motor_config.can_init_config.tx_id = shoot_config->friction_motor_id
  55:application/shoot/shoot.c ****         shoot_config->friction_motor_config.controller_setting_init_config.motor_reverse_flag = sho
  56:application/shoot/shoot.c ****         friction_rb = DJIMotorInit(&shoot_config->friction_motor_config);        
  57:application/shoot/shoot.c ****         break;
  58:application/shoot/shoot.c ****     default:
  59:application/shoot/shoot.c ****         break;
  60:application/shoot/shoot.c ****     }
  61:application/shoot/shoot.c **** 
  62:application/shoot/shoot.c ****     // و‹¨ç›کç”µوœ؛
  63:application/shoot/shoot.c ****     loader = DJIMotorInit(&shoot_config->loader_motor_config);
  96              		.loc 1 63 5 is_stmt 1 view .LVU24
  97              		.loc 1 63 40 is_stmt 0 view .LVU25
  98 0044 174B     		ldr	r3, .L5
  99 0046 1868     		ldr	r0, [r3]
 100              		.loc 1 63 14 view .LVU26
 101 0048 C030     		adds	r0, r0, #192
 102 004a FFF7FEFF 		bl	DJIMotorInit
 103              	.LVL3:
 104              		.loc 1 63 12 discriminator 1 view .LVU27
 105 004e 184B     		ldr	r3, .L5+12
ARM GAS  C:\Users\10542\AppData\Local\Temp\cc7v1umG.s 			page 4


 106 0050 1860     		str	r0, [r3]
  64:application/shoot/shoot.c **** 
  65:application/shoot/shoot.c ****     shoot_pub = PubRegister("shoot_feed", sizeof(Shoot_Upload_Data_s));
 107              		.loc 1 65 5 is_stmt 1 view .LVU28
 108              		.loc 1 65 17 is_stmt 0 view .LVU29
 109 0052 0021     		movs	r1, #0
 110 0054 1748     		ldr	r0, .L5+16
 111 0056 FFF7FEFF 		bl	PubRegister
 112              	.LVL4:
 113              		.loc 1 65 15 discriminator 1 view .LVU30
 114 005a 174B     		ldr	r3, .L5+20
 115 005c 1860     		str	r0, [r3]
  66:application/shoot/shoot.c ****     shoot_sub = SubRegister("shoot_cmd", sizeof(Shoot_Ctrl_Cmd_s));
 116              		.loc 1 66 5 is_stmt 1 view .LVU31
 117              		.loc 1 66 17 is_stmt 0 view .LVU32
 118 005e 0A21     		movs	r1, #10
 119 0060 1648     		ldr	r0, .L5+24
 120 0062 FFF7FEFF 		bl	SubRegister
 121              	.LVL5:
 122              		.loc 1 66 15 discriminator 1 view .LVU33
 123 0066 164B     		ldr	r3, .L5+28
 124 0068 1860     		str	r0, [r3]
  67:application/shoot/shoot.c **** }
 125              		.loc 1 67 1 view .LVU34
 126 006a 10BD     		pop	{r4, pc}
 127              	.L4:
  50:application/shoot/shoot.c ****         shoot_config->friction_motor_config.controller_setting_init_config.motor_reverse_flag = sho
 128              		.loc 1 50 9 is_stmt 1 view .LVU35
  50:application/shoot/shoot.c ****         shoot_config->friction_motor_config.controller_setting_init_config.motor_reverse_flag = sho
 129              		.loc 1 50 100 is_stmt 0 view .LVU36
 130 006c 90F87F31 		ldrb	r3, [r0, #383]	@ zero_extendqisi2
  50:application/shoot/shoot.c ****         shoot_config->friction_motor_config.controller_setting_init_config.motor_reverse_flag = sho
 131              		.loc 1 50 67 view .LVU37
 132 0070 C0F8A830 		str	r3, [r0, #168]
  51:application/shoot/shoot.c ****         friction_lb = DJIMotorInit(&shoot_config->friction_motor_config);
 133              		.loc 1 51 9 is_stmt 1 view .LVU38
  51:application/shoot/shoot.c ****         friction_lb = DJIMotorInit(&shoot_config->friction_motor_config);
 134              		.loc 1 51 138 is_stmt 0 view .LVU39
 135 0074 90F88331 		ldrb	r3, [r0, #387]	@ zero_extendqisi2
  51:application/shoot/shoot.c ****         friction_lb = DJIMotorInit(&shoot_config->friction_motor_config);
 136              		.loc 1 51 95 view .LVU40
 137 0078 80F89A30 		strb	r3, [r0, #154]
  52:application/shoot/shoot.c ****         // هڈ³هگژو‘©و“¦è½®
 138              		.loc 1 52 9 is_stmt 1 view .LVU41
  52:application/shoot/shoot.c ****         // هڈ³هگژو‘©و“¦è½®
 139              		.loc 1 52 23 is_stmt 0 view .LVU42
 140 007c 0430     		adds	r0, r0, #4
 141 007e FFF7FEFF 		bl	DJIMotorInit
 142              	.LVL6:
  52:application/shoot/shoot.c ****         // هڈ³هگژو‘©و“¦è½®
 143              		.loc 1 52 21 discriminator 1 view .LVU43
 144 0082 104B     		ldr	r3, .L5+32
 145 0084 1860     		str	r0, [r3]
  54:application/shoot/shoot.c ****         shoot_config->friction_motor_config.controller_setting_init_config.motor_reverse_flag = sho
 146              		.loc 1 54 9 is_stmt 1 view .LVU44
  54:application/shoot/shoot.c ****         shoot_config->friction_motor_config.controller_setting_init_config.motor_reverse_flag = sho
 147              		.loc 1 54 81 is_stmt 0 view .LVU45
ARM GAS  C:\Users\10542\AppData\Local\Temp\cc7v1umG.s 			page 5


 148 0086 2068     		ldr	r0, [r4]
  54:application/shoot/shoot.c ****         shoot_config->friction_motor_config.controller_setting_init_config.motor_reverse_flag = sho
 149              		.loc 1 54 100 view .LVU46
 150 0088 90F87E31 		ldrb	r3, [r0, #382]	@ zero_extendqisi2
  54:application/shoot/shoot.c ****         shoot_config->friction_motor_config.controller_setting_init_config.motor_reverse_flag = sho
 151              		.loc 1 54 67 view .LVU47
 152 008c C0F8A830 		str	r3, [r0, #168]
  55:application/shoot/shoot.c ****         friction_rb = DJIMotorInit(&shoot_config->friction_motor_config);        
 153              		.loc 1 55 9 is_stmt 1 view .LVU48
  55:application/shoot/shoot.c ****         friction_rb = DJIMotorInit(&shoot_config->friction_motor_config);        
 154              		.loc 1 55 138 is_stmt 0 view .LVU49
 155 0090 90F88231 		ldrb	r3, [r0, #386]	@ zero_extendqisi2
  55:application/shoot/shoot.c ****         friction_rb = DJIMotorInit(&shoot_config->friction_motor_config);        
 156              		.loc 1 55 95 view .LVU50
 157 0094 80F89A30 		strb	r3, [r0, #154]
  56:application/shoot/shoot.c ****         break;
 158              		.loc 1 56 9 is_stmt 1 view .LVU51
  56:application/shoot/shoot.c ****         break;
 159              		.loc 1 56 23 is_stmt 0 view .LVU52
 160 0098 0430     		adds	r0, r0, #4
 161 009a FFF7FEFF 		bl	DJIMotorInit
 162              	.LVL7:
  56:application/shoot/shoot.c ****         break;
 163              		.loc 1 56 21 discriminator 1 view .LVU53
 164 009e 0A4B     		ldr	r3, .L5+36
 165 00a0 1860     		str	r0, [r3]
  57:application/shoot/shoot.c ****     default:
 166              		.loc 1 57 9 is_stmt 1 view .LVU54
 167 00a2 CFE7     		b	.L2
 168              	.L6:
 169              		.align	2
 170              	.L5:
 171 00a4 00000000 		.word	shoot_config
 172 00a8 00000000 		.word	friction_lf
 173 00ac 00000000 		.word	friction_rf
 174 00b0 00000000 		.word	loader
 175 00b4 00000000 		.word	.LC0
 176 00b8 00000000 		.word	shoot_pub
 177 00bc 0C000000 		.word	.LC1
 178 00c0 00000000 		.word	shoot_sub
 179 00c4 00000000 		.word	friction_lb
 180 00c8 00000000 		.word	friction_rb
 181              		.cfi_endproc
 182              	.LFE271:
 184              		.section	.text.ShootTask,"ax",%progbits
 185              		.align	1
 186              		.global	ShootTask
 187              		.syntax unified
 188              		.thumb
 189              		.thumb_func
 191              	ShootTask:
 192              	.LFB272:
  68:application/shoot/shoot.c **** 
  69:application/shoot/shoot.c **** /* وœ؛ه™¨ن؛؛هڈ‘ه°„وœ؛و‍„وژ§هˆ¶و ¸ه؟ƒن»»هٹ، */
  70:application/shoot/shoot.c **** void ShootTask()
  71:application/shoot/shoot.c **** {
 193              		.loc 1 71 1 view -0
ARM GAS  C:\Users\10542\AppData\Local\Temp\cc7v1umG.s 			page 6


 194              		.cfi_startproc
 195              		@ args = 0, pretend = 0, frame = 0
 196              		@ frame_needed = 0, uses_anonymous_args = 0
 197 0000 10B5     		push	{r4, lr}
 198              	.LCFI1:
 199              		.cfi_def_cfa_offset 8
 200              		.cfi_offset 4, -8
 201              		.cfi_offset 14, -4
 202 0002 2DED028B 		vpush.64	{d8}
 203              	.LCFI2:
 204              		.cfi_def_cfa_offset 16
 205              		.cfi_offset 80, -16
 206              		.cfi_offset 81, -12
  72:application/shoot/shoot.c ****     // ن»ژcmdèژ·هڈ–وژ§هˆ¶و•°وچ®
  73:application/shoot/shoot.c ****     SubGetMessage(shoot_sub, &shoot_cmd_recv);
 207              		.loc 1 73 5 view .LVU56
 208 0006 AE4C     		ldr	r4, .L31
 209 0008 2146     		mov	r1, r4
 210 000a AE4B     		ldr	r3, .L31+4
 211 000c 1868     		ldr	r0, [r3]
 212 000e FFF7FEFF 		bl	SubGetMessage
 213              	.LVL8:
  74:application/shoot/shoot.c **** 
  75:application/shoot/shoot.c ****     // ه¯¹shoot modeç­‰ن؛ژSHOOT_STOPçڑ„وƒ…ه†µç‰¹و®ٹه¤„çگ†,ç›´وژ¥هپœو­¢و‰€وœ‰ç”µوœ؛(ç´§و€¥هپœو­¢)
  76:application/shoot/shoot.c ****     if (shoot_cmd_recv.shoot_mode == SHOOT_OFF || shoot_cmd_recv.shoot_mode == SHOOT_ZERO_FORCE)
 214              		.loc 1 76 5 view .LVU57
 215              		.loc 1 76 23 is_stmt 0 view .LVU58
 216 0012 2378     		ldrb	r3, [r4]	@ zero_extendqisi2
 217              		.loc 1 76 8 view .LVU59
 218 0014 012B     		cmp	r3, #1
 219 0016 29D9     		bls	.L27
  77:application/shoot/shoot.c ****     {
  78:application/shoot/shoot.c ****         DJIMotorStop(friction_lf);
  79:application/shoot/shoot.c ****         DJIMotorStop(friction_rf);
  80:application/shoot/shoot.c ****         switch (shoot_config->shoot_type)
  81:application/shoot/shoot.c ****         {
  82:application/shoot/shoot.c ****         case THREE_SHOOT:
  83:application/shoot/shoot.c ****             break;
  84:application/shoot/shoot.c ****         case FOUR_SHOOT:
  85:application/shoot/shoot.c ****             // ه·¦هگژو‘©و“¦è½®
  86:application/shoot/shoot.c ****             DJIMotorStop(friction_lb);
  87:application/shoot/shoot.c ****             // هڈ³هگژو‘©و“¦è½®
  88:application/shoot/shoot.c ****             DJIMotorStop(friction_rb);      
  89:application/shoot/shoot.c ****             break;
  90:application/shoot/shoot.c ****         default:
  91:application/shoot/shoot.c ****             break;
  92:application/shoot/shoot.c ****         }
  93:application/shoot/shoot.c **** 
  94:application/shoot/shoot.c ****         DJIMotorStop(loader);
  95:application/shoot/shoot.c ****     }
  96:application/shoot/shoot.c ****     else // وپ¢ه¤چè؟گè،Œ
  97:application/shoot/shoot.c ****     {
  98:application/shoot/shoot.c ****         DJIMotorEnable(friction_lf);
 220              		.loc 1 98 9 is_stmt 1 view .LVU60
 221 0018 AB4B     		ldr	r3, .L31+8
 222 001a 1868     		ldr	r0, [r3]
 223 001c FFF7FEFF 		bl	DJIMotorEnable
ARM GAS  C:\Users\10542\AppData\Local\Temp\cc7v1umG.s 			page 7


 224              	.LVL9:
  99:application/shoot/shoot.c ****         DJIMotorEnable(friction_rf);
 225              		.loc 1 99 9 view .LVU61
 226 0020 AA4B     		ldr	r3, .L31+12
 227 0022 1868     		ldr	r0, [r3]
 228 0024 FFF7FEFF 		bl	DJIMotorEnable
 229              	.LVL10:
 100:application/shoot/shoot.c ****         switch (shoot_config->shoot_type)
 230              		.loc 1 100 9 view .LVU62
 231              		.loc 1 100 29 is_stmt 0 view .LVU63
 232 0028 A94B     		ldr	r3, .L31+16
 233 002a 1B68     		ldr	r3, [r3]
 234 002c 1B78     		ldrb	r3, [r3]	@ zero_extendqisi2
 235              		.loc 1 100 9 view .LVU64
 236 002e 022B     		cmp	r3, #2
 237 0030 37D0     		beq	.L28
 238              	.L11:
 101:application/shoot/shoot.c ****         {
 102:application/shoot/shoot.c ****         case THREE_SHOOT:
 103:application/shoot/shoot.c ****             break;
 104:application/shoot/shoot.c ****         case FOUR_SHOOT:
 105:application/shoot/shoot.c ****             // ه·¦هگژو‘©و“¦è½®
 106:application/shoot/shoot.c ****             DJIMotorEnable(friction_lb);
 107:application/shoot/shoot.c ****             // هڈ³هگژو‘©و“¦è½®
 108:application/shoot/shoot.c ****             DJIMotorEnable(friction_rb);      
 109:application/shoot/shoot.c ****             break;
 110:application/shoot/shoot.c ****         default:
 111:application/shoot/shoot.c ****             break;
 112:application/shoot/shoot.c ****         }
 113:application/shoot/shoot.c **** 
 114:application/shoot/shoot.c ****         DJIMotorEnable(loader);
 239              		.loc 1 114 9 is_stmt 1 view .LVU65
 240 0032 A84B     		ldr	r3, .L31+20
 241 0034 1868     		ldr	r0, [r3]
 242 0036 FFF7FEFF 		bl	DJIMotorEnable
 243              	.LVL11:
 244              	.L10:
 115:application/shoot/shoot.c ****     }
 116:application/shoot/shoot.c **** 
 117:application/shoot/shoot.c ****     // ه¦‚و‍œن¸ٹن¸€و¬،è§¦هڈ‘هچ•هڈ‘وˆ–3هڈ‘وŒ‡ن»¤çڑ„و—¶é—´هٹ ن¸ٹن¸چه؛”وœںن»چç„¶ه¤§ن؛ژه½“ه‰چو—¶é—´(ه°ڑ
 118:application/shoot/shoot.c ****     // هچ•هڈ‘و¨،ه¼ڈن¸»è¦پوڈگن¾›ç»™èƒ½é‡ڈوœ؛ه…³و؟€و´»ن½؟ç”¨(ن»¥هڈٹè‹±é›„çڑ„ه°„ه‡»ه¤§éƒ¨هˆ†ه¤„ن؛ژهچ•ه
 119:application/shoot/shoot.c ****     if (hibernate_time + dead_time > DWT_GetTimeline_ms())
 245              		.loc 1 119 5 view .LVU66
 246              		.loc 1 119 24 is_stmt 0 view .LVU67
 247 003a A74B     		ldr	r3, .L31+24
 248 003c 93ED008A 		vldr.32	s16, [r3]
 249 0040 A64B     		ldr	r3, .L31+28
 250 0042 D3ED007A 		vldr.32	s15, [r3]
 251 0046 38EE278A 		vadd.f32	s16, s16, s15
 252              		.loc 1 119 38 view .LVU68
 253 004a FFF7FEFF 		bl	DWT_GetTimeline_ms
 254              	.LVL12:
 255              		.loc 1 119 8 discriminator 1 view .LVU69
 256 004e B4EEC08A 		vcmpe.f32	s16, s0
 257 0052 F1EE10FA 		vmrs	APSR_nzcv, FPSCR
 258 0056 00F32F81 		bgt	.L7
 120:application/shoot/shoot.c ****         return;
ARM GAS  C:\Users\10542\AppData\Local\Temp\cc7v1umG.s 			page 8


 121:application/shoot/shoot.c **** 
 122:application/shoot/shoot.c ****     // è‹¥ن¸چهœ¨ن¼‘çœ çٹ¶و€پ,و ¹وچ®robotCMDن¼ و‌¥çڑ„وژ§هˆ¶و¨،ه¼ڈè؟›è،Œو‹¨ç›کç”µوœ؛هڈ‚è€ƒه€¼è®¾ه®ڑه’
 123:application/shoot/shoot.c ****     switch (shoot_cmd_recv.load_mode)
 259              		.loc 1 123 5 is_stmt 1 view .LVU70
 260              		.loc 1 123 27 is_stmt 0 view .LVU71
 261 005a 994B     		ldr	r3, .L31
 262 005c 5B78     		ldrb	r3, [r3, #1]	@ zero_extendqisi2
 263              		.loc 1 123 5 view .LVU72
 264 005e 042B     		cmp	r3, #4
 265 0060 32D8     		bhi	.L13
 266 0062 DFE803F0 		tbb	[pc, r3]
 267              	.L15:
 268 0066 27       		.byte	(.L19-.L15)/2
 269 0067 A9       		.byte	(.L18-.L15)/2
 270 0068 61       		.byte	(.L17-.L15)/2
 271 0069 78       		.byte	(.L16-.L15)/2
 272 006a 8F       		.byte	(.L14-.L15)/2
 273 006b 00       		.p2align 1
 274              	.L27:
  78:application/shoot/shoot.c ****         DJIMotorStop(friction_rf);
 275              		.loc 1 78 9 is_stmt 1 view .LVU73
 276 006c 964B     		ldr	r3, .L31+8
 277 006e 1868     		ldr	r0, [r3]
 278 0070 FFF7FEFF 		bl	DJIMotorStop
 279              	.LVL13:
  79:application/shoot/shoot.c ****         switch (shoot_config->shoot_type)
 280              		.loc 1 79 9 view .LVU74
 281 0074 954B     		ldr	r3, .L31+12
 282 0076 1868     		ldr	r0, [r3]
 283 0078 FFF7FEFF 		bl	DJIMotorStop
 284              	.LVL14:
  80:application/shoot/shoot.c ****         {
 285              		.loc 1 80 9 view .LVU75
  80:application/shoot/shoot.c ****         {
 286              		.loc 1 80 29 is_stmt 0 view .LVU76
 287 007c 944B     		ldr	r3, .L31+16
 288 007e 1B68     		ldr	r3, [r3]
 289 0080 1B78     		ldrb	r3, [r3]	@ zero_extendqisi2
  80:application/shoot/shoot.c ****         {
 290              		.loc 1 80 9 view .LVU77
 291 0082 022B     		cmp	r3, #2
 292 0084 04D0     		beq	.L29
 293              	.L9:
  94:application/shoot/shoot.c ****     }
 294              		.loc 1 94 9 is_stmt 1 view .LVU78
 295 0086 934B     		ldr	r3, .L31+20
 296 0088 1868     		ldr	r0, [r3]
 297 008a FFF7FEFF 		bl	DJIMotorStop
 298              	.LVL15:
 299 008e D4E7     		b	.L10
 300              	.L29:
  86:application/shoot/shoot.c ****             // هڈ³هگژو‘©و“¦è½®
 301              		.loc 1 86 13 view .LVU79
 302 0090 934B     		ldr	r3, .L31+32
 303 0092 1868     		ldr	r0, [r3]
 304 0094 FFF7FEFF 		bl	DJIMotorStop
 305              	.LVL16:
ARM GAS  C:\Users\10542\AppData\Local\Temp\cc7v1umG.s 			page 9


  88:application/shoot/shoot.c ****             break;
 306              		.loc 1 88 13 view .LVU80
 307 0098 924B     		ldr	r3, .L31+36
 308 009a 1868     		ldr	r0, [r3]
 309 009c FFF7FEFF 		bl	DJIMotorStop
 310              	.LVL17:
  89:application/shoot/shoot.c ****         default:
 311              		.loc 1 89 13 view .LVU81
 312 00a0 F1E7     		b	.L9
 313              	.L28:
 106:application/shoot/shoot.c ****             // هڈ³هگژو‘©و“¦è½®
 314              		.loc 1 106 13 view .LVU82
 315 00a2 8F4B     		ldr	r3, .L31+32
 316 00a4 1868     		ldr	r0, [r3]
 317 00a6 FFF7FEFF 		bl	DJIMotorEnable
 318              	.LVL18:
 108:application/shoot/shoot.c ****             break;
 319              		.loc 1 108 13 view .LVU83
 320 00aa 8E4B     		ldr	r3, .L31+36
 321 00ac 1868     		ldr	r0, [r3]
 322 00ae FFF7FEFF 		bl	DJIMotorEnable
 323              	.LVL19:
 109:application/shoot/shoot.c ****         default:
 324              		.loc 1 109 13 view .LVU84
 325 00b2 BEE7     		b	.L11
 326              	.L19:
 124:application/shoot/shoot.c ****     {
 125:application/shoot/shoot.c ****     // هپœو­¢و‹¨ç›ک
 126:application/shoot/shoot.c ****     case LOAD_STOP:
 127:application/shoot/shoot.c ****         DJIMotorOuterLoop(loader, SPEED_LOOP); // هˆ‡وچ¢هˆ°é€ںه؛¦çژ¯
 327              		.loc 1 127 9 view .LVU85
 328 00b4 874C     		ldr	r4, .L31+20
 329 00b6 0221     		movs	r1, #2
 330 00b8 2068     		ldr	r0, [r4]
 331 00ba FFF7FEFF 		bl	DJIMotorOuterLoop
 332              	.LVL20:
 128:application/shoot/shoot.c ****         DJIMotorSetRef(loader, 0);             // هگŒو—¶è®¾ه®ڑهڈ‚è€ƒه€¼ن¸؛0,è؟™و ·هپœو­¢çڑ„é€ںه؛¦وœ
 333              		.loc 1 128 9 view .LVU86
 334 00be 9FED8A0A 		vldr.32	s0, .L31+40
 335 00c2 2068     		ldr	r0, [r4]
 336 00c4 FFF7FEFF 		bl	DJIMotorSetRef
 337              	.LVL21:
 129:application/shoot/shoot.c ****         break;
 338              		.loc 1 129 9 view .LVU87
 339              	.L13:
 130:application/shoot/shoot.c ****     // هچ•هڈ‘و¨،ه¼ڈ,و ¹وچ®é¼ و ‡وŒ‰ن¸‹çڑ„و—¶é—´,è§¦هڈ‘ن¸€و¬،ن¹‹هگژéœ€è¦پè؟›ه…¥ن¸چه“چه؛”è¾“ه…¥çڑ„çٹ¶
 131:application/shoot/shoot.c ****     case LOAD_1_BULLET:                                                                     // و؟€و
 132:application/shoot/shoot.c ****         DJIMotorOuterLoop(loader, ANGLE_LOOP);                                              // هˆ‡و
 133:application/shoot/shoot.c ****         DJIMotorSetRef(loader, loader->measure.angle_single_round + ONE_BULLET_DELTA_ANGLE); // وژ§
 134:application/shoot/shoot.c ****         hibernate_time = DWT_GetTimeline_ms();                                              // è®°ه
 135:application/shoot/shoot.c ****         dead_time = 150;                                                                    // ه®Œو
 136:application/shoot/shoot.c ****         break;
 137:application/shoot/shoot.c ****     // ن¸‰è؟‍هڈ‘,ه¦‚و‍œن¸چéœ€è¦پهگژç»­هڈ¯èƒ½هˆ é™¤
 138:application/shoot/shoot.c ****     case LOAD_3_BULLET:
 139:application/shoot/shoot.c ****         DJIMotorOuterLoop(loader, ANGLE_LOOP);                         
 140:application/shoot/shoot.c ****         DJIMotorSetRef(loader, loader->measure.angle_single_round + ONE_BULLET_DELTA_ANGLE); // ه¢‍
 141:application/shoot/shoot.c ****         hibernate_time = DWT_GetTimeline_ms();                                                  // 
ARM GAS  C:\Users\10542\AppData\Local\Temp\cc7v1umG.s 			page 10


 142:application/shoot/shoot.c ****         dead_time = 500;                                                                        // 
 143:application/shoot/shoot.c ****         break;
 144:application/shoot/shoot.c ****     // è؟‍هڈ‘و¨،ه¼ڈ,ه¯¹é€ںه؛¦é—­çژ¯,ه°„é¢‘هگژç»­ن؟®و”¹ن¸؛هڈ¯هڈک,ç›®ه‰چه›؛ه®ڑن¸؛1Hz
 145:application/shoot/shoot.c ****     case LOAD_BURSTFIRE:
 146:application/shoot/shoot.c ****         DJIMotorOuterLoop(loader, SPEED_LOOP);
 147:application/shoot/shoot.c ****         DJIMotorSetRef(loader, shoot_cmd_recv.shoot_rate * 360 * REDUCTION_RATIO_LOADER / 8);
 148:application/shoot/shoot.c ****         // xé¢—/ç§’وچ¢ç®—وˆگé€ںه؛¦: ه·²çں¥ن¸€هœˆçڑ„è½½ه¼¹é‡ڈ,ç”±و­¤è®،ç®—ه‡؛1séœ€è¦پè½¬çڑ„è§’ه؛¦,و³
 149:application/shoot/shoot.c ****         break;
 150:application/shoot/shoot.c ****     // و‹¨ç›کهڈچè½¬,ه¯¹é€ںه؛¦é—­çژ¯,هگژç»­ه¢‍هٹ هچ،ه¼¹و£€وµ‹(é€ڑè؟‡è£پهˆ¤ç³»ç»ںه‰©ن½™çƒ­é‡ڈهڈچé¦ˆه’
 151:application/shoot/shoot.c ****     // ن¹ںوœ‰هڈ¯èƒ½éœ€è¦پن»ژswitch-caseن¸­ç‹¬ç«‹ه‡؛و‌¥
 152:application/shoot/shoot.c ****     case LOAD_REVERSE:
 153:application/shoot/shoot.c ****         DJIMotorOuterLoop(loader, SPEED_LOOP);
 154:application/shoot/shoot.c ****         // ...
 155:application/shoot/shoot.c ****         break;
 156:application/shoot/shoot.c ****     default:
 157:application/shoot/shoot.c ****         // while (1)
 158:application/shoot/shoot.c ****         //     ; // وœھçں¥و¨،ه¼ڈ,هپœو­¢è؟گè،Œ,و£€وں¥وŒ‡é’ˆè¶ٹç•Œ,ه†…ه­کو؛¢ه‡؛ç­‰é—®é¢ک
 159:application/shoot/shoot.c ****     }
 160:application/shoot/shoot.c **** 
 161:application/shoot/shoot.c ****     // ç،®ه®ڑوک¯هگ¦ه¼€هگ¯و‘©و“¦è½®,هگژç»­هڈ¯èƒ½ن؟®و”¹ن¸؛é”®é¼ و¨،ه¼ڈن¸‹ه§‹ç»ˆه¼€هگ¯و‘©و“¦è½®(ن¸ٹهœ؛
 162:application/shoot/shoot.c ****     if (shoot_cmd_recv.friction_mode == FRICTION_ON)
 340              		.loc 1 162 5 view .LVU88
 341              		.loc 1 162 23 is_stmt 0 view .LVU89
 342 00c8 7D4B     		ldr	r3, .L31
 343 00ca DB78     		ldrb	r3, [r3, #3]	@ zero_extendqisi2
 344              		.loc 1 162 8 view .LVU90
 345 00cc 012B     		cmp	r3, #1
 346 00ce 40F0DB80 		bne	.L20
 163:application/shoot/shoot.c ****     {
 164:application/shoot/shoot.c ****         // و ¹وچ®و”¶هˆ°çڑ„ه¼¹é€ںè®¾ç½®è®¾ه®ڑو‘©و“¦è½®ç”µوœ؛هڈ‚è€ƒه€¼,éœ€ه®‍وµ‹هگژه،«ه…¥
 165:application/shoot/shoot.c ****         switch (shoot_cmd_recv.bullet_speed)
 347              		.loc 1 165 9 is_stmt 1 view .LVU91
 348              		.loc 1 165 31 is_stmt 0 view .LVU92
 349 00d2 7B4B     		ldr	r3, .L31
 350 00d4 1B79     		ldrb	r3, [r3, #4]	@ zero_extendqisi2
 351              		.loc 1 165 9 view .LVU93
 352 00d6 122B     		cmp	r3, #18
 353 00d8 74D0     		beq	.L21
 354 00da 1E2B     		cmp	r3, #30
 355 00dc 00F09280 		beq	.L22
 356 00e0 0F2B     		cmp	r3, #15
 357 00e2 40F0AF80 		bne	.L23
 166:application/shoot/shoot.c ****         {
 167:application/shoot/shoot.c ****         case SMALL_AMU_15:
 168:application/shoot/shoot.c ****             DJIMotorSetRef(friction_lf, 0);
 358              		.loc 1 168 13 is_stmt 1 view .LVU94
 359 00e6 9FED808A 		vldr.32	s16, .L31+40
 360 00ea B0EE480A 		vmov.f32	s0, s16
 361 00ee 764B     		ldr	r3, .L31+8
 362 00f0 1868     		ldr	r0, [r3]
 363 00f2 FFF7FEFF 		bl	DJIMotorSetRef
 364              	.LVL22:
 169:application/shoot/shoot.c ****             DJIMotorSetRef(friction_rf, 0);
 365              		.loc 1 169 13 view .LVU95
 366 00f6 B0EE480A 		vmov.f32	s0, s16
 367 00fa 744B     		ldr	r3, .L31+12
 368 00fc 1868     		ldr	r0, [r3]
ARM GAS  C:\Users\10542\AppData\Local\Temp\cc7v1umG.s 			page 11


 369 00fe FFF7FEFF 		bl	DJIMotorSetRef
 370              	.LVL23:
 170:application/shoot/shoot.c ****             switch (shoot_config->shoot_type)
 371              		.loc 1 170 13 view .LVU96
 372              		.loc 1 170 33 is_stmt 0 view .LVU97
 373 0102 734B     		ldr	r3, .L31+16
 374 0104 1B68     		ldr	r3, [r3]
 375 0106 1B78     		ldrb	r3, [r3]	@ zero_extendqisi2
 376              		.loc 1 170 13 view .LVU98
 377 0108 022B     		cmp	r3, #2
 378 010a 40F0D080 		bne	.L24
 171:application/shoot/shoot.c ****             {
 172:application/shoot/shoot.c ****             case THREE_SHOOT:
 173:application/shoot/shoot.c ****                 break;
 174:application/shoot/shoot.c ****             case FOUR_SHOOT:
 175:application/shoot/shoot.c ****                 // ه·¦هگژو‘©و“¦è½®
 176:application/shoot/shoot.c ****                 DJIMotorSetRef(friction_lb, 0);
 379              		.loc 1 176 17 is_stmt 1 view .LVU99
 380 010e B0EE480A 		vmov.f32	s0, s16
 381 0112 734B     		ldr	r3, .L31+32
 382 0114 1868     		ldr	r0, [r3]
 383 0116 FFF7FEFF 		bl	DJIMotorSetRef
 384              	.LVL24:
 177:application/shoot/shoot.c ****                 // هڈ³هگژو‘©و“¦è½®
 178:application/shoot/shoot.c ****                 DJIMotorSetRef(friction_rb, 0);  
 385              		.loc 1 178 17 view .LVU100
 386 011a B0EE480A 		vmov.f32	s0, s16
 387 011e 714B     		ldr	r3, .L31+36
 388 0120 1868     		ldr	r0, [r3]
 389 0122 FFF7FEFF 		bl	DJIMotorSetRef
 390              	.LVL25:
 179:application/shoot/shoot.c ****                 break;
 391              		.loc 1 179 17 view .LVU101
 392 0126 C2E0     		b	.L24
 393              	.L17:
 132:application/shoot/shoot.c ****         DJIMotorSetRef(loader, loader->measure.angle_single_round + ONE_BULLET_DELTA_ANGLE); // وژ§
 394              		.loc 1 132 9 view .LVU102
 395 0128 6A4C     		ldr	r4, .L31+20
 396 012a 0421     		movs	r1, #4
 397 012c 2068     		ldr	r0, [r4]
 398 012e FFF7FEFF 		bl	DJIMotorOuterLoop
 399              	.LVL26:
 133:application/shoot/shoot.c ****         hibernate_time = DWT_GetTimeline_ms();                                              // è®°ه
 400              		.loc 1 133 9 view .LVU103
 401 0132 2068     		ldr	r0, [r4]
 133:application/shoot/shoot.c ****         hibernate_time = DWT_GetTimeline_ms();                                              // è®°ه
 402              		.loc 1 133 47 is_stmt 0 view .LVU104
 403 0134 90ED010A 		vldr.32	s0, [r0, #4]
 133:application/shoot/shoot.c ****         hibernate_time = DWT_GetTimeline_ms();                                              // è®°ه
 404              		.loc 1 133 9 view .LVU105
 405 0138 DFED6C7A 		vldr.32	s15, .L31+44
 406 013c 30EE270A 		vadd.f32	s0, s0, s15
 407 0140 FFF7FEFF 		bl	DJIMotorSetRef
 408              	.LVL27:
 134:application/shoot/shoot.c ****         dead_time = 150;                                                                    // ه®Œو
 409              		.loc 1 134 9 is_stmt 1 view .LVU106
 134:application/shoot/shoot.c ****         dead_time = 150;                                                                    // ه®Œو
ARM GAS  C:\Users\10542\AppData\Local\Temp\cc7v1umG.s 			page 12


 410              		.loc 1 134 26 is_stmt 0 view .LVU107
 411 0144 FFF7FEFF 		bl	DWT_GetTimeline_ms
 412              	.LVL28:
 134:application/shoot/shoot.c ****         dead_time = 150;                                                                    // ه®Œو
 413              		.loc 1 134 24 discriminator 1 view .LVU108
 414 0148 634B     		ldr	r3, .L31+24
 415 014a 83ED000A 		vstr.32	s0, [r3]
 135:application/shoot/shoot.c ****         break;
 416              		.loc 1 135 9 is_stmt 1 view .LVU109
 135:application/shoot/shoot.c ****         break;
 417              		.loc 1 135 19 is_stmt 0 view .LVU110
 418 014e 634B     		ldr	r3, .L31+28
 419 0150 674A     		ldr	r2, .L31+48
 420 0152 1A60     		str	r2, [r3]	@ float
 136:application/shoot/shoot.c ****     // ن¸‰è؟‍هڈ‘,ه¦‚و‍œن¸چéœ€è¦پهگژç»­هڈ¯èƒ½هˆ é™¤
 421              		.loc 1 136 9 is_stmt 1 view .LVU111
 422 0154 B8E7     		b	.L13
 423              	.L16:
 139:application/shoot/shoot.c ****         DJIMotorSetRef(loader, loader->measure.angle_single_round + ONE_BULLET_DELTA_ANGLE); // ه¢‍
 424              		.loc 1 139 9 view .LVU112
 425 0156 5F4C     		ldr	r4, .L31+20
 426 0158 0421     		movs	r1, #4
 427 015a 2068     		ldr	r0, [r4]
 428 015c FFF7FEFF 		bl	DJIMotorOuterLoop
 429              	.LVL29:
 140:application/shoot/shoot.c ****         hibernate_time = DWT_GetTimeline_ms();                                                  // 
 430              		.loc 1 140 9 view .LVU113
 431 0160 2068     		ldr	r0, [r4]
 140:application/shoot/shoot.c ****         hibernate_time = DWT_GetTimeline_ms();                                                  // 
 432              		.loc 1 140 47 is_stmt 0 view .LVU114
 433 0162 90ED010A 		vldr.32	s0, [r0, #4]
 140:application/shoot/shoot.c ****         hibernate_time = DWT_GetTimeline_ms();                                                  // 
 434              		.loc 1 140 9 view .LVU115
 435 0166 DFED617A 		vldr.32	s15, .L31+44
 436 016a 30EE270A 		vadd.f32	s0, s0, s15
 437 016e FFF7FEFF 		bl	DJIMotorSetRef
 438              	.LVL30:
 141:application/shoot/shoot.c ****         dead_time = 500;                                                                        // 
 439              		.loc 1 141 9 is_stmt 1 view .LVU116
 141:application/shoot/shoot.c ****         dead_time = 500;                                                                        // 
 440              		.loc 1 141 26 is_stmt 0 view .LVU117
 441 0172 FFF7FEFF 		bl	DWT_GetTimeline_ms
 442              	.LVL31:
 141:application/shoot/shoot.c ****         dead_time = 500;                                                                        // 
 443              		.loc 1 141 24 discriminator 1 view .LVU118
 444 0176 584B     		ldr	r3, .L31+24
 445 0178 83ED000A 		vstr.32	s0, [r3]
 142:application/shoot/shoot.c ****         break;
 446              		.loc 1 142 9 is_stmt 1 view .LVU119
 142:application/shoot/shoot.c ****         break;
 447              		.loc 1 142 19 is_stmt 0 view .LVU120
 448 017c 574B     		ldr	r3, .L31+28
 449 017e 5D4A     		ldr	r2, .L31+52
 450 0180 1A60     		str	r2, [r3]	@ float
 143:application/shoot/shoot.c ****     // è؟‍هڈ‘و¨،ه¼ڈ,ه¯¹é€ںه؛¦é—­çژ¯,ه°„é¢‘هگژç»­ن؟®و”¹ن¸؛هڈ¯هڈک,ç›®ه‰چه›؛ه®ڑن¸؛1Hz
 451              		.loc 1 143 9 is_stmt 1 view .LVU121
 452 0182 A1E7     		b	.L13
ARM GAS  C:\Users\10542\AppData\Local\Temp\cc7v1umG.s 			page 13


 453              	.L14:
 146:application/shoot/shoot.c ****         DJIMotorSetRef(loader, shoot_cmd_recv.shoot_rate * 360 * REDUCTION_RATIO_LOADER / 8);
 454              		.loc 1 146 9 view .LVU122
 455 0184 534C     		ldr	r4, .L31+20
 456 0186 0221     		movs	r1, #2
 457 0188 2068     		ldr	r0, [r4]
 458 018a FFF7FEFF 		bl	DJIMotorOuterLoop
 459              	.LVL32:
 147:application/shoot/shoot.c ****         // xé¢—/ç§’وچ¢ç®—وˆگé€ںه؛¦: ه·²çں¥ن¸€هœˆçڑ„è½½ه¼¹é‡ڈ,ç”±و­¤è®،ç®—ه‡؛1séœ€è¦پè½¬çڑ„è§’ه؛¦,و³
 460              		.loc 1 147 9 view .LVU123
 147:application/shoot/shoot.c ****         // xé¢—/ç§’وچ¢ç®—وˆگé€ںه؛¦: ه·²çں¥ن¸€هœˆçڑ„è½½ه¼¹é‡ڈ,ç”±و­¤è®،ç®—ه‡؛1séœ€è¦پè½¬çڑ„è§’ه؛¦,و³
 461              		.loc 1 147 46 is_stmt 0 view .LVU124
 462 018e 4C4B     		ldr	r3, .L31
 463 0190 D3F80630 		ldr	r3, [r3, #6]	@ unaligned
 464 0194 07EE903A 		vmov	s15, r3	@ int
 147:application/shoot/shoot.c ****         // xé¢—/ç§’وچ¢ç®—وˆگé€ںه؛¦: ه·²çں¥ن¸€هœˆçڑ„è½½ه¼¹é‡ڈ,ç”±و­¤è®،ç®—ه‡؛1séœ€è¦پè½¬çڑ„è§’ه؛¦,و³
 465              		.loc 1 147 58 view .LVU125
 466 0198 9FED577A 		vldr.32	s14, .L31+56
 467 019c 67EE877A 		vmul.f32	s15, s15, s14
 147:application/shoot/shoot.c ****         // xé¢—/ç§’وچ¢ç®—وˆگé€ںه؛¦: ه·²çں¥ن¸€هœˆçڑ„è½½ه¼¹é‡ڈ,ç”±و­¤è®،ç®—ه‡؛1séœ€è¦پè½¬çڑ„è§’ه؛¦,و³
 468              		.loc 1 147 64 view .LVU126
 469 01a0 9FED567A 		vldr.32	s14, .L31+60
 470 01a4 67EE877A 		vmul.f32	s15, s15, s14
 147:application/shoot/shoot.c ****         // xé¢—/ç§’وچ¢ç®—وˆگé€ںه؛¦: ه·²çں¥ن¸€هœˆçڑ„è½½ه¼¹é‡ڈ,ç”±و­¤è®،ç®—ه‡؛1séœ€è¦پè½¬çڑ„è§’ه؛¦,و³
 471              		.loc 1 147 9 view .LVU127
 472 01a8 B4EE000A 		vmov.f32	s0, #1.25e-1
 473 01ac 27EE800A 		vmul.f32	s0, s15, s0
 474 01b0 2068     		ldr	r0, [r4]
 475 01b2 FFF7FEFF 		bl	DJIMotorSetRef
 476              	.LVL33:
 149:application/shoot/shoot.c ****     // و‹¨ç›کهڈچè½¬,ه¯¹é€ںه؛¦é—­çژ¯,هگژç»­ه¢‍هٹ هچ،ه¼¹و£€وµ‹(é€ڑè؟‡è£پهˆ¤ç³»ç»ںه‰©ن½™çƒ­é‡ڈهڈچé¦ˆه’
 477              		.loc 1 149 9 is_stmt 1 view .LVU128
 478 01b6 87E7     		b	.L13
 479              	.L18:
 153:application/shoot/shoot.c ****         // ...
 480              		.loc 1 153 9 view .LVU129
 481 01b8 0221     		movs	r1, #2
 482 01ba 464B     		ldr	r3, .L31+20
 483 01bc 1868     		ldr	r0, [r3]
 484 01be FFF7FEFF 		bl	DJIMotorOuterLoop
 485              	.LVL34:
 155:application/shoot/shoot.c ****     default:
 486              		.loc 1 155 9 view .LVU130
 487 01c2 81E7     		b	.L13
 488              	.L21:
 180:application/shoot/shoot.c ****             default:
 181:application/shoot/shoot.c ****                 break;
 182:application/shoot/shoot.c ****             }
 183:application/shoot/shoot.c ****             break;
 184:application/shoot/shoot.c ****         case SMALL_AMU_18:
 185:application/shoot/shoot.c ****             DJIMotorSetRef(friction_lf, 0);
 489              		.loc 1 185 13 view .LVU131
 490 01c4 9FED488A 		vldr.32	s16, .L31+40
 491 01c8 B0EE480A 		vmov.f32	s0, s16
 492 01cc 3E4B     		ldr	r3, .L31+8
 493 01ce 1868     		ldr	r0, [r3]
 494 01d0 FFF7FEFF 		bl	DJIMotorSetRef
ARM GAS  C:\Users\10542\AppData\Local\Temp\cc7v1umG.s 			page 14


 495              	.LVL35:
 186:application/shoot/shoot.c ****             DJIMotorSetRef(friction_rf, 0);
 496              		.loc 1 186 13 view .LVU132
 497 01d4 B0EE480A 		vmov.f32	s0, s16
 498 01d8 3C4B     		ldr	r3, .L31+12
 499 01da 1868     		ldr	r0, [r3]
 500 01dc FFF7FEFF 		bl	DJIMotorSetRef
 501              	.LVL36:
 187:application/shoot/shoot.c ****             switch (shoot_config->shoot_type)
 502              		.loc 1 187 13 view .LVU133
 503              		.loc 1 187 33 is_stmt 0 view .LVU134
 504 01e0 3B4B     		ldr	r3, .L31+16
 505 01e2 1B68     		ldr	r3, [r3]
 506 01e4 1B78     		ldrb	r3, [r3]	@ zero_extendqisi2
 507              		.loc 1 187 13 view .LVU135
 508 01e6 022B     		cmp	r3, #2
 509 01e8 61D1     		bne	.L24
 188:application/shoot/shoot.c ****             {
 189:application/shoot/shoot.c ****             case THREE_SHOOT:
 190:application/shoot/shoot.c ****                 break;
 191:application/shoot/shoot.c ****             case FOUR_SHOOT:
 192:application/shoot/shoot.c ****                 // ه·¦هگژو‘©و“¦è½®
 193:application/shoot/shoot.c ****                 DJIMotorSetRef(friction_lb, 0);
 510              		.loc 1 193 17 is_stmt 1 view .LVU136
 511 01ea B0EE480A 		vmov.f32	s0, s16
 512 01ee 3C4B     		ldr	r3, .L31+32
 513 01f0 1868     		ldr	r0, [r3]
 514 01f2 FFF7FEFF 		bl	DJIMotorSetRef
 515              	.LVL37:
 194:application/shoot/shoot.c ****                 // هڈ³هگژو‘©و“¦è½®
 195:application/shoot/shoot.c ****                 DJIMotorSetRef(friction_rb, 0);  
 516              		.loc 1 195 17 view .LVU137
 517 01f6 B0EE480A 		vmov.f32	s0, s16
 518 01fa 3A4B     		ldr	r3, .L31+36
 519 01fc 1868     		ldr	r0, [r3]
 520 01fe FFF7FEFF 		bl	DJIMotorSetRef
 521              	.LVL38:
 196:application/shoot/shoot.c ****                 break;
 522              		.loc 1 196 17 view .LVU138
 523 0202 54E0     		b	.L24
 524              	.L22:
 197:application/shoot/shoot.c ****             default:
 198:application/shoot/shoot.c ****                 break;
 199:application/shoot/shoot.c ****             }
 200:application/shoot/shoot.c ****             break;
 201:application/shoot/shoot.c ****         case SMALL_AMU_30:
 202:application/shoot/shoot.c ****             DJIMotorSetRef(friction_lf, 0);
 525              		.loc 1 202 13 view .LVU139
 526 0204 9FED388A 		vldr.32	s16, .L31+40
 527 0208 B0EE480A 		vmov.f32	s0, s16
 528 020c 2E4B     		ldr	r3, .L31+8
 529 020e 1868     		ldr	r0, [r3]
 530 0210 FFF7FEFF 		bl	DJIMotorSetRef
 531              	.LVL39:
 203:application/shoot/shoot.c ****             DJIMotorSetRef(friction_rf, 0);
 532              		.loc 1 203 13 view .LVU140
 533 0214 B0EE480A 		vmov.f32	s0, s16
ARM GAS  C:\Users\10542\AppData\Local\Temp\cc7v1umG.s 			page 15


 534 0218 2C4B     		ldr	r3, .L31+12
 535 021a 1868     		ldr	r0, [r3]
 536 021c FFF7FEFF 		bl	DJIMotorSetRef
 537              	.LVL40:
 204:application/shoot/shoot.c ****             switch (shoot_config->shoot_type)
 538              		.loc 1 204 13 view .LVU141
 539              		.loc 1 204 33 is_stmt 0 view .LVU142
 540 0220 2B4B     		ldr	r3, .L31+16
 541 0222 1B68     		ldr	r3, [r3]
 542 0224 1B78     		ldrb	r3, [r3]	@ zero_extendqisi2
 543              		.loc 1 204 13 view .LVU143
 544 0226 022B     		cmp	r3, #2
 545 0228 41D1     		bne	.L24
 205:application/shoot/shoot.c ****             {
 206:application/shoot/shoot.c ****             case THREE_SHOOT:
 207:application/shoot/shoot.c ****                 break;
 208:application/shoot/shoot.c ****             case FOUR_SHOOT:
 209:application/shoot/shoot.c ****                 // ه·¦هگژو‘©و“¦è½®
 210:application/shoot/shoot.c ****                 DJIMotorSetRef(friction_lb, 0);
 546              		.loc 1 210 17 is_stmt 1 view .LVU144
 547 022a B0EE480A 		vmov.f32	s0, s16
 548 022e 2C4B     		ldr	r3, .L31+32
 549 0230 1868     		ldr	r0, [r3]
 550 0232 FFF7FEFF 		bl	DJIMotorSetRef
 551              	.LVL41:
 211:application/shoot/shoot.c ****                 // هڈ³هگژو‘©و“¦è½®
 212:application/shoot/shoot.c ****                 DJIMotorSetRef(friction_rb, 0);  
 552              		.loc 1 212 17 view .LVU145
 553 0236 B0EE480A 		vmov.f32	s0, s16
 554 023a 2A4B     		ldr	r3, .L31+36
 555 023c 1868     		ldr	r0, [r3]
 556 023e FFF7FEFF 		bl	DJIMotorSetRef
 557              	.LVL42:
 213:application/shoot/shoot.c ****                 break;
 558              		.loc 1 213 17 view .LVU146
 559 0242 34E0     		b	.L24
 560              	.L23:
 214:application/shoot/shoot.c ****             default:
 215:application/shoot/shoot.c ****                 break;
 216:application/shoot/shoot.c ****             }
 217:application/shoot/shoot.c ****             break;
 218:application/shoot/shoot.c ****         default: // ه½“ه‰چن¸؛ن؛†è°ƒè¯•è®¾ه®ڑçڑ„é»کè®¤ه€¼4000,ه› ن¸؛è؟کو²،وœ‰هٹ ه…¥è£پهˆ¤ç³»ç»ںو— و³
 219:application/shoot/shoot.c ****             DJIMotorSetRef(friction_lf, 80000);
 561              		.loc 1 219 13 view .LVU147
 562 0244 9FED2E8A 		vldr.32	s16, .L31+64
 563 0248 B0EE480A 		vmov.f32	s0, s16
 564 024c 1E4B     		ldr	r3, .L31+8
 565 024e 1868     		ldr	r0, [r3]
 566 0250 FFF7FEFF 		bl	DJIMotorSetRef
 567              	.LVL43:
 220:application/shoot/shoot.c ****             DJIMotorSetRef(friction_rf, 80000);
 568              		.loc 1 220 13 view .LVU148
 569 0254 B0EE480A 		vmov.f32	s0, s16
 570 0258 1C4B     		ldr	r3, .L31+12
 571 025a 1868     		ldr	r0, [r3]
 572 025c FFF7FEFF 		bl	DJIMotorSetRef
 573              	.LVL44:
ARM GAS  C:\Users\10542\AppData\Local\Temp\cc7v1umG.s 			page 16


 221:application/shoot/shoot.c ****             switch (shoot_config->shoot_type)
 574              		.loc 1 221 13 view .LVU149
 575              		.loc 1 221 33 is_stmt 0 view .LVU150
 576 0260 1B4B     		ldr	r3, .L31+16
 577 0262 1B68     		ldr	r3, [r3]
 578 0264 1B78     		ldrb	r3, [r3]	@ zero_extendqisi2
 579              		.loc 1 221 13 view .LVU151
 580 0266 022B     		cmp	r3, #2
 581 0268 21D1     		bne	.L24
 222:application/shoot/shoot.c ****             {
 223:application/shoot/shoot.c ****             case THREE_SHOOT:
 224:application/shoot/shoot.c ****                 break;
 225:application/shoot/shoot.c ****             case FOUR_SHOOT:
 226:application/shoot/shoot.c ****                 // ه·¦هگژو‘©و“¦è½®
 227:application/shoot/shoot.c ****                 DJIMotorSetRef(friction_lb, 50000);
 582              		.loc 1 227 17 is_stmt 1 view .LVU152
 583 026a 9FED268A 		vldr.32	s16, .L31+68
 584 026e B0EE480A 		vmov.f32	s0, s16
 585 0272 1B4B     		ldr	r3, .L31+32
 586 0274 1868     		ldr	r0, [r3]
 587 0276 FFF7FEFF 		bl	DJIMotorSetRef
 588              	.LVL45:
 228:application/shoot/shoot.c ****                 // هڈ³هگژو‘©و“¦è½®
 229:application/shoot/shoot.c ****                 DJIMotorSetRef(friction_rb, 50000);  
 589              		.loc 1 229 17 view .LVU153
 590 027a B0EE480A 		vmov.f32	s0, s16
 591 027e 194B     		ldr	r3, .L31+36
 592 0280 1868     		ldr	r0, [r3]
 593 0282 FFF7FEFF 		bl	DJIMotorSetRef
 594              	.LVL46:
 230:application/shoot/shoot.c ****                 break;
 595              		.loc 1 230 17 view .LVU154
 596 0286 12E0     		b	.L24
 597              	.L20:
 231:application/shoot/shoot.c ****             default:
 232:application/shoot/shoot.c ****                 break;
 233:application/shoot/shoot.c ****             }            
 234:application/shoot/shoot.c ****             break;
 235:application/shoot/shoot.c ****         }
 236:application/shoot/shoot.c ****     }
 237:application/shoot/shoot.c ****     else // ه…³é—­و‘©و“¦è½®
 238:application/shoot/shoot.c ****     {
 239:application/shoot/shoot.c ****         DJIMotorSetRef(friction_lf, 0);
 598              		.loc 1 239 9 view .LVU155
 599 0288 9FED178A 		vldr.32	s16, .L31+40
 600 028c B0EE480A 		vmov.f32	s0, s16
 601 0290 0D4B     		ldr	r3, .L31+8
 602 0292 1868     		ldr	r0, [r3]
 603 0294 FFF7FEFF 		bl	DJIMotorSetRef
 604              	.LVL47:
 240:application/shoot/shoot.c ****         DJIMotorSetRef(friction_rf, 0);
 605              		.loc 1 240 9 view .LVU156
 606 0298 B0EE480A 		vmov.f32	s0, s16
 607 029c 0B4B     		ldr	r3, .L31+12
 608 029e 1868     		ldr	r0, [r3]
 609 02a0 FFF7FEFF 		bl	DJIMotorSetRef
 610              	.LVL48:
ARM GAS  C:\Users\10542\AppData\Local\Temp\cc7v1umG.s 			page 17


 241:application/shoot/shoot.c ****         switch (shoot_config->shoot_type)
 611              		.loc 1 241 9 view .LVU157
 612              		.loc 1 241 29 is_stmt 0 view .LVU158
 613 02a4 0A4B     		ldr	r3, .L31+16
 614 02a6 1B68     		ldr	r3, [r3]
 615 02a8 1B78     		ldrb	r3, [r3]	@ zero_extendqisi2
 616              		.loc 1 241 9 view .LVU159
 617 02aa 022B     		cmp	r3, #2
 618 02ac 30D0     		beq	.L30
 619              	.L24:
 242:application/shoot/shoot.c ****         {
 243:application/shoot/shoot.c ****         case THREE_SHOOT:
 244:application/shoot/shoot.c ****             break;
 245:application/shoot/shoot.c ****         case FOUR_SHOOT:
 246:application/shoot/shoot.c ****             // ه·¦هگژو‘©و“¦è½®
 247:application/shoot/shoot.c ****             DJIMotorSetRef(friction_lb, 0);
 248:application/shoot/shoot.c ****             // هڈ³هگژو‘©و“¦è½®
 249:application/shoot/shoot.c ****             DJIMotorSetRef(friction_rb, 0);  
 250:application/shoot/shoot.c ****             break;
 251:application/shoot/shoot.c ****         default:
 252:application/shoot/shoot.c ****             break;
 253:application/shoot/shoot.c ****         }            
 254:application/shoot/shoot.c ****     }
 255:application/shoot/shoot.c **** 
 256:application/shoot/shoot.c ****     // ه¼€ه…³ه¼¹èˆ±ç›–
 257:application/shoot/shoot.c ****     if (shoot_cmd_recv.lid_mode == LID_CLOSE)
 620              		.loc 1 257 5 is_stmt 1 view .LVU160
 258:application/shoot/shoot.c ****     {
 259:application/shoot/shoot.c ****         //...
 260:application/shoot/shoot.c ****     }
 261:application/shoot/shoot.c ****     else if (shoot_cmd_recv.lid_mode == LID_OPEN)
 621              		.loc 1 261 10 view .LVU161
 262:application/shoot/shoot.c ****     {
 263:application/shoot/shoot.c ****         //...
 264:application/shoot/shoot.c ****     }
 622              		.loc 1 264 5 view .LVU162
 265:application/shoot/shoot.c **** 
 266:application/shoot/shoot.c ****     // هڈچé¦ˆو•°وچ®,ç›®ه‰چوڑ‚و—¶و²،وœ‰è¦پè®¾ه®ڑçڑ„هڈچé¦ˆو•°وچ®,هگژç»­هڈ¯èƒ½ه¢‍هٹ ه؛”ç”¨ç¦»ç؛؟ç›‘وµ‹
 267:application/shoot/shoot.c ****     PubPushMessage(shoot_pub, (void *)&shoot_feedback_data);
 623              		.loc 1 267 5 view .LVU163
 624 02ae 1649     		ldr	r1, .L31+72
 625 02b0 164B     		ldr	r3, .L31+76
 626 02b2 1868     		ldr	r0, [r3]
 627 02b4 FFF7FEFF 		bl	PubPushMessage
 628              	.LVL49:
 629              	.L7:
 268:application/shoot/shoot.c **** }...
 630              		.loc 1 268 1 is_stmt 0 view .LVU164
 631 02b8 BDEC028B 		vldm	sp!, {d8}
 632              	.LCFI3:
 633              		.cfi_remember_state
 634              		.cfi_restore 80
 635              		.cfi_restore 81
 636              		.cfi_def_cfa_offset 8
 637 02bc 10BD     		pop	{r4, pc}
 638              	.L32:
 639 02be 00BF     		.align	2
ARM GAS  C:\Users\10542\AppData\Local\Temp\cc7v1umG.s 			page 18


 640              	.L31:
 641 02c0 00000000 		.word	shoot_cmd_recv
 642 02c4 00000000 		.word	shoot_sub
 643 02c8 00000000 		.word	friction_lf
 644 02cc 00000000 		.word	friction_rf
 645 02d0 00000000 		.word	shoot_config
 646 02d4 00000000 		.word	loader
 647 02d8 00000000 		.word	hibernate_time
 648 02dc 00000000 		.word	dead_time
 649 02e0 00000000 		.word	friction_lb
 650 02e4 00000000 		.word	friction_rb
 651 02e8 00000000 		.word	0
 652 02ec 00E01246 		.word	1175642112
 653 02f0 00001643 		.word	1125515264
 654 02f4 0000FA43 		.word	1140457472
 655 02f8 0000B443 		.word	1135869952
 656 02fc 00001042 		.word	1108344832
 657 0300 00409C47 		.word	1201422336
 658 0304 00504347 		.word	1195593728
 659 0308 00000000 		.word	shoot_feedback_data
 660 030c 00000000 		.word	shoot_pub
 661              	.L30:
 662              	.LCFI4:
 663              		.cfi_restore_state
 247:application/shoot/shoot.c ****             DJIMotorSetRef(friction_lb, 0);
 664              		.loc 1 247 13 is_stmt 1 view .LVU165
 665 0310 B0EE480A 		vmov.f32	s0, s16
 666 0314 054B     		ldr	r3, .L33
 667 0316 1868     		ldr	r0, [r3]
 668 0318 FFF7FEFF 		bl	DJIMotorSetRef
 669              	.LVL50:
 249:application/shoot/shoot.c ****             DJIMotorSetRef(friction_rb, 0);  
 670              		.loc 1 249 13 view .LVU166
 671 031c B0EE480A 		vmov.f32	s0, s16
 672 0320 034B     		ldr	r3, .L33+4
 673 0322 1868     		ldr	r0, [r3]
 674 0324 FFF7FEFF 		bl	DJIMotorSetRef
 675              	.LVL51:
 250:application/shoot/shoot.c ****             break;
 676              		.loc 1 250 13 view .LVU167
 677 0328 C1E7     		b	.L24
 678              	.L34:
 679 032a 00BF     		.align	2
 680              	.L33:
 681 032c 00000000 		.word	friction_lb
 682 0330 00000000 		.word	friction_rb
 683              		.cfi_endproc
 684              	.LFE272:
 686              		.section	.bss.dead_time,"aw",%nobits
 687              		.align	2
 690              	dead_time:
 691 0000 00000000 		.space	4
 692              		.section	.bss.hibernate_time,"aw",%nobits
 693              		.align	2
 696              	hibernate_time:
 697 0000 00000000 		.space	4
 698              		.section	.bss.shoot_feedback_data,"aw",%nobits
ARM GAS  C:\Users\10542\AppData\Local\Temp\cc7v1umG.s 			page 19


 699              		.align	2
 702              	shoot_feedback_data:
 703              		.section	.bss.shoot_sub,"aw",%nobits
 704              		.align	2
 707              	shoot_sub:
 708 0000 00000000 		.space	4
 709              		.section	.bss.shoot_cmd_recv,"aw",%nobits
 710              		.align	2
 713              	shoot_cmd_recv:
 714 0000 00000000 		.space	10
 714      00000000 
 714      0000
 715              		.section	.bss.shoot_pub,"aw",%nobits
 716              		.align	2
 719              	shoot_pub:
 720 0000 00000000 		.space	4
 721              		.section	.bss.friction_rb,"aw",%nobits
 722              		.align	2
 725              	friction_rb:
 726 0000 00000000 		.space	4
 727              		.section	.bss.friction_lb,"aw",%nobits
 728              		.align	2
 731              	friction_lb:
 732 0000 00000000 		.space	4
 733              		.section	.bss.loader,"aw",%nobits
 734              		.align	2
 737              	loader:
 738 0000 00000000 		.space	4
 739              		.section	.bss.friction_rf,"aw",%nobits
 740              		.align	2
 743              	friction_rf:
 744 0000 00000000 		.space	4
 745              		.section	.bss.friction_lf,"aw",%nobits
 746              		.align	2
 749              	friction_lf:
 750 0000 00000000 		.space	4
 751              		.section	.bss.shoot_config,"aw",%nobits
 752              		.align	2
 755              	shoot_config:
 756 0000 00000000 		.space	4
 757              		.text
 758              	.Letext0:
 759              		.file 2 "E:/MSYS2/mingw64/arm-none-eabi/include/machine/_default_types.h"
 760              		.file 3 "E:/MSYS2/mingw64/arm-none-eabi/include/sys/_stdint.h"
 761              		.file 4 "Drivers/CMSIS/Device/ST/STM32F4xx/Include/stm32f407xx.h"
 762              		.file 5 "Drivers/CMSIS/Device/ST/STM32F4xx/Include/stm32f4xx.h"
 763              		.file 6 "Drivers/STM32F4xx_HAL_Driver/Inc/stm32f4xx_hal_can.h"
 764              		.file 7 "modules/master_machine/master_process.h"
 765              		.file 8 "bsp/can/bsp_can.h"
 766              		.file 9 "modules/algorithm/controller.h"
 767              		.file 10 "modules/motor/motor_def.h"
 768              		.file 11 "application/config/config.h"
 769              		.file 12 "application/robot_def.h"
 770              		.file 13 "modules/daemon/daemon.h"
 771              		.file 14 "modules/motor/DJImotor/dji_motor.h"
 772              		.file 15 "modules/message_center/message_center.h"
 773              		.file 16 "bsp/dwt/bsp_dwt.h"
ARM GAS  C:\Users\10542\AppData\Local\Temp\cc7v1umG.s 			page 20


ARM GAS  C:\Users\10542\AppData\Local\Temp\cc7v1umG.s 			page 21

