ARM GAS  C:\Users\ADMINI~1\AppData\Local\Temp\ccZnHgYF.s 			page 1


   1              		.cpu cortex-m4
   2              		.arch armv7e-m
   3              		.fpu fpv4-sp-d16
   4              		.eabi_attribute 27, 1
   5              		.eabi_attribute 28, 1
   6              		.eabi_attribute 20, 1
   7              		.eabi_attribute 21, 1
   8              		.eabi_attribute 23, 3
   9              		.eabi_attribute 24, 1
  10              		.eabi_attribute 25, 1
  11              		.eabi_attribute 26, 1
  12              		.eabi_attribute 30, 1
  13              		.eabi_attribute 34, 1
  14              		.eabi_attribute 18, 4
  15              		.file	"stm32f4xx_hal_dac.c"
  16              		.text
  17              	.Ltext0:
  18              		.cfi_sections	.debug_frame
  19              		.file 1 "Drivers/STM32F4xx_HAL_Driver/Src/stm32f4xx_hal_dac.c"
  20              		.section	.text.HAL_DAC_MspInit,"ax",%progbits
  21              		.align	1
  22              		.weak	HAL_DAC_MspInit
  23              		.syntax unified
  24              		.thumb
  25              		.thumb_func
  27              	HAL_DAC_MspInit:
  28              	.LVL0:
  29              	.LFB237:
   1:Drivers/STM32F4xx_HAL_Driver/Src/stm32f4xx_hal_dac.c **** /**
   2:Drivers/STM32F4xx_HAL_Driver/Src/stm32f4xx_hal_dac.c ****   ******************************************************************************
   3:Drivers/STM32F4xx_HAL_Driver/Src/stm32f4xx_hal_dac.c ****   * @file    stm32f4xx_hal_dac.c
   4:Drivers/STM32F4xx_HAL_Driver/Src/stm32f4xx_hal_dac.c ****   * @author  MCD Application Team
   5:Drivers/STM32F4xx_HAL_Driver/Src/stm32f4xx_hal_dac.c ****   * @brief   DAC HAL module driver.
   6:Drivers/STM32F4xx_HAL_Driver/Src/stm32f4xx_hal_dac.c ****   *         This file provides firmware functions to manage the following
   7:Drivers/STM32F4xx_HAL_Driver/Src/stm32f4xx_hal_dac.c ****   *         functionalities of the Digital to Analog Converter (DAC) peripheral:
   8:Drivers/STM32F4xx_HAL_Driver/Src/stm32f4xx_hal_dac.c ****   *           + Initialization and de-initialization functions
   9:Drivers/STM32F4xx_HAL_Driver/Src/stm32f4xx_hal_dac.c ****   *           + IO operation functions
  10:Drivers/STM32F4xx_HAL_Driver/Src/stm32f4xx_hal_dac.c ****   *           + Peripheral Control functions
  11:Drivers/STM32F4xx_HAL_Driver/Src/stm32f4xx_hal_dac.c ****   *           + Peripheral State and Errors functions
  12:Drivers/STM32F4xx_HAL_Driver/Src/stm32f4xx_hal_dac.c ****   *
  13:Drivers/STM32F4xx_HAL_Driver/Src/stm32f4xx_hal_dac.c ****   *
  14:Drivers/STM32F4xx_HAL_Driver/Src/stm32f4xx_hal_dac.c ****   ******************************************************************************
  15:Drivers/STM32F4xx_HAL_Driver/Src/stm32f4xx_hal_dac.c ****   * @attention
  16:Drivers/STM32F4xx_HAL_Driver/Src/stm32f4xx_hal_dac.c ****   *
  17:Drivers/STM32F4xx_HAL_Driver/Src/stm32f4xx_hal_dac.c ****   * Copyright (c) 2016 STMicroelectronics.
  18:Drivers/STM32F4xx_HAL_Driver/Src/stm32f4xx_hal_dac.c ****   * All rights reserved.
  19:Drivers/STM32F4xx_HAL_Driver/Src/stm32f4xx_hal_dac.c ****   *
  20:Drivers/STM32F4xx_HAL_Driver/Src/stm32f4xx_hal_dac.c ****   * This software is licensed under terms that can be found in the LICENSE file
  21:Drivers/STM32F4xx_HAL_Driver/Src/stm32f4xx_hal_dac.c ****   * in the root directory of this software component.
  22:Drivers/STM32F4xx_HAL_Driver/Src/stm32f4xx_hal_dac.c ****   * If no LICENSE file comes with this software, it is provided AS-IS.
  23:Drivers/STM32F4xx_HAL_Driver/Src/stm32f4xx_hal_dac.c ****   *
  24:Drivers/STM32F4xx_HAL_Driver/Src/stm32f4xx_hal_dac.c ****   ******************************************************************************
  25:Drivers/STM32F4xx_HAL_Driver/Src/stm32f4xx_hal_dac.c ****   @verbatim
  26:Drivers/STM32F4xx_HAL_Driver/Src/stm32f4xx_hal_dac.c ****   ==============================================================================
  27:Drivers/STM32F4xx_HAL_Driver/Src/stm32f4xx_hal_dac.c ****                       ##### DAC Peripheral features #####
  28:Drivers/STM32F4xx_HAL_Driver/Src/stm32f4xx_hal_dac.c ****   ==============================================================================
  29:Drivers/STM32F4xx_HAL_Driver/Src/stm32f4xx_hal_dac.c ****     [..]
ARM GAS  C:\Users\ADMINI~1\AppData\Local\Temp\ccZnHgYF.s 			page 2


  30:Drivers/STM32F4xx_HAL_Driver/Src/stm32f4xx_hal_dac.c ****       *** DAC Channels ***
  31:Drivers/STM32F4xx_HAL_Driver/Src/stm32f4xx_hal_dac.c ****       ====================
  32:Drivers/STM32F4xx_HAL_Driver/Src/stm32f4xx_hal_dac.c ****     [..]
  33:Drivers/STM32F4xx_HAL_Driver/Src/stm32f4xx_hal_dac.c ****     STM32F4 devices integrate two 12-bit Digital Analog Converters
  34:Drivers/STM32F4xx_HAL_Driver/Src/stm32f4xx_hal_dac.c **** 
  35:Drivers/STM32F4xx_HAL_Driver/Src/stm32f4xx_hal_dac.c ****     The 2 converters (i.e. channel1 & channel2)
  36:Drivers/STM32F4xx_HAL_Driver/Src/stm32f4xx_hal_dac.c ****     can be used independently or simultaneously (dual mode):
  37:Drivers/STM32F4xx_HAL_Driver/Src/stm32f4xx_hal_dac.c ****       (#) DAC channel1 with DAC_OUT1 (PA4) as output
  38:Drivers/STM32F4xx_HAL_Driver/Src/stm32f4xx_hal_dac.c ****       (#) DAC channel2 with DAC_OUT2 (PA5) as output
  39:Drivers/STM32F4xx_HAL_Driver/Src/stm32f4xx_hal_dac.c **** 
  40:Drivers/STM32F4xx_HAL_Driver/Src/stm32f4xx_hal_dac.c ****       *** DAC Triggers ***
  41:Drivers/STM32F4xx_HAL_Driver/Src/stm32f4xx_hal_dac.c ****       ====================
  42:Drivers/STM32F4xx_HAL_Driver/Src/stm32f4xx_hal_dac.c ****     [..]
  43:Drivers/STM32F4xx_HAL_Driver/Src/stm32f4xx_hal_dac.c ****     Digital to Analog conversion can be non-triggered using DAC_TRIGGER_NONE
  44:Drivers/STM32F4xx_HAL_Driver/Src/stm32f4xx_hal_dac.c ****     and DAC_OUT1/DAC_OUT2 is available once writing to DHRx register.
  45:Drivers/STM32F4xx_HAL_Driver/Src/stm32f4xx_hal_dac.c ****     [..]
  46:Drivers/STM32F4xx_HAL_Driver/Src/stm32f4xx_hal_dac.c ****     Digital to Analog conversion can be triggered by:
  47:Drivers/STM32F4xx_HAL_Driver/Src/stm32f4xx_hal_dac.c ****       (#) External event: EXTI Line 9 (any GPIOx_PIN_9) using DAC_TRIGGER_EXT_IT9.
  48:Drivers/STM32F4xx_HAL_Driver/Src/stm32f4xx_hal_dac.c ****           The used pin (GPIOx_PIN_9) must be configured in input mode.
  49:Drivers/STM32F4xx_HAL_Driver/Src/stm32f4xx_hal_dac.c **** 
  50:Drivers/STM32F4xx_HAL_Driver/Src/stm32f4xx_hal_dac.c ****       (#) Timers TRGO: TIM2, TIM4, TIM5, TIM6, TIM7 and TIM8
  51:Drivers/STM32F4xx_HAL_Driver/Src/stm32f4xx_hal_dac.c ****           (DAC_TRIGGER_T2_TRGO, DAC_TRIGGER_T4_TRGO...)
  52:Drivers/STM32F4xx_HAL_Driver/Src/stm32f4xx_hal_dac.c **** 
  53:Drivers/STM32F4xx_HAL_Driver/Src/stm32f4xx_hal_dac.c ****       (#) Software using DAC_TRIGGER_SOFTWARE
  54:Drivers/STM32F4xx_HAL_Driver/Src/stm32f4xx_hal_dac.c **** 
  55:Drivers/STM32F4xx_HAL_Driver/Src/stm32f4xx_hal_dac.c ****       *** DAC Buffer mode feature ***
  56:Drivers/STM32F4xx_HAL_Driver/Src/stm32f4xx_hal_dac.c ****       ===============================
  57:Drivers/STM32F4xx_HAL_Driver/Src/stm32f4xx_hal_dac.c ****       [..]
  58:Drivers/STM32F4xx_HAL_Driver/Src/stm32f4xx_hal_dac.c ****       Each DAC channel integrates an output buffer that can be used to
  59:Drivers/STM32F4xx_HAL_Driver/Src/stm32f4xx_hal_dac.c ****       reduce the output impedance, and to drive external loads directly
  60:Drivers/STM32F4xx_HAL_Driver/Src/stm32f4xx_hal_dac.c ****       without having to add an external operational amplifier.
  61:Drivers/STM32F4xx_HAL_Driver/Src/stm32f4xx_hal_dac.c ****       To enable, the output buffer use
  62:Drivers/STM32F4xx_HAL_Driver/Src/stm32f4xx_hal_dac.c ****       sConfig.DAC_OutputBuffer = DAC_OUTPUTBUFFER_ENABLE;
  63:Drivers/STM32F4xx_HAL_Driver/Src/stm32f4xx_hal_dac.c ****       [..]
  64:Drivers/STM32F4xx_HAL_Driver/Src/stm32f4xx_hal_dac.c ****       (@) Refer to the device datasheet for more details about output
  65:Drivers/STM32F4xx_HAL_Driver/Src/stm32f4xx_hal_dac.c ****           impedance value with and without output buffer.
  66:Drivers/STM32F4xx_HAL_Driver/Src/stm32f4xx_hal_dac.c **** 
  67:Drivers/STM32F4xx_HAL_Driver/Src/stm32f4xx_hal_dac.c ****        *** DAC wave generation feature ***
  68:Drivers/STM32F4xx_HAL_Driver/Src/stm32f4xx_hal_dac.c ****        ===================================
  69:Drivers/STM32F4xx_HAL_Driver/Src/stm32f4xx_hal_dac.c ****        [..]
  70:Drivers/STM32F4xx_HAL_Driver/Src/stm32f4xx_hal_dac.c ****        Both DAC channels can be used to generate
  71:Drivers/STM32F4xx_HAL_Driver/Src/stm32f4xx_hal_dac.c ****          (#) Noise wave
  72:Drivers/STM32F4xx_HAL_Driver/Src/stm32f4xx_hal_dac.c ****          (#) Triangle wave
  73:Drivers/STM32F4xx_HAL_Driver/Src/stm32f4xx_hal_dac.c **** 
  74:Drivers/STM32F4xx_HAL_Driver/Src/stm32f4xx_hal_dac.c ****        *** DAC data format ***
  75:Drivers/STM32F4xx_HAL_Driver/Src/stm32f4xx_hal_dac.c ****        =======================
  76:Drivers/STM32F4xx_HAL_Driver/Src/stm32f4xx_hal_dac.c ****        [..]
  77:Drivers/STM32F4xx_HAL_Driver/Src/stm32f4xx_hal_dac.c ****        The DAC data format can be:
  78:Drivers/STM32F4xx_HAL_Driver/Src/stm32f4xx_hal_dac.c ****          (#) 8-bit right alignment using DAC_ALIGN_8B_R
  79:Drivers/STM32F4xx_HAL_Driver/Src/stm32f4xx_hal_dac.c ****          (#) 12-bit left alignment using DAC_ALIGN_12B_L
  80:Drivers/STM32F4xx_HAL_Driver/Src/stm32f4xx_hal_dac.c ****          (#) 12-bit right alignment using DAC_ALIGN_12B_R
  81:Drivers/STM32F4xx_HAL_Driver/Src/stm32f4xx_hal_dac.c **** 
  82:Drivers/STM32F4xx_HAL_Driver/Src/stm32f4xx_hal_dac.c ****        *** DAC data value to voltage correspondence ***
  83:Drivers/STM32F4xx_HAL_Driver/Src/stm32f4xx_hal_dac.c ****        ================================================
  84:Drivers/STM32F4xx_HAL_Driver/Src/stm32f4xx_hal_dac.c ****        [..]
  85:Drivers/STM32F4xx_HAL_Driver/Src/stm32f4xx_hal_dac.c ****        The analog output voltage on each DAC channel pin is determined
  86:Drivers/STM32F4xx_HAL_Driver/Src/stm32f4xx_hal_dac.c ****        by the following equation:
ARM GAS  C:\Users\ADMINI~1\AppData\Local\Temp\ccZnHgYF.s 			page 3


  87:Drivers/STM32F4xx_HAL_Driver/Src/stm32f4xx_hal_dac.c ****        [..]
  88:Drivers/STM32F4xx_HAL_Driver/Src/stm32f4xx_hal_dac.c ****        DAC_OUTx = VREF+ * DOR / 4095
  89:Drivers/STM32F4xx_HAL_Driver/Src/stm32f4xx_hal_dac.c ****        (+) with  DOR is the Data Output Register
  90:Drivers/STM32F4xx_HAL_Driver/Src/stm32f4xx_hal_dac.c ****        [..]
  91:Drivers/STM32F4xx_HAL_Driver/Src/stm32f4xx_hal_dac.c ****           VREF+ is the input voltage reference (refer to the device datasheet)
  92:Drivers/STM32F4xx_HAL_Driver/Src/stm32f4xx_hal_dac.c ****        [..]
  93:Drivers/STM32F4xx_HAL_Driver/Src/stm32f4xx_hal_dac.c ****         e.g. To set DAC_OUT1 to 0.7V, use
  94:Drivers/STM32F4xx_HAL_Driver/Src/stm32f4xx_hal_dac.c ****        (+) Assuming that VREF+ = 3.3V, DAC_OUT1 = (3.3 * 868) / 4095 = 0.7V
  95:Drivers/STM32F4xx_HAL_Driver/Src/stm32f4xx_hal_dac.c **** 
  96:Drivers/STM32F4xx_HAL_Driver/Src/stm32f4xx_hal_dac.c ****        *** DMA requests ***
  97:Drivers/STM32F4xx_HAL_Driver/Src/stm32f4xx_hal_dac.c ****        =====================
  98:Drivers/STM32F4xx_HAL_Driver/Src/stm32f4xx_hal_dac.c ****        [..]
  99:Drivers/STM32F4xx_HAL_Driver/Src/stm32f4xx_hal_dac.c ****        A DMA request can be generated when an external trigger (but not a software trigger)
 100:Drivers/STM32F4xx_HAL_Driver/Src/stm32f4xx_hal_dac.c ****        occurs if DMA1 requests are enabled using HAL_DAC_Start_DMA().
 101:Drivers/STM32F4xx_HAL_Driver/Src/stm32f4xx_hal_dac.c ****        DMA1 requests are mapped as following:
 102:Drivers/STM32F4xx_HAL_Driver/Src/stm32f4xx_hal_dac.c ****       (#) DAC channel1 mapped on DMA1 Stream5 channel7 which must be 
 103:Drivers/STM32F4xx_HAL_Driver/Src/stm32f4xx_hal_dac.c ****           already configured
 104:Drivers/STM32F4xx_HAL_Driver/Src/stm32f4xx_hal_dac.c ****       (#) DAC channel2 mapped on DMA1 Stream6 channel7 which must be 
 105:Drivers/STM32F4xx_HAL_Driver/Src/stm32f4xx_hal_dac.c ****           already configured
 106:Drivers/STM32F4xx_HAL_Driver/Src/stm32f4xx_hal_dac.c **** 
 107:Drivers/STM32F4xx_HAL_Driver/Src/stm32f4xx_hal_dac.c ****      [..]
 108:Drivers/STM32F4xx_HAL_Driver/Src/stm32f4xx_hal_dac.c ****     (@) For Dual mode and specific signal (Triangle and noise) generation please
 109:Drivers/STM32F4xx_HAL_Driver/Src/stm32f4xx_hal_dac.c ****         refer to Extended Features Driver description
 110:Drivers/STM32F4xx_HAL_Driver/Src/stm32f4xx_hal_dac.c **** 
 111:Drivers/STM32F4xx_HAL_Driver/Src/stm32f4xx_hal_dac.c ****                       ##### How to use this driver #####
 112:Drivers/STM32F4xx_HAL_Driver/Src/stm32f4xx_hal_dac.c ****   ==============================================================================
 113:Drivers/STM32F4xx_HAL_Driver/Src/stm32f4xx_hal_dac.c ****     [..]
 114:Drivers/STM32F4xx_HAL_Driver/Src/stm32f4xx_hal_dac.c ****       (+) DAC APB clock must be enabled to get write access to DAC
 115:Drivers/STM32F4xx_HAL_Driver/Src/stm32f4xx_hal_dac.c ****           registers using HAL_DAC_Init()
 116:Drivers/STM32F4xx_HAL_Driver/Src/stm32f4xx_hal_dac.c ****       (+) Configure DAC_OUTx (DAC_OUT1: PA4, DAC_OUT2: PA5) in analog mode.
 117:Drivers/STM32F4xx_HAL_Driver/Src/stm32f4xx_hal_dac.c ****       (+) Configure the DAC channel using HAL_DAC_ConfigChannel() function.
 118:Drivers/STM32F4xx_HAL_Driver/Src/stm32f4xx_hal_dac.c ****       (+) Enable the DAC channel using HAL_DAC_Start() or HAL_DAC_Start_DMA() functions.
 119:Drivers/STM32F4xx_HAL_Driver/Src/stm32f4xx_hal_dac.c **** 
 120:Drivers/STM32F4xx_HAL_Driver/Src/stm32f4xx_hal_dac.c **** 
 121:Drivers/STM32F4xx_HAL_Driver/Src/stm32f4xx_hal_dac.c ****      *** Polling mode IO operation ***
 122:Drivers/STM32F4xx_HAL_Driver/Src/stm32f4xx_hal_dac.c ****      =================================
 123:Drivers/STM32F4xx_HAL_Driver/Src/stm32f4xx_hal_dac.c ****      [..]
 124:Drivers/STM32F4xx_HAL_Driver/Src/stm32f4xx_hal_dac.c ****        (+) Start the DAC peripheral using HAL_DAC_Start()
 125:Drivers/STM32F4xx_HAL_Driver/Src/stm32f4xx_hal_dac.c ****        (+) To read the DAC last data output value, use the HAL_DAC_GetValue() function.
 126:Drivers/STM32F4xx_HAL_Driver/Src/stm32f4xx_hal_dac.c ****        (+) Stop the DAC peripheral using HAL_DAC_Stop()
 127:Drivers/STM32F4xx_HAL_Driver/Src/stm32f4xx_hal_dac.c **** 
 128:Drivers/STM32F4xx_HAL_Driver/Src/stm32f4xx_hal_dac.c ****      *** DMA mode IO operation ***
 129:Drivers/STM32F4xx_HAL_Driver/Src/stm32f4xx_hal_dac.c ****      ==============================
 130:Drivers/STM32F4xx_HAL_Driver/Src/stm32f4xx_hal_dac.c ****      [..]
 131:Drivers/STM32F4xx_HAL_Driver/Src/stm32f4xx_hal_dac.c ****        (+) Start the DAC peripheral using HAL_DAC_Start_DMA(), at this stage the user specify the l
 132:Drivers/STM32F4xx_HAL_Driver/Src/stm32f4xx_hal_dac.c ****            of data to be transferred at each end of conversion
 133:Drivers/STM32F4xx_HAL_Driver/Src/stm32f4xx_hal_dac.c ****            First issued trigger will start the conversion of the value previously set by HAL_DAC_Se
 134:Drivers/STM32F4xx_HAL_Driver/Src/stm32f4xx_hal_dac.c ****        (+) At the middle of data transfer HAL_DAC_ConvHalfCpltCallbackCh1() or HAL_DACEx_ConvHalfCp
 135:Drivers/STM32F4xx_HAL_Driver/Src/stm32f4xx_hal_dac.c ****            function is executed and user can add his own code by customization of function pointer
 136:Drivers/STM32F4xx_HAL_Driver/Src/stm32f4xx_hal_dac.c ****            HAL_DAC_ConvHalfCpltCallbackCh1() or HAL_DACEx_ConvHalfCpltCallbackCh2()
 137:Drivers/STM32F4xx_HAL_Driver/Src/stm32f4xx_hal_dac.c ****        (+) At The end of data transfer HAL_DAC_ConvCpltCallbackCh1() or HAL_DACEx_ConvHalfCpltCallb
 138:Drivers/STM32F4xx_HAL_Driver/Src/stm32f4xx_hal_dac.c ****            function is executed and user can add his own code by customization of function pointer
 139:Drivers/STM32F4xx_HAL_Driver/Src/stm32f4xx_hal_dac.c ****            HAL_DAC_ConvCpltCallbackCh1() or HAL_DACEx_ConvHalfCpltCallbackCh2()
 140:Drivers/STM32F4xx_HAL_Driver/Src/stm32f4xx_hal_dac.c ****        (+) In case of transfer Error, HAL_DAC_ErrorCallbackCh1() function is executed and user can
 141:Drivers/STM32F4xx_HAL_Driver/Src/stm32f4xx_hal_dac.c ****             add his own code by customization of function pointer HAL_DAC_ErrorCallbackCh1
 142:Drivers/STM32F4xx_HAL_Driver/Src/stm32f4xx_hal_dac.c ****        (+) In case of DMA underrun, DAC interruption triggers and execute internal function HAL_DAC
 143:Drivers/STM32F4xx_HAL_Driver/Src/stm32f4xx_hal_dac.c ****            HAL_DAC_DMAUnderrunCallbackCh1() or HAL_DACEx_DMAUnderrunCallbackCh2()
ARM GAS  C:\Users\ADMINI~1\AppData\Local\Temp\ccZnHgYF.s 			page 4


 144:Drivers/STM32F4xx_HAL_Driver/Src/stm32f4xx_hal_dac.c ****            function is executed and user can add his own code by customization of function pointer
 145:Drivers/STM32F4xx_HAL_Driver/Src/stm32f4xx_hal_dac.c ****            HAL_DAC_DMAUnderrunCallbackCh1() or HAL_DACEx_DMAUnderrunCallbackCh2() and
 146:Drivers/STM32F4xx_HAL_Driver/Src/stm32f4xx_hal_dac.c ****            add his own code by customization of function pointer HAL_DAC_ErrorCallbackCh1()
 147:Drivers/STM32F4xx_HAL_Driver/Src/stm32f4xx_hal_dac.c ****        (+) Stop the DAC peripheral using HAL_DAC_Stop_DMA()
 148:Drivers/STM32F4xx_HAL_Driver/Src/stm32f4xx_hal_dac.c **** 
 149:Drivers/STM32F4xx_HAL_Driver/Src/stm32f4xx_hal_dac.c ****     *** Callback registration ***
 150:Drivers/STM32F4xx_HAL_Driver/Src/stm32f4xx_hal_dac.c ****     =============================================
 151:Drivers/STM32F4xx_HAL_Driver/Src/stm32f4xx_hal_dac.c ****     [..]
 152:Drivers/STM32F4xx_HAL_Driver/Src/stm32f4xx_hal_dac.c ****       The compilation define  USE_HAL_DAC_REGISTER_CALLBACKS when set to 1
 153:Drivers/STM32F4xx_HAL_Driver/Src/stm32f4xx_hal_dac.c ****       allows the user to configure dynamically the driver callbacks.
 154:Drivers/STM32F4xx_HAL_Driver/Src/stm32f4xx_hal_dac.c **** 
 155:Drivers/STM32F4xx_HAL_Driver/Src/stm32f4xx_hal_dac.c ****     Use Functions HAL_DAC_RegisterCallback() to register a user callback,
 156:Drivers/STM32F4xx_HAL_Driver/Src/stm32f4xx_hal_dac.c ****       it allows to register following callbacks:
 157:Drivers/STM32F4xx_HAL_Driver/Src/stm32f4xx_hal_dac.c ****       (+) ConvCpltCallbackCh1     : callback when a half transfer is completed on Ch1.
 158:Drivers/STM32F4xx_HAL_Driver/Src/stm32f4xx_hal_dac.c ****       (+) ConvHalfCpltCallbackCh1 : callback when a transfer is completed on Ch1.
 159:Drivers/STM32F4xx_HAL_Driver/Src/stm32f4xx_hal_dac.c ****       (+) ErrorCallbackCh1        : callback when an error occurs on Ch1.
 160:Drivers/STM32F4xx_HAL_Driver/Src/stm32f4xx_hal_dac.c ****       (+) DMAUnderrunCallbackCh1  : callback when an underrun error occurs on Ch1.
 161:Drivers/STM32F4xx_HAL_Driver/Src/stm32f4xx_hal_dac.c ****       (+) ConvCpltCallbackCh2     : callback when a half transfer is completed on Ch2.
 162:Drivers/STM32F4xx_HAL_Driver/Src/stm32f4xx_hal_dac.c ****       (+) ConvHalfCpltCallbackCh2 : callback when a transfer is completed on Ch2.
 163:Drivers/STM32F4xx_HAL_Driver/Src/stm32f4xx_hal_dac.c ****       (+) ErrorCallbackCh2        : callback when an error occurs on Ch2.
 164:Drivers/STM32F4xx_HAL_Driver/Src/stm32f4xx_hal_dac.c ****       (+) DMAUnderrunCallbackCh2  : callback when an underrun error occurs on Ch2.
 165:Drivers/STM32F4xx_HAL_Driver/Src/stm32f4xx_hal_dac.c ****       (+) MspInitCallback         : DAC MspInit.
 166:Drivers/STM32F4xx_HAL_Driver/Src/stm32f4xx_hal_dac.c ****       (+) MspDeInitCallback       : DAC MspdeInit.
 167:Drivers/STM32F4xx_HAL_Driver/Src/stm32f4xx_hal_dac.c ****       This function takes as parameters the HAL peripheral handle, the Callback ID
 168:Drivers/STM32F4xx_HAL_Driver/Src/stm32f4xx_hal_dac.c ****       and a pointer to the user callback function.
 169:Drivers/STM32F4xx_HAL_Driver/Src/stm32f4xx_hal_dac.c **** 
 170:Drivers/STM32F4xx_HAL_Driver/Src/stm32f4xx_hal_dac.c ****     Use function HAL_DAC_UnRegisterCallback() to reset a callback to the default
 171:Drivers/STM32F4xx_HAL_Driver/Src/stm32f4xx_hal_dac.c ****       weak (surcharged) function. It allows to reset following callbacks:
 172:Drivers/STM32F4xx_HAL_Driver/Src/stm32f4xx_hal_dac.c ****       (+) ConvCpltCallbackCh1     : callback when a half transfer is completed on Ch1.
 173:Drivers/STM32F4xx_HAL_Driver/Src/stm32f4xx_hal_dac.c ****       (+) ConvHalfCpltCallbackCh1 : callback when a transfer is completed on Ch1.
 174:Drivers/STM32F4xx_HAL_Driver/Src/stm32f4xx_hal_dac.c ****       (+) ErrorCallbackCh1        : callback when an error occurs on Ch1.
 175:Drivers/STM32F4xx_HAL_Driver/Src/stm32f4xx_hal_dac.c ****       (+) DMAUnderrunCallbackCh1  : callback when an underrun error occurs on Ch1.
 176:Drivers/STM32F4xx_HAL_Driver/Src/stm32f4xx_hal_dac.c ****       (+) ConvCpltCallbackCh2     : callback when a half transfer is completed on Ch2.
 177:Drivers/STM32F4xx_HAL_Driver/Src/stm32f4xx_hal_dac.c ****       (+) ConvHalfCpltCallbackCh2 : callback when a transfer is completed on Ch2.
 178:Drivers/STM32F4xx_HAL_Driver/Src/stm32f4xx_hal_dac.c ****       (+) ErrorCallbackCh2        : callback when an error occurs on Ch2.
 179:Drivers/STM32F4xx_HAL_Driver/Src/stm32f4xx_hal_dac.c ****       (+) DMAUnderrunCallbackCh2  : callback when an underrun error occurs on Ch2.
 180:Drivers/STM32F4xx_HAL_Driver/Src/stm32f4xx_hal_dac.c ****       (+) MspInitCallback         : DAC MspInit.
 181:Drivers/STM32F4xx_HAL_Driver/Src/stm32f4xx_hal_dac.c ****       (+) MspDeInitCallback       : DAC MspdeInit.
 182:Drivers/STM32F4xx_HAL_Driver/Src/stm32f4xx_hal_dac.c ****       (+) All Callbacks
 183:Drivers/STM32F4xx_HAL_Driver/Src/stm32f4xx_hal_dac.c ****       This function) takes as parameters the HAL peripheral handle and the Callback ID.
 184:Drivers/STM32F4xx_HAL_Driver/Src/stm32f4xx_hal_dac.c **** 
 185:Drivers/STM32F4xx_HAL_Driver/Src/stm32f4xx_hal_dac.c ****       By default, after the HAL_DAC_Init and if the state is HAL_DAC_STATE_RESET
 186:Drivers/STM32F4xx_HAL_Driver/Src/stm32f4xx_hal_dac.c ****       all callbacks are reset to the corresponding legacy weak (surcharged) functions.
 187:Drivers/STM32F4xx_HAL_Driver/Src/stm32f4xx_hal_dac.c ****       Exception done for MspInit and MspDeInit callbacks that are respectively
 188:Drivers/STM32F4xx_HAL_Driver/Src/stm32f4xx_hal_dac.c ****       reset to the legacy weak (surcharged) functions in the HAL_DAC_Init
 189:Drivers/STM32F4xx_HAL_Driver/Src/stm32f4xx_hal_dac.c ****       and  HAL_DAC_DeInit only when these callbacks are null (not registered beforehand).
 190:Drivers/STM32F4xx_HAL_Driver/Src/stm32f4xx_hal_dac.c ****       If not, MspInit or MspDeInit are not null, the HAL_DAC_Init and HAL_DAC_DeInit
 191:Drivers/STM32F4xx_HAL_Driver/Src/stm32f4xx_hal_dac.c ****       keep and use the user MspInit/MspDeInit callbacks (registered beforehand)
 192:Drivers/STM32F4xx_HAL_Driver/Src/stm32f4xx_hal_dac.c **** 
 193:Drivers/STM32F4xx_HAL_Driver/Src/stm32f4xx_hal_dac.c ****       Callbacks can be registered/unregistered in READY state only.
 194:Drivers/STM32F4xx_HAL_Driver/Src/stm32f4xx_hal_dac.c ****       Exception done for MspInit/MspDeInit callbacks that can be registered/unregistered
 195:Drivers/STM32F4xx_HAL_Driver/Src/stm32f4xx_hal_dac.c ****       in READY or RESET state, thus registered (user) MspInit/DeInit callbacks can be used
 196:Drivers/STM32F4xx_HAL_Driver/Src/stm32f4xx_hal_dac.c ****       during the Init/DeInit.
 197:Drivers/STM32F4xx_HAL_Driver/Src/stm32f4xx_hal_dac.c ****       In that case first register the MspInit/MspDeInit user callbacks
 198:Drivers/STM32F4xx_HAL_Driver/Src/stm32f4xx_hal_dac.c ****       using HAL_DAC_RegisterCallback before calling HAL_DAC_DeInit
 199:Drivers/STM32F4xx_HAL_Driver/Src/stm32f4xx_hal_dac.c ****       or HAL_DAC_Init function.
 200:Drivers/STM32F4xx_HAL_Driver/Src/stm32f4xx_hal_dac.c **** 
ARM GAS  C:\Users\ADMINI~1\AppData\Local\Temp\ccZnHgYF.s 			page 5


 201:Drivers/STM32F4xx_HAL_Driver/Src/stm32f4xx_hal_dac.c ****       When The compilation define USE_HAL_DAC_REGISTER_CALLBACKS is set to 0 or
 202:Drivers/STM32F4xx_HAL_Driver/Src/stm32f4xx_hal_dac.c ****       not defined, the callback registering feature is not available
 203:Drivers/STM32F4xx_HAL_Driver/Src/stm32f4xx_hal_dac.c ****       and weak (surcharged) callbacks are used.
 204:Drivers/STM32F4xx_HAL_Driver/Src/stm32f4xx_hal_dac.c **** 
 205:Drivers/STM32F4xx_HAL_Driver/Src/stm32f4xx_hal_dac.c ****      *** DAC HAL driver macros list ***
 206:Drivers/STM32F4xx_HAL_Driver/Src/stm32f4xx_hal_dac.c ****      =============================================
 207:Drivers/STM32F4xx_HAL_Driver/Src/stm32f4xx_hal_dac.c ****      [..]
 208:Drivers/STM32F4xx_HAL_Driver/Src/stm32f4xx_hal_dac.c ****        Below the list of most used macros in DAC HAL driver.
 209:Drivers/STM32F4xx_HAL_Driver/Src/stm32f4xx_hal_dac.c **** 
 210:Drivers/STM32F4xx_HAL_Driver/Src/stm32f4xx_hal_dac.c ****       (+) __HAL_DAC_ENABLE : Enable the DAC peripheral
 211:Drivers/STM32F4xx_HAL_Driver/Src/stm32f4xx_hal_dac.c ****       (+) __HAL_DAC_DISABLE : Disable the DAC peripheral
 212:Drivers/STM32F4xx_HAL_Driver/Src/stm32f4xx_hal_dac.c ****       (+) __HAL_DAC_CLEAR_FLAG: Clear the DAC's pending flags
 213:Drivers/STM32F4xx_HAL_Driver/Src/stm32f4xx_hal_dac.c ****       (+) __HAL_DAC_GET_FLAG: Get the selected DAC's flag status
 214:Drivers/STM32F4xx_HAL_Driver/Src/stm32f4xx_hal_dac.c **** 
 215:Drivers/STM32F4xx_HAL_Driver/Src/stm32f4xx_hal_dac.c ****      [..]
 216:Drivers/STM32F4xx_HAL_Driver/Src/stm32f4xx_hal_dac.c ****       (@) You can refer to the DAC HAL driver header file for more useful macros
 217:Drivers/STM32F4xx_HAL_Driver/Src/stm32f4xx_hal_dac.c **** 
 218:Drivers/STM32F4xx_HAL_Driver/Src/stm32f4xx_hal_dac.c **** @endverbatim
 219:Drivers/STM32F4xx_HAL_Driver/Src/stm32f4xx_hal_dac.c ****   ******************************************************************************
 220:Drivers/STM32F4xx_HAL_Driver/Src/stm32f4xx_hal_dac.c ****   */
 221:Drivers/STM32F4xx_HAL_Driver/Src/stm32f4xx_hal_dac.c **** 
 222:Drivers/STM32F4xx_HAL_Driver/Src/stm32f4xx_hal_dac.c **** /* Includes ------------------------------------------------------------------*/
 223:Drivers/STM32F4xx_HAL_Driver/Src/stm32f4xx_hal_dac.c **** #include "stm32f4xx_hal.h"
 224:Drivers/STM32F4xx_HAL_Driver/Src/stm32f4xx_hal_dac.c **** 
 225:Drivers/STM32F4xx_HAL_Driver/Src/stm32f4xx_hal_dac.c **** /** @addtogroup STM32F4xx_HAL_Driver
 226:Drivers/STM32F4xx_HAL_Driver/Src/stm32f4xx_hal_dac.c ****   * @{
 227:Drivers/STM32F4xx_HAL_Driver/Src/stm32f4xx_hal_dac.c ****   */
 228:Drivers/STM32F4xx_HAL_Driver/Src/stm32f4xx_hal_dac.c **** 
 229:Drivers/STM32F4xx_HAL_Driver/Src/stm32f4xx_hal_dac.c **** #ifdef HAL_DAC_MODULE_ENABLED
 230:Drivers/STM32F4xx_HAL_Driver/Src/stm32f4xx_hal_dac.c **** #if defined(DAC)
 231:Drivers/STM32F4xx_HAL_Driver/Src/stm32f4xx_hal_dac.c **** 
 232:Drivers/STM32F4xx_HAL_Driver/Src/stm32f4xx_hal_dac.c **** /** @defgroup DAC DAC
 233:Drivers/STM32F4xx_HAL_Driver/Src/stm32f4xx_hal_dac.c ****   * @brief DAC driver modules
 234:Drivers/STM32F4xx_HAL_Driver/Src/stm32f4xx_hal_dac.c ****   * @{
 235:Drivers/STM32F4xx_HAL_Driver/Src/stm32f4xx_hal_dac.c ****   */
 236:Drivers/STM32F4xx_HAL_Driver/Src/stm32f4xx_hal_dac.c **** 
 237:Drivers/STM32F4xx_HAL_Driver/Src/stm32f4xx_hal_dac.c **** /* Private typedef -----------------------------------------------------------*/
 238:Drivers/STM32F4xx_HAL_Driver/Src/stm32f4xx_hal_dac.c **** /* Private define ------------------------------------------------------------*/
 239:Drivers/STM32F4xx_HAL_Driver/Src/stm32f4xx_hal_dac.c **** /* Private constants ---------------------------------------------------------*/
 240:Drivers/STM32F4xx_HAL_Driver/Src/stm32f4xx_hal_dac.c **** /* Private macro -------------------------------------------------------------*/
 241:Drivers/STM32F4xx_HAL_Driver/Src/stm32f4xx_hal_dac.c **** /* Private variables ---------------------------------------------------------*/
 242:Drivers/STM32F4xx_HAL_Driver/Src/stm32f4xx_hal_dac.c **** /* Private function prototypes -----------------------------------------------*/
 243:Drivers/STM32F4xx_HAL_Driver/Src/stm32f4xx_hal_dac.c **** /* Exported functions -------------------------------------------------------*/
 244:Drivers/STM32F4xx_HAL_Driver/Src/stm32f4xx_hal_dac.c **** 
 245:Drivers/STM32F4xx_HAL_Driver/Src/stm32f4xx_hal_dac.c **** /** @defgroup DAC_Exported_Functions DAC Exported Functions
 246:Drivers/STM32F4xx_HAL_Driver/Src/stm32f4xx_hal_dac.c ****   * @{
 247:Drivers/STM32F4xx_HAL_Driver/Src/stm32f4xx_hal_dac.c ****   */
 248:Drivers/STM32F4xx_HAL_Driver/Src/stm32f4xx_hal_dac.c **** 
 249:Drivers/STM32F4xx_HAL_Driver/Src/stm32f4xx_hal_dac.c **** /** @defgroup DAC_Exported_Functions_Group1 Initialization and de-initialization functions
 250:Drivers/STM32F4xx_HAL_Driver/Src/stm32f4xx_hal_dac.c ****   *  @brief    Initialization and Configuration functions
 251:Drivers/STM32F4xx_HAL_Driver/Src/stm32f4xx_hal_dac.c ****   *
 252:Drivers/STM32F4xx_HAL_Driver/Src/stm32f4xx_hal_dac.c **** @verbatim
 253:Drivers/STM32F4xx_HAL_Driver/Src/stm32f4xx_hal_dac.c ****   ==============================================================================
 254:Drivers/STM32F4xx_HAL_Driver/Src/stm32f4xx_hal_dac.c ****               ##### Initialization and de-initialization functions #####
 255:Drivers/STM32F4xx_HAL_Driver/Src/stm32f4xx_hal_dac.c ****   ==============================================================================
 256:Drivers/STM32F4xx_HAL_Driver/Src/stm32f4xx_hal_dac.c ****     [..]  This section provides functions allowing to:
 257:Drivers/STM32F4xx_HAL_Driver/Src/stm32f4xx_hal_dac.c ****       (+) Initialize and configure the DAC.
ARM GAS  C:\Users\ADMINI~1\AppData\Local\Temp\ccZnHgYF.s 			page 6


 258:Drivers/STM32F4xx_HAL_Driver/Src/stm32f4xx_hal_dac.c ****       (+) De-initialize the DAC.
 259:Drivers/STM32F4xx_HAL_Driver/Src/stm32f4xx_hal_dac.c **** 
 260:Drivers/STM32F4xx_HAL_Driver/Src/stm32f4xx_hal_dac.c **** @endverbatim
 261:Drivers/STM32F4xx_HAL_Driver/Src/stm32f4xx_hal_dac.c ****   * @{
 262:Drivers/STM32F4xx_HAL_Driver/Src/stm32f4xx_hal_dac.c ****   */
 263:Drivers/STM32F4xx_HAL_Driver/Src/stm32f4xx_hal_dac.c **** 
 264:Drivers/STM32F4xx_HAL_Driver/Src/stm32f4xx_hal_dac.c **** /**
 265:Drivers/STM32F4xx_HAL_Driver/Src/stm32f4xx_hal_dac.c ****   * @brief  Initialize the DAC peripheral according to the specified parameters
 266:Drivers/STM32F4xx_HAL_Driver/Src/stm32f4xx_hal_dac.c ****   *         in the DAC_InitStruct and initialize the associated handle.
 267:Drivers/STM32F4xx_HAL_Driver/Src/stm32f4xx_hal_dac.c ****   * @param  hdac pointer to a DAC_HandleTypeDef structure that contains
 268:Drivers/STM32F4xx_HAL_Driver/Src/stm32f4xx_hal_dac.c ****   *         the configuration information for the specified DAC.
 269:Drivers/STM32F4xx_HAL_Driver/Src/stm32f4xx_hal_dac.c ****   * @retval HAL status
 270:Drivers/STM32F4xx_HAL_Driver/Src/stm32f4xx_hal_dac.c ****   */
 271:Drivers/STM32F4xx_HAL_Driver/Src/stm32f4xx_hal_dac.c **** HAL_StatusTypeDef HAL_DAC_Init(DAC_HandleTypeDef *hdac)
 272:Drivers/STM32F4xx_HAL_Driver/Src/stm32f4xx_hal_dac.c **** {
 273:Drivers/STM32F4xx_HAL_Driver/Src/stm32f4xx_hal_dac.c ****   /* Check DAC handle */
 274:Drivers/STM32F4xx_HAL_Driver/Src/stm32f4xx_hal_dac.c ****   if (hdac == NULL)
 275:Drivers/STM32F4xx_HAL_Driver/Src/stm32f4xx_hal_dac.c ****   {
 276:Drivers/STM32F4xx_HAL_Driver/Src/stm32f4xx_hal_dac.c ****     return HAL_ERROR;
 277:Drivers/STM32F4xx_HAL_Driver/Src/stm32f4xx_hal_dac.c ****   }
 278:Drivers/STM32F4xx_HAL_Driver/Src/stm32f4xx_hal_dac.c ****   /* Check the parameters */
 279:Drivers/STM32F4xx_HAL_Driver/Src/stm32f4xx_hal_dac.c ****   assert_param(IS_DAC_ALL_INSTANCE(hdac->Instance));
 280:Drivers/STM32F4xx_HAL_Driver/Src/stm32f4xx_hal_dac.c **** 
 281:Drivers/STM32F4xx_HAL_Driver/Src/stm32f4xx_hal_dac.c ****   if (hdac->State == HAL_DAC_STATE_RESET)
 282:Drivers/STM32F4xx_HAL_Driver/Src/stm32f4xx_hal_dac.c ****   {
 283:Drivers/STM32F4xx_HAL_Driver/Src/stm32f4xx_hal_dac.c **** #if (USE_HAL_DAC_REGISTER_CALLBACKS == 1)
 284:Drivers/STM32F4xx_HAL_Driver/Src/stm32f4xx_hal_dac.c ****     /* Init the DAC Callback settings */
 285:Drivers/STM32F4xx_HAL_Driver/Src/stm32f4xx_hal_dac.c ****     hdac->ConvCpltCallbackCh1           = HAL_DAC_ConvCpltCallbackCh1;
 286:Drivers/STM32F4xx_HAL_Driver/Src/stm32f4xx_hal_dac.c ****     hdac->ConvHalfCpltCallbackCh1       = HAL_DAC_ConvHalfCpltCallbackCh1;
 287:Drivers/STM32F4xx_HAL_Driver/Src/stm32f4xx_hal_dac.c ****     hdac->ErrorCallbackCh1              = HAL_DAC_ErrorCallbackCh1;
 288:Drivers/STM32F4xx_HAL_Driver/Src/stm32f4xx_hal_dac.c ****     hdac->DMAUnderrunCallbackCh1        = HAL_DAC_DMAUnderrunCallbackCh1;
 289:Drivers/STM32F4xx_HAL_Driver/Src/stm32f4xx_hal_dac.c **** #if defined(DAC_CHANNEL2_SUPPORT)
 290:Drivers/STM32F4xx_HAL_Driver/Src/stm32f4xx_hal_dac.c ****     hdac->ConvCpltCallbackCh2           = HAL_DACEx_ConvCpltCallbackCh2;
 291:Drivers/STM32F4xx_HAL_Driver/Src/stm32f4xx_hal_dac.c ****     hdac->ConvHalfCpltCallbackCh2       = HAL_DACEx_ConvHalfCpltCallbackCh2;
 292:Drivers/STM32F4xx_HAL_Driver/Src/stm32f4xx_hal_dac.c ****     hdac->ErrorCallbackCh2              = HAL_DACEx_ErrorCallbackCh2;
 293:Drivers/STM32F4xx_HAL_Driver/Src/stm32f4xx_hal_dac.c ****     hdac->DMAUnderrunCallbackCh2        = HAL_DACEx_DMAUnderrunCallbackCh2;
 294:Drivers/STM32F4xx_HAL_Driver/Src/stm32f4xx_hal_dac.c **** #endif /* DAC_CHANNEL2_SUPPORT */
 295:Drivers/STM32F4xx_HAL_Driver/Src/stm32f4xx_hal_dac.c ****     if (hdac->MspInitCallback == NULL)
 296:Drivers/STM32F4xx_HAL_Driver/Src/stm32f4xx_hal_dac.c ****     {
 297:Drivers/STM32F4xx_HAL_Driver/Src/stm32f4xx_hal_dac.c ****       hdac->MspInitCallback             = HAL_DAC_MspInit;
 298:Drivers/STM32F4xx_HAL_Driver/Src/stm32f4xx_hal_dac.c ****     }
 299:Drivers/STM32F4xx_HAL_Driver/Src/stm32f4xx_hal_dac.c **** #endif /* USE_HAL_DAC_REGISTER_CALLBACKS */
 300:Drivers/STM32F4xx_HAL_Driver/Src/stm32f4xx_hal_dac.c **** 
 301:Drivers/STM32F4xx_HAL_Driver/Src/stm32f4xx_hal_dac.c ****     /* Allocate lock resource and initialize it */
 302:Drivers/STM32F4xx_HAL_Driver/Src/stm32f4xx_hal_dac.c ****     hdac->Lock = HAL_UNLOCKED;
 303:Drivers/STM32F4xx_HAL_Driver/Src/stm32f4xx_hal_dac.c **** 
 304:Drivers/STM32F4xx_HAL_Driver/Src/stm32f4xx_hal_dac.c **** #if (USE_HAL_DAC_REGISTER_CALLBACKS == 1)
 305:Drivers/STM32F4xx_HAL_Driver/Src/stm32f4xx_hal_dac.c ****     /* Init the low level hardware */
 306:Drivers/STM32F4xx_HAL_Driver/Src/stm32f4xx_hal_dac.c ****     hdac->MspInitCallback(hdac);
 307:Drivers/STM32F4xx_HAL_Driver/Src/stm32f4xx_hal_dac.c **** #else
 308:Drivers/STM32F4xx_HAL_Driver/Src/stm32f4xx_hal_dac.c ****     /* Init the low level hardware */
 309:Drivers/STM32F4xx_HAL_Driver/Src/stm32f4xx_hal_dac.c ****     HAL_DAC_MspInit(hdac);
 310:Drivers/STM32F4xx_HAL_Driver/Src/stm32f4xx_hal_dac.c **** #endif /* USE_HAL_DAC_REGISTER_CALLBACKS */
 311:Drivers/STM32F4xx_HAL_Driver/Src/stm32f4xx_hal_dac.c ****   }
 312:Drivers/STM32F4xx_HAL_Driver/Src/stm32f4xx_hal_dac.c **** 
 313:Drivers/STM32F4xx_HAL_Driver/Src/stm32f4xx_hal_dac.c ****   /* Initialize the DAC state*/
 314:Drivers/STM32F4xx_HAL_Driver/Src/stm32f4xx_hal_dac.c ****   hdac->State = HAL_DAC_STATE_BUSY;
ARM GAS  C:\Users\ADMINI~1\AppData\Local\Temp\ccZnHgYF.s 			page 7


 315:Drivers/STM32F4xx_HAL_Driver/Src/stm32f4xx_hal_dac.c **** 
 316:Drivers/STM32F4xx_HAL_Driver/Src/stm32f4xx_hal_dac.c ****   /* Set DAC error code to none */
 317:Drivers/STM32F4xx_HAL_Driver/Src/stm32f4xx_hal_dac.c ****   hdac->ErrorCode = HAL_DAC_ERROR_NONE;
 318:Drivers/STM32F4xx_HAL_Driver/Src/stm32f4xx_hal_dac.c **** 
 319:Drivers/STM32F4xx_HAL_Driver/Src/stm32f4xx_hal_dac.c ****   /* Initialize the DAC state*/
 320:Drivers/STM32F4xx_HAL_Driver/Src/stm32f4xx_hal_dac.c ****   hdac->State = HAL_DAC_STATE_READY;
 321:Drivers/STM32F4xx_HAL_Driver/Src/stm32f4xx_hal_dac.c **** 
 322:Drivers/STM32F4xx_HAL_Driver/Src/stm32f4xx_hal_dac.c ****   /* Return function status */
 323:Drivers/STM32F4xx_HAL_Driver/Src/stm32f4xx_hal_dac.c ****   return HAL_OK;
 324:Drivers/STM32F4xx_HAL_Driver/Src/stm32f4xx_hal_dac.c **** }
 325:Drivers/STM32F4xx_HAL_Driver/Src/stm32f4xx_hal_dac.c **** 
 326:Drivers/STM32F4xx_HAL_Driver/Src/stm32f4xx_hal_dac.c **** /**
 327:Drivers/STM32F4xx_HAL_Driver/Src/stm32f4xx_hal_dac.c ****   * @brief  Deinitialize the DAC peripheral registers to their default reset values.
 328:Drivers/STM32F4xx_HAL_Driver/Src/stm32f4xx_hal_dac.c ****   * @param  hdac pointer to a DAC_HandleTypeDef structure that contains
 329:Drivers/STM32F4xx_HAL_Driver/Src/stm32f4xx_hal_dac.c ****   *         the configuration information for the specified DAC.
 330:Drivers/STM32F4xx_HAL_Driver/Src/stm32f4xx_hal_dac.c ****   * @retval HAL status
 331:Drivers/STM32F4xx_HAL_Driver/Src/stm32f4xx_hal_dac.c ****   */
 332:Drivers/STM32F4xx_HAL_Driver/Src/stm32f4xx_hal_dac.c **** HAL_StatusTypeDef HAL_DAC_DeInit(DAC_HandleTypeDef *hdac)
 333:Drivers/STM32F4xx_HAL_Driver/Src/stm32f4xx_hal_dac.c **** {
 334:Drivers/STM32F4xx_HAL_Driver/Src/stm32f4xx_hal_dac.c ****   /* Check DAC handle */
 335:Drivers/STM32F4xx_HAL_Driver/Src/stm32f4xx_hal_dac.c ****   if (hdac == NULL)
 336:Drivers/STM32F4xx_HAL_Driver/Src/stm32f4xx_hal_dac.c ****   {
 337:Drivers/STM32F4xx_HAL_Driver/Src/stm32f4xx_hal_dac.c ****     return HAL_ERROR;
 338:Drivers/STM32F4xx_HAL_Driver/Src/stm32f4xx_hal_dac.c ****   }
 339:Drivers/STM32F4xx_HAL_Driver/Src/stm32f4xx_hal_dac.c **** 
 340:Drivers/STM32F4xx_HAL_Driver/Src/stm32f4xx_hal_dac.c ****   /* Check the parameters */
 341:Drivers/STM32F4xx_HAL_Driver/Src/stm32f4xx_hal_dac.c ****   assert_param(IS_DAC_ALL_INSTANCE(hdac->Instance));
 342:Drivers/STM32F4xx_HAL_Driver/Src/stm32f4xx_hal_dac.c **** 
 343:Drivers/STM32F4xx_HAL_Driver/Src/stm32f4xx_hal_dac.c ****   /* Change DAC state */
 344:Drivers/STM32F4xx_HAL_Driver/Src/stm32f4xx_hal_dac.c ****   hdac->State = HAL_DAC_STATE_BUSY;
 345:Drivers/STM32F4xx_HAL_Driver/Src/stm32f4xx_hal_dac.c **** 
 346:Drivers/STM32F4xx_HAL_Driver/Src/stm32f4xx_hal_dac.c **** #if (USE_HAL_DAC_REGISTER_CALLBACKS == 1)
 347:Drivers/STM32F4xx_HAL_Driver/Src/stm32f4xx_hal_dac.c ****   if (hdac->MspDeInitCallback == NULL)
 348:Drivers/STM32F4xx_HAL_Driver/Src/stm32f4xx_hal_dac.c ****   {
 349:Drivers/STM32F4xx_HAL_Driver/Src/stm32f4xx_hal_dac.c ****     hdac->MspDeInitCallback = HAL_DAC_MspDeInit;
 350:Drivers/STM32F4xx_HAL_Driver/Src/stm32f4xx_hal_dac.c ****   }
 351:Drivers/STM32F4xx_HAL_Driver/Src/stm32f4xx_hal_dac.c ****   /* DeInit the low level hardware */
 352:Drivers/STM32F4xx_HAL_Driver/Src/stm32f4xx_hal_dac.c ****   hdac->MspDeInitCallback(hdac);
 353:Drivers/STM32F4xx_HAL_Driver/Src/stm32f4xx_hal_dac.c **** #else
 354:Drivers/STM32F4xx_HAL_Driver/Src/stm32f4xx_hal_dac.c ****   /* DeInit the low level hardware */
 355:Drivers/STM32F4xx_HAL_Driver/Src/stm32f4xx_hal_dac.c ****   HAL_DAC_MspDeInit(hdac);
 356:Drivers/STM32F4xx_HAL_Driver/Src/stm32f4xx_hal_dac.c **** #endif /* USE_HAL_DAC_REGISTER_CALLBACKS */
 357:Drivers/STM32F4xx_HAL_Driver/Src/stm32f4xx_hal_dac.c **** 
 358:Drivers/STM32F4xx_HAL_Driver/Src/stm32f4xx_hal_dac.c ****   /* Set DAC error code to none */
 359:Drivers/STM32F4xx_HAL_Driver/Src/stm32f4xx_hal_dac.c ****   hdac->ErrorCode = HAL_DAC_ERROR_NONE;
 360:Drivers/STM32F4xx_HAL_Driver/Src/stm32f4xx_hal_dac.c **** 
 361:Drivers/STM32F4xx_HAL_Driver/Src/stm32f4xx_hal_dac.c ****   /* Change DAC state */
 362:Drivers/STM32F4xx_HAL_Driver/Src/stm32f4xx_hal_dac.c ****   hdac->State = HAL_DAC_STATE_RESET;
 363:Drivers/STM32F4xx_HAL_Driver/Src/stm32f4xx_hal_dac.c **** 
 364:Drivers/STM32F4xx_HAL_Driver/Src/stm32f4xx_hal_dac.c ****   /* Release Lock */
 365:Drivers/STM32F4xx_HAL_Driver/Src/stm32f4xx_hal_dac.c ****   __HAL_UNLOCK(hdac);
 366:Drivers/STM32F4xx_HAL_Driver/Src/stm32f4xx_hal_dac.c **** 
 367:Drivers/STM32F4xx_HAL_Driver/Src/stm32f4xx_hal_dac.c ****   /* Return function status */
 368:Drivers/STM32F4xx_HAL_Driver/Src/stm32f4xx_hal_dac.c ****   return HAL_OK;
 369:Drivers/STM32F4xx_HAL_Driver/Src/stm32f4xx_hal_dac.c **** }
 370:Drivers/STM32F4xx_HAL_Driver/Src/stm32f4xx_hal_dac.c **** 
 371:Drivers/STM32F4xx_HAL_Driver/Src/stm32f4xx_hal_dac.c **** /**
ARM GAS  C:\Users\ADMINI~1\AppData\Local\Temp\ccZnHgYF.s 			page 8


 372:Drivers/STM32F4xx_HAL_Driver/Src/stm32f4xx_hal_dac.c ****   * @brief  Initialize the DAC MSP.
 373:Drivers/STM32F4xx_HAL_Driver/Src/stm32f4xx_hal_dac.c ****   * @param  hdac pointer to a DAC_HandleTypeDef structure that contains
 374:Drivers/STM32F4xx_HAL_Driver/Src/stm32f4xx_hal_dac.c ****   *         the configuration information for the specified DAC.
 375:Drivers/STM32F4xx_HAL_Driver/Src/stm32f4xx_hal_dac.c ****   * @retval None
 376:Drivers/STM32F4xx_HAL_Driver/Src/stm32f4xx_hal_dac.c ****   */
 377:Drivers/STM32F4xx_HAL_Driver/Src/stm32f4xx_hal_dac.c **** __weak void HAL_DAC_MspInit(DAC_HandleTypeDef *hdac)
 378:Drivers/STM32F4xx_HAL_Driver/Src/stm32f4xx_hal_dac.c **** {
  30              		.loc 1 378 1 view -0
  31              		.cfi_startproc
  32              		@ args = 0, pretend = 0, frame = 0
  33              		@ frame_needed = 0, uses_anonymous_args = 0
  34              		@ link register save eliminated.
 379:Drivers/STM32F4xx_HAL_Driver/Src/stm32f4xx_hal_dac.c ****   /* Prevent unused argument(s) compilation warning */
 380:Drivers/STM32F4xx_HAL_Driver/Src/stm32f4xx_hal_dac.c ****   UNUSED(hdac);
  35              		.loc 1 380 3 view .LVU1
 381:Drivers/STM32F4xx_HAL_Driver/Src/stm32f4xx_hal_dac.c **** 
 382:Drivers/STM32F4xx_HAL_Driver/Src/stm32f4xx_hal_dac.c ****   /* NOTE : This function should not be modified, when the callback is needed,
 383:Drivers/STM32F4xx_HAL_Driver/Src/stm32f4xx_hal_dac.c ****             the HAL_DAC_MspInit could be implemented in the user file
 384:Drivers/STM32F4xx_HAL_Driver/Src/stm32f4xx_hal_dac.c ****    */
 385:Drivers/STM32F4xx_HAL_Driver/Src/stm32f4xx_hal_dac.c **** }
  36              		.loc 1 385 1 is_stmt 0 view .LVU2
  37 0000 7047     		bx	lr
  38              		.cfi_endproc
  39              	.LFE237:
  41              		.section	.text.HAL_DAC_Init,"ax",%progbits
  42              		.align	1
  43              		.global	HAL_DAC_Init
  44              		.syntax unified
  45              		.thumb
  46              		.thumb_func
  48              	HAL_DAC_Init:
  49              	.LVL1:
  50              	.LFB235:
 272:Drivers/STM32F4xx_HAL_Driver/Src/stm32f4xx_hal_dac.c ****   /* Check DAC handle */
  51              		.loc 1 272 1 is_stmt 1 view -0
  52              		.cfi_startproc
  53              		@ args = 0, pretend = 0, frame = 0
  54              		@ frame_needed = 0, uses_anonymous_args = 0
 274:Drivers/STM32F4xx_HAL_Driver/Src/stm32f4xx_hal_dac.c ****   {
  55              		.loc 1 274 3 view .LVU4
 274:Drivers/STM32F4xx_HAL_Driver/Src/stm32f4xx_hal_dac.c ****   {
  56              		.loc 1 274 6 is_stmt 0 view .LVU5
  57 0000 70B1     		cbz	r0, .L5
 272:Drivers/STM32F4xx_HAL_Driver/Src/stm32f4xx_hal_dac.c ****   /* Check DAC handle */
  58              		.loc 1 272 1 view .LVU6
  59 0002 10B5     		push	{r4, lr}
  60              	.LCFI0:
  61              		.cfi_def_cfa_offset 8
  62              		.cfi_offset 4, -8
  63              		.cfi_offset 14, -4
  64 0004 0446     		mov	r4, r0
 279:Drivers/STM32F4xx_HAL_Driver/Src/stm32f4xx_hal_dac.c **** 
  65              		.loc 1 279 3 is_stmt 1 view .LVU7
 281:Drivers/STM32F4xx_HAL_Driver/Src/stm32f4xx_hal_dac.c ****   {
  66              		.loc 1 281 3 view .LVU8
 281:Drivers/STM32F4xx_HAL_Driver/Src/stm32f4xx_hal_dac.c ****   {
  67              		.loc 1 281 11 is_stmt 0 view .LVU9
ARM GAS  C:\Users\ADMINI~1\AppData\Local\Temp\ccZnHgYF.s 			page 9


  68 0006 0379     		ldrb	r3, [r0, #4]	@ zero_extendqisi2
 281:Drivers/STM32F4xx_HAL_Driver/Src/stm32f4xx_hal_dac.c ****   {
  69              		.loc 1 281 6 view .LVU10
  70 0008 33B1     		cbz	r3, .L10
  71              	.LVL2:
  72              	.L4:
 314:Drivers/STM32F4xx_HAL_Driver/Src/stm32f4xx_hal_dac.c **** 
  73              		.loc 1 314 3 is_stmt 1 view .LVU11
 314:Drivers/STM32F4xx_HAL_Driver/Src/stm32f4xx_hal_dac.c **** 
  74              		.loc 1 314 15 is_stmt 0 view .LVU12
  75 000a 0223     		movs	r3, #2
  76 000c 2371     		strb	r3, [r4, #4]
 317:Drivers/STM32F4xx_HAL_Driver/Src/stm32f4xx_hal_dac.c **** 
  77              		.loc 1 317 3 is_stmt 1 view .LVU13
 317:Drivers/STM32F4xx_HAL_Driver/Src/stm32f4xx_hal_dac.c **** 
  78              		.loc 1 317 19 is_stmt 0 view .LVU14
  79 000e 0020     		movs	r0, #0
  80 0010 2061     		str	r0, [r4, #16]
 320:Drivers/STM32F4xx_HAL_Driver/Src/stm32f4xx_hal_dac.c **** 
  81              		.loc 1 320 3 is_stmt 1 view .LVU15
 320:Drivers/STM32F4xx_HAL_Driver/Src/stm32f4xx_hal_dac.c **** 
  82              		.loc 1 320 15 is_stmt 0 view .LVU16
  83 0012 0123     		movs	r3, #1
  84 0014 2371     		strb	r3, [r4, #4]
 323:Drivers/STM32F4xx_HAL_Driver/Src/stm32f4xx_hal_dac.c **** }
  85              		.loc 1 323 3 is_stmt 1 view .LVU17
 324:Drivers/STM32F4xx_HAL_Driver/Src/stm32f4xx_hal_dac.c **** 
  86              		.loc 1 324 1 is_stmt 0 view .LVU18
  87 0016 10BD     		pop	{r4, pc}
  88              	.LVL3:
  89              	.L10:
 302:Drivers/STM32F4xx_HAL_Driver/Src/stm32f4xx_hal_dac.c **** 
  90              		.loc 1 302 5 is_stmt 1 view .LVU19
 302:Drivers/STM32F4xx_HAL_Driver/Src/stm32f4xx_hal_dac.c **** 
  91              		.loc 1 302 16 is_stmt 0 view .LVU20
  92 0018 4371     		strb	r3, [r0, #5]
 309:Drivers/STM32F4xx_HAL_Driver/Src/stm32f4xx_hal_dac.c **** #endif /* USE_HAL_DAC_REGISTER_CALLBACKS */
  93              		.loc 1 309 5 is_stmt 1 view .LVU21
  94 001a FFF7FEFF 		bl	HAL_DAC_MspInit
  95              	.LVL4:
 309:Drivers/STM32F4xx_HAL_Driver/Src/stm32f4xx_hal_dac.c **** #endif /* USE_HAL_DAC_REGISTER_CALLBACKS */
  96              		.loc 1 309 5 is_stmt 0 view .LVU22
  97 001e F4E7     		b	.L4
  98              	.LVL5:
  99              	.L5:
 100              	.LCFI1:
 101              		.cfi_def_cfa_offset 0
 102              		.cfi_restore 4
 103              		.cfi_restore 14
 276:Drivers/STM32F4xx_HAL_Driver/Src/stm32f4xx_hal_dac.c ****   }
 104              		.loc 1 276 12 view .LVU23
 105 0020 0120     		movs	r0, #1
 106              	.LVL6:
 324:Drivers/STM32F4xx_HAL_Driver/Src/stm32f4xx_hal_dac.c **** 
 107              		.loc 1 324 1 view .LVU24
 108 0022 7047     		bx	lr
 109              		.cfi_endproc
ARM GAS  C:\Users\ADMINI~1\AppData\Local\Temp\ccZnHgYF.s 			page 10


 110              	.LFE235:
 112              		.section	.text.HAL_DAC_MspDeInit,"ax",%progbits
 113              		.align	1
 114              		.weak	HAL_DAC_MspDeInit
 115              		.syntax unified
 116              		.thumb
 117              		.thumb_func
 119              	HAL_DAC_MspDeInit:
 120              	.LVL7:
 121              	.LFB238:
 386:Drivers/STM32F4xx_HAL_Driver/Src/stm32f4xx_hal_dac.c **** 
 387:Drivers/STM32F4xx_HAL_Driver/Src/stm32f4xx_hal_dac.c **** /**
 388:Drivers/STM32F4xx_HAL_Driver/Src/stm32f4xx_hal_dac.c ****   * @brief  DeInitialize the DAC MSP.
 389:Drivers/STM32F4xx_HAL_Driver/Src/stm32f4xx_hal_dac.c ****   * @param  hdac pointer to a DAC_HandleTypeDef structure that contains
 390:Drivers/STM32F4xx_HAL_Driver/Src/stm32f4xx_hal_dac.c ****   *         the configuration information for the specified DAC.
 391:Drivers/STM32F4xx_HAL_Driver/Src/stm32f4xx_hal_dac.c ****   * @retval None
 392:Drivers/STM32F4xx_HAL_Driver/Src/stm32f4xx_hal_dac.c ****   */
 393:Drivers/STM32F4xx_HAL_Driver/Src/stm32f4xx_hal_dac.c **** __weak void HAL_DAC_MspDeInit(DAC_HandleTypeDef *hdac)
 394:Drivers/STM32F4xx_HAL_Driver/Src/stm32f4xx_hal_dac.c **** {
 122              		.loc 1 394 1 is_stmt 1 view -0
 123              		.cfi_startproc
 124              		@ args = 0, pretend = 0, frame = 0
 125              		@ frame_needed = 0, uses_anonymous_args = 0
 126              		@ link register save eliminated.
 395:Drivers/STM32F4xx_HAL_Driver/Src/stm32f4xx_hal_dac.c ****   /* Prevent unused argument(s) compilation warning */
 396:Drivers/STM32F4xx_HAL_Driver/Src/stm32f4xx_hal_dac.c ****   UNUSED(hdac);
 127              		.loc 1 396 3 view .LVU26
 397:Drivers/STM32F4xx_HAL_Driver/Src/stm32f4xx_hal_dac.c **** 
 398:Drivers/STM32F4xx_HAL_Driver/Src/stm32f4xx_hal_dac.c ****   /* NOTE : This function should not be modified, when the callback is needed,
 399:Drivers/STM32F4xx_HAL_Driver/Src/stm32f4xx_hal_dac.c ****             the HAL_DAC_MspDeInit could be implemented in the user file
 400:Drivers/STM32F4xx_HAL_Driver/Src/stm32f4xx_hal_dac.c ****    */
 401:Drivers/STM32F4xx_HAL_Driver/Src/stm32f4xx_hal_dac.c **** }
 128              		.loc 1 401 1 is_stmt 0 view .LVU27
 129 0000 7047     		bx	lr
 130              		.cfi_endproc
 131              	.LFE238:
 133              		.section	.text.HAL_DAC_DeInit,"ax",%progbits
 134              		.align	1
 135              		.global	HAL_DAC_DeInit
 136              		.syntax unified
 137              		.thumb
 138              		.thumb_func
 140              	HAL_DAC_DeInit:
 141              	.LVL8:
 142              	.LFB236:
 333:Drivers/STM32F4xx_HAL_Driver/Src/stm32f4xx_hal_dac.c ****   /* Check DAC handle */
 143              		.loc 1 333 1 is_stmt 1 view -0
 144              		.cfi_startproc
 145              		@ args = 0, pretend = 0, frame = 0
 146              		@ frame_needed = 0, uses_anonymous_args = 0
 335:Drivers/STM32F4xx_HAL_Driver/Src/stm32f4xx_hal_dac.c ****   {
 147              		.loc 1 335 3 view .LVU29
 335:Drivers/STM32F4xx_HAL_Driver/Src/stm32f4xx_hal_dac.c ****   {
 148              		.loc 1 335 6 is_stmt 0 view .LVU30
 149 0000 50B1     		cbz	r0, .L14
 333:Drivers/STM32F4xx_HAL_Driver/Src/stm32f4xx_hal_dac.c ****   /* Check DAC handle */
 150              		.loc 1 333 1 view .LVU31
ARM GAS  C:\Users\ADMINI~1\AppData\Local\Temp\ccZnHgYF.s 			page 11


 151 0002 10B5     		push	{r4, lr}
 152              	.LCFI2:
 153              		.cfi_def_cfa_offset 8
 154              		.cfi_offset 4, -8
 155              		.cfi_offset 14, -4
 156 0004 0446     		mov	r4, r0
 341:Drivers/STM32F4xx_HAL_Driver/Src/stm32f4xx_hal_dac.c **** 
 157              		.loc 1 341 3 is_stmt 1 view .LVU32
 344:Drivers/STM32F4xx_HAL_Driver/Src/stm32f4xx_hal_dac.c **** 
 158              		.loc 1 344 3 view .LVU33
 344:Drivers/STM32F4xx_HAL_Driver/Src/stm32f4xx_hal_dac.c **** 
 159              		.loc 1 344 15 is_stmt 0 view .LVU34
 160 0006 0223     		movs	r3, #2
 161 0008 0371     		strb	r3, [r0, #4]
 355:Drivers/STM32F4xx_HAL_Driver/Src/stm32f4xx_hal_dac.c **** #endif /* USE_HAL_DAC_REGISTER_CALLBACKS */
 162              		.loc 1 355 3 is_stmt 1 view .LVU35
 163 000a FFF7FEFF 		bl	HAL_DAC_MspDeInit
 164              	.LVL9:
 359:Drivers/STM32F4xx_HAL_Driver/Src/stm32f4xx_hal_dac.c **** 
 165              		.loc 1 359 3 view .LVU36
 359:Drivers/STM32F4xx_HAL_Driver/Src/stm32f4xx_hal_dac.c **** 
 166              		.loc 1 359 19 is_stmt 0 view .LVU37
 167 000e 0020     		movs	r0, #0
 168 0010 2061     		str	r0, [r4, #16]
 362:Drivers/STM32F4xx_HAL_Driver/Src/stm32f4xx_hal_dac.c **** 
 169              		.loc 1 362 3 is_stmt 1 view .LVU38
 362:Drivers/STM32F4xx_HAL_Driver/Src/stm32f4xx_hal_dac.c **** 
 170              		.loc 1 362 15 is_stmt 0 view .LVU39
 171 0012 2071     		strb	r0, [r4, #4]
 365:Drivers/STM32F4xx_HAL_Driver/Src/stm32f4xx_hal_dac.c **** 
 172              		.loc 1 365 3 is_stmt 1 view .LVU40
 365:Drivers/STM32F4xx_HAL_Driver/Src/stm32f4xx_hal_dac.c **** 
 173              		.loc 1 365 3 view .LVU41
 174 0014 6071     		strb	r0, [r4, #5]
 365:Drivers/STM32F4xx_HAL_Driver/Src/stm32f4xx_hal_dac.c **** 
 175              		.loc 1 365 3 view .LVU42
 368:Drivers/STM32F4xx_HAL_Driver/Src/stm32f4xx_hal_dac.c **** }
 176              		.loc 1 368 3 view .LVU43
 369:Drivers/STM32F4xx_HAL_Driver/Src/stm32f4xx_hal_dac.c **** 
 177              		.loc 1 369 1 is_stmt 0 view .LVU44
 178 0016 10BD     		pop	{r4, pc}
 179              	.LVL10:
 180              	.L14:
 181              	.LCFI3:
 182              		.cfi_def_cfa_offset 0
 183              		.cfi_restore 4
 184              		.cfi_restore 14
 337:Drivers/STM32F4xx_HAL_Driver/Src/stm32f4xx_hal_dac.c ****   }
 185              		.loc 1 337 12 view .LVU45
 186 0018 0120     		movs	r0, #1
 187              	.LVL11:
 369:Drivers/STM32F4xx_HAL_Driver/Src/stm32f4xx_hal_dac.c **** 
 188              		.loc 1 369 1 view .LVU46
 189 001a 7047     		bx	lr
 190              		.cfi_endproc
 191              	.LFE236:
 193              		.section	.text.HAL_DAC_Start,"ax",%progbits
ARM GAS  C:\Users\ADMINI~1\AppData\Local\Temp\ccZnHgYF.s 			page 12


 194              		.align	1
 195              		.global	HAL_DAC_Start
 196              		.syntax unified
 197              		.thumb
 198              		.thumb_func
 200              	HAL_DAC_Start:
 201              	.LVL12:
 202              	.LFB239:
 402:Drivers/STM32F4xx_HAL_Driver/Src/stm32f4xx_hal_dac.c **** 
 403:Drivers/STM32F4xx_HAL_Driver/Src/stm32f4xx_hal_dac.c **** /**
 404:Drivers/STM32F4xx_HAL_Driver/Src/stm32f4xx_hal_dac.c ****   * @}
 405:Drivers/STM32F4xx_HAL_Driver/Src/stm32f4xx_hal_dac.c ****   */
 406:Drivers/STM32F4xx_HAL_Driver/Src/stm32f4xx_hal_dac.c **** 
 407:Drivers/STM32F4xx_HAL_Driver/Src/stm32f4xx_hal_dac.c **** /** @defgroup DAC_Exported_Functions_Group2 IO operation functions
 408:Drivers/STM32F4xx_HAL_Driver/Src/stm32f4xx_hal_dac.c ****   *  @brief    IO operation functions
 409:Drivers/STM32F4xx_HAL_Driver/Src/stm32f4xx_hal_dac.c ****   *
 410:Drivers/STM32F4xx_HAL_Driver/Src/stm32f4xx_hal_dac.c **** @verbatim
 411:Drivers/STM32F4xx_HAL_Driver/Src/stm32f4xx_hal_dac.c ****   ==============================================================================
 412:Drivers/STM32F4xx_HAL_Driver/Src/stm32f4xx_hal_dac.c ****              ##### IO operation functions #####
 413:Drivers/STM32F4xx_HAL_Driver/Src/stm32f4xx_hal_dac.c ****   ==============================================================================
 414:Drivers/STM32F4xx_HAL_Driver/Src/stm32f4xx_hal_dac.c ****     [..]  This section provides functions allowing to:
 415:Drivers/STM32F4xx_HAL_Driver/Src/stm32f4xx_hal_dac.c ****       (+) Start conversion.
 416:Drivers/STM32F4xx_HAL_Driver/Src/stm32f4xx_hal_dac.c ****       (+) Stop conversion.
 417:Drivers/STM32F4xx_HAL_Driver/Src/stm32f4xx_hal_dac.c ****       (+) Start conversion and enable DMA transfer.
 418:Drivers/STM32F4xx_HAL_Driver/Src/stm32f4xx_hal_dac.c ****       (+) Stop conversion and disable DMA transfer.
 419:Drivers/STM32F4xx_HAL_Driver/Src/stm32f4xx_hal_dac.c ****       (+) Get result of conversion.
 420:Drivers/STM32F4xx_HAL_Driver/Src/stm32f4xx_hal_dac.c **** 
 421:Drivers/STM32F4xx_HAL_Driver/Src/stm32f4xx_hal_dac.c **** @endverbatim
 422:Drivers/STM32F4xx_HAL_Driver/Src/stm32f4xx_hal_dac.c ****   * @{
 423:Drivers/STM32F4xx_HAL_Driver/Src/stm32f4xx_hal_dac.c ****   */
 424:Drivers/STM32F4xx_HAL_Driver/Src/stm32f4xx_hal_dac.c **** 
 425:Drivers/STM32F4xx_HAL_Driver/Src/stm32f4xx_hal_dac.c **** /**
 426:Drivers/STM32F4xx_HAL_Driver/Src/stm32f4xx_hal_dac.c ****   * @brief  Enables DAC and starts conversion of channel.
 427:Drivers/STM32F4xx_HAL_Driver/Src/stm32f4xx_hal_dac.c ****   * @param  hdac pointer to a DAC_HandleTypeDef structure that contains
 428:Drivers/STM32F4xx_HAL_Driver/Src/stm32f4xx_hal_dac.c ****   *         the configuration information for the specified DAC.
 429:Drivers/STM32F4xx_HAL_Driver/Src/stm32f4xx_hal_dac.c ****   * @param  Channel The selected DAC channel.
 430:Drivers/STM32F4xx_HAL_Driver/Src/stm32f4xx_hal_dac.c ****   *          This parameter can be one of the following values:
 431:Drivers/STM32F4xx_HAL_Driver/Src/stm32f4xx_hal_dac.c ****   *            @arg DAC_CHANNEL_1: DAC Channel1 selected
 432:Drivers/STM32F4xx_HAL_Driver/Src/stm32f4xx_hal_dac.c ****   *            @arg DAC_CHANNEL_2: DAC Channel2 selected
 433:Drivers/STM32F4xx_HAL_Driver/Src/stm32f4xx_hal_dac.c ****   * @retval HAL status
 434:Drivers/STM32F4xx_HAL_Driver/Src/stm32f4xx_hal_dac.c ****   */
 435:Drivers/STM32F4xx_HAL_Driver/Src/stm32f4xx_hal_dac.c **** HAL_StatusTypeDef HAL_DAC_Start(DAC_HandleTypeDef *hdac, uint32_t Channel)
 436:Drivers/STM32F4xx_HAL_Driver/Src/stm32f4xx_hal_dac.c **** {
 203              		.loc 1 436 1 is_stmt 1 view -0
 204              		.cfi_startproc
 205              		@ args = 0, pretend = 0, frame = 0
 206              		@ frame_needed = 0, uses_anonymous_args = 0
 207              		@ link register save eliminated.
 437:Drivers/STM32F4xx_HAL_Driver/Src/stm32f4xx_hal_dac.c ****   /* Check the parameters */
 438:Drivers/STM32F4xx_HAL_Driver/Src/stm32f4xx_hal_dac.c ****   assert_param(IS_DAC_CHANNEL(Channel));
 208              		.loc 1 438 3 view .LVU48
 439:Drivers/STM32F4xx_HAL_Driver/Src/stm32f4xx_hal_dac.c **** 
 440:Drivers/STM32F4xx_HAL_Driver/Src/stm32f4xx_hal_dac.c ****   /* Process locked */
 441:Drivers/STM32F4xx_HAL_Driver/Src/stm32f4xx_hal_dac.c ****   __HAL_LOCK(hdac);
 209              		.loc 1 441 3 view .LVU49
 210              		.loc 1 441 3 view .LVU50
 211 0000 4279     		ldrb	r2, [r0, #5]	@ zero_extendqisi2
ARM GAS  C:\Users\ADMINI~1\AppData\Local\Temp\ccZnHgYF.s 			page 13


 212 0002 012A     		cmp	r2, #1
 213 0004 2ED0     		beq	.L23
 436:Drivers/STM32F4xx_HAL_Driver/Src/stm32f4xx_hal_dac.c ****   /* Check the parameters */
 214              		.loc 1 436 1 is_stmt 0 view .LVU51
 215 0006 10B4     		push	{r4}
 216              	.LCFI4:
 217              		.cfi_def_cfa_offset 4
 218              		.cfi_offset 4, -4
 219 0008 0346     		mov	r3, r0
 220              		.loc 1 441 3 is_stmt 1 discriminator 2 view .LVU52
 221 000a 0122     		movs	r2, #1
 222 000c 4271     		strb	r2, [r0, #5]
 223              		.loc 1 441 3 discriminator 2 view .LVU53
 442:Drivers/STM32F4xx_HAL_Driver/Src/stm32f4xx_hal_dac.c **** 
 443:Drivers/STM32F4xx_HAL_Driver/Src/stm32f4xx_hal_dac.c ****   /* Change DAC state */
 444:Drivers/STM32F4xx_HAL_Driver/Src/stm32f4xx_hal_dac.c ****   hdac->State = HAL_DAC_STATE_BUSY;
 224              		.loc 1 444 3 view .LVU54
 225              		.loc 1 444 15 is_stmt 0 view .LVU55
 226 000e 0220     		movs	r0, #2
 227              	.LVL13:
 228              		.loc 1 444 15 view .LVU56
 229 0010 1871     		strb	r0, [r3, #4]
 445:Drivers/STM32F4xx_HAL_Driver/Src/stm32f4xx_hal_dac.c **** 
 446:Drivers/STM32F4xx_HAL_Driver/Src/stm32f4xx_hal_dac.c ****   /* Enable the Peripheral */
 447:Drivers/STM32F4xx_HAL_Driver/Src/stm32f4xx_hal_dac.c ****   __HAL_DAC_ENABLE(hdac, Channel);
 230              		.loc 1 447 3 is_stmt 1 view .LVU57
 231 0012 1C68     		ldr	r4, [r3]
 232 0014 2068     		ldr	r0, [r4]
 233 0016 01F0100C 		and	ip, r1, #16
 234 001a 02FA0CF2 		lsl	r2, r2, ip
 235 001e 0243     		orrs	r2, r2, r0
 236 0020 2260     		str	r2, [r4]
 448:Drivers/STM32F4xx_HAL_Driver/Src/stm32f4xx_hal_dac.c **** 
 449:Drivers/STM32F4xx_HAL_Driver/Src/stm32f4xx_hal_dac.c ****   if (Channel == DAC_CHANNEL_1)
 237              		.loc 1 449 3 view .LVU58
 238              		.loc 1 449 6 is_stmt 0 view .LVU59
 239 0022 89B9     		cbnz	r1, .L21
 450:Drivers/STM32F4xx_HAL_Driver/Src/stm32f4xx_hal_dac.c ****   {
 451:Drivers/STM32F4xx_HAL_Driver/Src/stm32f4xx_hal_dac.c ****     /* Check if software trigger enabled */
 452:Drivers/STM32F4xx_HAL_Driver/Src/stm32f4xx_hal_dac.c ****     if ((hdac->Instance->CR & (DAC_CR_TEN1 | DAC_CR_TSEL1)) == DAC_TRIGGER_SOFTWARE)
 240              		.loc 1 452 5 is_stmt 1 view .LVU60
 241              		.loc 1 452 14 is_stmt 0 view .LVU61
 242 0024 1968     		ldr	r1, [r3]
 243              	.LVL14:
 244              		.loc 1 452 24 view .LVU62
 245 0026 0A68     		ldr	r2, [r1]
 246              		.loc 1 452 29 view .LVU63
 247 0028 02F03C02 		and	r2, r2, #60
 248              		.loc 1 452 8 view .LVU64
 249 002c 3C2A     		cmp	r2, #60
 250 002e 06D0     		beq	.L28
 251              	.L22:
 453:Drivers/STM32F4xx_HAL_Driver/Src/stm32f4xx_hal_dac.c ****     {
 454:Drivers/STM32F4xx_HAL_Driver/Src/stm32f4xx_hal_dac.c ****       /* Enable the selected DAC software conversion */
 455:Drivers/STM32F4xx_HAL_Driver/Src/stm32f4xx_hal_dac.c ****       SET_BIT(hdac->Instance->SWTRIGR, DAC_SWTRIGR_SWTRIG1);
 456:Drivers/STM32F4xx_HAL_Driver/Src/stm32f4xx_hal_dac.c ****     }
 457:Drivers/STM32F4xx_HAL_Driver/Src/stm32f4xx_hal_dac.c ****   }
ARM GAS  C:\Users\ADMINI~1\AppData\Local\Temp\ccZnHgYF.s 			page 14


 458:Drivers/STM32F4xx_HAL_Driver/Src/stm32f4xx_hal_dac.c **** #if defined(DAC_CHANNEL2_SUPPORT)
 459:Drivers/STM32F4xx_HAL_Driver/Src/stm32f4xx_hal_dac.c ****   else
 460:Drivers/STM32F4xx_HAL_Driver/Src/stm32f4xx_hal_dac.c ****   {
 461:Drivers/STM32F4xx_HAL_Driver/Src/stm32f4xx_hal_dac.c ****     /* Check if software trigger enabled */
 462:Drivers/STM32F4xx_HAL_Driver/Src/stm32f4xx_hal_dac.c ****     if ((hdac->Instance->CR & (DAC_CR_TEN2 | DAC_CR_TSEL2)) == (DAC_TRIGGER_SOFTWARE << (Channel & 
 463:Drivers/STM32F4xx_HAL_Driver/Src/stm32f4xx_hal_dac.c ****     {
 464:Drivers/STM32F4xx_HAL_Driver/Src/stm32f4xx_hal_dac.c ****       /* Enable the selected DAC software conversion*/
 465:Drivers/STM32F4xx_HAL_Driver/Src/stm32f4xx_hal_dac.c ****       SET_BIT(hdac->Instance->SWTRIGR, DAC_SWTRIGR_SWTRIG2);
 466:Drivers/STM32F4xx_HAL_Driver/Src/stm32f4xx_hal_dac.c ****     }
 467:Drivers/STM32F4xx_HAL_Driver/Src/stm32f4xx_hal_dac.c ****   }
 468:Drivers/STM32F4xx_HAL_Driver/Src/stm32f4xx_hal_dac.c **** #endif /* DAC_CHANNEL2_SUPPORT */
 469:Drivers/STM32F4xx_HAL_Driver/Src/stm32f4xx_hal_dac.c **** 
 470:Drivers/STM32F4xx_HAL_Driver/Src/stm32f4xx_hal_dac.c ****   /* Change DAC state */
 471:Drivers/STM32F4xx_HAL_Driver/Src/stm32f4xx_hal_dac.c ****   hdac->State = HAL_DAC_STATE_READY;
 252              		.loc 1 471 3 is_stmt 1 view .LVU65
 253              		.loc 1 471 15 is_stmt 0 view .LVU66
 254 0030 0122     		movs	r2, #1
 255 0032 1A71     		strb	r2, [r3, #4]
 472:Drivers/STM32F4xx_HAL_Driver/Src/stm32f4xx_hal_dac.c **** 
 473:Drivers/STM32F4xx_HAL_Driver/Src/stm32f4xx_hal_dac.c ****   /* Process unlocked */
 474:Drivers/STM32F4xx_HAL_Driver/Src/stm32f4xx_hal_dac.c ****   __HAL_UNLOCK(hdac);
 256              		.loc 1 474 3 is_stmt 1 view .LVU67
 257              		.loc 1 474 3 view .LVU68
 258 0034 0020     		movs	r0, #0
 259 0036 5871     		strb	r0, [r3, #5]
 260              		.loc 1 474 3 view .LVU69
 475:Drivers/STM32F4xx_HAL_Driver/Src/stm32f4xx_hal_dac.c **** 
 476:Drivers/STM32F4xx_HAL_Driver/Src/stm32f4xx_hal_dac.c ****   /* Return function status */
 477:Drivers/STM32F4xx_HAL_Driver/Src/stm32f4xx_hal_dac.c ****   return HAL_OK;
 261              		.loc 1 477 3 view .LVU70
 478:Drivers/STM32F4xx_HAL_Driver/Src/stm32f4xx_hal_dac.c **** }
 262              		.loc 1 478 1 is_stmt 0 view .LVU71
 263 0038 5DF8044B 		ldr	r4, [sp], #4
 264              	.LCFI5:
 265              		.cfi_remember_state
 266              		.cfi_restore 4
 267              		.cfi_def_cfa_offset 0
 268 003c 7047     		bx	lr
 269              	.L28:
 270              	.LCFI6:
 271              		.cfi_restore_state
 455:Drivers/STM32F4xx_HAL_Driver/Src/stm32f4xx_hal_dac.c ****     }
 272              		.loc 1 455 7 is_stmt 1 view .LVU72
 273 003e 4A68     		ldr	r2, [r1, #4]
 274 0040 42F00102 		orr	r2, r2, #1
 275 0044 4A60     		str	r2, [r1, #4]
 276 0046 F3E7     		b	.L22
 277              	.LVL15:
 278              	.L21:
 462:Drivers/STM32F4xx_HAL_Driver/Src/stm32f4xx_hal_dac.c ****     {
 279              		.loc 1 462 5 view .LVU73
 462:Drivers/STM32F4xx_HAL_Driver/Src/stm32f4xx_hal_dac.c ****     {
 280              		.loc 1 462 14 is_stmt 0 view .LVU74
 281 0048 1868     		ldr	r0, [r3]
 462:Drivers/STM32F4xx_HAL_Driver/Src/stm32f4xx_hal_dac.c ****     {
 282              		.loc 1 462 24 view .LVU75
 283 004a 0168     		ldr	r1, [r0]
ARM GAS  C:\Users\ADMINI~1\AppData\Local\Temp\ccZnHgYF.s 			page 15


 284              	.LVL16:
 462:Drivers/STM32F4xx_HAL_Driver/Src/stm32f4xx_hal_dac.c ****     {
 285              		.loc 1 462 29 view .LVU76
 286 004c 01F47011 		and	r1, r1, #3932160
 462:Drivers/STM32F4xx_HAL_Driver/Src/stm32f4xx_hal_dac.c ****     {
 287              		.loc 1 462 86 view .LVU77
 288 0050 3C22     		movs	r2, #60
 289 0052 02FA0CF2 		lsl	r2, r2, ip
 462:Drivers/STM32F4xx_HAL_Driver/Src/stm32f4xx_hal_dac.c ****     {
 290              		.loc 1 462 8 view .LVU78
 291 0056 9142     		cmp	r1, r2
 292 0058 EAD1     		bne	.L22
 465:Drivers/STM32F4xx_HAL_Driver/Src/stm32f4xx_hal_dac.c ****     }
 293              		.loc 1 465 7 is_stmt 1 view .LVU79
 294 005a 4268     		ldr	r2, [r0, #4]
 295 005c 42F00202 		orr	r2, r2, #2
 296 0060 4260     		str	r2, [r0, #4]
 297 0062 E5E7     		b	.L22
 298              	.LVL17:
 299              	.L23:
 300              	.LCFI7:
 301              		.cfi_def_cfa_offset 0
 302              		.cfi_restore 4
 441:Drivers/STM32F4xx_HAL_Driver/Src/stm32f4xx_hal_dac.c **** 
 303              		.loc 1 441 3 is_stmt 0 discriminator 1 view .LVU80
 304 0064 0220     		movs	r0, #2
 305              	.LVL18:
 306              		.loc 1 478 1 view .LVU81
 307 0066 7047     		bx	lr
 308              		.cfi_endproc
 309              	.LFE239:
 311              		.section	.text.HAL_DAC_Stop,"ax",%progbits
 312              		.align	1
 313              		.global	HAL_DAC_Stop
 314              		.syntax unified
 315              		.thumb
 316              		.thumb_func
 318              	HAL_DAC_Stop:
 319              	.LVL19:
 320              	.LFB240:
 479:Drivers/STM32F4xx_HAL_Driver/Src/stm32f4xx_hal_dac.c **** 
 480:Drivers/STM32F4xx_HAL_Driver/Src/stm32f4xx_hal_dac.c **** /**
 481:Drivers/STM32F4xx_HAL_Driver/Src/stm32f4xx_hal_dac.c ****   * @brief  Disables DAC and stop conversion of channel.
 482:Drivers/STM32F4xx_HAL_Driver/Src/stm32f4xx_hal_dac.c ****   * @param  hdac pointer to a DAC_HandleTypeDef structure that contains
 483:Drivers/STM32F4xx_HAL_Driver/Src/stm32f4xx_hal_dac.c ****   *         the configuration information for the specified DAC.
 484:Drivers/STM32F4xx_HAL_Driver/Src/stm32f4xx_hal_dac.c ****   * @param  Channel The selected DAC channel.
 485:Drivers/STM32F4xx_HAL_Driver/Src/stm32f4xx_hal_dac.c ****   *          This parameter can be one of the following values:
 486:Drivers/STM32F4xx_HAL_Driver/Src/stm32f4xx_hal_dac.c ****   *            @arg DAC_CHANNEL_1: DAC Channel1 selected
 487:Drivers/STM32F4xx_HAL_Driver/Src/stm32f4xx_hal_dac.c ****   *            @arg DAC_CHANNEL_2: DAC Channel2 selected
 488:Drivers/STM32F4xx_HAL_Driver/Src/stm32f4xx_hal_dac.c ****   * @retval HAL status
 489:Drivers/STM32F4xx_HAL_Driver/Src/stm32f4xx_hal_dac.c ****   */
 490:Drivers/STM32F4xx_HAL_Driver/Src/stm32f4xx_hal_dac.c **** HAL_StatusTypeDef HAL_DAC_Stop(DAC_HandleTypeDef *hdac, uint32_t Channel)
 491:Drivers/STM32F4xx_HAL_Driver/Src/stm32f4xx_hal_dac.c **** {
 321              		.loc 1 491 1 is_stmt 1 view -0
 322              		.cfi_startproc
 323              		@ args = 0, pretend = 0, frame = 0
 324              		@ frame_needed = 0, uses_anonymous_args = 0
ARM GAS  C:\Users\ADMINI~1\AppData\Local\Temp\ccZnHgYF.s 			page 16


 325              		@ link register save eliminated.
 326              		.loc 1 491 1 is_stmt 0 view .LVU83
 327 0000 10B4     		push	{r4}
 328              	.LCFI8:
 329              		.cfi_def_cfa_offset 4
 330              		.cfi_offset 4, -4
 492:Drivers/STM32F4xx_HAL_Driver/Src/stm32f4xx_hal_dac.c ****   /* Check the parameters */
 493:Drivers/STM32F4xx_HAL_Driver/Src/stm32f4xx_hal_dac.c ****   assert_param(IS_DAC_CHANNEL(Channel));
 331              		.loc 1 493 3 is_stmt 1 view .LVU84
 494:Drivers/STM32F4xx_HAL_Driver/Src/stm32f4xx_hal_dac.c **** 
 495:Drivers/STM32F4xx_HAL_Driver/Src/stm32f4xx_hal_dac.c ****   /* Disable the Peripheral */
 496:Drivers/STM32F4xx_HAL_Driver/Src/stm32f4xx_hal_dac.c ****   __HAL_DAC_DISABLE(hdac, Channel);
 332              		.loc 1 496 3 view .LVU85
 333 0002 0468     		ldr	r4, [r0]
 334 0004 2368     		ldr	r3, [r4]
 335 0006 01F01001 		and	r1, r1, #16
 336              	.LVL20:
 337              		.loc 1 496 3 is_stmt 0 view .LVU86
 338 000a 0122     		movs	r2, #1
 339 000c 02FA01F1 		lsl	r1, r2, r1
 340 0010 23EA0103 		bic	r3, r3, r1
 341 0014 2360     		str	r3, [r4]
 497:Drivers/STM32F4xx_HAL_Driver/Src/stm32f4xx_hal_dac.c **** 
 498:Drivers/STM32F4xx_HAL_Driver/Src/stm32f4xx_hal_dac.c ****   /* Change DAC state */
 499:Drivers/STM32F4xx_HAL_Driver/Src/stm32f4xx_hal_dac.c ****   hdac->State = HAL_DAC_STATE_READY;
 342              		.loc 1 499 3 is_stmt 1 view .LVU87
 343              		.loc 1 499 15 is_stmt 0 view .LVU88
 344 0016 0271     		strb	r2, [r0, #4]
 500:Drivers/STM32F4xx_HAL_Driver/Src/stm32f4xx_hal_dac.c **** 
 501:Drivers/STM32F4xx_HAL_Driver/Src/stm32f4xx_hal_dac.c ****   /* Return function status */
 502:Drivers/STM32F4xx_HAL_Driver/Src/stm32f4xx_hal_dac.c ****   return HAL_OK;
 345              		.loc 1 502 3 is_stmt 1 view .LVU89
 503:Drivers/STM32F4xx_HAL_Driver/Src/stm32f4xx_hal_dac.c **** }
 346              		.loc 1 503 1 is_stmt 0 view .LVU90
 347 0018 0020     		movs	r0, #0
 348              	.LVL21:
 349              		.loc 1 503 1 view .LVU91
 350 001a 5DF8044B 		ldr	r4, [sp], #4
 351              	.LCFI9:
 352              		.cfi_restore 4
 353              		.cfi_def_cfa_offset 0
 354 001e 7047     		bx	lr
 355              		.cfi_endproc
 356              	.LFE240:
 358              		.section	.text.HAL_DAC_Start_DMA,"ax",%progbits
 359              		.align	1
 360              		.global	HAL_DAC_Start_DMA
 361              		.syntax unified
 362              		.thumb
 363              		.thumb_func
 365              	HAL_DAC_Start_DMA:
 366              	.LVL22:
 367              	.LFB241:
 504:Drivers/STM32F4xx_HAL_Driver/Src/stm32f4xx_hal_dac.c **** 
 505:Drivers/STM32F4xx_HAL_Driver/Src/stm32f4xx_hal_dac.c **** /**
 506:Drivers/STM32F4xx_HAL_Driver/Src/stm32f4xx_hal_dac.c ****   * @brief  Enables DAC and starts conversion of channel.
 507:Drivers/STM32F4xx_HAL_Driver/Src/stm32f4xx_hal_dac.c ****   * @param  hdac pointer to a DAC_HandleTypeDef structure that contains
ARM GAS  C:\Users\ADMINI~1\AppData\Local\Temp\ccZnHgYF.s 			page 17


 508:Drivers/STM32F4xx_HAL_Driver/Src/stm32f4xx_hal_dac.c ****   *         the configuration information for the specified DAC.
 509:Drivers/STM32F4xx_HAL_Driver/Src/stm32f4xx_hal_dac.c ****   * @param  Channel The selected DAC channel.
 510:Drivers/STM32F4xx_HAL_Driver/Src/stm32f4xx_hal_dac.c ****   *          This parameter can be one of the following values:
 511:Drivers/STM32F4xx_HAL_Driver/Src/stm32f4xx_hal_dac.c ****   *            @arg DAC_CHANNEL_1: DAC Channel1 selected
 512:Drivers/STM32F4xx_HAL_Driver/Src/stm32f4xx_hal_dac.c ****   *            @arg DAC_CHANNEL_2: DAC Channel2 selected
 513:Drivers/STM32F4xx_HAL_Driver/Src/stm32f4xx_hal_dac.c ****   * @param  pData The source Buffer address.
 514:Drivers/STM32F4xx_HAL_Driver/Src/stm32f4xx_hal_dac.c ****   * @param  Length The length of data to be transferred from memory to DAC peripheral
 515:Drivers/STM32F4xx_HAL_Driver/Src/stm32f4xx_hal_dac.c ****   * @param  Alignment Specifies the data alignment for DAC channel.
 516:Drivers/STM32F4xx_HAL_Driver/Src/stm32f4xx_hal_dac.c ****   *          This parameter can be one of the following values:
 517:Drivers/STM32F4xx_HAL_Driver/Src/stm32f4xx_hal_dac.c ****   *            @arg DAC_ALIGN_8B_R: 8bit right data alignment selected
 518:Drivers/STM32F4xx_HAL_Driver/Src/stm32f4xx_hal_dac.c ****   *            @arg DAC_ALIGN_12B_L: 12bit left data alignment selected
 519:Drivers/STM32F4xx_HAL_Driver/Src/stm32f4xx_hal_dac.c ****   *            @arg DAC_ALIGN_12B_R: 12bit right data alignment selected
 520:Drivers/STM32F4xx_HAL_Driver/Src/stm32f4xx_hal_dac.c ****   * @retval HAL status
 521:Drivers/STM32F4xx_HAL_Driver/Src/stm32f4xx_hal_dac.c ****   */
 522:Drivers/STM32F4xx_HAL_Driver/Src/stm32f4xx_hal_dac.c **** HAL_StatusTypeDef HAL_DAC_Start_DMA(DAC_HandleTypeDef *hdac, uint32_t Channel, uint32_t *pData, uin
 523:Drivers/STM32F4xx_HAL_Driver/Src/stm32f4xx_hal_dac.c ****                                     uint32_t Alignment)
 524:Drivers/STM32F4xx_HAL_Driver/Src/stm32f4xx_hal_dac.c **** {
 368              		.loc 1 524 1 is_stmt 1 view -0
 369              		.cfi_startproc
 370              		@ args = 4, pretend = 0, frame = 0
 371              		@ frame_needed = 0, uses_anonymous_args = 0
 372              		.loc 1 524 1 is_stmt 0 view .LVU93
 373 0000 70B5     		push	{r4, r5, r6, lr}
 374              	.LCFI10:
 375              		.cfi_def_cfa_offset 16
 376              		.cfi_offset 4, -16
 377              		.cfi_offset 5, -12
 378              		.cfi_offset 6, -8
 379              		.cfi_offset 14, -4
 380 0002 0446     		mov	r4, r0
 381 0004 0D46     		mov	r5, r1
 382 0006 1146     		mov	r1, r2
 383              	.LVL23:
 384              		.loc 1 524 1 view .LVU94
 385 0008 049A     		ldr	r2, [sp, #16]
 386              	.LVL24:
 525:Drivers/STM32F4xx_HAL_Driver/Src/stm32f4xx_hal_dac.c ****   HAL_StatusTypeDef status = HAL_OK;
 387              		.loc 1 525 3 is_stmt 1 view .LVU95
 526:Drivers/STM32F4xx_HAL_Driver/Src/stm32f4xx_hal_dac.c ****   uint32_t tmpreg = 0U;
 388              		.loc 1 526 3 view .LVU96
 527:Drivers/STM32F4xx_HAL_Driver/Src/stm32f4xx_hal_dac.c **** 
 528:Drivers/STM32F4xx_HAL_Driver/Src/stm32f4xx_hal_dac.c ****   /* Check the parameters */
 529:Drivers/STM32F4xx_HAL_Driver/Src/stm32f4xx_hal_dac.c ****   assert_param(IS_DAC_CHANNEL(Channel));
 389              		.loc 1 529 3 view .LVU97
 530:Drivers/STM32F4xx_HAL_Driver/Src/stm32f4xx_hal_dac.c ****   assert_param(IS_DAC_ALIGN(Alignment));
 390              		.loc 1 530 3 view .LVU98
 531:Drivers/STM32F4xx_HAL_Driver/Src/stm32f4xx_hal_dac.c **** 
 532:Drivers/STM32F4xx_HAL_Driver/Src/stm32f4xx_hal_dac.c ****   /* Process locked */
 533:Drivers/STM32F4xx_HAL_Driver/Src/stm32f4xx_hal_dac.c ****   __HAL_LOCK(hdac);
 391              		.loc 1 533 3 view .LVU99
 392              		.loc 1 533 3 view .LVU100
 393 000a 4079     		ldrb	r0, [r0, #5]	@ zero_extendqisi2
 394              	.LVL25:
 395              		.loc 1 533 3 is_stmt 0 view .LVU101
 396 000c 0128     		cmp	r0, #1
 397 000e 66D0     		beq	.L42
 398              		.loc 1 533 3 is_stmt 1 discriminator 2 view .LVU102
ARM GAS  C:\Users\ADMINI~1\AppData\Local\Temp\ccZnHgYF.s 			page 18


 399 0010 0120     		movs	r0, #1
 400 0012 6071     		strb	r0, [r4, #5]
 401              		.loc 1 533 3 discriminator 2 view .LVU103
 534:Drivers/STM32F4xx_HAL_Driver/Src/stm32f4xx_hal_dac.c **** 
 535:Drivers/STM32F4xx_HAL_Driver/Src/stm32f4xx_hal_dac.c ****   /* Change DAC state */
 536:Drivers/STM32F4xx_HAL_Driver/Src/stm32f4xx_hal_dac.c ****   hdac->State = HAL_DAC_STATE_BUSY;
 402              		.loc 1 536 3 view .LVU104
 403              		.loc 1 536 15 is_stmt 0 view .LVU105
 404 0014 0220     		movs	r0, #2
 405 0016 2071     		strb	r0, [r4, #4]
 537:Drivers/STM32F4xx_HAL_Driver/Src/stm32f4xx_hal_dac.c **** 
 538:Drivers/STM32F4xx_HAL_Driver/Src/stm32f4xx_hal_dac.c ****   if (Channel == DAC_CHANNEL_1)
 406              		.loc 1 538 3 is_stmt 1 view .LVU106
 407              		.loc 1 538 6 is_stmt 0 view .LVU107
 408 0018 002D     		cmp	r5, #0
 409 001a 32D1     		bne	.L33
 539:Drivers/STM32F4xx_HAL_Driver/Src/stm32f4xx_hal_dac.c ****   {
 540:Drivers/STM32F4xx_HAL_Driver/Src/stm32f4xx_hal_dac.c ****     /* Set the DMA transfer complete callback for channel1 */
 541:Drivers/STM32F4xx_HAL_Driver/Src/stm32f4xx_hal_dac.c ****     hdac->DMA_Handle1->XferCpltCallback = DAC_DMAConvCpltCh1;
 410              		.loc 1 541 5 is_stmt 1 view .LVU108
 411              		.loc 1 541 9 is_stmt 0 view .LVU109
 412 001c A068     		ldr	r0, [r4, #8]
 413              		.loc 1 541 41 view .LVU110
 414 001e 314E     		ldr	r6, .L46
 415 0020 C663     		str	r6, [r0, #60]
 542:Drivers/STM32F4xx_HAL_Driver/Src/stm32f4xx_hal_dac.c **** 
 543:Drivers/STM32F4xx_HAL_Driver/Src/stm32f4xx_hal_dac.c ****     /* Set the DMA half transfer complete callback for channel1 */
 544:Drivers/STM32F4xx_HAL_Driver/Src/stm32f4xx_hal_dac.c ****     hdac->DMA_Handle1->XferHalfCpltCallback = DAC_DMAHalfConvCpltCh1;
 416              		.loc 1 544 5 is_stmt 1 view .LVU111
 417              		.loc 1 544 9 is_stmt 0 view .LVU112
 418 0022 A068     		ldr	r0, [r4, #8]
 419              		.loc 1 544 45 view .LVU113
 420 0024 304E     		ldr	r6, .L46+4
 421 0026 0664     		str	r6, [r0, #64]
 545:Drivers/STM32F4xx_HAL_Driver/Src/stm32f4xx_hal_dac.c **** 
 546:Drivers/STM32F4xx_HAL_Driver/Src/stm32f4xx_hal_dac.c ****     /* Set the DMA error callback for channel1 */
 547:Drivers/STM32F4xx_HAL_Driver/Src/stm32f4xx_hal_dac.c ****     hdac->DMA_Handle1->XferErrorCallback = DAC_DMAErrorCh1;
 422              		.loc 1 547 5 is_stmt 1 view .LVU114
 423              		.loc 1 547 9 is_stmt 0 view .LVU115
 424 0028 A068     		ldr	r0, [r4, #8]
 425              		.loc 1 547 42 view .LVU116
 426 002a 304E     		ldr	r6, .L46+8
 427 002c C664     		str	r6, [r0, #76]
 548:Drivers/STM32F4xx_HAL_Driver/Src/stm32f4xx_hal_dac.c **** 
 549:Drivers/STM32F4xx_HAL_Driver/Src/stm32f4xx_hal_dac.c ****     /* Enable the selected DAC channel1 DMA request */
 550:Drivers/STM32F4xx_HAL_Driver/Src/stm32f4xx_hal_dac.c ****     SET_BIT(hdac->Instance->CR, DAC_CR_DMAEN1);
 428              		.loc 1 550 5 is_stmt 1 view .LVU117
 429 002e 2668     		ldr	r6, [r4]
 430 0030 3068     		ldr	r0, [r6]
 431 0032 40F48050 		orr	r0, r0, #4096
 432 0036 3060     		str	r0, [r6]
 551:Drivers/STM32F4xx_HAL_Driver/Src/stm32f4xx_hal_dac.c **** 
 552:Drivers/STM32F4xx_HAL_Driver/Src/stm32f4xx_hal_dac.c ****     /* Case of use of channel 1 */
 553:Drivers/STM32F4xx_HAL_Driver/Src/stm32f4xx_hal_dac.c ****     switch (Alignment)
 433              		.loc 1 553 5 view .LVU118
 434 0038 042A     		cmp	r2, #4
 435 003a 1CD0     		beq	.L34
ARM GAS  C:\Users\ADMINI~1\AppData\Local\Temp\ccZnHgYF.s 			page 19


 436 003c 082A     		cmp	r2, #8
 437 003e 1DD0     		beq	.L35
 438 0040 002A     		cmp	r2, #0
 439 0042 3AD1     		bne	.L43
 554:Drivers/STM32F4xx_HAL_Driver/Src/stm32f4xx_hal_dac.c ****     {
 555:Drivers/STM32F4xx_HAL_Driver/Src/stm32f4xx_hal_dac.c ****       case DAC_ALIGN_12B_R:
 556:Drivers/STM32F4xx_HAL_Driver/Src/stm32f4xx_hal_dac.c ****         /* Get DHR12R1 address */
 557:Drivers/STM32F4xx_HAL_Driver/Src/stm32f4xx_hal_dac.c ****         tmpreg = (uint32_t)&hdac->Instance->DHR12R1;
 440              		.loc 1 557 9 view .LVU119
 441              		.loc 1 557 33 is_stmt 0 view .LVU120
 442 0044 2268     		ldr	r2, [r4]
 443              		.loc 1 557 28 view .LVU121
 444 0046 0832     		adds	r2, r2, #8
 445              	.LVL26:
 558:Drivers/STM32F4xx_HAL_Driver/Src/stm32f4xx_hal_dac.c ****         break;
 446              		.loc 1 558 9 is_stmt 1 view .LVU122
 447              	.L36:
 559:Drivers/STM32F4xx_HAL_Driver/Src/stm32f4xx_hal_dac.c ****       case DAC_ALIGN_12B_L:
 560:Drivers/STM32F4xx_HAL_Driver/Src/stm32f4xx_hal_dac.c ****         /* Get DHR12L1 address */
 561:Drivers/STM32F4xx_HAL_Driver/Src/stm32f4xx_hal_dac.c ****         tmpreg = (uint32_t)&hdac->Instance->DHR12L1;
 562:Drivers/STM32F4xx_HAL_Driver/Src/stm32f4xx_hal_dac.c ****         break;
 563:Drivers/STM32F4xx_HAL_Driver/Src/stm32f4xx_hal_dac.c ****       case DAC_ALIGN_8B_R:
 564:Drivers/STM32F4xx_HAL_Driver/Src/stm32f4xx_hal_dac.c ****         /* Get DHR8R1 address */
 565:Drivers/STM32F4xx_HAL_Driver/Src/stm32f4xx_hal_dac.c ****         tmpreg = (uint32_t)&hdac->Instance->DHR8R1;
 566:Drivers/STM32F4xx_HAL_Driver/Src/stm32f4xx_hal_dac.c ****         break;
 567:Drivers/STM32F4xx_HAL_Driver/Src/stm32f4xx_hal_dac.c ****       default:
 568:Drivers/STM32F4xx_HAL_Driver/Src/stm32f4xx_hal_dac.c ****         break;
 569:Drivers/STM32F4xx_HAL_Driver/Src/stm32f4xx_hal_dac.c ****     }
 570:Drivers/STM32F4xx_HAL_Driver/Src/stm32f4xx_hal_dac.c ****   }
 571:Drivers/STM32F4xx_HAL_Driver/Src/stm32f4xx_hal_dac.c **** #if defined(DAC_CHANNEL2_SUPPORT)
 572:Drivers/STM32F4xx_HAL_Driver/Src/stm32f4xx_hal_dac.c ****   else
 573:Drivers/STM32F4xx_HAL_Driver/Src/stm32f4xx_hal_dac.c ****   {
 574:Drivers/STM32F4xx_HAL_Driver/Src/stm32f4xx_hal_dac.c ****     /* Set the DMA transfer complete callback for channel2 */
 575:Drivers/STM32F4xx_HAL_Driver/Src/stm32f4xx_hal_dac.c ****     hdac->DMA_Handle2->XferCpltCallback = DAC_DMAConvCpltCh2;
 576:Drivers/STM32F4xx_HAL_Driver/Src/stm32f4xx_hal_dac.c **** 
 577:Drivers/STM32F4xx_HAL_Driver/Src/stm32f4xx_hal_dac.c ****     /* Set the DMA half transfer complete callback for channel2 */
 578:Drivers/STM32F4xx_HAL_Driver/Src/stm32f4xx_hal_dac.c ****     hdac->DMA_Handle2->XferHalfCpltCallback = DAC_DMAHalfConvCpltCh2;
 579:Drivers/STM32F4xx_HAL_Driver/Src/stm32f4xx_hal_dac.c **** 
 580:Drivers/STM32F4xx_HAL_Driver/Src/stm32f4xx_hal_dac.c ****     /* Set the DMA error callback for channel2 */
 581:Drivers/STM32F4xx_HAL_Driver/Src/stm32f4xx_hal_dac.c ****     hdac->DMA_Handle2->XferErrorCallback = DAC_DMAErrorCh2;
 582:Drivers/STM32F4xx_HAL_Driver/Src/stm32f4xx_hal_dac.c **** 
 583:Drivers/STM32F4xx_HAL_Driver/Src/stm32f4xx_hal_dac.c ****     /* Enable the selected DAC channel2 DMA request */
 584:Drivers/STM32F4xx_HAL_Driver/Src/stm32f4xx_hal_dac.c ****     SET_BIT(hdac->Instance->CR, DAC_CR_DMAEN2);
 585:Drivers/STM32F4xx_HAL_Driver/Src/stm32f4xx_hal_dac.c **** 
 586:Drivers/STM32F4xx_HAL_Driver/Src/stm32f4xx_hal_dac.c ****     /* Case of use of channel 2 */
 587:Drivers/STM32F4xx_HAL_Driver/Src/stm32f4xx_hal_dac.c ****     switch (Alignment)
 588:Drivers/STM32F4xx_HAL_Driver/Src/stm32f4xx_hal_dac.c ****     {
 589:Drivers/STM32F4xx_HAL_Driver/Src/stm32f4xx_hal_dac.c ****       case DAC_ALIGN_12B_R:
 590:Drivers/STM32F4xx_HAL_Driver/Src/stm32f4xx_hal_dac.c ****         /* Get DHR12R2 address */
 591:Drivers/STM32F4xx_HAL_Driver/Src/stm32f4xx_hal_dac.c ****         tmpreg = (uint32_t)&hdac->Instance->DHR12R2;
 592:Drivers/STM32F4xx_HAL_Driver/Src/stm32f4xx_hal_dac.c ****         break;
 593:Drivers/STM32F4xx_HAL_Driver/Src/stm32f4xx_hal_dac.c ****       case DAC_ALIGN_12B_L:
 594:Drivers/STM32F4xx_HAL_Driver/Src/stm32f4xx_hal_dac.c ****         /* Get DHR12L2 address */
 595:Drivers/STM32F4xx_HAL_Driver/Src/stm32f4xx_hal_dac.c ****         tmpreg = (uint32_t)&hdac->Instance->DHR12L2;
 596:Drivers/STM32F4xx_HAL_Driver/Src/stm32f4xx_hal_dac.c ****         break;
 597:Drivers/STM32F4xx_HAL_Driver/Src/stm32f4xx_hal_dac.c ****       case DAC_ALIGN_8B_R:
 598:Drivers/STM32F4xx_HAL_Driver/Src/stm32f4xx_hal_dac.c ****         /* Get DHR8R2 address */
ARM GAS  C:\Users\ADMINI~1\AppData\Local\Temp\ccZnHgYF.s 			page 20


 599:Drivers/STM32F4xx_HAL_Driver/Src/stm32f4xx_hal_dac.c ****         tmpreg = (uint32_t)&hdac->Instance->DHR8R2;
 600:Drivers/STM32F4xx_HAL_Driver/Src/stm32f4xx_hal_dac.c ****         break;
 601:Drivers/STM32F4xx_HAL_Driver/Src/stm32f4xx_hal_dac.c ****       default:
 602:Drivers/STM32F4xx_HAL_Driver/Src/stm32f4xx_hal_dac.c ****         break;
 603:Drivers/STM32F4xx_HAL_Driver/Src/stm32f4xx_hal_dac.c ****     }
 604:Drivers/STM32F4xx_HAL_Driver/Src/stm32f4xx_hal_dac.c ****   }
 605:Drivers/STM32F4xx_HAL_Driver/Src/stm32f4xx_hal_dac.c **** #endif /* DAC_CHANNEL2_SUPPORT */
 606:Drivers/STM32F4xx_HAL_Driver/Src/stm32f4xx_hal_dac.c **** 
 607:Drivers/STM32F4xx_HAL_Driver/Src/stm32f4xx_hal_dac.c ****   /* Enable the DMA Stream */
 608:Drivers/STM32F4xx_HAL_Driver/Src/stm32f4xx_hal_dac.c ****   if (Channel == DAC_CHANNEL_1)
 448              		.loc 1 608 3 view .LVU123
 449              		.loc 1 608 6 is_stmt 0 view .LVU124
 450 0048 002D     		cmp	r5, #0
 451 004a 3AD1     		bne	.L39
 609:Drivers/STM32F4xx_HAL_Driver/Src/stm32f4xx_hal_dac.c ****   {
 610:Drivers/STM32F4xx_HAL_Driver/Src/stm32f4xx_hal_dac.c ****     /* Enable the DAC DMA underrun interrupt */
 611:Drivers/STM32F4xx_HAL_Driver/Src/stm32f4xx_hal_dac.c ****     __HAL_DAC_ENABLE_IT(hdac, DAC_IT_DMAUDR1);
 452              		.loc 1 611 5 is_stmt 1 view .LVU125
 453 004c 2668     		ldr	r6, [r4]
 454 004e 3068     		ldr	r0, [r6]
 455 0050 40F40050 		orr	r0, r0, #8192
 456 0054 3060     		str	r0, [r6]
 612:Drivers/STM32F4xx_HAL_Driver/Src/stm32f4xx_hal_dac.c **** 
 613:Drivers/STM32F4xx_HAL_Driver/Src/stm32f4xx_hal_dac.c ****     /* Enable the DMA Stream */
 614:Drivers/STM32F4xx_HAL_Driver/Src/stm32f4xx_hal_dac.c ****     status = HAL_DMA_Start_IT(hdac->DMA_Handle1, (uint32_t)pData, tmpreg, Length);
 457              		.loc 1 614 5 view .LVU126
 458              		.loc 1 614 14 is_stmt 0 view .LVU127
 459 0056 A068     		ldr	r0, [r4, #8]
 460 0058 FFF7FEFF 		bl	HAL_DMA_Start_IT
 461              	.LVL27:
 462              	.L40:
 615:Drivers/STM32F4xx_HAL_Driver/Src/stm32f4xx_hal_dac.c ****   }
 616:Drivers/STM32F4xx_HAL_Driver/Src/stm32f4xx_hal_dac.c **** #if defined(DAC_CHANNEL2_SUPPORT)
 617:Drivers/STM32F4xx_HAL_Driver/Src/stm32f4xx_hal_dac.c ****   else
 618:Drivers/STM32F4xx_HAL_Driver/Src/stm32f4xx_hal_dac.c ****   {
 619:Drivers/STM32F4xx_HAL_Driver/Src/stm32f4xx_hal_dac.c ****     /* Enable the DAC DMA underrun interrupt */
 620:Drivers/STM32F4xx_HAL_Driver/Src/stm32f4xx_hal_dac.c ****     __HAL_DAC_ENABLE_IT(hdac, DAC_IT_DMAUDR2);
 621:Drivers/STM32F4xx_HAL_Driver/Src/stm32f4xx_hal_dac.c **** 
 622:Drivers/STM32F4xx_HAL_Driver/Src/stm32f4xx_hal_dac.c ****     /* Enable the DMA Stream */
 623:Drivers/STM32F4xx_HAL_Driver/Src/stm32f4xx_hal_dac.c ****     status = HAL_DMA_Start_IT(hdac->DMA_Handle2, (uint32_t)pData, tmpreg, Length);
 624:Drivers/STM32F4xx_HAL_Driver/Src/stm32f4xx_hal_dac.c ****   }
 625:Drivers/STM32F4xx_HAL_Driver/Src/stm32f4xx_hal_dac.c **** #endif /* DAC_CHANNEL2_SUPPORT */
 626:Drivers/STM32F4xx_HAL_Driver/Src/stm32f4xx_hal_dac.c **** 
 627:Drivers/STM32F4xx_HAL_Driver/Src/stm32f4xx_hal_dac.c ****   /* Process Unlocked */
 628:Drivers/STM32F4xx_HAL_Driver/Src/stm32f4xx_hal_dac.c ****   __HAL_UNLOCK(hdac);
 463              		.loc 1 628 3 is_stmt 1 view .LVU128
 464              		.loc 1 628 3 view .LVU129
 465 005c 0023     		movs	r3, #0
 466 005e 6371     		strb	r3, [r4, #5]
 467              		.loc 1 628 3 view .LVU130
 629:Drivers/STM32F4xx_HAL_Driver/Src/stm32f4xx_hal_dac.c **** 
 630:Drivers/STM32F4xx_HAL_Driver/Src/stm32f4xx_hal_dac.c ****   if (status == HAL_OK)
 468              		.loc 1 630 3 view .LVU131
 469              		.loc 1 630 6 is_stmt 0 view .LVU132
 470 0060 0028     		cmp	r0, #0
 471 0062 37D1     		bne	.L41
 631:Drivers/STM32F4xx_HAL_Driver/Src/stm32f4xx_hal_dac.c ****   {
ARM GAS  C:\Users\ADMINI~1\AppData\Local\Temp\ccZnHgYF.s 			page 21


 632:Drivers/STM32F4xx_HAL_Driver/Src/stm32f4xx_hal_dac.c ****     /* Enable the Peripheral */
 633:Drivers/STM32F4xx_HAL_Driver/Src/stm32f4xx_hal_dac.c ****     __HAL_DAC_ENABLE(hdac, Channel);
 472              		.loc 1 633 5 is_stmt 1 view .LVU133
 473 0064 2168     		ldr	r1, [r4]
 474 0066 0B68     		ldr	r3, [r1]
 475 0068 05F01005 		and	r5, r5, #16
 476              	.LVL28:
 477              		.loc 1 633 5 is_stmt 0 view .LVU134
 478 006c 0122     		movs	r2, #1
 479 006e AA40     		lsls	r2, r2, r5
 480 0070 1343     		orrs	r3, r3, r2
 481 0072 0B60     		str	r3, [r1]
 482              	.LVL29:
 483              	.L32:
 634:Drivers/STM32F4xx_HAL_Driver/Src/stm32f4xx_hal_dac.c ****   }
 635:Drivers/STM32F4xx_HAL_Driver/Src/stm32f4xx_hal_dac.c ****   else
 636:Drivers/STM32F4xx_HAL_Driver/Src/stm32f4xx_hal_dac.c ****   {
 637:Drivers/STM32F4xx_HAL_Driver/Src/stm32f4xx_hal_dac.c ****     hdac->ErrorCode |= HAL_DAC_ERROR_DMA;
 638:Drivers/STM32F4xx_HAL_Driver/Src/stm32f4xx_hal_dac.c ****   }
 639:Drivers/STM32F4xx_HAL_Driver/Src/stm32f4xx_hal_dac.c **** 
 640:Drivers/STM32F4xx_HAL_Driver/Src/stm32f4xx_hal_dac.c ****   /* Return function status */
 641:Drivers/STM32F4xx_HAL_Driver/Src/stm32f4xx_hal_dac.c ****   return status;
 642:Drivers/STM32F4xx_HAL_Driver/Src/stm32f4xx_hal_dac.c **** }
 484              		.loc 1 642 1 view .LVU135
 485 0074 70BD     		pop	{r4, r5, r6, pc}
 486              	.LVL30:
 487              	.L34:
 561:Drivers/STM32F4xx_HAL_Driver/Src/stm32f4xx_hal_dac.c ****         break;
 488              		.loc 1 561 9 is_stmt 1 view .LVU136
 561:Drivers/STM32F4xx_HAL_Driver/Src/stm32f4xx_hal_dac.c ****         break;
 489              		.loc 1 561 33 is_stmt 0 view .LVU137
 490 0076 2268     		ldr	r2, [r4]
 561:Drivers/STM32F4xx_HAL_Driver/Src/stm32f4xx_hal_dac.c ****         break;
 491              		.loc 1 561 28 view .LVU138
 492 0078 0C32     		adds	r2, r2, #12
 493              	.LVL31:
 562:Drivers/STM32F4xx_HAL_Driver/Src/stm32f4xx_hal_dac.c ****       case DAC_ALIGN_8B_R:
 494              		.loc 1 562 9 is_stmt 1 view .LVU139
 495 007a E5E7     		b	.L36
 496              	.LVL32:
 497              	.L35:
 565:Drivers/STM32F4xx_HAL_Driver/Src/stm32f4xx_hal_dac.c ****         break;
 498              		.loc 1 565 9 view .LVU140
 565:Drivers/STM32F4xx_HAL_Driver/Src/stm32f4xx_hal_dac.c ****         break;
 499              		.loc 1 565 33 is_stmt 0 view .LVU141
 500 007c 2268     		ldr	r2, [r4]
 565:Drivers/STM32F4xx_HAL_Driver/Src/stm32f4xx_hal_dac.c ****         break;
 501              		.loc 1 565 28 view .LVU142
 502 007e 1032     		adds	r2, r2, #16
 503              	.LVL33:
 566:Drivers/STM32F4xx_HAL_Driver/Src/stm32f4xx_hal_dac.c ****       default:
 504              		.loc 1 566 9 is_stmt 1 view .LVU143
 505 0080 E2E7     		b	.L36
 506              	.LVL34:
 507              	.L33:
 575:Drivers/STM32F4xx_HAL_Driver/Src/stm32f4xx_hal_dac.c **** 
 508              		.loc 1 575 5 view .LVU144
ARM GAS  C:\Users\ADMINI~1\AppData\Local\Temp\ccZnHgYF.s 			page 22


 575:Drivers/STM32F4xx_HAL_Driver/Src/stm32f4xx_hal_dac.c **** 
 509              		.loc 1 575 9 is_stmt 0 view .LVU145
 510 0082 E068     		ldr	r0, [r4, #12]
 575:Drivers/STM32F4xx_HAL_Driver/Src/stm32f4xx_hal_dac.c **** 
 511              		.loc 1 575 41 view .LVU146
 512 0084 1A4E     		ldr	r6, .L46+12
 513 0086 C663     		str	r6, [r0, #60]
 578:Drivers/STM32F4xx_HAL_Driver/Src/stm32f4xx_hal_dac.c **** 
 514              		.loc 1 578 5 is_stmt 1 view .LVU147
 578:Drivers/STM32F4xx_HAL_Driver/Src/stm32f4xx_hal_dac.c **** 
 515              		.loc 1 578 9 is_stmt 0 view .LVU148
 516 0088 E068     		ldr	r0, [r4, #12]
 578:Drivers/STM32F4xx_HAL_Driver/Src/stm32f4xx_hal_dac.c **** 
 517              		.loc 1 578 45 view .LVU149
 518 008a 1A4E     		ldr	r6, .L46+16
 519 008c 0664     		str	r6, [r0, #64]
 581:Drivers/STM32F4xx_HAL_Driver/Src/stm32f4xx_hal_dac.c **** 
 520              		.loc 1 581 5 is_stmt 1 view .LVU150
 581:Drivers/STM32F4xx_HAL_Driver/Src/stm32f4xx_hal_dac.c **** 
 521              		.loc 1 581 9 is_stmt 0 view .LVU151
 522 008e E068     		ldr	r0, [r4, #12]
 581:Drivers/STM32F4xx_HAL_Driver/Src/stm32f4xx_hal_dac.c **** 
 523              		.loc 1 581 42 view .LVU152
 524 0090 194E     		ldr	r6, .L46+20
 525 0092 C664     		str	r6, [r0, #76]
 584:Drivers/STM32F4xx_HAL_Driver/Src/stm32f4xx_hal_dac.c **** 
 526              		.loc 1 584 5 is_stmt 1 view .LVU153
 527 0094 2668     		ldr	r6, [r4]
 528 0096 3068     		ldr	r0, [r6]
 529 0098 40F08050 		orr	r0, r0, #268435456
 530 009c 3060     		str	r0, [r6]
 587:Drivers/STM32F4xx_HAL_Driver/Src/stm32f4xx_hal_dac.c ****     {
 531              		.loc 1 587 5 view .LVU154
 532 009e 042A     		cmp	r2, #4
 533 00a0 05D0     		beq	.L37
 534 00a2 082A     		cmp	r2, #8
 535 00a4 06D0     		beq	.L38
 536 00a6 52B9     		cbnz	r2, .L44
 591:Drivers/STM32F4xx_HAL_Driver/Src/stm32f4xx_hal_dac.c ****         break;
 537              		.loc 1 591 9 view .LVU155
 591:Drivers/STM32F4xx_HAL_Driver/Src/stm32f4xx_hal_dac.c ****         break;
 538              		.loc 1 591 33 is_stmt 0 view .LVU156
 539 00a8 2268     		ldr	r2, [r4]
 591:Drivers/STM32F4xx_HAL_Driver/Src/stm32f4xx_hal_dac.c ****         break;
 540              		.loc 1 591 28 view .LVU157
 541 00aa 1432     		adds	r2, r2, #20
 542              	.LVL35:
 592:Drivers/STM32F4xx_HAL_Driver/Src/stm32f4xx_hal_dac.c ****       case DAC_ALIGN_12B_L:
 543              		.loc 1 592 9 is_stmt 1 view .LVU158
 544 00ac CCE7     		b	.L36
 545              	.LVL36:
 546              	.L37:
 595:Drivers/STM32F4xx_HAL_Driver/Src/stm32f4xx_hal_dac.c ****         break;
 547              		.loc 1 595 9 view .LVU159
 595:Drivers/STM32F4xx_HAL_Driver/Src/stm32f4xx_hal_dac.c ****         break;
 548              		.loc 1 595 33 is_stmt 0 view .LVU160
 549 00ae 2268     		ldr	r2, [r4]
ARM GAS  C:\Users\ADMINI~1\AppData\Local\Temp\ccZnHgYF.s 			page 23


 595:Drivers/STM32F4xx_HAL_Driver/Src/stm32f4xx_hal_dac.c ****         break;
 550              		.loc 1 595 28 view .LVU161
 551 00b0 1832     		adds	r2, r2, #24
 552              	.LVL37:
 596:Drivers/STM32F4xx_HAL_Driver/Src/stm32f4xx_hal_dac.c ****       case DAC_ALIGN_8B_R:
 553              		.loc 1 596 9 is_stmt 1 view .LVU162
 554 00b2 C9E7     		b	.L36
 555              	.LVL38:
 556              	.L38:
 599:Drivers/STM32F4xx_HAL_Driver/Src/stm32f4xx_hal_dac.c ****         break;
 557              		.loc 1 599 9 view .LVU163
 599:Drivers/STM32F4xx_HAL_Driver/Src/stm32f4xx_hal_dac.c ****         break;
 558              		.loc 1 599 33 is_stmt 0 view .LVU164
 559 00b4 2268     		ldr	r2, [r4]
 599:Drivers/STM32F4xx_HAL_Driver/Src/stm32f4xx_hal_dac.c ****         break;
 560              		.loc 1 599 28 view .LVU165
 561 00b6 1C32     		adds	r2, r2, #28
 562              	.LVL39:
 600:Drivers/STM32F4xx_HAL_Driver/Src/stm32f4xx_hal_dac.c ****       default:
 563              		.loc 1 600 9 is_stmt 1 view .LVU166
 564 00b8 C6E7     		b	.L36
 565              	.LVL40:
 566              	.L43:
 553:Drivers/STM32F4xx_HAL_Driver/Src/stm32f4xx_hal_dac.c ****     {
 567              		.loc 1 553 5 is_stmt 0 view .LVU167
 568 00ba 2A46     		mov	r2, r5
 569 00bc C4E7     		b	.L36
 570              	.L44:
 587:Drivers/STM32F4xx_HAL_Driver/Src/stm32f4xx_hal_dac.c ****     {
 571              		.loc 1 587 5 view .LVU168
 572 00be 0022     		movs	r2, #0
 573 00c0 C2E7     		b	.L36
 574              	.LVL41:
 575              	.L39:
 620:Drivers/STM32F4xx_HAL_Driver/Src/stm32f4xx_hal_dac.c **** 
 576              		.loc 1 620 5 is_stmt 1 view .LVU169
 577 00c2 2668     		ldr	r6, [r4]
 578 00c4 3068     		ldr	r0, [r6]
 579 00c6 40F00050 		orr	r0, r0, #536870912
 580 00ca 3060     		str	r0, [r6]
 623:Drivers/STM32F4xx_HAL_Driver/Src/stm32f4xx_hal_dac.c ****   }
 581              		.loc 1 623 5 view .LVU170
 623:Drivers/STM32F4xx_HAL_Driver/Src/stm32f4xx_hal_dac.c ****   }
 582              		.loc 1 623 14 is_stmt 0 view .LVU171
 583 00cc E068     		ldr	r0, [r4, #12]
 584 00ce FFF7FEFF 		bl	HAL_DMA_Start_IT
 585              	.LVL42:
 623:Drivers/STM32F4xx_HAL_Driver/Src/stm32f4xx_hal_dac.c ****   }
 586              		.loc 1 623 14 view .LVU172
 587 00d2 C3E7     		b	.L40
 588              	.L41:
 637:Drivers/STM32F4xx_HAL_Driver/Src/stm32f4xx_hal_dac.c ****   }
 589              		.loc 1 637 5 is_stmt 1 view .LVU173
 637:Drivers/STM32F4xx_HAL_Driver/Src/stm32f4xx_hal_dac.c ****   }
 590              		.loc 1 637 9 is_stmt 0 view .LVU174
 591 00d4 2369     		ldr	r3, [r4, #16]
 637:Drivers/STM32F4xx_HAL_Driver/Src/stm32f4xx_hal_dac.c ****   }
ARM GAS  C:\Users\ADMINI~1\AppData\Local\Temp\ccZnHgYF.s 			page 24


 592              		.loc 1 637 21 view .LVU175
 593 00d6 43F00403 		orr	r3, r3, #4
 594 00da 2361     		str	r3, [r4, #16]
 595 00dc CAE7     		b	.L32
 596              	.LVL43:
 597              	.L42:
 533:Drivers/STM32F4xx_HAL_Driver/Src/stm32f4xx_hal_dac.c **** 
 598              		.loc 1 533 3 discriminator 1 view .LVU176
 599 00de 0220     		movs	r0, #2
 600 00e0 C8E7     		b	.L32
 601              	.L47:
 602 00e2 00BF     		.align	2
 603              	.L46:
 604 00e4 00000000 		.word	DAC_DMAConvCpltCh1
 605 00e8 00000000 		.word	DAC_DMAHalfConvCpltCh1
 606 00ec 00000000 		.word	DAC_DMAErrorCh1
 607 00f0 00000000 		.word	DAC_DMAConvCpltCh2
 608 00f4 00000000 		.word	DAC_DMAHalfConvCpltCh2
 609 00f8 00000000 		.word	DAC_DMAErrorCh2
 610              		.cfi_endproc
 611              	.LFE241:
 613              		.section	.text.HAL_DAC_Stop_DMA,"ax",%progbits
 614              		.align	1
 615              		.global	HAL_DAC_Stop_DMA
 616              		.syntax unified
 617              		.thumb
 618              		.thumb_func
 620              	HAL_DAC_Stop_DMA:
 621              	.LVL44:
 622              	.LFB242:
 643:Drivers/STM32F4xx_HAL_Driver/Src/stm32f4xx_hal_dac.c **** 
 644:Drivers/STM32F4xx_HAL_Driver/Src/stm32f4xx_hal_dac.c **** /**
 645:Drivers/STM32F4xx_HAL_Driver/Src/stm32f4xx_hal_dac.c ****   * @brief  Disables DAC and stop conversion of channel.
 646:Drivers/STM32F4xx_HAL_Driver/Src/stm32f4xx_hal_dac.c ****   * @param  hdac pointer to a DAC_HandleTypeDef structure that contains
 647:Drivers/STM32F4xx_HAL_Driver/Src/stm32f4xx_hal_dac.c ****   *         the configuration information for the specified DAC.
 648:Drivers/STM32F4xx_HAL_Driver/Src/stm32f4xx_hal_dac.c ****   * @param  Channel The selected DAC channel.
 649:Drivers/STM32F4xx_HAL_Driver/Src/stm32f4xx_hal_dac.c ****   *          This parameter can be one of the following values:
 650:Drivers/STM32F4xx_HAL_Driver/Src/stm32f4xx_hal_dac.c ****   *            @arg DAC_CHANNEL_1: DAC Channel1 selected
 651:Drivers/STM32F4xx_HAL_Driver/Src/stm32f4xx_hal_dac.c ****   *            @arg DAC_CHANNEL_2: DAC Channel2 selected
 652:Drivers/STM32F4xx_HAL_Driver/Src/stm32f4xx_hal_dac.c ****   * @retval HAL status
 653:Drivers/STM32F4xx_HAL_Driver/Src/stm32f4xx_hal_dac.c ****   */
 654:Drivers/STM32F4xx_HAL_Driver/Src/stm32f4xx_hal_dac.c **** HAL_StatusTypeDef HAL_DAC_Stop_DMA(DAC_HandleTypeDef *hdac, uint32_t Channel)
 655:Drivers/STM32F4xx_HAL_Driver/Src/stm32f4xx_hal_dac.c **** {
 623              		.loc 1 655 1 is_stmt 1 view -0
 624              		.cfi_startproc
 625              		@ args = 0, pretend = 0, frame = 0
 626              		@ frame_needed = 0, uses_anonymous_args = 0
 627              		.loc 1 655 1 is_stmt 0 view .LVU178
 628 0000 10B5     		push	{r4, lr}
 629              	.LCFI11:
 630              		.cfi_def_cfa_offset 8
 631              		.cfi_offset 4, -8
 632              		.cfi_offset 14, -4
 633 0002 0446     		mov	r4, r0
 656:Drivers/STM32F4xx_HAL_Driver/Src/stm32f4xx_hal_dac.c ****   /* Check the parameters */
 657:Drivers/STM32F4xx_HAL_Driver/Src/stm32f4xx_hal_dac.c ****   assert_param(IS_DAC_CHANNEL(Channel));
 634              		.loc 1 657 3 is_stmt 1 view .LVU179
ARM GAS  C:\Users\ADMINI~1\AppData\Local\Temp\ccZnHgYF.s 			page 25


 658:Drivers/STM32F4xx_HAL_Driver/Src/stm32f4xx_hal_dac.c **** 
 659:Drivers/STM32F4xx_HAL_Driver/Src/stm32f4xx_hal_dac.c ****   /* Disable the selected DAC channel DMA request */
 660:Drivers/STM32F4xx_HAL_Driver/Src/stm32f4xx_hal_dac.c ****   hdac->Instance->CR &= ~(DAC_CR_DMAEN1 << (Channel & 0x10UL));
 635              		.loc 1 660 3 view .LVU180
 636              		.loc 1 660 7 is_stmt 0 view .LVU181
 637 0004 0068     		ldr	r0, [r0]
 638              	.LVL45:
 639              		.loc 1 660 17 view .LVU182
 640 0006 0368     		ldr	r3, [r0]
 641              		.loc 1 660 53 view .LVU183
 642 0008 01F0100C 		and	ip, r1, #16
 643              		.loc 1 660 41 view .LVU184
 644 000c 4FF48052 		mov	r2, #4096
 645 0010 02FA0CF2 		lsl	r2, r2, ip
 646              		.loc 1 660 22 view .LVU185
 647 0014 23EA0203 		bic	r3, r3, r2
 648 0018 0360     		str	r3, [r0]
 661:Drivers/STM32F4xx_HAL_Driver/Src/stm32f4xx_hal_dac.c **** 
 662:Drivers/STM32F4xx_HAL_Driver/Src/stm32f4xx_hal_dac.c ****   /* Disable the Peripheral */
 663:Drivers/STM32F4xx_HAL_Driver/Src/stm32f4xx_hal_dac.c ****   __HAL_DAC_DISABLE(hdac, Channel);
 649              		.loc 1 663 3 is_stmt 1 view .LVU186
 650 001a 2068     		ldr	r0, [r4]
 651 001c 0368     		ldr	r3, [r0]
 652 001e 0122     		movs	r2, #1
 653 0020 02FA0CF2 		lsl	r2, r2, ip
 654 0024 23EA0203 		bic	r3, r3, r2
 655 0028 0360     		str	r3, [r0]
 664:Drivers/STM32F4xx_HAL_Driver/Src/stm32f4xx_hal_dac.c **** 
 665:Drivers/STM32F4xx_HAL_Driver/Src/stm32f4xx_hal_dac.c ****   /* Disable the DMA Stream */
 666:Drivers/STM32F4xx_HAL_Driver/Src/stm32f4xx_hal_dac.c **** 
 667:Drivers/STM32F4xx_HAL_Driver/Src/stm32f4xx_hal_dac.c ****   /* Channel1 is used */
 668:Drivers/STM32F4xx_HAL_Driver/Src/stm32f4xx_hal_dac.c ****   if (Channel == DAC_CHANNEL_1)
 656              		.loc 1 668 3 view .LVU187
 657              		.loc 1 668 6 is_stmt 0 view .LVU188
 658 002a 59B9     		cbnz	r1, .L49
 669:Drivers/STM32F4xx_HAL_Driver/Src/stm32f4xx_hal_dac.c ****   {
 670:Drivers/STM32F4xx_HAL_Driver/Src/stm32f4xx_hal_dac.c ****     /* Disable the DMA Stream */
 671:Drivers/STM32F4xx_HAL_Driver/Src/stm32f4xx_hal_dac.c ****     (void)HAL_DMA_Abort(hdac->DMA_Handle1);
 659              		.loc 1 671 5 is_stmt 1 view .LVU189
 660              		.loc 1 671 11 is_stmt 0 view .LVU190
 661 002c A068     		ldr	r0, [r4, #8]
 662 002e FFF7FEFF 		bl	HAL_DMA_Abort
 663              	.LVL46:
 672:Drivers/STM32F4xx_HAL_Driver/Src/stm32f4xx_hal_dac.c **** 
 673:Drivers/STM32F4xx_HAL_Driver/Src/stm32f4xx_hal_dac.c ****     /* Disable the DAC DMA underrun interrupt */
 674:Drivers/STM32F4xx_HAL_Driver/Src/stm32f4xx_hal_dac.c ****     __HAL_DAC_DISABLE_IT(hdac, DAC_IT_DMAUDR1);
 664              		.loc 1 674 5 is_stmt 1 view .LVU191
 665 0032 2268     		ldr	r2, [r4]
 666 0034 1368     		ldr	r3, [r2]
 667 0036 23F40053 		bic	r3, r3, #8192
 668 003a 1360     		str	r3, [r2]
 669              	.L50:
 675:Drivers/STM32F4xx_HAL_Driver/Src/stm32f4xx_hal_dac.c ****   }
 676:Drivers/STM32F4xx_HAL_Driver/Src/stm32f4xx_hal_dac.c **** #if defined(DAC_CHANNEL2_SUPPORT)
 677:Drivers/STM32F4xx_HAL_Driver/Src/stm32f4xx_hal_dac.c ****   else /* Channel2 is used for */
 678:Drivers/STM32F4xx_HAL_Driver/Src/stm32f4xx_hal_dac.c ****   {
 679:Drivers/STM32F4xx_HAL_Driver/Src/stm32f4xx_hal_dac.c ****     /* Disable the DMA Stream */
ARM GAS  C:\Users\ADMINI~1\AppData\Local\Temp\ccZnHgYF.s 			page 26


 680:Drivers/STM32F4xx_HAL_Driver/Src/stm32f4xx_hal_dac.c ****     (void)HAL_DMA_Abort(hdac->DMA_Handle2);
 681:Drivers/STM32F4xx_HAL_Driver/Src/stm32f4xx_hal_dac.c **** 
 682:Drivers/STM32F4xx_HAL_Driver/Src/stm32f4xx_hal_dac.c ****     /* Disable the DAC DMA underrun interrupt */
 683:Drivers/STM32F4xx_HAL_Driver/Src/stm32f4xx_hal_dac.c ****     __HAL_DAC_DISABLE_IT(hdac, DAC_IT_DMAUDR2);
 684:Drivers/STM32F4xx_HAL_Driver/Src/stm32f4xx_hal_dac.c ****   }
 685:Drivers/STM32F4xx_HAL_Driver/Src/stm32f4xx_hal_dac.c **** #endif /* DAC_CHANNEL2_SUPPORT */
 686:Drivers/STM32F4xx_HAL_Driver/Src/stm32f4xx_hal_dac.c **** 
 687:Drivers/STM32F4xx_HAL_Driver/Src/stm32f4xx_hal_dac.c ****   /* Change DAC state */
 688:Drivers/STM32F4xx_HAL_Driver/Src/stm32f4xx_hal_dac.c ****   hdac->State = HAL_DAC_STATE_READY;
 670              		.loc 1 688 3 view .LVU192
 671              		.loc 1 688 15 is_stmt 0 view .LVU193
 672 003c 0123     		movs	r3, #1
 673 003e 2371     		strb	r3, [r4, #4]
 689:Drivers/STM32F4xx_HAL_Driver/Src/stm32f4xx_hal_dac.c **** 
 690:Drivers/STM32F4xx_HAL_Driver/Src/stm32f4xx_hal_dac.c ****   /* Return function status */
 691:Drivers/STM32F4xx_HAL_Driver/Src/stm32f4xx_hal_dac.c ****   return HAL_OK;
 674              		.loc 1 691 3 is_stmt 1 view .LVU194
 692:Drivers/STM32F4xx_HAL_Driver/Src/stm32f4xx_hal_dac.c **** }
 675              		.loc 1 692 1 is_stmt 0 view .LVU195
 676 0040 0020     		movs	r0, #0
 677 0042 10BD     		pop	{r4, pc}
 678              	.LVL47:
 679              	.L49:
 680:Drivers/STM32F4xx_HAL_Driver/Src/stm32f4xx_hal_dac.c **** 
 680              		.loc 1 680 5 is_stmt 1 view .LVU196
 680:Drivers/STM32F4xx_HAL_Driver/Src/stm32f4xx_hal_dac.c **** 
 681              		.loc 1 680 11 is_stmt 0 view .LVU197
 682 0044 E068     		ldr	r0, [r4, #12]
 683 0046 FFF7FEFF 		bl	HAL_DMA_Abort
 684              	.LVL48:
 683:Drivers/STM32F4xx_HAL_Driver/Src/stm32f4xx_hal_dac.c ****   }
 685              		.loc 1 683 5 is_stmt 1 view .LVU198
 686 004a 2268     		ldr	r2, [r4]
 687 004c 1368     		ldr	r3, [r2]
 688 004e 23F00053 		bic	r3, r3, #536870912
 689 0052 1360     		str	r3, [r2]
 690 0054 F2E7     		b	.L50
 691              		.cfi_endproc
 692              	.LFE242:
 694              		.section	.text.HAL_DAC_SetValue,"ax",%progbits
 695              		.align	1
 696              		.global	HAL_DAC_SetValue
 697              		.syntax unified
 698              		.thumb
 699              		.thumb_func
 701              	HAL_DAC_SetValue:
 702              	.LVL49:
 703              	.LFB244:
 693:Drivers/STM32F4xx_HAL_Driver/Src/stm32f4xx_hal_dac.c **** 
 694:Drivers/STM32F4xx_HAL_Driver/Src/stm32f4xx_hal_dac.c **** /**
 695:Drivers/STM32F4xx_HAL_Driver/Src/stm32f4xx_hal_dac.c ****   * @brief  Handles DAC interrupt request
 696:Drivers/STM32F4xx_HAL_Driver/Src/stm32f4xx_hal_dac.c ****   *         This function uses the interruption of DMA
 697:Drivers/STM32F4xx_HAL_Driver/Src/stm32f4xx_hal_dac.c ****   *         underrun.
 698:Drivers/STM32F4xx_HAL_Driver/Src/stm32f4xx_hal_dac.c ****   * @param  hdac pointer to a DAC_HandleTypeDef structure that contains
 699:Drivers/STM32F4xx_HAL_Driver/Src/stm32f4xx_hal_dac.c ****   *         the configuration information for the specified DAC.
 700:Drivers/STM32F4xx_HAL_Driver/Src/stm32f4xx_hal_dac.c ****   * @retval None
 701:Drivers/STM32F4xx_HAL_Driver/Src/stm32f4xx_hal_dac.c ****   */
ARM GAS  C:\Users\ADMINI~1\AppData\Local\Temp\ccZnHgYF.s 			page 27


 702:Drivers/STM32F4xx_HAL_Driver/Src/stm32f4xx_hal_dac.c **** void HAL_DAC_IRQHandler(DAC_HandleTypeDef *hdac)
 703:Drivers/STM32F4xx_HAL_Driver/Src/stm32f4xx_hal_dac.c **** {
 704:Drivers/STM32F4xx_HAL_Driver/Src/stm32f4xx_hal_dac.c ****   if (__HAL_DAC_GET_IT_SOURCE(hdac, DAC_IT_DMAUDR1))
 705:Drivers/STM32F4xx_HAL_Driver/Src/stm32f4xx_hal_dac.c ****   {
 706:Drivers/STM32F4xx_HAL_Driver/Src/stm32f4xx_hal_dac.c ****     /* Check underrun flag of DAC channel 1 */
 707:Drivers/STM32F4xx_HAL_Driver/Src/stm32f4xx_hal_dac.c ****     if (__HAL_DAC_GET_FLAG(hdac, DAC_FLAG_DMAUDR1))
 708:Drivers/STM32F4xx_HAL_Driver/Src/stm32f4xx_hal_dac.c ****     {
 709:Drivers/STM32F4xx_HAL_Driver/Src/stm32f4xx_hal_dac.c ****       /* Change DAC state to error state */
 710:Drivers/STM32F4xx_HAL_Driver/Src/stm32f4xx_hal_dac.c ****       hdac->State = HAL_DAC_STATE_ERROR;
 711:Drivers/STM32F4xx_HAL_Driver/Src/stm32f4xx_hal_dac.c **** 
 712:Drivers/STM32F4xx_HAL_Driver/Src/stm32f4xx_hal_dac.c ****       /* Set DAC error code to channel1 DMA underrun error */
 713:Drivers/STM32F4xx_HAL_Driver/Src/stm32f4xx_hal_dac.c ****       SET_BIT(hdac->ErrorCode, HAL_DAC_ERROR_DMAUNDERRUNCH1);
 714:Drivers/STM32F4xx_HAL_Driver/Src/stm32f4xx_hal_dac.c **** 
 715:Drivers/STM32F4xx_HAL_Driver/Src/stm32f4xx_hal_dac.c ****       /* Clear the underrun flag */
 716:Drivers/STM32F4xx_HAL_Driver/Src/stm32f4xx_hal_dac.c ****       __HAL_DAC_CLEAR_FLAG(hdac, DAC_FLAG_DMAUDR1);
 717:Drivers/STM32F4xx_HAL_Driver/Src/stm32f4xx_hal_dac.c **** 
 718:Drivers/STM32F4xx_HAL_Driver/Src/stm32f4xx_hal_dac.c ****       /* Disable the selected DAC channel1 DMA request */
 719:Drivers/STM32F4xx_HAL_Driver/Src/stm32f4xx_hal_dac.c ****       CLEAR_BIT(hdac->Instance->CR, DAC_CR_DMAEN1);
 720:Drivers/STM32F4xx_HAL_Driver/Src/stm32f4xx_hal_dac.c **** 
 721:Drivers/STM32F4xx_HAL_Driver/Src/stm32f4xx_hal_dac.c ****       /* Error callback */
 722:Drivers/STM32F4xx_HAL_Driver/Src/stm32f4xx_hal_dac.c **** #if (USE_HAL_DAC_REGISTER_CALLBACKS == 1)
 723:Drivers/STM32F4xx_HAL_Driver/Src/stm32f4xx_hal_dac.c ****       hdac->DMAUnderrunCallbackCh1(hdac);
 724:Drivers/STM32F4xx_HAL_Driver/Src/stm32f4xx_hal_dac.c **** #else
 725:Drivers/STM32F4xx_HAL_Driver/Src/stm32f4xx_hal_dac.c ****       HAL_DAC_DMAUnderrunCallbackCh1(hdac);
 726:Drivers/STM32F4xx_HAL_Driver/Src/stm32f4xx_hal_dac.c **** #endif /* USE_HAL_DAC_REGISTER_CALLBACKS */
 727:Drivers/STM32F4xx_HAL_Driver/Src/stm32f4xx_hal_dac.c ****     }
 728:Drivers/STM32F4xx_HAL_Driver/Src/stm32f4xx_hal_dac.c ****   }
 729:Drivers/STM32F4xx_HAL_Driver/Src/stm32f4xx_hal_dac.c **** 
 730:Drivers/STM32F4xx_HAL_Driver/Src/stm32f4xx_hal_dac.c **** #if defined(DAC_CHANNEL2_SUPPORT)
 731:Drivers/STM32F4xx_HAL_Driver/Src/stm32f4xx_hal_dac.c ****   if (__HAL_DAC_GET_IT_SOURCE(hdac, DAC_IT_DMAUDR2))
 732:Drivers/STM32F4xx_HAL_Driver/Src/stm32f4xx_hal_dac.c ****   {
 733:Drivers/STM32F4xx_HAL_Driver/Src/stm32f4xx_hal_dac.c ****     /* Check underrun flag of DAC channel 2 */
 734:Drivers/STM32F4xx_HAL_Driver/Src/stm32f4xx_hal_dac.c ****     if (__HAL_DAC_GET_FLAG(hdac, DAC_FLAG_DMAUDR2))
 735:Drivers/STM32F4xx_HAL_Driver/Src/stm32f4xx_hal_dac.c ****     {
 736:Drivers/STM32F4xx_HAL_Driver/Src/stm32f4xx_hal_dac.c ****       /* Change DAC state to error state */
 737:Drivers/STM32F4xx_HAL_Driver/Src/stm32f4xx_hal_dac.c ****       hdac->State = HAL_DAC_STATE_ERROR;
 738:Drivers/STM32F4xx_HAL_Driver/Src/stm32f4xx_hal_dac.c **** 
 739:Drivers/STM32F4xx_HAL_Driver/Src/stm32f4xx_hal_dac.c ****       /* Set DAC error code to channel2 DMA underrun error */
 740:Drivers/STM32F4xx_HAL_Driver/Src/stm32f4xx_hal_dac.c ****       SET_BIT(hdac->ErrorCode, HAL_DAC_ERROR_DMAUNDERRUNCH2);
 741:Drivers/STM32F4xx_HAL_Driver/Src/stm32f4xx_hal_dac.c **** 
 742:Drivers/STM32F4xx_HAL_Driver/Src/stm32f4xx_hal_dac.c ****       /* Clear the underrun flag */
 743:Drivers/STM32F4xx_HAL_Driver/Src/stm32f4xx_hal_dac.c ****       __HAL_DAC_CLEAR_FLAG(hdac, DAC_FLAG_DMAUDR2);
 744:Drivers/STM32F4xx_HAL_Driver/Src/stm32f4xx_hal_dac.c **** 
 745:Drivers/STM32F4xx_HAL_Driver/Src/stm32f4xx_hal_dac.c ****       /* Disable the selected DAC channel2 DMA request */
 746:Drivers/STM32F4xx_HAL_Driver/Src/stm32f4xx_hal_dac.c ****       CLEAR_BIT(hdac->Instance->CR, DAC_CR_DMAEN2);
 747:Drivers/STM32F4xx_HAL_Driver/Src/stm32f4xx_hal_dac.c **** 
 748:Drivers/STM32F4xx_HAL_Driver/Src/stm32f4xx_hal_dac.c ****       /* Error callback */
 749:Drivers/STM32F4xx_HAL_Driver/Src/stm32f4xx_hal_dac.c **** #if (USE_HAL_DAC_REGISTER_CALLBACKS == 1)
 750:Drivers/STM32F4xx_HAL_Driver/Src/stm32f4xx_hal_dac.c ****       hdac->DMAUnderrunCallbackCh2(hdac);
 751:Drivers/STM32F4xx_HAL_Driver/Src/stm32f4xx_hal_dac.c **** #else
 752:Drivers/STM32F4xx_HAL_Driver/Src/stm32f4xx_hal_dac.c ****       HAL_DACEx_DMAUnderrunCallbackCh2(hdac);
 753:Drivers/STM32F4xx_HAL_Driver/Src/stm32f4xx_hal_dac.c **** #endif /* USE_HAL_DAC_REGISTER_CALLBACKS */
 754:Drivers/STM32F4xx_HAL_Driver/Src/stm32f4xx_hal_dac.c ****     }
 755:Drivers/STM32F4xx_HAL_Driver/Src/stm32f4xx_hal_dac.c ****   }
 756:Drivers/STM32F4xx_HAL_Driver/Src/stm32f4xx_hal_dac.c **** #endif /* DAC_CHANNEL2_SUPPORT */
 757:Drivers/STM32F4xx_HAL_Driver/Src/stm32f4xx_hal_dac.c **** }
 758:Drivers/STM32F4xx_HAL_Driver/Src/stm32f4xx_hal_dac.c **** 
ARM GAS  C:\Users\ADMINI~1\AppData\Local\Temp\ccZnHgYF.s 			page 28


 759:Drivers/STM32F4xx_HAL_Driver/Src/stm32f4xx_hal_dac.c **** /**
 760:Drivers/STM32F4xx_HAL_Driver/Src/stm32f4xx_hal_dac.c ****   * @brief  Set the specified data holding register value for DAC channel.
 761:Drivers/STM32F4xx_HAL_Driver/Src/stm32f4xx_hal_dac.c ****   * @param  hdac pointer to a DAC_HandleTypeDef structure that contains
 762:Drivers/STM32F4xx_HAL_Driver/Src/stm32f4xx_hal_dac.c ****   *         the configuration information for the specified DAC.
 763:Drivers/STM32F4xx_HAL_Driver/Src/stm32f4xx_hal_dac.c ****   * @param  Channel The selected DAC channel.
 764:Drivers/STM32F4xx_HAL_Driver/Src/stm32f4xx_hal_dac.c ****   *          This parameter can be one of the following values:
 765:Drivers/STM32F4xx_HAL_Driver/Src/stm32f4xx_hal_dac.c ****   *            @arg DAC_CHANNEL_1: DAC Channel1 selected
 766:Drivers/STM32F4xx_HAL_Driver/Src/stm32f4xx_hal_dac.c ****   *            @arg DAC_CHANNEL_2: DAC Channel2 selected
 767:Drivers/STM32F4xx_HAL_Driver/Src/stm32f4xx_hal_dac.c ****   * @param  Alignment Specifies the data alignment.
 768:Drivers/STM32F4xx_HAL_Driver/Src/stm32f4xx_hal_dac.c ****   *          This parameter can be one of the following values:
 769:Drivers/STM32F4xx_HAL_Driver/Src/stm32f4xx_hal_dac.c ****   *            @arg DAC_ALIGN_8B_R: 8bit right data alignment selected
 770:Drivers/STM32F4xx_HAL_Driver/Src/stm32f4xx_hal_dac.c ****   *            @arg DAC_ALIGN_12B_L: 12bit left data alignment selected
 771:Drivers/STM32F4xx_HAL_Driver/Src/stm32f4xx_hal_dac.c ****   *            @arg DAC_ALIGN_12B_R: 12bit right data alignment selected
 772:Drivers/STM32F4xx_HAL_Driver/Src/stm32f4xx_hal_dac.c ****   * @param  Data Data to be loaded in the selected data holding register.
 773:Drivers/STM32F4xx_HAL_Driver/Src/stm32f4xx_hal_dac.c ****   * @retval HAL status
 774:Drivers/STM32F4xx_HAL_Driver/Src/stm32f4xx_hal_dac.c ****   */
 775:Drivers/STM32F4xx_HAL_Driver/Src/stm32f4xx_hal_dac.c **** HAL_StatusTypeDef HAL_DAC_SetValue(DAC_HandleTypeDef *hdac, uint32_t Channel, uint32_t Alignment, u
 776:Drivers/STM32F4xx_HAL_Driver/Src/stm32f4xx_hal_dac.c **** {
 704              		.loc 1 776 1 view -0
 705              		.cfi_startproc
 706              		@ args = 0, pretend = 0, frame = 8
 707              		@ frame_needed = 0, uses_anonymous_args = 0
 708              		@ link register save eliminated.
 709              		.loc 1 776 1 is_stmt 0 view .LVU200
 710 0000 10B4     		push	{r4}
 711              	.LCFI12:
 712              		.cfi_def_cfa_offset 4
 713              		.cfi_offset 4, -4
 714 0002 83B0     		sub	sp, sp, #12
 715              	.LCFI13:
 716              		.cfi_def_cfa_offset 16
 777:Drivers/STM32F4xx_HAL_Driver/Src/stm32f4xx_hal_dac.c ****   __IO uint32_t tmp = 0UL;
 717              		.loc 1 777 3 is_stmt 1 view .LVU201
 718              		.loc 1 777 17 is_stmt 0 view .LVU202
 719 0004 0024     		movs	r4, #0
 720 0006 0194     		str	r4, [sp, #4]
 778:Drivers/STM32F4xx_HAL_Driver/Src/stm32f4xx_hal_dac.c **** 
 779:Drivers/STM32F4xx_HAL_Driver/Src/stm32f4xx_hal_dac.c ****   /* Check the parameters */
 780:Drivers/STM32F4xx_HAL_Driver/Src/stm32f4xx_hal_dac.c ****   assert_param(IS_DAC_CHANNEL(Channel));
 721              		.loc 1 780 3 is_stmt 1 view .LVU203
 781:Drivers/STM32F4xx_HAL_Driver/Src/stm32f4xx_hal_dac.c ****   assert_param(IS_DAC_ALIGN(Alignment));
 722              		.loc 1 781 3 view .LVU204
 782:Drivers/STM32F4xx_HAL_Driver/Src/stm32f4xx_hal_dac.c ****   assert_param(IS_DAC_DATA(Data));
 723              		.loc 1 782 3 view .LVU205
 783:Drivers/STM32F4xx_HAL_Driver/Src/stm32f4xx_hal_dac.c **** 
 784:Drivers/STM32F4xx_HAL_Driver/Src/stm32f4xx_hal_dac.c ****   tmp = (uint32_t)hdac->Instance;
 724              		.loc 1 784 3 view .LVU206
 725              		.loc 1 784 23 is_stmt 0 view .LVU207
 726 0008 0068     		ldr	r0, [r0]
 727              	.LVL50:
 728              		.loc 1 784 7 view .LVU208
 729 000a 0190     		str	r0, [sp, #4]
 785:Drivers/STM32F4xx_HAL_Driver/Src/stm32f4xx_hal_dac.c ****   if (Channel == DAC_CHANNEL_1)
 730              		.loc 1 785 3 is_stmt 1 view .LVU209
 731              		.loc 1 785 6 is_stmt 0 view .LVU210
 732 000c 51B9     		cbnz	r1, .L53
 786:Drivers/STM32F4xx_HAL_Driver/Src/stm32f4xx_hal_dac.c ****   {
ARM GAS  C:\Users\ADMINI~1\AppData\Local\Temp\ccZnHgYF.s 			page 29


 787:Drivers/STM32F4xx_HAL_Driver/Src/stm32f4xx_hal_dac.c ****     tmp += DAC_DHR12R1_ALIGNMENT(Alignment);
 733              		.loc 1 787 5 is_stmt 1 view .LVU211
 734              		.loc 1 787 9 is_stmt 0 view .LVU212
 735 000e 0199     		ldr	r1, [sp, #4]
 736              	.LVL51:
 737              		.loc 1 787 9 view .LVU213
 738 0010 0A44     		add	r2, r2, r1
 739              	.LVL52:
 740              		.loc 1 787 9 view .LVU214
 741 0012 0832     		adds	r2, r2, #8
 742 0014 0192     		str	r2, [sp, #4]
 743              	.L54:
 788:Drivers/STM32F4xx_HAL_Driver/Src/stm32f4xx_hal_dac.c ****   }
 789:Drivers/STM32F4xx_HAL_Driver/Src/stm32f4xx_hal_dac.c **** #if defined(DAC_CHANNEL2_SUPPORT)
 790:Drivers/STM32F4xx_HAL_Driver/Src/stm32f4xx_hal_dac.c ****   else
 791:Drivers/STM32F4xx_HAL_Driver/Src/stm32f4xx_hal_dac.c ****   {
 792:Drivers/STM32F4xx_HAL_Driver/Src/stm32f4xx_hal_dac.c ****     tmp += DAC_DHR12R2_ALIGNMENT(Alignment);
 793:Drivers/STM32F4xx_HAL_Driver/Src/stm32f4xx_hal_dac.c ****   }
 794:Drivers/STM32F4xx_HAL_Driver/Src/stm32f4xx_hal_dac.c **** #endif /* DAC_CHANNEL2_SUPPORT */
 795:Drivers/STM32F4xx_HAL_Driver/Src/stm32f4xx_hal_dac.c **** 
 796:Drivers/STM32F4xx_HAL_Driver/Src/stm32f4xx_hal_dac.c ****   /* Set the DAC channel selected data holding register */
 797:Drivers/STM32F4xx_HAL_Driver/Src/stm32f4xx_hal_dac.c ****   *(__IO uint32_t *) tmp = Data;
 744              		.loc 1 797 3 is_stmt 1 view .LVU215
 745              		.loc 1 797 4 is_stmt 0 view .LVU216
 746 0016 019A     		ldr	r2, [sp, #4]
 747              		.loc 1 797 26 view .LVU217
 748 0018 1360     		str	r3, [r2]
 798:Drivers/STM32F4xx_HAL_Driver/Src/stm32f4xx_hal_dac.c **** 
 799:Drivers/STM32F4xx_HAL_Driver/Src/stm32f4xx_hal_dac.c ****   /* Return function status */
 800:Drivers/STM32F4xx_HAL_Driver/Src/stm32f4xx_hal_dac.c ****   return HAL_OK;
 749              		.loc 1 800 3 is_stmt 1 view .LVU218
 801:Drivers/STM32F4xx_HAL_Driver/Src/stm32f4xx_hal_dac.c **** }
 750              		.loc 1 801 1 is_stmt 0 view .LVU219
 751 001a 0020     		movs	r0, #0
 752 001c 03B0     		add	sp, sp, #12
 753              	.LCFI14:
 754              		.cfi_remember_state
 755              		.cfi_def_cfa_offset 4
 756              		@ sp needed
 757 001e 5DF8044B 		ldr	r4, [sp], #4
 758              	.LCFI15:
 759              		.cfi_restore 4
 760              		.cfi_def_cfa_offset 0
 761 0022 7047     		bx	lr
 762              	.LVL53:
 763              	.L53:
 764              	.LCFI16:
 765              		.cfi_restore_state
 792:Drivers/STM32F4xx_HAL_Driver/Src/stm32f4xx_hal_dac.c ****   }
 766              		.loc 1 792 5 is_stmt 1 view .LVU220
 792:Drivers/STM32F4xx_HAL_Driver/Src/stm32f4xx_hal_dac.c ****   }
 767              		.loc 1 792 9 is_stmt 0 view .LVU221
 768 0024 0199     		ldr	r1, [sp, #4]
 769              	.LVL54:
 792:Drivers/STM32F4xx_HAL_Driver/Src/stm32f4xx_hal_dac.c ****   }
 770              		.loc 1 792 9 view .LVU222
 771 0026 0A44     		add	r2, r2, r1
ARM GAS  C:\Users\ADMINI~1\AppData\Local\Temp\ccZnHgYF.s 			page 30


 772              	.LVL55:
 792:Drivers/STM32F4xx_HAL_Driver/Src/stm32f4xx_hal_dac.c ****   }
 773              		.loc 1 792 9 view .LVU223
 774 0028 1432     		adds	r2, r2, #20
 775 002a 0192     		str	r2, [sp, #4]
 776 002c F3E7     		b	.L54
 777              		.cfi_endproc
 778              	.LFE244:
 780              		.section	.text.HAL_DAC_ConvCpltCallbackCh1,"ax",%progbits
 781              		.align	1
 782              		.weak	HAL_DAC_ConvCpltCallbackCh1
 783              		.syntax unified
 784              		.thumb
 785              		.thumb_func
 787              	HAL_DAC_ConvCpltCallbackCh1:
 788              	.LVL56:
 789              	.LFB245:
 802:Drivers/STM32F4xx_HAL_Driver/Src/stm32f4xx_hal_dac.c **** 
 803:Drivers/STM32F4xx_HAL_Driver/Src/stm32f4xx_hal_dac.c **** /**
 804:Drivers/STM32F4xx_HAL_Driver/Src/stm32f4xx_hal_dac.c ****   * @brief  Conversion complete callback in non-blocking mode for Channel1
 805:Drivers/STM32F4xx_HAL_Driver/Src/stm32f4xx_hal_dac.c ****   * @param  hdac pointer to a DAC_HandleTypeDef structure that contains
 806:Drivers/STM32F4xx_HAL_Driver/Src/stm32f4xx_hal_dac.c ****   *         the configuration information for the specified DAC.
 807:Drivers/STM32F4xx_HAL_Driver/Src/stm32f4xx_hal_dac.c ****   * @retval None
 808:Drivers/STM32F4xx_HAL_Driver/Src/stm32f4xx_hal_dac.c ****   */
 809:Drivers/STM32F4xx_HAL_Driver/Src/stm32f4xx_hal_dac.c **** __weak void HAL_DAC_ConvCpltCallbackCh1(DAC_HandleTypeDef *hdac)
 810:Drivers/STM32F4xx_HAL_Driver/Src/stm32f4xx_hal_dac.c **** {
 790              		.loc 1 810 1 is_stmt 1 view -0
 791              		.cfi_startproc
 792              		@ args = 0, pretend = 0, frame = 0
 793              		@ frame_needed = 0, uses_anonymous_args = 0
 794              		@ link register save eliminated.
 811:Drivers/STM32F4xx_HAL_Driver/Src/stm32f4xx_hal_dac.c ****   /* Prevent unused argument(s) compilation warning */
 812:Drivers/STM32F4xx_HAL_Driver/Src/stm32f4xx_hal_dac.c ****   UNUSED(hdac);
 795              		.loc 1 812 3 view .LVU225
 813:Drivers/STM32F4xx_HAL_Driver/Src/stm32f4xx_hal_dac.c **** 
 814:Drivers/STM32F4xx_HAL_Driver/Src/stm32f4xx_hal_dac.c ****   /* NOTE : This function should not be modified, when the callback is needed,
 815:Drivers/STM32F4xx_HAL_Driver/Src/stm32f4xx_hal_dac.c ****             the HAL_DAC_ConvCpltCallbackCh1 could be implemented in the user file
 816:Drivers/STM32F4xx_HAL_Driver/Src/stm32f4xx_hal_dac.c ****    */
 817:Drivers/STM32F4xx_HAL_Driver/Src/stm32f4xx_hal_dac.c **** }
 796              		.loc 1 817 1 is_stmt 0 view .LVU226
 797 0000 7047     		bx	lr
 798              		.cfi_endproc
 799              	.LFE245:
 801              		.section	.text.DAC_DMAConvCpltCh1,"ax",%progbits
 802              		.align	1
 803              		.global	DAC_DMAConvCpltCh1
 804              		.syntax unified
 805              		.thumb
 806              		.thumb_func
 808              	DAC_DMAConvCpltCh1:
 809              	.LVL57:
 810              	.LFB253:
 818:Drivers/STM32F4xx_HAL_Driver/Src/stm32f4xx_hal_dac.c **** 
 819:Drivers/STM32F4xx_HAL_Driver/Src/stm32f4xx_hal_dac.c **** /**
 820:Drivers/STM32F4xx_HAL_Driver/Src/stm32f4xx_hal_dac.c ****   * @brief  Conversion half DMA transfer callback in non-blocking mode for Channel1
 821:Drivers/STM32F4xx_HAL_Driver/Src/stm32f4xx_hal_dac.c ****   * @param  hdac pointer to a DAC_HandleTypeDef structure that contains
 822:Drivers/STM32F4xx_HAL_Driver/Src/stm32f4xx_hal_dac.c ****   *         the configuration information for the specified DAC.
ARM GAS  C:\Users\ADMINI~1\AppData\Local\Temp\ccZnHgYF.s 			page 31


 823:Drivers/STM32F4xx_HAL_Driver/Src/stm32f4xx_hal_dac.c ****   * @retval None
 824:Drivers/STM32F4xx_HAL_Driver/Src/stm32f4xx_hal_dac.c ****   */
 825:Drivers/STM32F4xx_HAL_Driver/Src/stm32f4xx_hal_dac.c **** __weak void HAL_DAC_ConvHalfCpltCallbackCh1(DAC_HandleTypeDef *hdac)
 826:Drivers/STM32F4xx_HAL_Driver/Src/stm32f4xx_hal_dac.c **** {
 827:Drivers/STM32F4xx_HAL_Driver/Src/stm32f4xx_hal_dac.c ****   /* Prevent unused argument(s) compilation warning */
 828:Drivers/STM32F4xx_HAL_Driver/Src/stm32f4xx_hal_dac.c ****   UNUSED(hdac);
 829:Drivers/STM32F4xx_HAL_Driver/Src/stm32f4xx_hal_dac.c **** 
 830:Drivers/STM32F4xx_HAL_Driver/Src/stm32f4xx_hal_dac.c ****   /* NOTE : This function should not be modified, when the callback is needed,
 831:Drivers/STM32F4xx_HAL_Driver/Src/stm32f4xx_hal_dac.c ****             the HAL_DAC_ConvHalfCpltCallbackCh1 could be implemented in the user file
 832:Drivers/STM32F4xx_HAL_Driver/Src/stm32f4xx_hal_dac.c ****    */
 833:Drivers/STM32F4xx_HAL_Driver/Src/stm32f4xx_hal_dac.c **** }
 834:Drivers/STM32F4xx_HAL_Driver/Src/stm32f4xx_hal_dac.c **** 
 835:Drivers/STM32F4xx_HAL_Driver/Src/stm32f4xx_hal_dac.c **** /**
 836:Drivers/STM32F4xx_HAL_Driver/Src/stm32f4xx_hal_dac.c ****   * @brief  Error DAC callback for Channel1.
 837:Drivers/STM32F4xx_HAL_Driver/Src/stm32f4xx_hal_dac.c ****   * @param  hdac pointer to a DAC_HandleTypeDef structure that contains
 838:Drivers/STM32F4xx_HAL_Driver/Src/stm32f4xx_hal_dac.c ****   *         the configuration information for the specified DAC.
 839:Drivers/STM32F4xx_HAL_Driver/Src/stm32f4xx_hal_dac.c ****   * @retval None
 840:Drivers/STM32F4xx_HAL_Driver/Src/stm32f4xx_hal_dac.c ****   */
 841:Drivers/STM32F4xx_HAL_Driver/Src/stm32f4xx_hal_dac.c **** __weak void HAL_DAC_ErrorCallbackCh1(DAC_HandleTypeDef *hdac)
 842:Drivers/STM32F4xx_HAL_Driver/Src/stm32f4xx_hal_dac.c **** {
 843:Drivers/STM32F4xx_HAL_Driver/Src/stm32f4xx_hal_dac.c ****   /* Prevent unused argument(s) compilation warning */
 844:Drivers/STM32F4xx_HAL_Driver/Src/stm32f4xx_hal_dac.c ****   UNUSED(hdac);
 845:Drivers/STM32F4xx_HAL_Driver/Src/stm32f4xx_hal_dac.c **** 
 846:Drivers/STM32F4xx_HAL_Driver/Src/stm32f4xx_hal_dac.c ****   /* NOTE : This function should not be modified, when the callback is needed,
 847:Drivers/STM32F4xx_HAL_Driver/Src/stm32f4xx_hal_dac.c ****             the HAL_DAC_ErrorCallbackCh1 could be implemented in the user file
 848:Drivers/STM32F4xx_HAL_Driver/Src/stm32f4xx_hal_dac.c ****    */
 849:Drivers/STM32F4xx_HAL_Driver/Src/stm32f4xx_hal_dac.c **** }
 850:Drivers/STM32F4xx_HAL_Driver/Src/stm32f4xx_hal_dac.c **** 
 851:Drivers/STM32F4xx_HAL_Driver/Src/stm32f4xx_hal_dac.c **** /**
 852:Drivers/STM32F4xx_HAL_Driver/Src/stm32f4xx_hal_dac.c ****   * @brief  DMA underrun DAC callback for channel1.
 853:Drivers/STM32F4xx_HAL_Driver/Src/stm32f4xx_hal_dac.c ****   * @param  hdac pointer to a DAC_HandleTypeDef structure that contains
 854:Drivers/STM32F4xx_HAL_Driver/Src/stm32f4xx_hal_dac.c ****   *         the configuration information for the specified DAC.
 855:Drivers/STM32F4xx_HAL_Driver/Src/stm32f4xx_hal_dac.c ****   * @retval None
 856:Drivers/STM32F4xx_HAL_Driver/Src/stm32f4xx_hal_dac.c ****   */
 857:Drivers/STM32F4xx_HAL_Driver/Src/stm32f4xx_hal_dac.c **** __weak void HAL_DAC_DMAUnderrunCallbackCh1(DAC_HandleTypeDef *hdac)
 858:Drivers/STM32F4xx_HAL_Driver/Src/stm32f4xx_hal_dac.c **** {
 859:Drivers/STM32F4xx_HAL_Driver/Src/stm32f4xx_hal_dac.c ****   /* Prevent unused argument(s) compilation warning */
 860:Drivers/STM32F4xx_HAL_Driver/Src/stm32f4xx_hal_dac.c ****   UNUSED(hdac);
 861:Drivers/STM32F4xx_HAL_Driver/Src/stm32f4xx_hal_dac.c **** 
 862:Drivers/STM32F4xx_HAL_Driver/Src/stm32f4xx_hal_dac.c ****   /* NOTE : This function should not be modified, when the callback is needed,
 863:Drivers/STM32F4xx_HAL_Driver/Src/stm32f4xx_hal_dac.c ****             the HAL_DAC_DMAUnderrunCallbackCh1 could be implemented in the user file
 864:Drivers/STM32F4xx_HAL_Driver/Src/stm32f4xx_hal_dac.c ****    */
 865:Drivers/STM32F4xx_HAL_Driver/Src/stm32f4xx_hal_dac.c **** }
 866:Drivers/STM32F4xx_HAL_Driver/Src/stm32f4xx_hal_dac.c **** 
 867:Drivers/STM32F4xx_HAL_Driver/Src/stm32f4xx_hal_dac.c **** /**
 868:Drivers/STM32F4xx_HAL_Driver/Src/stm32f4xx_hal_dac.c ****   * @}
 869:Drivers/STM32F4xx_HAL_Driver/Src/stm32f4xx_hal_dac.c ****   */
 870:Drivers/STM32F4xx_HAL_Driver/Src/stm32f4xx_hal_dac.c **** 
 871:Drivers/STM32F4xx_HAL_Driver/Src/stm32f4xx_hal_dac.c **** /** @defgroup DAC_Exported_Functions_Group3 Peripheral Control functions
 872:Drivers/STM32F4xx_HAL_Driver/Src/stm32f4xx_hal_dac.c ****   *  @brief    Peripheral Control functions
 873:Drivers/STM32F4xx_HAL_Driver/Src/stm32f4xx_hal_dac.c ****   *
 874:Drivers/STM32F4xx_HAL_Driver/Src/stm32f4xx_hal_dac.c **** @verbatim
 875:Drivers/STM32F4xx_HAL_Driver/Src/stm32f4xx_hal_dac.c ****   ==============================================================================
 876:Drivers/STM32F4xx_HAL_Driver/Src/stm32f4xx_hal_dac.c ****              ##### Peripheral Control functions #####
 877:Drivers/STM32F4xx_HAL_Driver/Src/stm32f4xx_hal_dac.c ****   ==============================================================================
 878:Drivers/STM32F4xx_HAL_Driver/Src/stm32f4xx_hal_dac.c ****     [..]  This section provides functions allowing to:
 879:Drivers/STM32F4xx_HAL_Driver/Src/stm32f4xx_hal_dac.c ****       (+) Configure channels.
ARM GAS  C:\Users\ADMINI~1\AppData\Local\Temp\ccZnHgYF.s 			page 32


 880:Drivers/STM32F4xx_HAL_Driver/Src/stm32f4xx_hal_dac.c ****       (+) Set the specified data holding register value for DAC channel.
 881:Drivers/STM32F4xx_HAL_Driver/Src/stm32f4xx_hal_dac.c **** 
 882:Drivers/STM32F4xx_HAL_Driver/Src/stm32f4xx_hal_dac.c **** @endverbatim
 883:Drivers/STM32F4xx_HAL_Driver/Src/stm32f4xx_hal_dac.c ****   * @{
 884:Drivers/STM32F4xx_HAL_Driver/Src/stm32f4xx_hal_dac.c ****   */
 885:Drivers/STM32F4xx_HAL_Driver/Src/stm32f4xx_hal_dac.c **** 
 886:Drivers/STM32F4xx_HAL_Driver/Src/stm32f4xx_hal_dac.c **** /**
 887:Drivers/STM32F4xx_HAL_Driver/Src/stm32f4xx_hal_dac.c ****   * @brief  Returns the last data output value of the selected DAC channel.
 888:Drivers/STM32F4xx_HAL_Driver/Src/stm32f4xx_hal_dac.c ****   * @param  hdac pointer to a DAC_HandleTypeDef structure that contains
 889:Drivers/STM32F4xx_HAL_Driver/Src/stm32f4xx_hal_dac.c ****   *         the configuration information for the specified DAC.
 890:Drivers/STM32F4xx_HAL_Driver/Src/stm32f4xx_hal_dac.c ****   * @param  Channel The selected DAC channel.
 891:Drivers/STM32F4xx_HAL_Driver/Src/stm32f4xx_hal_dac.c ****   *          This parameter can be one of the following values:
 892:Drivers/STM32F4xx_HAL_Driver/Src/stm32f4xx_hal_dac.c ****   *            @arg DAC_CHANNEL_1: DAC Channel1 selected
 893:Drivers/STM32F4xx_HAL_Driver/Src/stm32f4xx_hal_dac.c ****   *            @arg DAC_CHANNEL_2: DAC Channel2 selected
 894:Drivers/STM32F4xx_HAL_Driver/Src/stm32f4xx_hal_dac.c ****   * @retval The selected DAC channel data output value.
 895:Drivers/STM32F4xx_HAL_Driver/Src/stm32f4xx_hal_dac.c ****   */
 896:Drivers/STM32F4xx_HAL_Driver/Src/stm32f4xx_hal_dac.c **** uint32_t HAL_DAC_GetValue(DAC_HandleTypeDef *hdac, uint32_t Channel)
 897:Drivers/STM32F4xx_HAL_Driver/Src/stm32f4xx_hal_dac.c **** {
 898:Drivers/STM32F4xx_HAL_Driver/Src/stm32f4xx_hal_dac.c ****   uint32_t result = 0;
 899:Drivers/STM32F4xx_HAL_Driver/Src/stm32f4xx_hal_dac.c **** 
 900:Drivers/STM32F4xx_HAL_Driver/Src/stm32f4xx_hal_dac.c ****   /* Check the parameters */
 901:Drivers/STM32F4xx_HAL_Driver/Src/stm32f4xx_hal_dac.c ****   assert_param(IS_DAC_CHANNEL(Channel));
 902:Drivers/STM32F4xx_HAL_Driver/Src/stm32f4xx_hal_dac.c **** 
 903:Drivers/STM32F4xx_HAL_Driver/Src/stm32f4xx_hal_dac.c ****   if (Channel == DAC_CHANNEL_1)
 904:Drivers/STM32F4xx_HAL_Driver/Src/stm32f4xx_hal_dac.c ****   {
 905:Drivers/STM32F4xx_HAL_Driver/Src/stm32f4xx_hal_dac.c ****     result = hdac->Instance->DOR1;
 906:Drivers/STM32F4xx_HAL_Driver/Src/stm32f4xx_hal_dac.c ****   }
 907:Drivers/STM32F4xx_HAL_Driver/Src/stm32f4xx_hal_dac.c **** #if defined(DAC_CHANNEL2_SUPPORT)
 908:Drivers/STM32F4xx_HAL_Driver/Src/stm32f4xx_hal_dac.c ****   else
 909:Drivers/STM32F4xx_HAL_Driver/Src/stm32f4xx_hal_dac.c ****   {
 910:Drivers/STM32F4xx_HAL_Driver/Src/stm32f4xx_hal_dac.c ****     result = hdac->Instance->DOR2;
 911:Drivers/STM32F4xx_HAL_Driver/Src/stm32f4xx_hal_dac.c ****   }
 912:Drivers/STM32F4xx_HAL_Driver/Src/stm32f4xx_hal_dac.c **** #endif /* DAC_CHANNEL2_SUPPORT */
 913:Drivers/STM32F4xx_HAL_Driver/Src/stm32f4xx_hal_dac.c ****   /* Returns the DAC channel data output register value */
 914:Drivers/STM32F4xx_HAL_Driver/Src/stm32f4xx_hal_dac.c ****   return result;
 915:Drivers/STM32F4xx_HAL_Driver/Src/stm32f4xx_hal_dac.c **** }
 916:Drivers/STM32F4xx_HAL_Driver/Src/stm32f4xx_hal_dac.c **** 
 917:Drivers/STM32F4xx_HAL_Driver/Src/stm32f4xx_hal_dac.c **** /**
 918:Drivers/STM32F4xx_HAL_Driver/Src/stm32f4xx_hal_dac.c ****   * @brief  Configures the selected DAC channel.
 919:Drivers/STM32F4xx_HAL_Driver/Src/stm32f4xx_hal_dac.c ****   * @param  hdac pointer to a DAC_HandleTypeDef structure that contains
 920:Drivers/STM32F4xx_HAL_Driver/Src/stm32f4xx_hal_dac.c ****   *         the configuration information for the specified DAC.
 921:Drivers/STM32F4xx_HAL_Driver/Src/stm32f4xx_hal_dac.c ****   * @param  sConfig DAC configuration structure.
 922:Drivers/STM32F4xx_HAL_Driver/Src/stm32f4xx_hal_dac.c ****   * @param  Channel The selected DAC channel.
 923:Drivers/STM32F4xx_HAL_Driver/Src/stm32f4xx_hal_dac.c ****   *          This parameter can be one of the following values:
 924:Drivers/STM32F4xx_HAL_Driver/Src/stm32f4xx_hal_dac.c ****   *            @arg DAC_CHANNEL_1: DAC Channel1 selected
 925:Drivers/STM32F4xx_HAL_Driver/Src/stm32f4xx_hal_dac.c ****   *            @arg DAC_CHANNEL_2: DAC Channel2 selected
 926:Drivers/STM32F4xx_HAL_Driver/Src/stm32f4xx_hal_dac.c ****   * @retval HAL status
 927:Drivers/STM32F4xx_HAL_Driver/Src/stm32f4xx_hal_dac.c ****   */
 928:Drivers/STM32F4xx_HAL_Driver/Src/stm32f4xx_hal_dac.c **** HAL_StatusTypeDef HAL_DAC_ConfigChannel(DAC_HandleTypeDef *hdac, DAC_ChannelConfTypeDef *sConfig, u
 929:Drivers/STM32F4xx_HAL_Driver/Src/stm32f4xx_hal_dac.c **** {
 930:Drivers/STM32F4xx_HAL_Driver/Src/stm32f4xx_hal_dac.c ****   uint32_t tmpreg1;
 931:Drivers/STM32F4xx_HAL_Driver/Src/stm32f4xx_hal_dac.c ****   uint32_t tmpreg2;
 932:Drivers/STM32F4xx_HAL_Driver/Src/stm32f4xx_hal_dac.c **** 
 933:Drivers/STM32F4xx_HAL_Driver/Src/stm32f4xx_hal_dac.c ****   /* Check the DAC parameters */
 934:Drivers/STM32F4xx_HAL_Driver/Src/stm32f4xx_hal_dac.c ****   assert_param(IS_DAC_TRIGGER(sConfig->DAC_Trigger));
 935:Drivers/STM32F4xx_HAL_Driver/Src/stm32f4xx_hal_dac.c ****   assert_param(IS_DAC_OUTPUT_BUFFER_STATE(sConfig->DAC_OutputBuffer));
 936:Drivers/STM32F4xx_HAL_Driver/Src/stm32f4xx_hal_dac.c ****   assert_param(IS_DAC_CHANNEL(Channel));
ARM GAS  C:\Users\ADMINI~1\AppData\Local\Temp\ccZnHgYF.s 			page 33


 937:Drivers/STM32F4xx_HAL_Driver/Src/stm32f4xx_hal_dac.c **** 
 938:Drivers/STM32F4xx_HAL_Driver/Src/stm32f4xx_hal_dac.c ****   /* Process locked */
 939:Drivers/STM32F4xx_HAL_Driver/Src/stm32f4xx_hal_dac.c ****   __HAL_LOCK(hdac);
 940:Drivers/STM32F4xx_HAL_Driver/Src/stm32f4xx_hal_dac.c **** 
 941:Drivers/STM32F4xx_HAL_Driver/Src/stm32f4xx_hal_dac.c ****   /* Change DAC state */
 942:Drivers/STM32F4xx_HAL_Driver/Src/stm32f4xx_hal_dac.c ****   hdac->State = HAL_DAC_STATE_BUSY;
 943:Drivers/STM32F4xx_HAL_Driver/Src/stm32f4xx_hal_dac.c **** 
 944:Drivers/STM32F4xx_HAL_Driver/Src/stm32f4xx_hal_dac.c ****   /* Get the DAC CR value */
 945:Drivers/STM32F4xx_HAL_Driver/Src/stm32f4xx_hal_dac.c ****   tmpreg1 = hdac->Instance->CR;
 946:Drivers/STM32F4xx_HAL_Driver/Src/stm32f4xx_hal_dac.c ****   /* Clear BOFFx, TENx, TSELx, WAVEx and MAMPx bits */
 947:Drivers/STM32F4xx_HAL_Driver/Src/stm32f4xx_hal_dac.c ****   tmpreg1 &= ~(((uint32_t)(DAC_CR_MAMP1 | DAC_CR_WAVE1 | DAC_CR_TSEL1 | DAC_CR_TEN1 | DAC_CR_BOFF1)
 948:Drivers/STM32F4xx_HAL_Driver/Src/stm32f4xx_hal_dac.c ****   /* Configure for the selected DAC channel: buffer output, trigger */
 949:Drivers/STM32F4xx_HAL_Driver/Src/stm32f4xx_hal_dac.c ****   /* Set TSELx and TENx bits according to DAC_Trigger value */
 950:Drivers/STM32F4xx_HAL_Driver/Src/stm32f4xx_hal_dac.c ****   /* Set BOFFx bit according to DAC_OutputBuffer value */
 951:Drivers/STM32F4xx_HAL_Driver/Src/stm32f4xx_hal_dac.c ****   tmpreg2 = (sConfig->DAC_Trigger | sConfig->DAC_OutputBuffer);
 952:Drivers/STM32F4xx_HAL_Driver/Src/stm32f4xx_hal_dac.c ****   /* Calculate CR register value depending on DAC_Channel */
 953:Drivers/STM32F4xx_HAL_Driver/Src/stm32f4xx_hal_dac.c ****   tmpreg1 |= tmpreg2 << (Channel & 0x10UL);
 954:Drivers/STM32F4xx_HAL_Driver/Src/stm32f4xx_hal_dac.c ****   /* Write to DAC CR */
 955:Drivers/STM32F4xx_HAL_Driver/Src/stm32f4xx_hal_dac.c ****   hdac->Instance->CR = tmpreg1;
 956:Drivers/STM32F4xx_HAL_Driver/Src/stm32f4xx_hal_dac.c ****   /* Disable wave generation */
 957:Drivers/STM32F4xx_HAL_Driver/Src/stm32f4xx_hal_dac.c ****   CLEAR_BIT(hdac->Instance->CR, (DAC_CR_WAVE1 << (Channel & 0x10UL)));
 958:Drivers/STM32F4xx_HAL_Driver/Src/stm32f4xx_hal_dac.c **** 
 959:Drivers/STM32F4xx_HAL_Driver/Src/stm32f4xx_hal_dac.c ****   /* Change DAC state */
 960:Drivers/STM32F4xx_HAL_Driver/Src/stm32f4xx_hal_dac.c ****   hdac->State = HAL_DAC_STATE_READY;
 961:Drivers/STM32F4xx_HAL_Driver/Src/stm32f4xx_hal_dac.c **** 
 962:Drivers/STM32F4xx_HAL_Driver/Src/stm32f4xx_hal_dac.c ****   /* Process unlocked */
 963:Drivers/STM32F4xx_HAL_Driver/Src/stm32f4xx_hal_dac.c ****   __HAL_UNLOCK(hdac);
 964:Drivers/STM32F4xx_HAL_Driver/Src/stm32f4xx_hal_dac.c **** 
 965:Drivers/STM32F4xx_HAL_Driver/Src/stm32f4xx_hal_dac.c ****   /* Return function status */
 966:Drivers/STM32F4xx_HAL_Driver/Src/stm32f4xx_hal_dac.c ****   return HAL_OK;
 967:Drivers/STM32F4xx_HAL_Driver/Src/stm32f4xx_hal_dac.c **** }
 968:Drivers/STM32F4xx_HAL_Driver/Src/stm32f4xx_hal_dac.c **** 
 969:Drivers/STM32F4xx_HAL_Driver/Src/stm32f4xx_hal_dac.c **** /**
 970:Drivers/STM32F4xx_HAL_Driver/Src/stm32f4xx_hal_dac.c ****   * @}
 971:Drivers/STM32F4xx_HAL_Driver/Src/stm32f4xx_hal_dac.c ****   */
 972:Drivers/STM32F4xx_HAL_Driver/Src/stm32f4xx_hal_dac.c **** 
 973:Drivers/STM32F4xx_HAL_Driver/Src/stm32f4xx_hal_dac.c **** /** @defgroup DAC_Exported_Functions_Group4 Peripheral State and Errors functions
 974:Drivers/STM32F4xx_HAL_Driver/Src/stm32f4xx_hal_dac.c ****   *  @brief   Peripheral State and Errors functions
 975:Drivers/STM32F4xx_HAL_Driver/Src/stm32f4xx_hal_dac.c ****   *
 976:Drivers/STM32F4xx_HAL_Driver/Src/stm32f4xx_hal_dac.c **** @verbatim
 977:Drivers/STM32F4xx_HAL_Driver/Src/stm32f4xx_hal_dac.c ****   ==============================================================================
 978:Drivers/STM32F4xx_HAL_Driver/Src/stm32f4xx_hal_dac.c ****             ##### Peripheral State and Errors functions #####
 979:Drivers/STM32F4xx_HAL_Driver/Src/stm32f4xx_hal_dac.c ****   ==============================================================================
 980:Drivers/STM32F4xx_HAL_Driver/Src/stm32f4xx_hal_dac.c ****     [..]
 981:Drivers/STM32F4xx_HAL_Driver/Src/stm32f4xx_hal_dac.c ****     This subsection provides functions allowing to
 982:Drivers/STM32F4xx_HAL_Driver/Src/stm32f4xx_hal_dac.c ****       (+) Check the DAC state.
 983:Drivers/STM32F4xx_HAL_Driver/Src/stm32f4xx_hal_dac.c ****       (+) Check the DAC Errors.
 984:Drivers/STM32F4xx_HAL_Driver/Src/stm32f4xx_hal_dac.c **** 
 985:Drivers/STM32F4xx_HAL_Driver/Src/stm32f4xx_hal_dac.c **** @endverbatim
 986:Drivers/STM32F4xx_HAL_Driver/Src/stm32f4xx_hal_dac.c ****   * @{
 987:Drivers/STM32F4xx_HAL_Driver/Src/stm32f4xx_hal_dac.c ****   */
 988:Drivers/STM32F4xx_HAL_Driver/Src/stm32f4xx_hal_dac.c **** 
 989:Drivers/STM32F4xx_HAL_Driver/Src/stm32f4xx_hal_dac.c **** /**
 990:Drivers/STM32F4xx_HAL_Driver/Src/stm32f4xx_hal_dac.c ****   * @brief  return the DAC handle state
 991:Drivers/STM32F4xx_HAL_Driver/Src/stm32f4xx_hal_dac.c ****   * @param  hdac pointer to a DAC_HandleTypeDef structure that contains
 992:Drivers/STM32F4xx_HAL_Driver/Src/stm32f4xx_hal_dac.c ****   *         the configuration information for the specified DAC.
 993:Drivers/STM32F4xx_HAL_Driver/Src/stm32f4xx_hal_dac.c ****   * @retval HAL state
ARM GAS  C:\Users\ADMINI~1\AppData\Local\Temp\ccZnHgYF.s 			page 34


 994:Drivers/STM32F4xx_HAL_Driver/Src/stm32f4xx_hal_dac.c ****   */
 995:Drivers/STM32F4xx_HAL_Driver/Src/stm32f4xx_hal_dac.c **** HAL_DAC_StateTypeDef HAL_DAC_GetState(DAC_HandleTypeDef *hdac)
 996:Drivers/STM32F4xx_HAL_Driver/Src/stm32f4xx_hal_dac.c **** {
 997:Drivers/STM32F4xx_HAL_Driver/Src/stm32f4xx_hal_dac.c ****   /* Return DAC handle state */
 998:Drivers/STM32F4xx_HAL_Driver/Src/stm32f4xx_hal_dac.c ****   return hdac->State;
 999:Drivers/STM32F4xx_HAL_Driver/Src/stm32f4xx_hal_dac.c **** }
1000:Drivers/STM32F4xx_HAL_Driver/Src/stm32f4xx_hal_dac.c **** 
1001:Drivers/STM32F4xx_HAL_Driver/Src/stm32f4xx_hal_dac.c **** 
1002:Drivers/STM32F4xx_HAL_Driver/Src/stm32f4xx_hal_dac.c **** /**
1003:Drivers/STM32F4xx_HAL_Driver/Src/stm32f4xx_hal_dac.c ****   * @brief  Return the DAC error code
1004:Drivers/STM32F4xx_HAL_Driver/Src/stm32f4xx_hal_dac.c ****   * @param  hdac pointer to a DAC_HandleTypeDef structure that contains
1005:Drivers/STM32F4xx_HAL_Driver/Src/stm32f4xx_hal_dac.c ****   *         the configuration information for the specified DAC.
1006:Drivers/STM32F4xx_HAL_Driver/Src/stm32f4xx_hal_dac.c ****   * @retval DAC Error Code
1007:Drivers/STM32F4xx_HAL_Driver/Src/stm32f4xx_hal_dac.c ****   */
1008:Drivers/STM32F4xx_HAL_Driver/Src/stm32f4xx_hal_dac.c **** uint32_t HAL_DAC_GetError(DAC_HandleTypeDef *hdac)
1009:Drivers/STM32F4xx_HAL_Driver/Src/stm32f4xx_hal_dac.c **** {
1010:Drivers/STM32F4xx_HAL_Driver/Src/stm32f4xx_hal_dac.c ****   return hdac->ErrorCode;
1011:Drivers/STM32F4xx_HAL_Driver/Src/stm32f4xx_hal_dac.c **** }
1012:Drivers/STM32F4xx_HAL_Driver/Src/stm32f4xx_hal_dac.c **** 
1013:Drivers/STM32F4xx_HAL_Driver/Src/stm32f4xx_hal_dac.c **** /**
1014:Drivers/STM32F4xx_HAL_Driver/Src/stm32f4xx_hal_dac.c ****   * @}
1015:Drivers/STM32F4xx_HAL_Driver/Src/stm32f4xx_hal_dac.c ****   */
1016:Drivers/STM32F4xx_HAL_Driver/Src/stm32f4xx_hal_dac.c **** 
1017:Drivers/STM32F4xx_HAL_Driver/Src/stm32f4xx_hal_dac.c **** /**
1018:Drivers/STM32F4xx_HAL_Driver/Src/stm32f4xx_hal_dac.c ****   * @}
1019:Drivers/STM32F4xx_HAL_Driver/Src/stm32f4xx_hal_dac.c ****   */
1020:Drivers/STM32F4xx_HAL_Driver/Src/stm32f4xx_hal_dac.c **** 
1021:Drivers/STM32F4xx_HAL_Driver/Src/stm32f4xx_hal_dac.c **** /** @addtogroup DAC_Exported_Functions
1022:Drivers/STM32F4xx_HAL_Driver/Src/stm32f4xx_hal_dac.c ****   * @{
1023:Drivers/STM32F4xx_HAL_Driver/Src/stm32f4xx_hal_dac.c ****   */
1024:Drivers/STM32F4xx_HAL_Driver/Src/stm32f4xx_hal_dac.c **** 
1025:Drivers/STM32F4xx_HAL_Driver/Src/stm32f4xx_hal_dac.c **** /** @addtogroup DAC_Exported_Functions_Group1
1026:Drivers/STM32F4xx_HAL_Driver/Src/stm32f4xx_hal_dac.c ****   * @{
1027:Drivers/STM32F4xx_HAL_Driver/Src/stm32f4xx_hal_dac.c ****   */
1028:Drivers/STM32F4xx_HAL_Driver/Src/stm32f4xx_hal_dac.c **** #if (USE_HAL_DAC_REGISTER_CALLBACKS == 1)
1029:Drivers/STM32F4xx_HAL_Driver/Src/stm32f4xx_hal_dac.c **** /**
1030:Drivers/STM32F4xx_HAL_Driver/Src/stm32f4xx_hal_dac.c ****   * @brief  Register a User DAC Callback
1031:Drivers/STM32F4xx_HAL_Driver/Src/stm32f4xx_hal_dac.c ****   *         To be used instead of the weak (surcharged) predefined callback
1032:Drivers/STM32F4xx_HAL_Driver/Src/stm32f4xx_hal_dac.c ****   * @param  hdac DAC handle
1033:Drivers/STM32F4xx_HAL_Driver/Src/stm32f4xx_hal_dac.c ****   * @param  CallbackID ID of the callback to be registered
1034:Drivers/STM32F4xx_HAL_Driver/Src/stm32f4xx_hal_dac.c ****   *         This parameter can be one of the following values:
1035:Drivers/STM32F4xx_HAL_Driver/Src/stm32f4xx_hal_dac.c ****   *          @arg @ref HAL_DAC_ERROR_INVALID_CALLBACK   DAC Error Callback ID
1036:Drivers/STM32F4xx_HAL_Driver/Src/stm32f4xx_hal_dac.c ****   *          @arg @ref HAL_DAC_CH1_COMPLETE_CB_ID       DAC CH1 Complete Callback ID
1037:Drivers/STM32F4xx_HAL_Driver/Src/stm32f4xx_hal_dac.c ****   *          @arg @ref HAL_DAC_CH1_HALF_COMPLETE_CB_ID  DAC CH1 Half Complete Callback ID
1038:Drivers/STM32F4xx_HAL_Driver/Src/stm32f4xx_hal_dac.c ****   *          @arg @ref HAL_DAC_CH1_ERROR_ID             DAC CH1 Error Callback ID
1039:Drivers/STM32F4xx_HAL_Driver/Src/stm32f4xx_hal_dac.c ****   *          @arg @ref HAL_DAC_CH1_UNDERRUN_CB_ID       DAC CH1 UnderRun Callback ID
1040:Drivers/STM32F4xx_HAL_Driver/Src/stm32f4xx_hal_dac.c ****   *          @arg @ref HAL_DAC_CH2_COMPLETE_CB_ID       DAC CH2 Complete Callback ID
1041:Drivers/STM32F4xx_HAL_Driver/Src/stm32f4xx_hal_dac.c ****   *          @arg @ref HAL_DAC_CH2_HALF_COMPLETE_CB_ID  DAC CH2 Half Complete Callback ID
1042:Drivers/STM32F4xx_HAL_Driver/Src/stm32f4xx_hal_dac.c ****   *          @arg @ref HAL_DAC_CH2_ERROR_ID             DAC CH2 Error Callback ID
1043:Drivers/STM32F4xx_HAL_Driver/Src/stm32f4xx_hal_dac.c ****   *          @arg @ref HAL_DAC_CH2_UNDERRUN_CB_ID       DAC CH2 UnderRun Callback ID
1044:Drivers/STM32F4xx_HAL_Driver/Src/stm32f4xx_hal_dac.c ****   *          @arg @ref HAL_DAC_MSPINIT_CB_ID            DAC MSP Init Callback ID
1045:Drivers/STM32F4xx_HAL_Driver/Src/stm32f4xx_hal_dac.c ****   *          @arg @ref HAL_DAC_MSPDEINIT_CB_ID          DAC MSP DeInit Callback ID
1046:Drivers/STM32F4xx_HAL_Driver/Src/stm32f4xx_hal_dac.c ****   *
1047:Drivers/STM32F4xx_HAL_Driver/Src/stm32f4xx_hal_dac.c ****   * @param  pCallback pointer to the Callback function
1048:Drivers/STM32F4xx_HAL_Driver/Src/stm32f4xx_hal_dac.c ****   * @retval status
1049:Drivers/STM32F4xx_HAL_Driver/Src/stm32f4xx_hal_dac.c ****   */
1050:Drivers/STM32F4xx_HAL_Driver/Src/stm32f4xx_hal_dac.c **** HAL_StatusTypeDef HAL_DAC_RegisterCallback(DAC_HandleTypeDef *hdac, HAL_DAC_CallbackIDTypeDef Callb
ARM GAS  C:\Users\ADMINI~1\AppData\Local\Temp\ccZnHgYF.s 			page 35


1051:Drivers/STM32F4xx_HAL_Driver/Src/stm32f4xx_hal_dac.c ****                                            pDAC_CallbackTypeDef pCallback)
1052:Drivers/STM32F4xx_HAL_Driver/Src/stm32f4xx_hal_dac.c **** {
1053:Drivers/STM32F4xx_HAL_Driver/Src/stm32f4xx_hal_dac.c ****   HAL_StatusTypeDef status = HAL_OK;
1054:Drivers/STM32F4xx_HAL_Driver/Src/stm32f4xx_hal_dac.c **** 
1055:Drivers/STM32F4xx_HAL_Driver/Src/stm32f4xx_hal_dac.c ****   if (pCallback == NULL)
1056:Drivers/STM32F4xx_HAL_Driver/Src/stm32f4xx_hal_dac.c ****   {
1057:Drivers/STM32F4xx_HAL_Driver/Src/stm32f4xx_hal_dac.c ****     /* Update the error code */
1058:Drivers/STM32F4xx_HAL_Driver/Src/stm32f4xx_hal_dac.c ****     hdac->ErrorCode |= HAL_DAC_ERROR_INVALID_CALLBACK;
1059:Drivers/STM32F4xx_HAL_Driver/Src/stm32f4xx_hal_dac.c ****     return HAL_ERROR;
1060:Drivers/STM32F4xx_HAL_Driver/Src/stm32f4xx_hal_dac.c ****   }
1061:Drivers/STM32F4xx_HAL_Driver/Src/stm32f4xx_hal_dac.c **** 
1062:Drivers/STM32F4xx_HAL_Driver/Src/stm32f4xx_hal_dac.c ****   /* Process locked */
1063:Drivers/STM32F4xx_HAL_Driver/Src/stm32f4xx_hal_dac.c ****   __HAL_LOCK(hdac);
1064:Drivers/STM32F4xx_HAL_Driver/Src/stm32f4xx_hal_dac.c **** 
1065:Drivers/STM32F4xx_HAL_Driver/Src/stm32f4xx_hal_dac.c ****   if (hdac->State == HAL_DAC_STATE_READY)
1066:Drivers/STM32F4xx_HAL_Driver/Src/stm32f4xx_hal_dac.c ****   {
1067:Drivers/STM32F4xx_HAL_Driver/Src/stm32f4xx_hal_dac.c ****     switch (CallbackID)
1068:Drivers/STM32F4xx_HAL_Driver/Src/stm32f4xx_hal_dac.c ****     {
1069:Drivers/STM32F4xx_HAL_Driver/Src/stm32f4xx_hal_dac.c ****       case HAL_DAC_CH1_COMPLETE_CB_ID :
1070:Drivers/STM32F4xx_HAL_Driver/Src/stm32f4xx_hal_dac.c ****         hdac->ConvCpltCallbackCh1 = pCallback;
1071:Drivers/STM32F4xx_HAL_Driver/Src/stm32f4xx_hal_dac.c ****         break;
1072:Drivers/STM32F4xx_HAL_Driver/Src/stm32f4xx_hal_dac.c ****       case HAL_DAC_CH1_HALF_COMPLETE_CB_ID :
1073:Drivers/STM32F4xx_HAL_Driver/Src/stm32f4xx_hal_dac.c ****         hdac->ConvHalfCpltCallbackCh1 = pCallback;
1074:Drivers/STM32F4xx_HAL_Driver/Src/stm32f4xx_hal_dac.c ****         break;
1075:Drivers/STM32F4xx_HAL_Driver/Src/stm32f4xx_hal_dac.c ****       case HAL_DAC_CH1_ERROR_ID :
1076:Drivers/STM32F4xx_HAL_Driver/Src/stm32f4xx_hal_dac.c ****         hdac->ErrorCallbackCh1 = pCallback;
1077:Drivers/STM32F4xx_HAL_Driver/Src/stm32f4xx_hal_dac.c ****         break;
1078:Drivers/STM32F4xx_HAL_Driver/Src/stm32f4xx_hal_dac.c ****       case HAL_DAC_CH1_UNDERRUN_CB_ID :
1079:Drivers/STM32F4xx_HAL_Driver/Src/stm32f4xx_hal_dac.c ****         hdac->DMAUnderrunCallbackCh1 = pCallback;
1080:Drivers/STM32F4xx_HAL_Driver/Src/stm32f4xx_hal_dac.c ****         break;
1081:Drivers/STM32F4xx_HAL_Driver/Src/stm32f4xx_hal_dac.c **** #if defined(DAC_CHANNEL2_SUPPORT)
1082:Drivers/STM32F4xx_HAL_Driver/Src/stm32f4xx_hal_dac.c ****       case HAL_DAC_CH2_COMPLETE_CB_ID :
1083:Drivers/STM32F4xx_HAL_Driver/Src/stm32f4xx_hal_dac.c ****         hdac->ConvCpltCallbackCh2 = pCallback;
1084:Drivers/STM32F4xx_HAL_Driver/Src/stm32f4xx_hal_dac.c ****         break;
1085:Drivers/STM32F4xx_HAL_Driver/Src/stm32f4xx_hal_dac.c ****       case HAL_DAC_CH2_HALF_COMPLETE_CB_ID :
1086:Drivers/STM32F4xx_HAL_Driver/Src/stm32f4xx_hal_dac.c ****         hdac->ConvHalfCpltCallbackCh2 = pCallback;
1087:Drivers/STM32F4xx_HAL_Driver/Src/stm32f4xx_hal_dac.c ****         break;
1088:Drivers/STM32F4xx_HAL_Driver/Src/stm32f4xx_hal_dac.c ****       case HAL_DAC_CH2_ERROR_ID :
1089:Drivers/STM32F4xx_HAL_Driver/Src/stm32f4xx_hal_dac.c ****         hdac->ErrorCallbackCh2 = pCallback;
1090:Drivers/STM32F4xx_HAL_Driver/Src/stm32f4xx_hal_dac.c ****         break;
1091:Drivers/STM32F4xx_HAL_Driver/Src/stm32f4xx_hal_dac.c ****       case HAL_DAC_CH2_UNDERRUN_CB_ID :
1092:Drivers/STM32F4xx_HAL_Driver/Src/stm32f4xx_hal_dac.c ****         hdac->DMAUnderrunCallbackCh2 = pCallback;
1093:Drivers/STM32F4xx_HAL_Driver/Src/stm32f4xx_hal_dac.c ****         break;
1094:Drivers/STM32F4xx_HAL_Driver/Src/stm32f4xx_hal_dac.c **** #endif /* DAC_CHANNEL2_SUPPORT */
1095:Drivers/STM32F4xx_HAL_Driver/Src/stm32f4xx_hal_dac.c ****       case HAL_DAC_MSPINIT_CB_ID :
1096:Drivers/STM32F4xx_HAL_Driver/Src/stm32f4xx_hal_dac.c ****         hdac->MspInitCallback = pCallback;
1097:Drivers/STM32F4xx_HAL_Driver/Src/stm32f4xx_hal_dac.c ****         break;
1098:Drivers/STM32F4xx_HAL_Driver/Src/stm32f4xx_hal_dac.c ****       case HAL_DAC_MSPDEINIT_CB_ID :
1099:Drivers/STM32F4xx_HAL_Driver/Src/stm32f4xx_hal_dac.c ****         hdac->MspDeInitCallback = pCallback;
1100:Drivers/STM32F4xx_HAL_Driver/Src/stm32f4xx_hal_dac.c ****         break;
1101:Drivers/STM32F4xx_HAL_Driver/Src/stm32f4xx_hal_dac.c ****       default :
1102:Drivers/STM32F4xx_HAL_Driver/Src/stm32f4xx_hal_dac.c ****         /* Update the error code */
1103:Drivers/STM32F4xx_HAL_Driver/Src/stm32f4xx_hal_dac.c ****         hdac->ErrorCode |= HAL_DAC_ERROR_INVALID_CALLBACK;
1104:Drivers/STM32F4xx_HAL_Driver/Src/stm32f4xx_hal_dac.c ****         /* update return status */
1105:Drivers/STM32F4xx_HAL_Driver/Src/stm32f4xx_hal_dac.c ****         status =  HAL_ERROR;
1106:Drivers/STM32F4xx_HAL_Driver/Src/stm32f4xx_hal_dac.c ****         break;
1107:Drivers/STM32F4xx_HAL_Driver/Src/stm32f4xx_hal_dac.c ****     }
ARM GAS  C:\Users\ADMINI~1\AppData\Local\Temp\ccZnHgYF.s 			page 36


1108:Drivers/STM32F4xx_HAL_Driver/Src/stm32f4xx_hal_dac.c ****   }
1109:Drivers/STM32F4xx_HAL_Driver/Src/stm32f4xx_hal_dac.c ****   else if (hdac->State == HAL_DAC_STATE_RESET)
1110:Drivers/STM32F4xx_HAL_Driver/Src/stm32f4xx_hal_dac.c ****   {
1111:Drivers/STM32F4xx_HAL_Driver/Src/stm32f4xx_hal_dac.c ****     switch (CallbackID)
1112:Drivers/STM32F4xx_HAL_Driver/Src/stm32f4xx_hal_dac.c ****     {
1113:Drivers/STM32F4xx_HAL_Driver/Src/stm32f4xx_hal_dac.c ****       case HAL_DAC_MSPINIT_CB_ID :
1114:Drivers/STM32F4xx_HAL_Driver/Src/stm32f4xx_hal_dac.c ****         hdac->MspInitCallback = pCallback;
1115:Drivers/STM32F4xx_HAL_Driver/Src/stm32f4xx_hal_dac.c ****         break;
1116:Drivers/STM32F4xx_HAL_Driver/Src/stm32f4xx_hal_dac.c ****       case HAL_DAC_MSPDEINIT_CB_ID :
1117:Drivers/STM32F4xx_HAL_Driver/Src/stm32f4xx_hal_dac.c ****         hdac->MspDeInitCallback = pCallback;
1118:Drivers/STM32F4xx_HAL_Driver/Src/stm32f4xx_hal_dac.c ****         break;
1119:Drivers/STM32F4xx_HAL_Driver/Src/stm32f4xx_hal_dac.c ****       default :
1120:Drivers/STM32F4xx_HAL_Driver/Src/stm32f4xx_hal_dac.c ****         /* Update the error code */
1121:Drivers/STM32F4xx_HAL_Driver/Src/stm32f4xx_hal_dac.c ****         hdac->ErrorCode |= HAL_DAC_ERROR_INVALID_CALLBACK;
1122:Drivers/STM32F4xx_HAL_Driver/Src/stm32f4xx_hal_dac.c ****         /* update return status */
1123:Drivers/STM32F4xx_HAL_Driver/Src/stm32f4xx_hal_dac.c ****         status =  HAL_ERROR;
1124:Drivers/STM32F4xx_HAL_Driver/Src/stm32f4xx_hal_dac.c ****         break;
1125:Drivers/STM32F4xx_HAL_Driver/Src/stm32f4xx_hal_dac.c ****     }
1126:Drivers/STM32F4xx_HAL_Driver/Src/stm32f4xx_hal_dac.c ****   }
1127:Drivers/STM32F4xx_HAL_Driver/Src/stm32f4xx_hal_dac.c ****   else
1128:Drivers/STM32F4xx_HAL_Driver/Src/stm32f4xx_hal_dac.c ****   {
1129:Drivers/STM32F4xx_HAL_Driver/Src/stm32f4xx_hal_dac.c ****     /* Update the error code */
1130:Drivers/STM32F4xx_HAL_Driver/Src/stm32f4xx_hal_dac.c ****     hdac->ErrorCode |= HAL_DAC_ERROR_INVALID_CALLBACK;
1131:Drivers/STM32F4xx_HAL_Driver/Src/stm32f4xx_hal_dac.c ****     /* update return status */
1132:Drivers/STM32F4xx_HAL_Driver/Src/stm32f4xx_hal_dac.c ****     status =  HAL_ERROR;
1133:Drivers/STM32F4xx_HAL_Driver/Src/stm32f4xx_hal_dac.c ****   }
1134:Drivers/STM32F4xx_HAL_Driver/Src/stm32f4xx_hal_dac.c **** 
1135:Drivers/STM32F4xx_HAL_Driver/Src/stm32f4xx_hal_dac.c ****   /* Release Lock */
1136:Drivers/STM32F4xx_HAL_Driver/Src/stm32f4xx_hal_dac.c ****   __HAL_UNLOCK(hdac);
1137:Drivers/STM32F4xx_HAL_Driver/Src/stm32f4xx_hal_dac.c ****   return status;
1138:Drivers/STM32F4xx_HAL_Driver/Src/stm32f4xx_hal_dac.c **** }
1139:Drivers/STM32F4xx_HAL_Driver/Src/stm32f4xx_hal_dac.c **** 
1140:Drivers/STM32F4xx_HAL_Driver/Src/stm32f4xx_hal_dac.c **** /**
1141:Drivers/STM32F4xx_HAL_Driver/Src/stm32f4xx_hal_dac.c ****   * @brief  Unregister a User DAC Callback
1142:Drivers/STM32F4xx_HAL_Driver/Src/stm32f4xx_hal_dac.c ****   *         DAC Callback is redirected to the weak (surcharged) predefined callback
1143:Drivers/STM32F4xx_HAL_Driver/Src/stm32f4xx_hal_dac.c ****   * @param  hdac DAC handle
1144:Drivers/STM32F4xx_HAL_Driver/Src/stm32f4xx_hal_dac.c ****   * @param  CallbackID ID of the callback to be unregistered
1145:Drivers/STM32F4xx_HAL_Driver/Src/stm32f4xx_hal_dac.c ****   *         This parameter can be one of the following values:
1146:Drivers/STM32F4xx_HAL_Driver/Src/stm32f4xx_hal_dac.c ****   *          @arg @ref HAL_DAC_CH1_COMPLETE_CB_ID          DAC CH1 transfer Complete Callback ID
1147:Drivers/STM32F4xx_HAL_Driver/Src/stm32f4xx_hal_dac.c ****   *          @arg @ref HAL_DAC_CH1_HALF_COMPLETE_CB_ID     DAC CH1 Half Complete Callback ID
1148:Drivers/STM32F4xx_HAL_Driver/Src/stm32f4xx_hal_dac.c ****   *          @arg @ref HAL_DAC_CH1_ERROR_ID                DAC CH1 Error Callback ID
1149:Drivers/STM32F4xx_HAL_Driver/Src/stm32f4xx_hal_dac.c ****   *          @arg @ref HAL_DAC_CH1_UNDERRUN_CB_ID          DAC CH1 UnderRun Callback ID
1150:Drivers/STM32F4xx_HAL_Driver/Src/stm32f4xx_hal_dac.c ****   *          @arg @ref HAL_DAC_CH2_COMPLETE_CB_ID          DAC CH2 Complete Callback ID
1151:Drivers/STM32F4xx_HAL_Driver/Src/stm32f4xx_hal_dac.c ****   *          @arg @ref HAL_DAC_CH2_HALF_COMPLETE_CB_ID     DAC CH2 Half Complete Callback ID
1152:Drivers/STM32F4xx_HAL_Driver/Src/stm32f4xx_hal_dac.c ****   *          @arg @ref HAL_DAC_CH2_ERROR_ID                DAC CH2 Error Callback ID
1153:Drivers/STM32F4xx_HAL_Driver/Src/stm32f4xx_hal_dac.c ****   *          @arg @ref HAL_DAC_CH2_UNDERRUN_CB_ID          DAC CH2 UnderRun Callback ID
1154:Drivers/STM32F4xx_HAL_Driver/Src/stm32f4xx_hal_dac.c ****   *          @arg @ref HAL_DAC_MSPINIT_CB_ID               DAC MSP Init Callback ID
1155:Drivers/STM32F4xx_HAL_Driver/Src/stm32f4xx_hal_dac.c ****   *          @arg @ref HAL_DAC_MSPDEINIT_CB_ID             DAC MSP DeInit Callback ID
1156:Drivers/STM32F4xx_HAL_Driver/Src/stm32f4xx_hal_dac.c ****   *          @arg @ref HAL_DAC_ALL_CB_ID                   DAC All callbacks
1157:Drivers/STM32F4xx_HAL_Driver/Src/stm32f4xx_hal_dac.c ****   * @retval status
1158:Drivers/STM32F4xx_HAL_Driver/Src/stm32f4xx_hal_dac.c ****   */
1159:Drivers/STM32F4xx_HAL_Driver/Src/stm32f4xx_hal_dac.c **** HAL_StatusTypeDef HAL_DAC_UnRegisterCallback(DAC_HandleTypeDef *hdac, HAL_DAC_CallbackIDTypeDef Cal
1160:Drivers/STM32F4xx_HAL_Driver/Src/stm32f4xx_hal_dac.c **** {
1161:Drivers/STM32F4xx_HAL_Driver/Src/stm32f4xx_hal_dac.c ****   HAL_StatusTypeDef status = HAL_OK;
1162:Drivers/STM32F4xx_HAL_Driver/Src/stm32f4xx_hal_dac.c **** 
1163:Drivers/STM32F4xx_HAL_Driver/Src/stm32f4xx_hal_dac.c ****   /* Process locked */
1164:Drivers/STM32F4xx_HAL_Driver/Src/stm32f4xx_hal_dac.c ****   __HAL_LOCK(hdac);
ARM GAS  C:\Users\ADMINI~1\AppData\Local\Temp\ccZnHgYF.s 			page 37


1165:Drivers/STM32F4xx_HAL_Driver/Src/stm32f4xx_hal_dac.c **** 
1166:Drivers/STM32F4xx_HAL_Driver/Src/stm32f4xx_hal_dac.c ****   if (hdac->State == HAL_DAC_STATE_READY)
1167:Drivers/STM32F4xx_HAL_Driver/Src/stm32f4xx_hal_dac.c ****   {
1168:Drivers/STM32F4xx_HAL_Driver/Src/stm32f4xx_hal_dac.c ****     switch (CallbackID)
1169:Drivers/STM32F4xx_HAL_Driver/Src/stm32f4xx_hal_dac.c ****     {
1170:Drivers/STM32F4xx_HAL_Driver/Src/stm32f4xx_hal_dac.c ****       case HAL_DAC_CH1_COMPLETE_CB_ID :
1171:Drivers/STM32F4xx_HAL_Driver/Src/stm32f4xx_hal_dac.c ****         hdac->ConvCpltCallbackCh1 = HAL_DAC_ConvCpltCallbackCh1;
1172:Drivers/STM32F4xx_HAL_Driver/Src/stm32f4xx_hal_dac.c ****         break;
1173:Drivers/STM32F4xx_HAL_Driver/Src/stm32f4xx_hal_dac.c ****       case HAL_DAC_CH1_HALF_COMPLETE_CB_ID :
1174:Drivers/STM32F4xx_HAL_Driver/Src/stm32f4xx_hal_dac.c ****         hdac->ConvHalfCpltCallbackCh1 = HAL_DAC_ConvHalfCpltCallbackCh1;
1175:Drivers/STM32F4xx_HAL_Driver/Src/stm32f4xx_hal_dac.c ****         break;
1176:Drivers/STM32F4xx_HAL_Driver/Src/stm32f4xx_hal_dac.c ****       case HAL_DAC_CH1_ERROR_ID :
1177:Drivers/STM32F4xx_HAL_Driver/Src/stm32f4xx_hal_dac.c ****         hdac->ErrorCallbackCh1 = HAL_DAC_ErrorCallbackCh1;
1178:Drivers/STM32F4xx_HAL_Driver/Src/stm32f4xx_hal_dac.c ****         break;
1179:Drivers/STM32F4xx_HAL_Driver/Src/stm32f4xx_hal_dac.c ****       case HAL_DAC_CH1_UNDERRUN_CB_ID :
1180:Drivers/STM32F4xx_HAL_Driver/Src/stm32f4xx_hal_dac.c ****         hdac->DMAUnderrunCallbackCh1 = HAL_DAC_DMAUnderrunCallbackCh1;
1181:Drivers/STM32F4xx_HAL_Driver/Src/stm32f4xx_hal_dac.c ****         break;
1182:Drivers/STM32F4xx_HAL_Driver/Src/stm32f4xx_hal_dac.c **** #if defined(DAC_CHANNEL2_SUPPORT)
1183:Drivers/STM32F4xx_HAL_Driver/Src/stm32f4xx_hal_dac.c ****       case HAL_DAC_CH2_COMPLETE_CB_ID :
1184:Drivers/STM32F4xx_HAL_Driver/Src/stm32f4xx_hal_dac.c ****         hdac->ConvCpltCallbackCh2 = HAL_DACEx_ConvCpltCallbackCh2;
1185:Drivers/STM32F4xx_HAL_Driver/Src/stm32f4xx_hal_dac.c ****         break;
1186:Drivers/STM32F4xx_HAL_Driver/Src/stm32f4xx_hal_dac.c ****       case HAL_DAC_CH2_HALF_COMPLETE_CB_ID :
1187:Drivers/STM32F4xx_HAL_Driver/Src/stm32f4xx_hal_dac.c ****         hdac->ConvHalfCpltCallbackCh2 = HAL_DACEx_ConvHalfCpltCallbackCh2;
1188:Drivers/STM32F4xx_HAL_Driver/Src/stm32f4xx_hal_dac.c ****         break;
1189:Drivers/STM32F4xx_HAL_Driver/Src/stm32f4xx_hal_dac.c ****       case HAL_DAC_CH2_ERROR_ID :
1190:Drivers/STM32F4xx_HAL_Driver/Src/stm32f4xx_hal_dac.c ****         hdac->ErrorCallbackCh2 = HAL_DACEx_ErrorCallbackCh2;
1191:Drivers/STM32F4xx_HAL_Driver/Src/stm32f4xx_hal_dac.c ****         break;
1192:Drivers/STM32F4xx_HAL_Driver/Src/stm32f4xx_hal_dac.c ****       case HAL_DAC_CH2_UNDERRUN_CB_ID :
1193:Drivers/STM32F4xx_HAL_Driver/Src/stm32f4xx_hal_dac.c ****         hdac->DMAUnderrunCallbackCh2 = HAL_DACEx_DMAUnderrunCallbackCh2;
1194:Drivers/STM32F4xx_HAL_Driver/Src/stm32f4xx_hal_dac.c ****         break;
1195:Drivers/STM32F4xx_HAL_Driver/Src/stm32f4xx_hal_dac.c **** #endif /* DAC_CHANNEL2_SUPPORT */
1196:Drivers/STM32F4xx_HAL_Driver/Src/stm32f4xx_hal_dac.c ****       case HAL_DAC_MSPINIT_CB_ID :
1197:Drivers/STM32F4xx_HAL_Driver/Src/stm32f4xx_hal_dac.c ****         hdac->MspInitCallback = HAL_DAC_MspInit;
1198:Drivers/STM32F4xx_HAL_Driver/Src/stm32f4xx_hal_dac.c ****         break;
1199:Drivers/STM32F4xx_HAL_Driver/Src/stm32f4xx_hal_dac.c ****       case HAL_DAC_MSPDEINIT_CB_ID :
1200:Drivers/STM32F4xx_HAL_Driver/Src/stm32f4xx_hal_dac.c ****         hdac->MspDeInitCallback = HAL_DAC_MspDeInit;
1201:Drivers/STM32F4xx_HAL_Driver/Src/stm32f4xx_hal_dac.c ****         break;
1202:Drivers/STM32F4xx_HAL_Driver/Src/stm32f4xx_hal_dac.c ****       case HAL_DAC_ALL_CB_ID :
1203:Drivers/STM32F4xx_HAL_Driver/Src/stm32f4xx_hal_dac.c ****         hdac->ConvCpltCallbackCh1 = HAL_DAC_ConvCpltCallbackCh1;
1204:Drivers/STM32F4xx_HAL_Driver/Src/stm32f4xx_hal_dac.c ****         hdac->ConvHalfCpltCallbackCh1 = HAL_DAC_ConvHalfCpltCallbackCh1;
1205:Drivers/STM32F4xx_HAL_Driver/Src/stm32f4xx_hal_dac.c ****         hdac->ErrorCallbackCh1 = HAL_DAC_ErrorCallbackCh1;
1206:Drivers/STM32F4xx_HAL_Driver/Src/stm32f4xx_hal_dac.c ****         hdac->DMAUnderrunCallbackCh1 = HAL_DAC_DMAUnderrunCallbackCh1;
1207:Drivers/STM32F4xx_HAL_Driver/Src/stm32f4xx_hal_dac.c **** #if defined(DAC_CHANNEL2_SUPPORT)
1208:Drivers/STM32F4xx_HAL_Driver/Src/stm32f4xx_hal_dac.c ****         hdac->ConvCpltCallbackCh2 = HAL_DACEx_ConvCpltCallbackCh2;
1209:Drivers/STM32F4xx_HAL_Driver/Src/stm32f4xx_hal_dac.c ****         hdac->ConvHalfCpltCallbackCh2 = HAL_DACEx_ConvHalfCpltCallbackCh2;
1210:Drivers/STM32F4xx_HAL_Driver/Src/stm32f4xx_hal_dac.c ****         hdac->ErrorCallbackCh2 = HAL_DACEx_ErrorCallbackCh2;
1211:Drivers/STM32F4xx_HAL_Driver/Src/stm32f4xx_hal_dac.c ****         hdac->DMAUnderrunCallbackCh2 = HAL_DACEx_DMAUnderrunCallbackCh2;
1212:Drivers/STM32F4xx_HAL_Driver/Src/stm32f4xx_hal_dac.c **** #endif /* DAC_CHANNEL2_SUPPORT */
1213:Drivers/STM32F4xx_HAL_Driver/Src/stm32f4xx_hal_dac.c ****         hdac->MspInitCallback = HAL_DAC_MspInit;
1214:Drivers/STM32F4xx_HAL_Driver/Src/stm32f4xx_hal_dac.c ****         hdac->MspDeInitCallback = HAL_DAC_MspDeInit;
1215:Drivers/STM32F4xx_HAL_Driver/Src/stm32f4xx_hal_dac.c ****         break;
1216:Drivers/STM32F4xx_HAL_Driver/Src/stm32f4xx_hal_dac.c ****       default :
1217:Drivers/STM32F4xx_HAL_Driver/Src/stm32f4xx_hal_dac.c ****         /* Update the error code */
1218:Drivers/STM32F4xx_HAL_Driver/Src/stm32f4xx_hal_dac.c ****         hdac->ErrorCode |= HAL_DAC_ERROR_INVALID_CALLBACK;
1219:Drivers/STM32F4xx_HAL_Driver/Src/stm32f4xx_hal_dac.c ****         /* update return status */
1220:Drivers/STM32F4xx_HAL_Driver/Src/stm32f4xx_hal_dac.c ****         status =  HAL_ERROR;
1221:Drivers/STM32F4xx_HAL_Driver/Src/stm32f4xx_hal_dac.c ****         break;
ARM GAS  C:\Users\ADMINI~1\AppData\Local\Temp\ccZnHgYF.s 			page 38


1222:Drivers/STM32F4xx_HAL_Driver/Src/stm32f4xx_hal_dac.c ****     }
1223:Drivers/STM32F4xx_HAL_Driver/Src/stm32f4xx_hal_dac.c ****   }
1224:Drivers/STM32F4xx_HAL_Driver/Src/stm32f4xx_hal_dac.c ****   else if (hdac->State == HAL_DAC_STATE_RESET)
1225:Drivers/STM32F4xx_HAL_Driver/Src/stm32f4xx_hal_dac.c ****   {
1226:Drivers/STM32F4xx_HAL_Driver/Src/stm32f4xx_hal_dac.c ****     switch (CallbackID)
1227:Drivers/STM32F4xx_HAL_Driver/Src/stm32f4xx_hal_dac.c ****     {
1228:Drivers/STM32F4xx_HAL_Driver/Src/stm32f4xx_hal_dac.c ****       case HAL_DAC_MSPINIT_CB_ID :
1229:Drivers/STM32F4xx_HAL_Driver/Src/stm32f4xx_hal_dac.c ****         hdac->MspInitCallback = HAL_DAC_MspInit;
1230:Drivers/STM32F4xx_HAL_Driver/Src/stm32f4xx_hal_dac.c ****         break;
1231:Drivers/STM32F4xx_HAL_Driver/Src/stm32f4xx_hal_dac.c ****       case HAL_DAC_MSPDEINIT_CB_ID :
1232:Drivers/STM32F4xx_HAL_Driver/Src/stm32f4xx_hal_dac.c ****         hdac->MspDeInitCallback = HAL_DAC_MspDeInit;
1233:Drivers/STM32F4xx_HAL_Driver/Src/stm32f4xx_hal_dac.c ****         break;
1234:Drivers/STM32F4xx_HAL_Driver/Src/stm32f4xx_hal_dac.c ****       default :
1235:Drivers/STM32F4xx_HAL_Driver/Src/stm32f4xx_hal_dac.c ****         /* Update the error code */
1236:Drivers/STM32F4xx_HAL_Driver/Src/stm32f4xx_hal_dac.c ****         hdac->ErrorCode |= HAL_DAC_ERROR_INVALID_CALLBACK;
1237:Drivers/STM32F4xx_HAL_Driver/Src/stm32f4xx_hal_dac.c ****         /* update return status */
1238:Drivers/STM32F4xx_HAL_Driver/Src/stm32f4xx_hal_dac.c ****         status =  HAL_ERROR;
1239:Drivers/STM32F4xx_HAL_Driver/Src/stm32f4xx_hal_dac.c ****         break;
1240:Drivers/STM32F4xx_HAL_Driver/Src/stm32f4xx_hal_dac.c ****     }
1241:Drivers/STM32F4xx_HAL_Driver/Src/stm32f4xx_hal_dac.c ****   }
1242:Drivers/STM32F4xx_HAL_Driver/Src/stm32f4xx_hal_dac.c ****   else
1243:Drivers/STM32F4xx_HAL_Driver/Src/stm32f4xx_hal_dac.c ****   {
1244:Drivers/STM32F4xx_HAL_Driver/Src/stm32f4xx_hal_dac.c ****     /* Update the error code */
1245:Drivers/STM32F4xx_HAL_Driver/Src/stm32f4xx_hal_dac.c ****     hdac->ErrorCode |= HAL_DAC_ERROR_INVALID_CALLBACK;
1246:Drivers/STM32F4xx_HAL_Driver/Src/stm32f4xx_hal_dac.c ****     /* update return status */
1247:Drivers/STM32F4xx_HAL_Driver/Src/stm32f4xx_hal_dac.c ****     status =  HAL_ERROR;
1248:Drivers/STM32F4xx_HAL_Driver/Src/stm32f4xx_hal_dac.c ****   }
1249:Drivers/STM32F4xx_HAL_Driver/Src/stm32f4xx_hal_dac.c **** 
1250:Drivers/STM32F4xx_HAL_Driver/Src/stm32f4xx_hal_dac.c ****   /* Release Lock */
1251:Drivers/STM32F4xx_HAL_Driver/Src/stm32f4xx_hal_dac.c ****   __HAL_UNLOCK(hdac);
1252:Drivers/STM32F4xx_HAL_Driver/Src/stm32f4xx_hal_dac.c ****   return status;
1253:Drivers/STM32F4xx_HAL_Driver/Src/stm32f4xx_hal_dac.c **** }
1254:Drivers/STM32F4xx_HAL_Driver/Src/stm32f4xx_hal_dac.c **** #endif /* USE_HAL_DAC_REGISTER_CALLBACKS */
1255:Drivers/STM32F4xx_HAL_Driver/Src/stm32f4xx_hal_dac.c **** 
1256:Drivers/STM32F4xx_HAL_Driver/Src/stm32f4xx_hal_dac.c **** /**
1257:Drivers/STM32F4xx_HAL_Driver/Src/stm32f4xx_hal_dac.c ****   * @}
1258:Drivers/STM32F4xx_HAL_Driver/Src/stm32f4xx_hal_dac.c ****   */
1259:Drivers/STM32F4xx_HAL_Driver/Src/stm32f4xx_hal_dac.c **** 
1260:Drivers/STM32F4xx_HAL_Driver/Src/stm32f4xx_hal_dac.c **** /**
1261:Drivers/STM32F4xx_HAL_Driver/Src/stm32f4xx_hal_dac.c ****   * @}
1262:Drivers/STM32F4xx_HAL_Driver/Src/stm32f4xx_hal_dac.c ****   */
1263:Drivers/STM32F4xx_HAL_Driver/Src/stm32f4xx_hal_dac.c **** 
1264:Drivers/STM32F4xx_HAL_Driver/Src/stm32f4xx_hal_dac.c **** /** @addtogroup DAC_Private_Functions
1265:Drivers/STM32F4xx_HAL_Driver/Src/stm32f4xx_hal_dac.c ****   * @{
1266:Drivers/STM32F4xx_HAL_Driver/Src/stm32f4xx_hal_dac.c ****   */
1267:Drivers/STM32F4xx_HAL_Driver/Src/stm32f4xx_hal_dac.c **** 
1268:Drivers/STM32F4xx_HAL_Driver/Src/stm32f4xx_hal_dac.c **** /**
1269:Drivers/STM32F4xx_HAL_Driver/Src/stm32f4xx_hal_dac.c ****   * @brief  DMA conversion complete callback.
1270:Drivers/STM32F4xx_HAL_Driver/Src/stm32f4xx_hal_dac.c ****   * @param  hdma pointer to a DMA_HandleTypeDef structure that contains
1271:Drivers/STM32F4xx_HAL_Driver/Src/stm32f4xx_hal_dac.c ****   *                the configuration information for the specified DMA module.
1272:Drivers/STM32F4xx_HAL_Driver/Src/stm32f4xx_hal_dac.c ****   * @retval None
1273:Drivers/STM32F4xx_HAL_Driver/Src/stm32f4xx_hal_dac.c ****   */
1274:Drivers/STM32F4xx_HAL_Driver/Src/stm32f4xx_hal_dac.c **** void DAC_DMAConvCpltCh1(DMA_HandleTypeDef *hdma)
1275:Drivers/STM32F4xx_HAL_Driver/Src/stm32f4xx_hal_dac.c **** {
 811              		.loc 1 1275 1 is_stmt 1 view -0
 812              		.cfi_startproc
 813              		@ args = 0, pretend = 0, frame = 0
ARM GAS  C:\Users\ADMINI~1\AppData\Local\Temp\ccZnHgYF.s 			page 39


 814              		@ frame_needed = 0, uses_anonymous_args = 0
 815              		.loc 1 1275 1 is_stmt 0 view .LVU228
 816 0000 10B5     		push	{r4, lr}
 817              	.LCFI17:
 818              		.cfi_def_cfa_offset 8
 819              		.cfi_offset 4, -8
 820              		.cfi_offset 14, -4
1276:Drivers/STM32F4xx_HAL_Driver/Src/stm32f4xx_hal_dac.c ****   DAC_HandleTypeDef *hdac = (DAC_HandleTypeDef *)((DMA_HandleTypeDef *)hdma)->Parent;
 821              		.loc 1 1276 3 is_stmt 1 view .LVU229
 822              		.loc 1 1276 22 is_stmt 0 view .LVU230
 823 0002 846B     		ldr	r4, [r0, #56]
 824              	.LVL58:
1277:Drivers/STM32F4xx_HAL_Driver/Src/stm32f4xx_hal_dac.c **** 
1278:Drivers/STM32F4xx_HAL_Driver/Src/stm32f4xx_hal_dac.c **** #if (USE_HAL_DAC_REGISTER_CALLBACKS == 1)
1279:Drivers/STM32F4xx_HAL_Driver/Src/stm32f4xx_hal_dac.c ****   hdac->ConvCpltCallbackCh1(hdac);
1280:Drivers/STM32F4xx_HAL_Driver/Src/stm32f4xx_hal_dac.c **** #else
1281:Drivers/STM32F4xx_HAL_Driver/Src/stm32f4xx_hal_dac.c ****   HAL_DAC_ConvCpltCallbackCh1(hdac);
 825              		.loc 1 1281 3 is_stmt 1 view .LVU231
 826 0004 2046     		mov	r0, r4
 827              	.LVL59:
 828              		.loc 1 1281 3 is_stmt 0 view .LVU232
 829 0006 FFF7FEFF 		bl	HAL_DAC_ConvCpltCallbackCh1
 830              	.LVL60:
1282:Drivers/STM32F4xx_HAL_Driver/Src/stm32f4xx_hal_dac.c **** #endif /* USE_HAL_DAC_REGISTER_CALLBACKS */
1283:Drivers/STM32F4xx_HAL_Driver/Src/stm32f4xx_hal_dac.c **** 
1284:Drivers/STM32F4xx_HAL_Driver/Src/stm32f4xx_hal_dac.c ****   hdac->State = HAL_DAC_STATE_READY;
 831              		.loc 1 1284 3 is_stmt 1 view .LVU233
 832              		.loc 1 1284 15 is_stmt 0 view .LVU234
 833 000a 0123     		movs	r3, #1
 834 000c 2371     		strb	r3, [r4, #4]
1285:Drivers/STM32F4xx_HAL_Driver/Src/stm32f4xx_hal_dac.c **** }
 835              		.loc 1 1285 1 view .LVU235
 836 000e 10BD     		pop	{r4, pc}
 837              		.loc 1 1285 1 view .LVU236
 838              		.cfi_endproc
 839              	.LFE253:
 841              		.section	.text.HAL_DAC_ConvHalfCpltCallbackCh1,"ax",%progbits
 842              		.align	1
 843              		.weak	HAL_DAC_ConvHalfCpltCallbackCh1
 844              		.syntax unified
 845              		.thumb
 846              		.thumb_func
 848              	HAL_DAC_ConvHalfCpltCallbackCh1:
 849              	.LVL61:
 850              	.LFB246:
 826:Drivers/STM32F4xx_HAL_Driver/Src/stm32f4xx_hal_dac.c ****   /* Prevent unused argument(s) compilation warning */
 851              		.loc 1 826 1 is_stmt 1 view -0
 852              		.cfi_startproc
 853              		@ args = 0, pretend = 0, frame = 0
 854              		@ frame_needed = 0, uses_anonymous_args = 0
 855              		@ link register save eliminated.
 828:Drivers/STM32F4xx_HAL_Driver/Src/stm32f4xx_hal_dac.c **** 
 856              		.loc 1 828 3 view .LVU238
 833:Drivers/STM32F4xx_HAL_Driver/Src/stm32f4xx_hal_dac.c **** 
 857              		.loc 1 833 1 is_stmt 0 view .LVU239
 858 0000 7047     		bx	lr
 859              		.cfi_endproc
ARM GAS  C:\Users\ADMINI~1\AppData\Local\Temp\ccZnHgYF.s 			page 40


 860              	.LFE246:
 862              		.section	.text.DAC_DMAHalfConvCpltCh1,"ax",%progbits
 863              		.align	1
 864              		.global	DAC_DMAHalfConvCpltCh1
 865              		.syntax unified
 866              		.thumb
 867              		.thumb_func
 869              	DAC_DMAHalfConvCpltCh1:
 870              	.LVL62:
 871              	.LFB254:
1286:Drivers/STM32F4xx_HAL_Driver/Src/stm32f4xx_hal_dac.c **** 
1287:Drivers/STM32F4xx_HAL_Driver/Src/stm32f4xx_hal_dac.c **** /**
1288:Drivers/STM32F4xx_HAL_Driver/Src/stm32f4xx_hal_dac.c ****   * @brief  DMA half transfer complete callback.
1289:Drivers/STM32F4xx_HAL_Driver/Src/stm32f4xx_hal_dac.c ****   * @param  hdma pointer to a DMA_HandleTypeDef structure that contains
1290:Drivers/STM32F4xx_HAL_Driver/Src/stm32f4xx_hal_dac.c ****   *                the configuration information for the specified DMA module.
1291:Drivers/STM32F4xx_HAL_Driver/Src/stm32f4xx_hal_dac.c ****   * @retval None
1292:Drivers/STM32F4xx_HAL_Driver/Src/stm32f4xx_hal_dac.c ****   */
1293:Drivers/STM32F4xx_HAL_Driver/Src/stm32f4xx_hal_dac.c **** void DAC_DMAHalfConvCpltCh1(DMA_HandleTypeDef *hdma)
1294:Drivers/STM32F4xx_HAL_Driver/Src/stm32f4xx_hal_dac.c **** {
 872              		.loc 1 1294 1 is_stmt 1 view -0
 873              		.cfi_startproc
 874              		@ args = 0, pretend = 0, frame = 0
 875              		@ frame_needed = 0, uses_anonymous_args = 0
 876              		.loc 1 1294 1 is_stmt 0 view .LVU241
 877 0000 08B5     		push	{r3, lr}
 878              	.LCFI18:
 879              		.cfi_def_cfa_offset 8
 880              		.cfi_offset 3, -8
 881              		.cfi_offset 14, -4
1295:Drivers/STM32F4xx_HAL_Driver/Src/stm32f4xx_hal_dac.c ****   DAC_HandleTypeDef *hdac = (DAC_HandleTypeDef *)((DMA_HandleTypeDef *)hdma)->Parent;
 882              		.loc 1 1295 3 is_stmt 1 view .LVU242
 883              	.LVL63:
1296:Drivers/STM32F4xx_HAL_Driver/Src/stm32f4xx_hal_dac.c ****   /* Conversion complete callback */
1297:Drivers/STM32F4xx_HAL_Driver/Src/stm32f4xx_hal_dac.c **** #if (USE_HAL_DAC_REGISTER_CALLBACKS == 1)
1298:Drivers/STM32F4xx_HAL_Driver/Src/stm32f4xx_hal_dac.c ****   hdac->ConvHalfCpltCallbackCh1(hdac);
1299:Drivers/STM32F4xx_HAL_Driver/Src/stm32f4xx_hal_dac.c **** #else
1300:Drivers/STM32F4xx_HAL_Driver/Src/stm32f4xx_hal_dac.c ****   HAL_DAC_ConvHalfCpltCallbackCh1(hdac);
 884              		.loc 1 1300 3 view .LVU243
 885 0002 806B     		ldr	r0, [r0, #56]
 886              	.LVL64:
 887              		.loc 1 1300 3 is_stmt 0 view .LVU244
 888 0004 FFF7FEFF 		bl	HAL_DAC_ConvHalfCpltCallbackCh1
 889              	.LVL65:
1301:Drivers/STM32F4xx_HAL_Driver/Src/stm32f4xx_hal_dac.c **** #endif  /* USE_HAL_DAC_REGISTER_CALLBACKS */
1302:Drivers/STM32F4xx_HAL_Driver/Src/stm32f4xx_hal_dac.c **** }
 890              		.loc 1 1302 1 view .LVU245
 891 0008 08BD     		pop	{r3, pc}
 892              		.cfi_endproc
 893              	.LFE254:
 895              		.section	.text.HAL_DAC_ErrorCallbackCh1,"ax",%progbits
 896              		.align	1
 897              		.weak	HAL_DAC_ErrorCallbackCh1
 898              		.syntax unified
 899              		.thumb
 900              		.thumb_func
 902              	HAL_DAC_ErrorCallbackCh1:
 903              	.LVL66:
ARM GAS  C:\Users\ADMINI~1\AppData\Local\Temp\ccZnHgYF.s 			page 41


 904              	.LFB247:
 842:Drivers/STM32F4xx_HAL_Driver/Src/stm32f4xx_hal_dac.c ****   /* Prevent unused argument(s) compilation warning */
 905              		.loc 1 842 1 is_stmt 1 view -0
 906              		.cfi_startproc
 907              		@ args = 0, pretend = 0, frame = 0
 908              		@ frame_needed = 0, uses_anonymous_args = 0
 909              		@ link register save eliminated.
 844:Drivers/STM32F4xx_HAL_Driver/Src/stm32f4xx_hal_dac.c **** 
 910              		.loc 1 844 3 view .LVU247
 849:Drivers/STM32F4xx_HAL_Driver/Src/stm32f4xx_hal_dac.c **** 
 911              		.loc 1 849 1 is_stmt 0 view .LVU248
 912 0000 7047     		bx	lr
 913              		.cfi_endproc
 914              	.LFE247:
 916              		.section	.text.DAC_DMAErrorCh1,"ax",%progbits
 917              		.align	1
 918              		.global	DAC_DMAErrorCh1
 919              		.syntax unified
 920              		.thumb
 921              		.thumb_func
 923              	DAC_DMAErrorCh1:
 924              	.LVL67:
 925              	.LFB255:
1303:Drivers/STM32F4xx_HAL_Driver/Src/stm32f4xx_hal_dac.c **** 
1304:Drivers/STM32F4xx_HAL_Driver/Src/stm32f4xx_hal_dac.c **** /**
1305:Drivers/STM32F4xx_HAL_Driver/Src/stm32f4xx_hal_dac.c ****   * @brief  DMA error callback
1306:Drivers/STM32F4xx_HAL_Driver/Src/stm32f4xx_hal_dac.c ****   * @param  hdma pointer to a DMA_HandleTypeDef structure that contains
1307:Drivers/STM32F4xx_HAL_Driver/Src/stm32f4xx_hal_dac.c ****   *                the configuration information for the specified DMA module.
1308:Drivers/STM32F4xx_HAL_Driver/Src/stm32f4xx_hal_dac.c ****   * @retval None
1309:Drivers/STM32F4xx_HAL_Driver/Src/stm32f4xx_hal_dac.c ****   */
1310:Drivers/STM32F4xx_HAL_Driver/Src/stm32f4xx_hal_dac.c **** void DAC_DMAErrorCh1(DMA_HandleTypeDef *hdma)
1311:Drivers/STM32F4xx_HAL_Driver/Src/stm32f4xx_hal_dac.c **** {
 926              		.loc 1 1311 1 is_stmt 1 view -0
 927              		.cfi_startproc
 928              		@ args = 0, pretend = 0, frame = 0
 929              		@ frame_needed = 0, uses_anonymous_args = 0
 930              		.loc 1 1311 1 is_stmt 0 view .LVU250
 931 0000 10B5     		push	{r4, lr}
 932              	.LCFI19:
 933              		.cfi_def_cfa_offset 8
 934              		.cfi_offset 4, -8
 935              		.cfi_offset 14, -4
1312:Drivers/STM32F4xx_HAL_Driver/Src/stm32f4xx_hal_dac.c ****   DAC_HandleTypeDef *hdac = (DAC_HandleTypeDef *)((DMA_HandleTypeDef *)hdma)->Parent;
 936              		.loc 1 1312 3 is_stmt 1 view .LVU251
 937              		.loc 1 1312 22 is_stmt 0 view .LVU252
 938 0002 846B     		ldr	r4, [r0, #56]
 939              	.LVL68:
1313:Drivers/STM32F4xx_HAL_Driver/Src/stm32f4xx_hal_dac.c **** 
1314:Drivers/STM32F4xx_HAL_Driver/Src/stm32f4xx_hal_dac.c ****   /* Set DAC error code to DMA error */
1315:Drivers/STM32F4xx_HAL_Driver/Src/stm32f4xx_hal_dac.c ****   hdac->ErrorCode |= HAL_DAC_ERROR_DMA;
 940              		.loc 1 1315 3 is_stmt 1 view .LVU253
 941              		.loc 1 1315 7 is_stmt 0 view .LVU254
 942 0004 2369     		ldr	r3, [r4, #16]
 943              		.loc 1 1315 19 view .LVU255
 944 0006 43F00403 		orr	r3, r3, #4
 945 000a 2361     		str	r3, [r4, #16]
1316:Drivers/STM32F4xx_HAL_Driver/Src/stm32f4xx_hal_dac.c **** 
ARM GAS  C:\Users\ADMINI~1\AppData\Local\Temp\ccZnHgYF.s 			page 42


1317:Drivers/STM32F4xx_HAL_Driver/Src/stm32f4xx_hal_dac.c **** #if (USE_HAL_DAC_REGISTER_CALLBACKS == 1)
1318:Drivers/STM32F4xx_HAL_Driver/Src/stm32f4xx_hal_dac.c ****   hdac->ErrorCallbackCh1(hdac);
1319:Drivers/STM32F4xx_HAL_Driver/Src/stm32f4xx_hal_dac.c **** #else
1320:Drivers/STM32F4xx_HAL_Driver/Src/stm32f4xx_hal_dac.c ****   HAL_DAC_ErrorCallbackCh1(hdac);
 946              		.loc 1 1320 3 is_stmt 1 view .LVU256
 947 000c 2046     		mov	r0, r4
 948              	.LVL69:
 949              		.loc 1 1320 3 is_stmt 0 view .LVU257
 950 000e FFF7FEFF 		bl	HAL_DAC_ErrorCallbackCh1
 951              	.LVL70:
1321:Drivers/STM32F4xx_HAL_Driver/Src/stm32f4xx_hal_dac.c **** #endif /* USE_HAL_DAC_REGISTER_CALLBACKS */
1322:Drivers/STM32F4xx_HAL_Driver/Src/stm32f4xx_hal_dac.c **** 
1323:Drivers/STM32F4xx_HAL_Driver/Src/stm32f4xx_hal_dac.c ****   hdac->State = HAL_DAC_STATE_READY;
 952              		.loc 1 1323 3 is_stmt 1 view .LVU258
 953              		.loc 1 1323 15 is_stmt 0 view .LVU259
 954 0012 0123     		movs	r3, #1
 955 0014 2371     		strb	r3, [r4, #4]
1324:Drivers/STM32F4xx_HAL_Driver/Src/stm32f4xx_hal_dac.c **** }
 956              		.loc 1 1324 1 view .LVU260
 957 0016 10BD     		pop	{r4, pc}
 958              		.loc 1 1324 1 view .LVU261
 959              		.cfi_endproc
 960              	.LFE255:
 962              		.section	.text.HAL_DAC_DMAUnderrunCallbackCh1,"ax",%progbits
 963              		.align	1
 964              		.weak	HAL_DAC_DMAUnderrunCallbackCh1
 965              		.syntax unified
 966              		.thumb
 967              		.thumb_func
 969              	HAL_DAC_DMAUnderrunCallbackCh1:
 970              	.LVL71:
 971              	.LFB248:
 858:Drivers/STM32F4xx_HAL_Driver/Src/stm32f4xx_hal_dac.c ****   /* Prevent unused argument(s) compilation warning */
 972              		.loc 1 858 1 is_stmt 1 view -0
 973              		.cfi_startproc
 974              		@ args = 0, pretend = 0, frame = 0
 975              		@ frame_needed = 0, uses_anonymous_args = 0
 976              		@ link register save eliminated.
 860:Drivers/STM32F4xx_HAL_Driver/Src/stm32f4xx_hal_dac.c **** 
 977              		.loc 1 860 3 view .LVU263
 865:Drivers/STM32F4xx_HAL_Driver/Src/stm32f4xx_hal_dac.c **** 
 978              		.loc 1 865 1 is_stmt 0 view .LVU264
 979 0000 7047     		bx	lr
 980              		.cfi_endproc
 981              	.LFE248:
 983              		.section	.text.HAL_DAC_IRQHandler,"ax",%progbits
 984              		.align	1
 985              		.global	HAL_DAC_IRQHandler
 986              		.syntax unified
 987              		.thumb
 988              		.thumb_func
 990              	HAL_DAC_IRQHandler:
 991              	.LVL72:
 992              	.LFB243:
 703:Drivers/STM32F4xx_HAL_Driver/Src/stm32f4xx_hal_dac.c ****   if (__HAL_DAC_GET_IT_SOURCE(hdac, DAC_IT_DMAUDR1))
 993              		.loc 1 703 1 is_stmt 1 view -0
 994              		.cfi_startproc
ARM GAS  C:\Users\ADMINI~1\AppData\Local\Temp\ccZnHgYF.s 			page 43


 995              		@ args = 0, pretend = 0, frame = 0
 996              		@ frame_needed = 0, uses_anonymous_args = 0
 703:Drivers/STM32F4xx_HAL_Driver/Src/stm32f4xx_hal_dac.c ****   if (__HAL_DAC_GET_IT_SOURCE(hdac, DAC_IT_DMAUDR1))
 997              		.loc 1 703 1 is_stmt 0 view .LVU266
 998 0000 10B5     		push	{r4, lr}
 999              	.LCFI20:
 1000              		.cfi_def_cfa_offset 8
 1001              		.cfi_offset 4, -8
 1002              		.cfi_offset 14, -4
 1003 0002 0446     		mov	r4, r0
 704:Drivers/STM32F4xx_HAL_Driver/Src/stm32f4xx_hal_dac.c ****   {
 1004              		.loc 1 704 3 is_stmt 1 view .LVU267
 704:Drivers/STM32F4xx_HAL_Driver/Src/stm32f4xx_hal_dac.c ****   {
 1005              		.loc 1 704 7 is_stmt 0 view .LVU268
 1006 0004 0368     		ldr	r3, [r0]
 1007 0006 1A68     		ldr	r2, [r3]
 704:Drivers/STM32F4xx_HAL_Driver/Src/stm32f4xx_hal_dac.c ****   {
 1008              		.loc 1 704 6 view .LVU269
 1009 0008 12F4005F 		tst	r2, #8192
 1010 000c 03D0     		beq	.L67
 707:Drivers/STM32F4xx_HAL_Driver/Src/stm32f4xx_hal_dac.c ****     {
 1011              		.loc 1 707 5 is_stmt 1 view .LVU270
 707:Drivers/STM32F4xx_HAL_Driver/Src/stm32f4xx_hal_dac.c ****     {
 1012              		.loc 1 707 9 is_stmt 0 view .LVU271
 1013 000e 5A6B     		ldr	r2, [r3, #52]
 707:Drivers/STM32F4xx_HAL_Driver/Src/stm32f4xx_hal_dac.c ****     {
 1014              		.loc 1 707 8 view .LVU272
 1015 0010 12F4005F 		tst	r2, #8192
 1016 0014 09D1     		bne	.L70
 1017              	.LVL73:
 1018              	.L67:
 731:Drivers/STM32F4xx_HAL_Driver/Src/stm32f4xx_hal_dac.c ****   {
 1019              		.loc 1 731 3 is_stmt 1 view .LVU273
 731:Drivers/STM32F4xx_HAL_Driver/Src/stm32f4xx_hal_dac.c ****   {
 1020              		.loc 1 731 7 is_stmt 0 view .LVU274
 1021 0016 2368     		ldr	r3, [r4]
 1022 0018 1A68     		ldr	r2, [r3]
 731:Drivers/STM32F4xx_HAL_Driver/Src/stm32f4xx_hal_dac.c ****   {
 1023              		.loc 1 731 6 view .LVU275
 1024 001a 12F0005F 		tst	r2, #536870912
 1025 001e 03D0     		beq	.L66
 734:Drivers/STM32F4xx_HAL_Driver/Src/stm32f4xx_hal_dac.c ****     {
 1026              		.loc 1 734 5 is_stmt 1 view .LVU276
 734:Drivers/STM32F4xx_HAL_Driver/Src/stm32f4xx_hal_dac.c ****     {
 1027              		.loc 1 734 9 is_stmt 0 view .LVU277
 1028 0020 5A6B     		ldr	r2, [r3, #52]
 734:Drivers/STM32F4xx_HAL_Driver/Src/stm32f4xx_hal_dac.c ****     {
 1029              		.loc 1 734 8 view .LVU278
 1030 0022 12F0005F 		tst	r2, #536870912
 1031 0026 11D1     		bne	.L71
 1032              	.L66:
 757:Drivers/STM32F4xx_HAL_Driver/Src/stm32f4xx_hal_dac.c **** 
 1033              		.loc 1 757 1 view .LVU279
 1034 0028 10BD     		pop	{r4, pc}
 1035              	.LVL74:
 1036              	.L70:
 710:Drivers/STM32F4xx_HAL_Driver/Src/stm32f4xx_hal_dac.c **** 
ARM GAS  C:\Users\ADMINI~1\AppData\Local\Temp\ccZnHgYF.s 			page 44


 1037              		.loc 1 710 7 is_stmt 1 view .LVU280
 710:Drivers/STM32F4xx_HAL_Driver/Src/stm32f4xx_hal_dac.c **** 
 1038              		.loc 1 710 19 is_stmt 0 view .LVU281
 1039 002a 0422     		movs	r2, #4
 1040 002c 0271     		strb	r2, [r0, #4]
 713:Drivers/STM32F4xx_HAL_Driver/Src/stm32f4xx_hal_dac.c **** 
 1041              		.loc 1 713 7 is_stmt 1 view .LVU282
 1042 002e 0269     		ldr	r2, [r0, #16]
 1043 0030 42F00102 		orr	r2, r2, #1
 1044 0034 0261     		str	r2, [r0, #16]
 716:Drivers/STM32F4xx_HAL_Driver/Src/stm32f4xx_hal_dac.c **** 
 1045              		.loc 1 716 7 view .LVU283
 1046 0036 4FF40052 		mov	r2, #8192
 1047 003a 5A63     		str	r2, [r3, #52]
 719:Drivers/STM32F4xx_HAL_Driver/Src/stm32f4xx_hal_dac.c **** 
 1048              		.loc 1 719 7 view .LVU284
 1049 003c 0268     		ldr	r2, [r0]
 1050 003e 1368     		ldr	r3, [r2]
 1051 0040 23F48053 		bic	r3, r3, #4096
 1052 0044 1360     		str	r3, [r2]
 725:Drivers/STM32F4xx_HAL_Driver/Src/stm32f4xx_hal_dac.c **** #endif /* USE_HAL_DAC_REGISTER_CALLBACKS */
 1053              		.loc 1 725 7 view .LVU285
 1054 0046 FFF7FEFF 		bl	HAL_DAC_DMAUnderrunCallbackCh1
 1055              	.LVL75:
 725:Drivers/STM32F4xx_HAL_Driver/Src/stm32f4xx_hal_dac.c **** #endif /* USE_HAL_DAC_REGISTER_CALLBACKS */
 1056              		.loc 1 725 7 is_stmt 0 view .LVU286
 1057 004a E4E7     		b	.L67
 1058              	.L71:
 737:Drivers/STM32F4xx_HAL_Driver/Src/stm32f4xx_hal_dac.c **** 
 1059              		.loc 1 737 7 is_stmt 1 view .LVU287
 737:Drivers/STM32F4xx_HAL_Driver/Src/stm32f4xx_hal_dac.c **** 
 1060              		.loc 1 737 19 is_stmt 0 view .LVU288
 1061 004c 0422     		movs	r2, #4
 1062 004e 2271     		strb	r2, [r4, #4]
 740:Drivers/STM32F4xx_HAL_Driver/Src/stm32f4xx_hal_dac.c **** 
 1063              		.loc 1 740 7 is_stmt 1 view .LVU289
 1064 0050 2269     		ldr	r2, [r4, #16]
 1065 0052 42F00202 		orr	r2, r2, #2
 1066 0056 2261     		str	r2, [r4, #16]
 743:Drivers/STM32F4xx_HAL_Driver/Src/stm32f4xx_hal_dac.c **** 
 1067              		.loc 1 743 7 view .LVU290
 1068 0058 4FF00052 		mov	r2, #536870912
 1069 005c 5A63     		str	r2, [r3, #52]
 746:Drivers/STM32F4xx_HAL_Driver/Src/stm32f4xx_hal_dac.c **** 
 1070              		.loc 1 746 7 view .LVU291
 1071 005e 2268     		ldr	r2, [r4]
 1072 0060 1368     		ldr	r3, [r2]
 1073 0062 23F08053 		bic	r3, r3, #268435456
 1074 0066 1360     		str	r3, [r2]
 752:Drivers/STM32F4xx_HAL_Driver/Src/stm32f4xx_hal_dac.c **** #endif /* USE_HAL_DAC_REGISTER_CALLBACKS */
 1075              		.loc 1 752 7 view .LVU292
 1076 0068 2046     		mov	r0, r4
 1077 006a FFF7FEFF 		bl	HAL_DACEx_DMAUnderrunCallbackCh2
 1078              	.LVL76:
 757:Drivers/STM32F4xx_HAL_Driver/Src/stm32f4xx_hal_dac.c **** 
 1079              		.loc 1 757 1 is_stmt 0 view .LVU293
 1080 006e DBE7     		b	.L66
ARM GAS  C:\Users\ADMINI~1\AppData\Local\Temp\ccZnHgYF.s 			page 45


 1081              		.cfi_endproc
 1082              	.LFE243:
 1084              		.section	.text.HAL_DAC_GetValue,"ax",%progbits
 1085              		.align	1
 1086              		.global	HAL_DAC_GetValue
 1087              		.syntax unified
 1088              		.thumb
 1089              		.thumb_func
 1091              	HAL_DAC_GetValue:
 1092              	.LVL77:
 1093              	.LFB249:
 897:Drivers/STM32F4xx_HAL_Driver/Src/stm32f4xx_hal_dac.c ****   uint32_t result = 0;
 1094              		.loc 1 897 1 is_stmt 1 view -0
 1095              		.cfi_startproc
 1096              		@ args = 0, pretend = 0, frame = 0
 1097              		@ frame_needed = 0, uses_anonymous_args = 0
 1098              		@ link register save eliminated.
 898:Drivers/STM32F4xx_HAL_Driver/Src/stm32f4xx_hal_dac.c **** 
 1099              		.loc 1 898 3 view .LVU295
 901:Drivers/STM32F4xx_HAL_Driver/Src/stm32f4xx_hal_dac.c **** 
 1100              		.loc 1 901 3 view .LVU296
 903:Drivers/STM32F4xx_HAL_Driver/Src/stm32f4xx_hal_dac.c ****   {
 1101              		.loc 1 903 3 view .LVU297
 903:Drivers/STM32F4xx_HAL_Driver/Src/stm32f4xx_hal_dac.c ****   {
 1102              		.loc 1 903 6 is_stmt 0 view .LVU298
 1103 0000 11B9     		cbnz	r1, .L73
 905:Drivers/STM32F4xx_HAL_Driver/Src/stm32f4xx_hal_dac.c ****   }
 1104              		.loc 1 905 5 is_stmt 1 view .LVU299
 905:Drivers/STM32F4xx_HAL_Driver/Src/stm32f4xx_hal_dac.c ****   }
 1105              		.loc 1 905 18 is_stmt 0 view .LVU300
 1106 0002 0368     		ldr	r3, [r0]
 905:Drivers/STM32F4xx_HAL_Driver/Src/stm32f4xx_hal_dac.c ****   }
 1107              		.loc 1 905 12 view .LVU301
 1108 0004 D86A     		ldr	r0, [r3, #44]
 1109              	.LVL78:
 905:Drivers/STM32F4xx_HAL_Driver/Src/stm32f4xx_hal_dac.c ****   }
 1110              		.loc 1 905 12 view .LVU302
 1111 0006 7047     		bx	lr
 1112              	.LVL79:
 1113              	.L73:
 910:Drivers/STM32F4xx_HAL_Driver/Src/stm32f4xx_hal_dac.c ****   }
 1114              		.loc 1 910 5 is_stmt 1 view .LVU303
 910:Drivers/STM32F4xx_HAL_Driver/Src/stm32f4xx_hal_dac.c ****   }
 1115              		.loc 1 910 18 is_stmt 0 view .LVU304
 1116 0008 0368     		ldr	r3, [r0]
 910:Drivers/STM32F4xx_HAL_Driver/Src/stm32f4xx_hal_dac.c ****   }
 1117              		.loc 1 910 12 view .LVU305
 1118 000a 186B     		ldr	r0, [r3, #48]
 1119              	.LVL80:
 914:Drivers/STM32F4xx_HAL_Driver/Src/stm32f4xx_hal_dac.c **** }
 1120              		.loc 1 914 3 is_stmt 1 view .LVU306
 915:Drivers/STM32F4xx_HAL_Driver/Src/stm32f4xx_hal_dac.c **** 
 1121              		.loc 1 915 1 is_stmt 0 view .LVU307
 1122 000c 7047     		bx	lr
 1123              		.cfi_endproc
 1124              	.LFE249:
 1126              		.section	.text.HAL_DAC_ConfigChannel,"ax",%progbits
ARM GAS  C:\Users\ADMINI~1\AppData\Local\Temp\ccZnHgYF.s 			page 46


 1127              		.align	1
 1128              		.global	HAL_DAC_ConfigChannel
 1129              		.syntax unified
 1130              		.thumb
 1131              		.thumb_func
 1133              	HAL_DAC_ConfigChannel:
 1134              	.LVL81:
 1135              	.LFB250:
 929:Drivers/STM32F4xx_HAL_Driver/Src/stm32f4xx_hal_dac.c ****   uint32_t tmpreg1;
 1136              		.loc 1 929 1 is_stmt 1 view -0
 1137              		.cfi_startproc
 1138              		@ args = 0, pretend = 0, frame = 0
 1139              		@ frame_needed = 0, uses_anonymous_args = 0
 929:Drivers/STM32F4xx_HAL_Driver/Src/stm32f4xx_hal_dac.c ****   uint32_t tmpreg1;
 1140              		.loc 1 929 1 is_stmt 0 view .LVU309
 1141 0000 0346     		mov	r3, r0
 1142 0002 0846     		mov	r0, r1
 1143              	.LVL82:
 930:Drivers/STM32F4xx_HAL_Driver/Src/stm32f4xx_hal_dac.c ****   uint32_t tmpreg2;
 1144              		.loc 1 930 3 is_stmt 1 view .LVU310
 931:Drivers/STM32F4xx_HAL_Driver/Src/stm32f4xx_hal_dac.c **** 
 1145              		.loc 1 931 3 view .LVU311
 934:Drivers/STM32F4xx_HAL_Driver/Src/stm32f4xx_hal_dac.c ****   assert_param(IS_DAC_OUTPUT_BUFFER_STATE(sConfig->DAC_OutputBuffer));
 1146              		.loc 1 934 3 view .LVU312
 935:Drivers/STM32F4xx_HAL_Driver/Src/stm32f4xx_hal_dac.c ****   assert_param(IS_DAC_CHANNEL(Channel));
 1147              		.loc 1 935 3 view .LVU313
 936:Drivers/STM32F4xx_HAL_Driver/Src/stm32f4xx_hal_dac.c **** 
 1148              		.loc 1 936 3 view .LVU314
 939:Drivers/STM32F4xx_HAL_Driver/Src/stm32f4xx_hal_dac.c **** 
 1149              		.loc 1 939 3 view .LVU315
 939:Drivers/STM32F4xx_HAL_Driver/Src/stm32f4xx_hal_dac.c **** 
 1150              		.loc 1 939 3 view .LVU316
 1151 0004 5979     		ldrb	r1, [r3, #5]	@ zero_extendqisi2
 1152              	.LVL83:
 939:Drivers/STM32F4xx_HAL_Driver/Src/stm32f4xx_hal_dac.c **** 
 1153              		.loc 1 939 3 is_stmt 0 view .LVU317
 1154 0006 0129     		cmp	r1, #1
 1155 0008 24D0     		beq	.L77
 929:Drivers/STM32F4xx_HAL_Driver/Src/stm32f4xx_hal_dac.c ****   uint32_t tmpreg1;
 1156              		.loc 1 929 1 view .LVU318
 1157 000a 10B5     		push	{r4, lr}
 1158              	.LCFI21:
 1159              		.cfi_def_cfa_offset 8
 1160              		.cfi_offset 4, -8
 1161              		.cfi_offset 14, -4
 939:Drivers/STM32F4xx_HAL_Driver/Src/stm32f4xx_hal_dac.c **** 
 1162              		.loc 1 939 3 is_stmt 1 discriminator 2 view .LVU319
 1163 000c 4FF0010E 		mov	lr, #1
 1164 0010 83F805E0 		strb	lr, [r3, #5]
 939:Drivers/STM32F4xx_HAL_Driver/Src/stm32f4xx_hal_dac.c **** 
 1165              		.loc 1 939 3 discriminator 2 view .LVU320
 942:Drivers/STM32F4xx_HAL_Driver/Src/stm32f4xx_hal_dac.c **** 
 1166              		.loc 1 942 3 view .LVU321
 942:Drivers/STM32F4xx_HAL_Driver/Src/stm32f4xx_hal_dac.c **** 
 1167              		.loc 1 942 15 is_stmt 0 view .LVU322
 1168 0014 0221     		movs	r1, #2
 1169 0016 1971     		strb	r1, [r3, #4]
ARM GAS  C:\Users\ADMINI~1\AppData\Local\Temp\ccZnHgYF.s 			page 47


 945:Drivers/STM32F4xx_HAL_Driver/Src/stm32f4xx_hal_dac.c ****   /* Clear BOFFx, TENx, TSELx, WAVEx and MAMPx bits */
 1170              		.loc 1 945 3 is_stmt 1 view .LVU323
 945:Drivers/STM32F4xx_HAL_Driver/Src/stm32f4xx_hal_dac.c ****   /* Clear BOFFx, TENx, TSELx, WAVEx and MAMPx bits */
 1171              		.loc 1 945 17 is_stmt 0 view .LVU324
 1172 0018 1C68     		ldr	r4, [r3]
 945:Drivers/STM32F4xx_HAL_Driver/Src/stm32f4xx_hal_dac.c ****   /* Clear BOFFx, TENx, TSELx, WAVEx and MAMPx bits */
 1173              		.loc 1 945 11 view .LVU325
 1174 001a 2168     		ldr	r1, [r4]
 1175              	.LVL84:
 947:Drivers/STM32F4xx_HAL_Driver/Src/stm32f4xx_hal_dac.c ****   /* Configure for the selected DAC channel: buffer output, trigger */
 1176              		.loc 1 947 3 is_stmt 1 view .LVU326
 947:Drivers/STM32F4xx_HAL_Driver/Src/stm32f4xx_hal_dac.c ****   /* Configure for the selected DAC channel: buffer output, trigger */
 1177              		.loc 1 947 114 is_stmt 0 view .LVU327
 1178 001c 02F01002 		and	r2, r2, #16
 1179              	.LVL85:
 947:Drivers/STM32F4xx_HAL_Driver/Src/stm32f4xx_hal_dac.c ****   /* Configure for the selected DAC channel: buffer output, trigger */
 1180              		.loc 1 947 102 view .LVU328
 1181 0020 40F6FE7C 		movw	ip, #4094
 1182 0024 0CFA02FC 		lsl	ip, ip, r2
 947:Drivers/STM32F4xx_HAL_Driver/Src/stm32f4xx_hal_dac.c ****   /* Configure for the selected DAC channel: buffer output, trigger */
 1183              		.loc 1 947 11 view .LVU329
 1184 0028 21EA0C0C 		bic	ip, r1, ip
 1185              	.LVL86:
 951:Drivers/STM32F4xx_HAL_Driver/Src/stm32f4xx_hal_dac.c ****   /* Calculate CR register value depending on DAC_Channel */
 1186              		.loc 1 951 3 is_stmt 1 view .LVU330
 951:Drivers/STM32F4xx_HAL_Driver/Src/stm32f4xx_hal_dac.c ****   /* Calculate CR register value depending on DAC_Channel */
 1187              		.loc 1 951 21 is_stmt 0 view .LVU331
 1188 002c 0168     		ldr	r1, [r0]
 951:Drivers/STM32F4xx_HAL_Driver/Src/stm32f4xx_hal_dac.c ****   /* Calculate CR register value depending on DAC_Channel */
 1189              		.loc 1 951 44 view .LVU332
 1190 002e 4068     		ldr	r0, [r0, #4]
 1191              	.LVL87:
 951:Drivers/STM32F4xx_HAL_Driver/Src/stm32f4xx_hal_dac.c ****   /* Calculate CR register value depending on DAC_Channel */
 1192              		.loc 1 951 11 view .LVU333
 1193 0030 0143     		orrs	r1, r1, r0
 1194              	.LVL88:
 953:Drivers/STM32F4xx_HAL_Driver/Src/stm32f4xx_hal_dac.c ****   /* Write to DAC CR */
 1195              		.loc 1 953 3 is_stmt 1 view .LVU334
 953:Drivers/STM32F4xx_HAL_Driver/Src/stm32f4xx_hal_dac.c ****   /* Write to DAC CR */
 1196              		.loc 1 953 22 is_stmt 0 view .LVU335
 1197 0032 9140     		lsls	r1, r1, r2
 1198              	.LVL89:
 953:Drivers/STM32F4xx_HAL_Driver/Src/stm32f4xx_hal_dac.c ****   /* Write to DAC CR */
 1199              		.loc 1 953 11 view .LVU336
 1200 0034 41EA0C01 		orr	r1, r1, ip
 1201              	.LVL90:
 955:Drivers/STM32F4xx_HAL_Driver/Src/stm32f4xx_hal_dac.c ****   /* Disable wave generation */
 1202              		.loc 1 955 3 is_stmt 1 view .LVU337
 955:Drivers/STM32F4xx_HAL_Driver/Src/stm32f4xx_hal_dac.c ****   /* Disable wave generation */
 1203              		.loc 1 955 22 is_stmt 0 view .LVU338
 1204 0038 2160     		str	r1, [r4]
 1205              	.LVL91:
 957:Drivers/STM32F4xx_HAL_Driver/Src/stm32f4xx_hal_dac.c **** 
 1206              		.loc 1 957 3 is_stmt 1 view .LVU339
 1207 003a 1C68     		ldr	r4, [r3]
 1208 003c 2168     		ldr	r1, [r4]
 1209              	.LVL92:
ARM GAS  C:\Users\ADMINI~1\AppData\Local\Temp\ccZnHgYF.s 			page 48


 957:Drivers/STM32F4xx_HAL_Driver/Src/stm32f4xx_hal_dac.c **** 
 1210              		.loc 1 957 3 is_stmt 0 view .LVU340
 1211 003e C020     		movs	r0, #192
 1212 0040 00FA02F2 		lsl	r2, r0, r2
 1213 0044 21EA0202 		bic	r2, r1, r2
 1214 0048 2260     		str	r2, [r4]
 960:Drivers/STM32F4xx_HAL_Driver/Src/stm32f4xx_hal_dac.c **** 
 1215              		.loc 1 960 3 is_stmt 1 view .LVU341
 960:Drivers/STM32F4xx_HAL_Driver/Src/stm32f4xx_hal_dac.c **** 
 1216              		.loc 1 960 15 is_stmt 0 view .LVU342
 1217 004a 83F804E0 		strb	lr, [r3, #4]
 963:Drivers/STM32F4xx_HAL_Driver/Src/stm32f4xx_hal_dac.c **** 
 1218              		.loc 1 963 3 is_stmt 1 view .LVU343
 963:Drivers/STM32F4xx_HAL_Driver/Src/stm32f4xx_hal_dac.c **** 
 1219              		.loc 1 963 3 view .LVU344
 1220 004e 0020     		movs	r0, #0
 1221 0050 5871     		strb	r0, [r3, #5]
 963:Drivers/STM32F4xx_HAL_Driver/Src/stm32f4xx_hal_dac.c **** 
 1222              		.loc 1 963 3 view .LVU345
 966:Drivers/STM32F4xx_HAL_Driver/Src/stm32f4xx_hal_dac.c **** }
 1223              		.loc 1 966 3 view .LVU346
 967:Drivers/STM32F4xx_HAL_Driver/Src/stm32f4xx_hal_dac.c **** 
 1224              		.loc 1 967 1 is_stmt 0 view .LVU347
 1225 0052 10BD     		pop	{r4, pc}
 1226              	.LVL93:
 1227              	.L77:
 1228              	.LCFI22:
 1229              		.cfi_def_cfa_offset 0
 1230              		.cfi_restore 4
 1231              		.cfi_restore 14
 939:Drivers/STM32F4xx_HAL_Driver/Src/stm32f4xx_hal_dac.c **** 
 1232              		.loc 1 939 3 discriminator 1 view .LVU348
 1233 0054 0220     		movs	r0, #2
 1234              	.LVL94:
 967:Drivers/STM32F4xx_HAL_Driver/Src/stm32f4xx_hal_dac.c **** 
 1235              		.loc 1 967 1 view .LVU349
 1236 0056 7047     		bx	lr
 1237              		.cfi_endproc
 1238              	.LFE250:
 1240              		.section	.text.HAL_DAC_GetState,"ax",%progbits
 1241              		.align	1
 1242              		.global	HAL_DAC_GetState
 1243              		.syntax unified
 1244              		.thumb
 1245              		.thumb_func
 1247              	HAL_DAC_GetState:
 1248              	.LVL95:
 1249              	.LFB251:
 996:Drivers/STM32F4xx_HAL_Driver/Src/stm32f4xx_hal_dac.c ****   /* Return DAC handle state */
 1250              		.loc 1 996 1 is_stmt 1 view -0
 1251              		.cfi_startproc
 1252              		@ args = 0, pretend = 0, frame = 0
 1253              		@ frame_needed = 0, uses_anonymous_args = 0
 1254              		@ link register save eliminated.
 998:Drivers/STM32F4xx_HAL_Driver/Src/stm32f4xx_hal_dac.c **** }
 1255              		.loc 1 998 3 view .LVU351
 998:Drivers/STM32F4xx_HAL_Driver/Src/stm32f4xx_hal_dac.c **** }
ARM GAS  C:\Users\ADMINI~1\AppData\Local\Temp\ccZnHgYF.s 			page 49


 1256              		.loc 1 998 14 is_stmt 0 view .LVU352
 1257 0000 0079     		ldrb	r0, [r0, #4]	@ zero_extendqisi2
 1258              	.LVL96:
 999:Drivers/STM32F4xx_HAL_Driver/Src/stm32f4xx_hal_dac.c **** 
 1259              		.loc 1 999 1 view .LVU353
 1260 0002 7047     		bx	lr
 1261              		.cfi_endproc
 1262              	.LFE251:
 1264              		.section	.text.HAL_DAC_GetError,"ax",%progbits
 1265              		.align	1
 1266              		.global	HAL_DAC_GetError
 1267              		.syntax unified
 1268              		.thumb
 1269              		.thumb_func
 1271              	HAL_DAC_GetError:
 1272              	.LVL97:
 1273              	.LFB252:
1009:Drivers/STM32F4xx_HAL_Driver/Src/stm32f4xx_hal_dac.c ****   return hdac->ErrorCode;
 1274              		.loc 1 1009 1 is_stmt 1 view -0
 1275              		.cfi_startproc
 1276              		@ args = 0, pretend = 0, frame = 0
 1277              		@ frame_needed = 0, uses_anonymous_args = 0
 1278              		@ link register save eliminated.
1010:Drivers/STM32F4xx_HAL_Driver/Src/stm32f4xx_hal_dac.c **** }
 1279              		.loc 1 1010 3 view .LVU355
1010:Drivers/STM32F4xx_HAL_Driver/Src/stm32f4xx_hal_dac.c **** }
 1280              		.loc 1 1010 14 is_stmt 0 view .LVU356
 1281 0000 0069     		ldr	r0, [r0, #16]
 1282              	.LVL98:
1011:Drivers/STM32F4xx_HAL_Driver/Src/stm32f4xx_hal_dac.c **** 
 1283              		.loc 1 1011 1 view .LVU357
 1284 0002 7047     		bx	lr
 1285              		.cfi_endproc
 1286              	.LFE252:
 1288              		.text
 1289              	.Letext0:
 1290              		.file 2 "D:/Msys2/mingw64/arm-none-eabi/include/machine/_default_types.h"
 1291              		.file 3 "D:/Msys2/mingw64/arm-none-eabi/include/sys/_stdint.h"
 1292              		.file 4 "Drivers/CMSIS/Device/ST/STM32F4xx/Include/stm32f407xx.h"
 1293              		.file 5 "Drivers/STM32F4xx_HAL_Driver/Inc/stm32f4xx_hal_def.h"
 1294              		.file 6 "Drivers/STM32F4xx_HAL_Driver/Inc/stm32f4xx_hal_dma.h"
 1295              		.file 7 "Drivers/STM32F4xx_HAL_Driver/Inc/stm32f4xx_hal_dac.h"
 1296              		.file 8 "Drivers/STM32F4xx_HAL_Driver/Inc/stm32f4xx_hal_dac_ex.h"
ARM GAS  C:\Users\ADMINI~1\AppData\Local\Temp\ccZnHgYF.s 			page 50

