ARM GAS  C:\Users\ADMINI~1\AppData\Local\Temp\ccahqaTu.s 			page 1


   1              		.cpu cortex-m4
   2              		.arch armv7e-m
   3              		.fpu fpv4-sp-d16
   4              		.eabi_attribute 27, 1
   5              		.eabi_attribute 28, 1
   6              		.eabi_attribute 20, 1
   7              		.eabi_attribute 21, 1
   8              		.eabi_attribute 23, 3
   9              		.eabi_attribute 24, 1
  10              		.eabi_attribute 25, 1
  11              		.eabi_attribute 26, 1
  12              		.eabi_attribute 30, 1
  13              		.eabi_attribute 34, 1
  14              		.eabi_attribute 18, 4
  15              		.file	"stm32f4xx_hal_rtc_ex.c"
  16              		.text
  17              	.Ltext0:
  18              		.cfi_sections	.debug_frame
  19              		.file 1 "Drivers/STM32F4xx_HAL_Driver/Src/stm32f4xx_hal_rtc_ex.c"
  20              		.section	.text.HAL_RTCEx_SetTimeStamp,"ax",%progbits
  21              		.align	1
  22              		.global	HAL_RTCEx_SetTimeStamp
  23              		.syntax unified
  24              		.thumb
  25              		.thumb_func
  27              	HAL_RTCEx_SetTimeStamp:
  28              	.LVL0:
  29              	.LFB235:
   1:Drivers/STM32F4xx_HAL_Driver/Src/stm32f4xx_hal_rtc_ex.c **** /**
   2:Drivers/STM32F4xx_HAL_Driver/Src/stm32f4xx_hal_rtc_ex.c ****   ******************************************************************************
   3:Drivers/STM32F4xx_HAL_Driver/Src/stm32f4xx_hal_rtc_ex.c ****   * @file    stm32f4xx_hal_rtc_ex.c
   4:Drivers/STM32F4xx_HAL_Driver/Src/stm32f4xx_hal_rtc_ex.c ****   * @author  MCD Application Team
   5:Drivers/STM32F4xx_HAL_Driver/Src/stm32f4xx_hal_rtc_ex.c ****   * @brief   Extended RTC HAL module driver.
   6:Drivers/STM32F4xx_HAL_Driver/Src/stm32f4xx_hal_rtc_ex.c ****   *          This file provides firmware functions to manage the following
   7:Drivers/STM32F4xx_HAL_Driver/Src/stm32f4xx_hal_rtc_ex.c ****   *          functionalities of the Real-Time Clock (RTC) Extended peripheral:
   8:Drivers/STM32F4xx_HAL_Driver/Src/stm32f4xx_hal_rtc_ex.c ****   *           + RTC Timestamp functions
   9:Drivers/STM32F4xx_HAL_Driver/Src/stm32f4xx_hal_rtc_ex.c ****   *           + RTC Tamper functions
  10:Drivers/STM32F4xx_HAL_Driver/Src/stm32f4xx_hal_rtc_ex.c ****   *           + RTC Wakeup functions
  11:Drivers/STM32F4xx_HAL_Driver/Src/stm32f4xx_hal_rtc_ex.c ****   *           + Extended Control functions
  12:Drivers/STM32F4xx_HAL_Driver/Src/stm32f4xx_hal_rtc_ex.c ****   *           + Extended RTC features functions
  13:Drivers/STM32F4xx_HAL_Driver/Src/stm32f4xx_hal_rtc_ex.c ****   *
  14:Drivers/STM32F4xx_HAL_Driver/Src/stm32f4xx_hal_rtc_ex.c ****   ******************************************************************************
  15:Drivers/STM32F4xx_HAL_Driver/Src/stm32f4xx_hal_rtc_ex.c ****   * @attention
  16:Drivers/STM32F4xx_HAL_Driver/Src/stm32f4xx_hal_rtc_ex.c ****   *
  17:Drivers/STM32F4xx_HAL_Driver/Src/stm32f4xx_hal_rtc_ex.c ****   * Copyright (c) 2017 STMicroelectronics.
  18:Drivers/STM32F4xx_HAL_Driver/Src/stm32f4xx_hal_rtc_ex.c ****   * All rights reserved.
  19:Drivers/STM32F4xx_HAL_Driver/Src/stm32f4xx_hal_rtc_ex.c ****   *
  20:Drivers/STM32F4xx_HAL_Driver/Src/stm32f4xx_hal_rtc_ex.c ****   * This software is licensed under terms that can be found in the LICENSE file
  21:Drivers/STM32F4xx_HAL_Driver/Src/stm32f4xx_hal_rtc_ex.c ****   * in the root directory of this software component.
  22:Drivers/STM32F4xx_HAL_Driver/Src/stm32f4xx_hal_rtc_ex.c ****   * If no LICENSE file comes with this software, it is provided AS-IS.
  23:Drivers/STM32F4xx_HAL_Driver/Src/stm32f4xx_hal_rtc_ex.c ****   *
  24:Drivers/STM32F4xx_HAL_Driver/Src/stm32f4xx_hal_rtc_ex.c ****   ******************************************************************************
  25:Drivers/STM32F4xx_HAL_Driver/Src/stm32f4xx_hal_rtc_ex.c ****   @verbatim
  26:Drivers/STM32F4xx_HAL_Driver/Src/stm32f4xx_hal_rtc_ex.c ****   ==============================================================================
  27:Drivers/STM32F4xx_HAL_Driver/Src/stm32f4xx_hal_rtc_ex.c ****                         ##### How to use this driver #####
  28:Drivers/STM32F4xx_HAL_Driver/Src/stm32f4xx_hal_rtc_ex.c ****   ==============================================================================
  29:Drivers/STM32F4xx_HAL_Driver/Src/stm32f4xx_hal_rtc_ex.c ****   [..]
ARM GAS  C:\Users\ADMINI~1\AppData\Local\Temp\ccahqaTu.s 			page 2


  30:Drivers/STM32F4xx_HAL_Driver/Src/stm32f4xx_hal_rtc_ex.c ****     (+) Enable the RTC domain access.
  31:Drivers/STM32F4xx_HAL_Driver/Src/stm32f4xx_hal_rtc_ex.c ****     (+) Configure the RTC Prescaler (Asynchronous and Synchronous) and RTC hour
  32:Drivers/STM32F4xx_HAL_Driver/Src/stm32f4xx_hal_rtc_ex.c ****         format using the HAL_RTC_Init() function.
  33:Drivers/STM32F4xx_HAL_Driver/Src/stm32f4xx_hal_rtc_ex.c **** 
  34:Drivers/STM32F4xx_HAL_Driver/Src/stm32f4xx_hal_rtc_ex.c ****   *** RTC Wakeup configuration ***
  35:Drivers/STM32F4xx_HAL_Driver/Src/stm32f4xx_hal_rtc_ex.c ****   ================================
  36:Drivers/STM32F4xx_HAL_Driver/Src/stm32f4xx_hal_rtc_ex.c ****   [..]
  37:Drivers/STM32F4xx_HAL_Driver/Src/stm32f4xx_hal_rtc_ex.c ****     (+) To configure the RTC Wakeup Clock source and Counter use the
  38:Drivers/STM32F4xx_HAL_Driver/Src/stm32f4xx_hal_rtc_ex.c ****         HAL_RTCEx_SetWakeUpTimer() function.
  39:Drivers/STM32F4xx_HAL_Driver/Src/stm32f4xx_hal_rtc_ex.c ****         You can also configure the RTC Wakeup timer in interrupt mode using the
  40:Drivers/STM32F4xx_HAL_Driver/Src/stm32f4xx_hal_rtc_ex.c ****         HAL_RTCEx_SetWakeUpTimer_IT() function.
  41:Drivers/STM32F4xx_HAL_Driver/Src/stm32f4xx_hal_rtc_ex.c ****     (+) To read the RTC Wakeup Counter register, use the HAL_RTCEx_GetWakeUpTimer()
  42:Drivers/STM32F4xx_HAL_Driver/Src/stm32f4xx_hal_rtc_ex.c ****         function.
  43:Drivers/STM32F4xx_HAL_Driver/Src/stm32f4xx_hal_rtc_ex.c **** 
  44:Drivers/STM32F4xx_HAL_Driver/Src/stm32f4xx_hal_rtc_ex.c ****   *** Timestamp configuration ***
  45:Drivers/STM32F4xx_HAL_Driver/Src/stm32f4xx_hal_rtc_ex.c ****   ===============================
  46:Drivers/STM32F4xx_HAL_Driver/Src/stm32f4xx_hal_rtc_ex.c ****   [..]
  47:Drivers/STM32F4xx_HAL_Driver/Src/stm32f4xx_hal_rtc_ex.c ****     (+) To configure the RTC Timestamp use the HAL_RTCEx_SetTimeStamp() function.
  48:Drivers/STM32F4xx_HAL_Driver/Src/stm32f4xx_hal_rtc_ex.c ****         You can also configure the RTC Timestamp with interrupt mode using the
  49:Drivers/STM32F4xx_HAL_Driver/Src/stm32f4xx_hal_rtc_ex.c ****         HAL_RTCEx_SetTimeStamp_IT() function.
  50:Drivers/STM32F4xx_HAL_Driver/Src/stm32f4xx_hal_rtc_ex.c ****     (+) To read the RTC Timestamp Time and Date register, use the
  51:Drivers/STM32F4xx_HAL_Driver/Src/stm32f4xx_hal_rtc_ex.c ****         HAL_RTCEx_GetTimeStamp() function.
  52:Drivers/STM32F4xx_HAL_Driver/Src/stm32f4xx_hal_rtc_ex.c ****     (+) The Timestamp alternate function can be mapped either to RTC_AF1 (PC13)
  53:Drivers/STM32F4xx_HAL_Driver/Src/stm32f4xx_hal_rtc_ex.c ****         or RTC_AF2 (PI8) depending on the value of TSINSEL bit in RTC_TAFCR
  54:Drivers/STM32F4xx_HAL_Driver/Src/stm32f4xx_hal_rtc_ex.c ****         register.
  55:Drivers/STM32F4xx_HAL_Driver/Src/stm32f4xx_hal_rtc_ex.c ****         For STM32F446xx devices RTC_AF2 corresponds to pin PA0 and not to pin PI8.
  56:Drivers/STM32F4xx_HAL_Driver/Src/stm32f4xx_hal_rtc_ex.c ****         The corresponding pin is also selected by HAL_RTCEx_SetTimeStamp()
  57:Drivers/STM32F4xx_HAL_Driver/Src/stm32f4xx_hal_rtc_ex.c ****         or HAL_RTCEx_SetTimeStamp_IT() functions.
  58:Drivers/STM32F4xx_HAL_Driver/Src/stm32f4xx_hal_rtc_ex.c **** 
  59:Drivers/STM32F4xx_HAL_Driver/Src/stm32f4xx_hal_rtc_ex.c ****   *** Tamper configuration ***
  60:Drivers/STM32F4xx_HAL_Driver/Src/stm32f4xx_hal_rtc_ex.c ****   ============================
  61:Drivers/STM32F4xx_HAL_Driver/Src/stm32f4xx_hal_rtc_ex.c ****   [..]
  62:Drivers/STM32F4xx_HAL_Driver/Src/stm32f4xx_hal_rtc_ex.c ****     (+) To Enable the RTC Tamper and configure the Tamper filter count, trigger
  63:Drivers/STM32F4xx_HAL_Driver/Src/stm32f4xx_hal_rtc_ex.c ****         Edge or Level according to the Tamper filter value (if equal to 0 Edge
  64:Drivers/STM32F4xx_HAL_Driver/Src/stm32f4xx_hal_rtc_ex.c ****         else Level), sampling frequency, precharge or discharge and Pull-UP use
  65:Drivers/STM32F4xx_HAL_Driver/Src/stm32f4xx_hal_rtc_ex.c ****         the HAL_RTCEx_SetTamper() function.
  66:Drivers/STM32F4xx_HAL_Driver/Src/stm32f4xx_hal_rtc_ex.c ****         You can configure RTC Tamper in interrupt mode using HAL_RTCEx_SetTamper_IT()
  67:Drivers/STM32F4xx_HAL_Driver/Src/stm32f4xx_hal_rtc_ex.c ****         function.
  68:Drivers/STM32F4xx_HAL_Driver/Src/stm32f4xx_hal_rtc_ex.c ****     (+) The TAMPER1 alternate function can be mapped either to RTC_AF1 (PC13)
  69:Drivers/STM32F4xx_HAL_Driver/Src/stm32f4xx_hal_rtc_ex.c ****         or RTC_AF2 (PI8) depending on the value of TAMP1INSEL bit in RTC_TAFCR
  70:Drivers/STM32F4xx_HAL_Driver/Src/stm32f4xx_hal_rtc_ex.c ****         register.
  71:Drivers/STM32F4xx_HAL_Driver/Src/stm32f4xx_hal_rtc_ex.c ****         The corresponding pin is also selected by HAL_RTCEx_SetTamper()
  72:Drivers/STM32F4xx_HAL_Driver/Src/stm32f4xx_hal_rtc_ex.c ****         or HAL_RTCEx_SetTamper_IT() functions.
  73:Drivers/STM32F4xx_HAL_Driver/Src/stm32f4xx_hal_rtc_ex.c ****     (+) The TAMPER2 alternate function is mapped to RTC_AF2 (PI8).
  74:Drivers/STM32F4xx_HAL_Driver/Src/stm32f4xx_hal_rtc_ex.c ****         For STM32F446xx devices RTC_AF2 corresponds to pin PA0 and not to pin PI8.
  75:Drivers/STM32F4xx_HAL_Driver/Src/stm32f4xx_hal_rtc_ex.c **** 
  76:Drivers/STM32F4xx_HAL_Driver/Src/stm32f4xx_hal_rtc_ex.c ****   *** Backup Data Registers configuration ***
  77:Drivers/STM32F4xx_HAL_Driver/Src/stm32f4xx_hal_rtc_ex.c ****   ===========================================
  78:Drivers/STM32F4xx_HAL_Driver/Src/stm32f4xx_hal_rtc_ex.c ****   [..]
  79:Drivers/STM32F4xx_HAL_Driver/Src/stm32f4xx_hal_rtc_ex.c ****     (+) To write to the RTC Backup Data registers, use the HAL_RTCEx_BKUPWrite()
  80:Drivers/STM32F4xx_HAL_Driver/Src/stm32f4xx_hal_rtc_ex.c ****         function.
  81:Drivers/STM32F4xx_HAL_Driver/Src/stm32f4xx_hal_rtc_ex.c ****     (+) To read the RTC Backup Data registers, use the HAL_RTCEx_BKUPRead()
  82:Drivers/STM32F4xx_HAL_Driver/Src/stm32f4xx_hal_rtc_ex.c ****         function.
  83:Drivers/STM32F4xx_HAL_Driver/Src/stm32f4xx_hal_rtc_ex.c **** 
  84:Drivers/STM32F4xx_HAL_Driver/Src/stm32f4xx_hal_rtc_ex.c ****   *** Coarse Digital Calibration configuration ***
  85:Drivers/STM32F4xx_HAL_Driver/Src/stm32f4xx_hal_rtc_ex.c ****   ================================================
  86:Drivers/STM32F4xx_HAL_Driver/Src/stm32f4xx_hal_rtc_ex.c ****   [..]
ARM GAS  C:\Users\ADMINI~1\AppData\Local\Temp\ccahqaTu.s 			page 3


  87:Drivers/STM32F4xx_HAL_Driver/Src/stm32f4xx_hal_rtc_ex.c ****     (+) The Coarse Digital Calibration can be used to compensate crystal inaccuracy
  88:Drivers/STM32F4xx_HAL_Driver/Src/stm32f4xx_hal_rtc_ex.c ****         by setting the DCS bit in RTC_CALIBR register.
  89:Drivers/STM32F4xx_HAL_Driver/Src/stm32f4xx_hal_rtc_ex.c ****     (+) When positive calibration is enabled (DCS = ‘0’), 2 asynchronous prescaler
  90:Drivers/STM32F4xx_HAL_Driver/Src/stm32f4xx_hal_rtc_ex.c ****         clock cycles are added every minute during 2xDC minutes.
  91:Drivers/STM32F4xx_HAL_Driver/Src/stm32f4xx_hal_rtc_ex.c ****         This causes the calendar to be updated sooner, thereby adjusting the
  92:Drivers/STM32F4xx_HAL_Driver/Src/stm32f4xx_hal_rtc_ex.c ****         effective RTC frequency to be a bit higher.
  93:Drivers/STM32F4xx_HAL_Driver/Src/stm32f4xx_hal_rtc_ex.c ****     (+) When negative calibration is enabled (DCS = ‘1’), 1 asynchronous prescaler
  94:Drivers/STM32F4xx_HAL_Driver/Src/stm32f4xx_hal_rtc_ex.c ****         clock cycle is removed every minute during 2xDC minutes.
  95:Drivers/STM32F4xx_HAL_Driver/Src/stm32f4xx_hal_rtc_ex.c ****         This causes the calendar to be updated later, thereby adjusting the
  96:Drivers/STM32F4xx_HAL_Driver/Src/stm32f4xx_hal_rtc_ex.c ****         effective RTC frequency to be a bit lower.
  97:Drivers/STM32F4xx_HAL_Driver/Src/stm32f4xx_hal_rtc_ex.c ****     (+) DC is configured through bits DC[4:0] of RTC_CALIBR register. This number
  98:Drivers/STM32F4xx_HAL_Driver/Src/stm32f4xx_hal_rtc_ex.c ****         ranges from 0 to 31 corresponding to a time interval (2xDC) ranging from
  99:Drivers/STM32F4xx_HAL_Driver/Src/stm32f4xx_hal_rtc_ex.c ****         0 to 62.
 100:Drivers/STM32F4xx_HAL_Driver/Src/stm32f4xx_hal_rtc_ex.c ****     (+) In order to measure the clock deviation, a 512 Hz clock is output for
 101:Drivers/STM32F4xx_HAL_Driver/Src/stm32f4xx_hal_rtc_ex.c ****         calibration.
 102:Drivers/STM32F4xx_HAL_Driver/Src/stm32f4xx_hal_rtc_ex.c ****     (+) The RTC Coarse Digital Calibration value and sign can be calibrated using
 103:Drivers/STM32F4xx_HAL_Driver/Src/stm32f4xx_hal_rtc_ex.c ****         the HAL_RTCEx_SetCoarseCalib() function.
 104:Drivers/STM32F4xx_HAL_Driver/Src/stm32f4xx_hal_rtc_ex.c **** 
 105:Drivers/STM32F4xx_HAL_Driver/Src/stm32f4xx_hal_rtc_ex.c ****   *** Smooth Digital Calibration configuration ***
 106:Drivers/STM32F4xx_HAL_Driver/Src/stm32f4xx_hal_rtc_ex.c ****   ================================================
 107:Drivers/STM32F4xx_HAL_Driver/Src/stm32f4xx_hal_rtc_ex.c ****   [..]
 108:Drivers/STM32F4xx_HAL_Driver/Src/stm32f4xx_hal_rtc_ex.c ****     (+) RTC frequency can be digitally calibrated with a resolution of about
 109:Drivers/STM32F4xx_HAL_Driver/Src/stm32f4xx_hal_rtc_ex.c ****         0.954 ppm with a range from -487.1 ppm to +488.5 ppm.
 110:Drivers/STM32F4xx_HAL_Driver/Src/stm32f4xx_hal_rtc_ex.c ****         The correction of the frequency is performed using a series of small
 111:Drivers/STM32F4xx_HAL_Driver/Src/stm32f4xx_hal_rtc_ex.c ****         adjustments (adding and/or subtracting individual RTCCLK pulses).
 112:Drivers/STM32F4xx_HAL_Driver/Src/stm32f4xx_hal_rtc_ex.c ****     (+) The smooth digital calibration is performed during a cycle of about 2^20
 113:Drivers/STM32F4xx_HAL_Driver/Src/stm32f4xx_hal_rtc_ex.c ****         RTCCLK pulses (or 32 seconds) when the input frequency is 32,768 Hz.
 114:Drivers/STM32F4xx_HAL_Driver/Src/stm32f4xx_hal_rtc_ex.c ****         This cycle is maintained by a 20-bit counter clocked by RTCCLK.
 115:Drivers/STM32F4xx_HAL_Driver/Src/stm32f4xx_hal_rtc_ex.c ****     (+) The smooth calibration register (RTC_CALR) specifies the number of RTCCLK
 116:Drivers/STM32F4xx_HAL_Driver/Src/stm32f4xx_hal_rtc_ex.c ****         clock cycles to be masked during the 32-second cycle.
 117:Drivers/STM32F4xx_HAL_Driver/Src/stm32f4xx_hal_rtc_ex.c ****     (+) The RTC Smooth Digital Calibration value and the corresponding calibration
 118:Drivers/STM32F4xx_HAL_Driver/Src/stm32f4xx_hal_rtc_ex.c ****         cycle period (32s, 16s, or 8s) can be calibrated using the
 119:Drivers/STM32F4xx_HAL_Driver/Src/stm32f4xx_hal_rtc_ex.c ****         HAL_RTCEx_SetSmoothCalib() function.
 120:Drivers/STM32F4xx_HAL_Driver/Src/stm32f4xx_hal_rtc_ex.c **** 
 121:Drivers/STM32F4xx_HAL_Driver/Src/stm32f4xx_hal_rtc_ex.c ****   @endverbatim
 122:Drivers/STM32F4xx_HAL_Driver/Src/stm32f4xx_hal_rtc_ex.c ****   ******************************************************************************
 123:Drivers/STM32F4xx_HAL_Driver/Src/stm32f4xx_hal_rtc_ex.c ****   */
 124:Drivers/STM32F4xx_HAL_Driver/Src/stm32f4xx_hal_rtc_ex.c **** 
 125:Drivers/STM32F4xx_HAL_Driver/Src/stm32f4xx_hal_rtc_ex.c **** /* Includes ------------------------------------------------------------------*/
 126:Drivers/STM32F4xx_HAL_Driver/Src/stm32f4xx_hal_rtc_ex.c **** #include "stm32f4xx_hal.h"
 127:Drivers/STM32F4xx_HAL_Driver/Src/stm32f4xx_hal_rtc_ex.c **** 
 128:Drivers/STM32F4xx_HAL_Driver/Src/stm32f4xx_hal_rtc_ex.c **** /** @addtogroup STM32F4xx_HAL_Driver
 129:Drivers/STM32F4xx_HAL_Driver/Src/stm32f4xx_hal_rtc_ex.c ****   * @{
 130:Drivers/STM32F4xx_HAL_Driver/Src/stm32f4xx_hal_rtc_ex.c ****   */
 131:Drivers/STM32F4xx_HAL_Driver/Src/stm32f4xx_hal_rtc_ex.c **** 
 132:Drivers/STM32F4xx_HAL_Driver/Src/stm32f4xx_hal_rtc_ex.c **** /** @defgroup RTCEx RTCEx
 133:Drivers/STM32F4xx_HAL_Driver/Src/stm32f4xx_hal_rtc_ex.c ****   * @brief    RTC Extended HAL module driver
 134:Drivers/STM32F4xx_HAL_Driver/Src/stm32f4xx_hal_rtc_ex.c ****   * @{
 135:Drivers/STM32F4xx_HAL_Driver/Src/stm32f4xx_hal_rtc_ex.c ****   */
 136:Drivers/STM32F4xx_HAL_Driver/Src/stm32f4xx_hal_rtc_ex.c **** 
 137:Drivers/STM32F4xx_HAL_Driver/Src/stm32f4xx_hal_rtc_ex.c **** #ifdef HAL_RTC_MODULE_ENABLED
 138:Drivers/STM32F4xx_HAL_Driver/Src/stm32f4xx_hal_rtc_ex.c **** 
 139:Drivers/STM32F4xx_HAL_Driver/Src/stm32f4xx_hal_rtc_ex.c **** /* Private typedef -----------------------------------------------------------*/
 140:Drivers/STM32F4xx_HAL_Driver/Src/stm32f4xx_hal_rtc_ex.c **** /* Private define ------------------------------------------------------------*/
 141:Drivers/STM32F4xx_HAL_Driver/Src/stm32f4xx_hal_rtc_ex.c **** /* Private macro -------------------------------------------------------------*/
 142:Drivers/STM32F4xx_HAL_Driver/Src/stm32f4xx_hal_rtc_ex.c **** /* Private variables ---------------------------------------------------------*/
 143:Drivers/STM32F4xx_HAL_Driver/Src/stm32f4xx_hal_rtc_ex.c **** /* Private function prototypes -----------------------------------------------*/
ARM GAS  C:\Users\ADMINI~1\AppData\Local\Temp\ccahqaTu.s 			page 4


 144:Drivers/STM32F4xx_HAL_Driver/Src/stm32f4xx_hal_rtc_ex.c **** /* Exported functions --------------------------------------------------------*/
 145:Drivers/STM32F4xx_HAL_Driver/Src/stm32f4xx_hal_rtc_ex.c **** 
 146:Drivers/STM32F4xx_HAL_Driver/Src/stm32f4xx_hal_rtc_ex.c **** /** @defgroup RTCEx_Exported_Functions RTCEx Exported Functions
 147:Drivers/STM32F4xx_HAL_Driver/Src/stm32f4xx_hal_rtc_ex.c ****   * @{
 148:Drivers/STM32F4xx_HAL_Driver/Src/stm32f4xx_hal_rtc_ex.c ****   */
 149:Drivers/STM32F4xx_HAL_Driver/Src/stm32f4xx_hal_rtc_ex.c **** 
 150:Drivers/STM32F4xx_HAL_Driver/Src/stm32f4xx_hal_rtc_ex.c **** /** @defgroup RTCEx_Exported_Functions_Group1 RTC Timestamp and Tamper functions
 151:Drivers/STM32F4xx_HAL_Driver/Src/stm32f4xx_hal_rtc_ex.c ****   * @brief    RTC Timestamp and Tamper functions
 152:Drivers/STM32F4xx_HAL_Driver/Src/stm32f4xx_hal_rtc_ex.c ****   *
 153:Drivers/STM32F4xx_HAL_Driver/Src/stm32f4xx_hal_rtc_ex.c **** @verbatim
 154:Drivers/STM32F4xx_HAL_Driver/Src/stm32f4xx_hal_rtc_ex.c ****  ===============================================================================
 155:Drivers/STM32F4xx_HAL_Driver/Src/stm32f4xx_hal_rtc_ex.c ****                  ##### RTC Timestamp and Tamper functions #####
 156:Drivers/STM32F4xx_HAL_Driver/Src/stm32f4xx_hal_rtc_ex.c ****  ===============================================================================
 157:Drivers/STM32F4xx_HAL_Driver/Src/stm32f4xx_hal_rtc_ex.c **** 
 158:Drivers/STM32F4xx_HAL_Driver/Src/stm32f4xx_hal_rtc_ex.c ****  [..] This section provides functions allowing to configure Timestamp feature
 159:Drivers/STM32F4xx_HAL_Driver/Src/stm32f4xx_hal_rtc_ex.c **** 
 160:Drivers/STM32F4xx_HAL_Driver/Src/stm32f4xx_hal_rtc_ex.c **** @endverbatim
 161:Drivers/STM32F4xx_HAL_Driver/Src/stm32f4xx_hal_rtc_ex.c ****   * @{
 162:Drivers/STM32F4xx_HAL_Driver/Src/stm32f4xx_hal_rtc_ex.c ****   */
 163:Drivers/STM32F4xx_HAL_Driver/Src/stm32f4xx_hal_rtc_ex.c **** 
 164:Drivers/STM32F4xx_HAL_Driver/Src/stm32f4xx_hal_rtc_ex.c **** /**
 165:Drivers/STM32F4xx_HAL_Driver/Src/stm32f4xx_hal_rtc_ex.c ****   * @brief  Sets Timestamp.
 166:Drivers/STM32F4xx_HAL_Driver/Src/stm32f4xx_hal_rtc_ex.c ****   * @note   This API must be called before enabling the Timestamp feature.
 167:Drivers/STM32F4xx_HAL_Driver/Src/stm32f4xx_hal_rtc_ex.c ****   * @param  hrtc pointer to a RTC_HandleTypeDef structure that contains
 168:Drivers/STM32F4xx_HAL_Driver/Src/stm32f4xx_hal_rtc_ex.c ****   *                the configuration information for RTC.
 169:Drivers/STM32F4xx_HAL_Driver/Src/stm32f4xx_hal_rtc_ex.c ****   * @param  RTC_TimeStampEdge Specifies the pin edge on which the Timestamp is
 170:Drivers/STM32F4xx_HAL_Driver/Src/stm32f4xx_hal_rtc_ex.c ****   *         activated.
 171:Drivers/STM32F4xx_HAL_Driver/Src/stm32f4xx_hal_rtc_ex.c ****   *          This parameter can be one of the following values:
 172:Drivers/STM32F4xx_HAL_Driver/Src/stm32f4xx_hal_rtc_ex.c ****   *             @arg RTC_TIMESTAMPEDGE_RISING: the Timestamp event occurs on
 173:Drivers/STM32F4xx_HAL_Driver/Src/stm32f4xx_hal_rtc_ex.c ****   *                                        the rising edge of the related pin.
 174:Drivers/STM32F4xx_HAL_Driver/Src/stm32f4xx_hal_rtc_ex.c ****   *             @arg RTC_TIMESTAMPEDGE_FALLING: the Timestamp event occurs on
 175:Drivers/STM32F4xx_HAL_Driver/Src/stm32f4xx_hal_rtc_ex.c ****   *                                        the falling edge of the related pin.
 176:Drivers/STM32F4xx_HAL_Driver/Src/stm32f4xx_hal_rtc_ex.c ****   * @param  RTC_TimeStampPin Specifies the RTC Timestamp Pin.
 177:Drivers/STM32F4xx_HAL_Driver/Src/stm32f4xx_hal_rtc_ex.c ****   *          This parameter can be one of the following values:
 178:Drivers/STM32F4xx_HAL_Driver/Src/stm32f4xx_hal_rtc_ex.c ****   *             @arg RTC_TIMESTAMPPIN_DEFAULT: PC13 is selected as RTC Timestamp Pin.
 179:Drivers/STM32F4xx_HAL_Driver/Src/stm32f4xx_hal_rtc_ex.c ****   *             @arg RTC_TIMESTAMPPIN_POS1: PI8 is selected as RTC Timestamp Pin.
 180:Drivers/STM32F4xx_HAL_Driver/Src/stm32f4xx_hal_rtc_ex.c ****   * @note RTC_TIMESTAMPPIN_POS1 corresponds to pin PA0 in the case of
 181:Drivers/STM32F4xx_HAL_Driver/Src/stm32f4xx_hal_rtc_ex.c ****   *       STM32F446xx devices.
 182:Drivers/STM32F4xx_HAL_Driver/Src/stm32f4xx_hal_rtc_ex.c ****   * @note RTC_TIMESTAMPPIN_POS1 is not applicable to the following list of devices:
 183:Drivers/STM32F4xx_HAL_Driver/Src/stm32f4xx_hal_rtc_ex.c ****   *       STM32F412xx, STM32F413xx and STM32F423xx.
 184:Drivers/STM32F4xx_HAL_Driver/Src/stm32f4xx_hal_rtc_ex.c ****   * @retval HAL status
 185:Drivers/STM32F4xx_HAL_Driver/Src/stm32f4xx_hal_rtc_ex.c ****   */
 186:Drivers/STM32F4xx_HAL_Driver/Src/stm32f4xx_hal_rtc_ex.c **** HAL_StatusTypeDef HAL_RTCEx_SetTimeStamp(RTC_HandleTypeDef *hrtc, uint32_t RTC_TimeStampEdge, uint3
 187:Drivers/STM32F4xx_HAL_Driver/Src/stm32f4xx_hal_rtc_ex.c **** {
  30              		.loc 1 187 1 view -0
  31              		.cfi_startproc
  32              		@ args = 0, pretend = 0, frame = 0
  33              		@ frame_needed = 0, uses_anonymous_args = 0
  34              		@ link register save eliminated.
  35              		.loc 1 187 1 is_stmt 0 view .LVU1
  36 0000 0346     		mov	r3, r0
 188:Drivers/STM32F4xx_HAL_Driver/Src/stm32f4xx_hal_rtc_ex.c ****   uint32_t tmpreg = 0U;
  37              		.loc 1 188 3 is_stmt 1 view .LVU2
  38              	.LVL1:
 189:Drivers/STM32F4xx_HAL_Driver/Src/stm32f4xx_hal_rtc_ex.c **** 
 190:Drivers/STM32F4xx_HAL_Driver/Src/stm32f4xx_hal_rtc_ex.c ****   /* Check the parameters */
 191:Drivers/STM32F4xx_HAL_Driver/Src/stm32f4xx_hal_rtc_ex.c ****   assert_param(IS_TIMESTAMP_EDGE(RTC_TimeStampEdge));
ARM GAS  C:\Users\ADMINI~1\AppData\Local\Temp\ccahqaTu.s 			page 5


  39              		.loc 1 191 3 view .LVU3
 192:Drivers/STM32F4xx_HAL_Driver/Src/stm32f4xx_hal_rtc_ex.c ****   assert_param(IS_RTC_TIMESTAMP_PIN(RTC_TimeStampPin));
  40              		.loc 1 192 3 view .LVU4
 193:Drivers/STM32F4xx_HAL_Driver/Src/stm32f4xx_hal_rtc_ex.c **** 
 194:Drivers/STM32F4xx_HAL_Driver/Src/stm32f4xx_hal_rtc_ex.c ****   /* Process Locked */
 195:Drivers/STM32F4xx_HAL_Driver/Src/stm32f4xx_hal_rtc_ex.c ****   __HAL_LOCK(hrtc);
  41              		.loc 1 195 3 view .LVU5
  42              		.loc 1 195 3 view .LVU6
  43 0002 007F     		ldrb	r0, [r0, #28]	@ zero_extendqisi2
  44              	.LVL2:
  45              		.loc 1 195 3 is_stmt 0 view .LVU7
  46 0004 0128     		cmp	r0, #1
  47 0006 34D0     		beq	.L3
 187:Drivers/STM32F4xx_HAL_Driver/Src/stm32f4xx_hal_rtc_ex.c ****   uint32_t tmpreg = 0U;
  48              		.loc 1 187 1 view .LVU8
  49 0008 30B4     		push	{r4, r5}
  50              	.LCFI0:
  51              		.cfi_def_cfa_offset 8
  52              		.cfi_offset 4, -8
  53              		.cfi_offset 5, -4
  54              		.loc 1 195 3 is_stmt 1 discriminator 2 view .LVU9
  55 000a 0120     		movs	r0, #1
  56 000c 1877     		strb	r0, [r3, #28]
  57              		.loc 1 195 3 discriminator 2 view .LVU10
 196:Drivers/STM32F4xx_HAL_Driver/Src/stm32f4xx_hal_rtc_ex.c **** 
 197:Drivers/STM32F4xx_HAL_Driver/Src/stm32f4xx_hal_rtc_ex.c ****   /* Change RTC state to BUSY */
 198:Drivers/STM32F4xx_HAL_Driver/Src/stm32f4xx_hal_rtc_ex.c ****   hrtc->State = HAL_RTC_STATE_BUSY;
  58              		.loc 1 198 3 view .LVU11
  59              		.loc 1 198 15 is_stmt 0 view .LVU12
  60 000e 0224     		movs	r4, #2
  61 0010 5C77     		strb	r4, [r3, #29]
 199:Drivers/STM32F4xx_HAL_Driver/Src/stm32f4xx_hal_rtc_ex.c **** 
 200:Drivers/STM32F4xx_HAL_Driver/Src/stm32f4xx_hal_rtc_ex.c ****   hrtc->Instance->TAFCR &= (uint32_t)~RTC_TAFCR_TSINSEL;
  62              		.loc 1 200 3 is_stmt 1 view .LVU13
  63              		.loc 1 200 7 is_stmt 0 view .LVU14
  64 0012 1D68     		ldr	r5, [r3]
  65              		.loc 1 200 17 view .LVU15
  66 0014 2C6C     		ldr	r4, [r5, #64]
  67              		.loc 1 200 25 view .LVU16
  68 0016 24F40034 		bic	r4, r4, #131072
  69 001a 2C64     		str	r4, [r5, #64]
 201:Drivers/STM32F4xx_HAL_Driver/Src/stm32f4xx_hal_rtc_ex.c ****   hrtc->Instance->TAFCR |= (uint32_t)(RTC_TimeStampPin);
  70              		.loc 1 201 3 is_stmt 1 view .LVU17
  71              		.loc 1 201 7 is_stmt 0 view .LVU18
  72 001c 1D68     		ldr	r5, [r3]
  73              		.loc 1 201 17 view .LVU19
  74 001e 2C6C     		ldr	r4, [r5, #64]
  75              		.loc 1 201 25 view .LVU20
  76 0020 2243     		orrs	r2, r2, r4
  77              	.LVL3:
  78              		.loc 1 201 25 view .LVU21
  79 0022 2A64     		str	r2, [r5, #64]
 202:Drivers/STM32F4xx_HAL_Driver/Src/stm32f4xx_hal_rtc_ex.c **** 
 203:Drivers/STM32F4xx_HAL_Driver/Src/stm32f4xx_hal_rtc_ex.c ****   /* Get the RTC_CR register and clear the bits to be configured */
 204:Drivers/STM32F4xx_HAL_Driver/Src/stm32f4xx_hal_rtc_ex.c ****   tmpreg = (uint32_t)(hrtc->Instance->CR & (uint32_t)~(RTC_CR_TSEDGE | RTC_CR_TSE));
  80              		.loc 1 204 3 is_stmt 1 view .LVU22
  81              		.loc 1 204 27 is_stmt 0 view .LVU23
ARM GAS  C:\Users\ADMINI~1\AppData\Local\Temp\ccahqaTu.s 			page 6


  82 0024 1C68     		ldr	r4, [r3]
  83              		.loc 1 204 37 view .LVU24
  84 0026 A268     		ldr	r2, [r4, #8]
  85              		.loc 1 204 10 view .LVU25
  86 0028 22F40062 		bic	r2, r2, #2048
  87 002c 22F00802 		bic	r2, r2, #8
  88              	.LVL4:
 205:Drivers/STM32F4xx_HAL_Driver/Src/stm32f4xx_hal_rtc_ex.c **** 
 206:Drivers/STM32F4xx_HAL_Driver/Src/stm32f4xx_hal_rtc_ex.c ****   /* Configure the Timestamp TSEDGE bit */
 207:Drivers/STM32F4xx_HAL_Driver/Src/stm32f4xx_hal_rtc_ex.c ****   tmpreg |= RTC_TimeStampEdge;
  89              		.loc 1 207 3 is_stmt 1 view .LVU26
  90              		.loc 1 207 10 is_stmt 0 view .LVU27
  91 0030 0A43     		orrs	r2, r2, r1
  92              	.LVL5:
 208:Drivers/STM32F4xx_HAL_Driver/Src/stm32f4xx_hal_rtc_ex.c **** 
 209:Drivers/STM32F4xx_HAL_Driver/Src/stm32f4xx_hal_rtc_ex.c ****   /* Disable the write protection for RTC registers */
 210:Drivers/STM32F4xx_HAL_Driver/Src/stm32f4xx_hal_rtc_ex.c ****   __HAL_RTC_WRITEPROTECTION_DISABLE(hrtc);
  93              		.loc 1 210 3 is_stmt 1 view .LVU28
  94              		.loc 1 210 3 view .LVU29
  95 0032 CA21     		movs	r1, #202
  96              	.LVL6:
  97              		.loc 1 210 3 is_stmt 0 view .LVU30
  98 0034 6162     		str	r1, [r4, #36]
  99              		.loc 1 210 3 is_stmt 1 view .LVU31
 100 0036 1968     		ldr	r1, [r3]
 101 0038 5324     		movs	r4, #83
 102 003a 4C62     		str	r4, [r1, #36]
 103              		.loc 1 210 3 view .LVU32
 211:Drivers/STM32F4xx_HAL_Driver/Src/stm32f4xx_hal_rtc_ex.c **** 
 212:Drivers/STM32F4xx_HAL_Driver/Src/stm32f4xx_hal_rtc_ex.c ****   /* Copy the desired configuration into the CR register */
 213:Drivers/STM32F4xx_HAL_Driver/Src/stm32f4xx_hal_rtc_ex.c ****   hrtc->Instance->CR = (uint32_t)tmpreg;
 104              		.loc 1 213 3 view .LVU33
 105              		.loc 1 213 7 is_stmt 0 view .LVU34
 106 003c 1968     		ldr	r1, [r3]
 107              		.loc 1 213 22 view .LVU35
 108 003e 8A60     		str	r2, [r1, #8]
 214:Drivers/STM32F4xx_HAL_Driver/Src/stm32f4xx_hal_rtc_ex.c **** 
 215:Drivers/STM32F4xx_HAL_Driver/Src/stm32f4xx_hal_rtc_ex.c ****   /* Clear RTC Timestamp flag */
 216:Drivers/STM32F4xx_HAL_Driver/Src/stm32f4xx_hal_rtc_ex.c ****   __HAL_RTC_TIMESTAMP_CLEAR_FLAG(hrtc, RTC_FLAG_TSF);
 109              		.loc 1 216 3 is_stmt 1 view .LVU36
 110 0040 1968     		ldr	r1, [r3]
 111 0042 CA68     		ldr	r2, [r1, #12]
 112              	.LVL7:
 113              		.loc 1 216 3 is_stmt 0 view .LVU37
 114 0044 D2B2     		uxtb	r2, r2
 115 0046 62F40862 		orn	r2, r2, #2176
 116 004a CA60     		str	r2, [r1, #12]
 217:Drivers/STM32F4xx_HAL_Driver/Src/stm32f4xx_hal_rtc_ex.c **** 
 218:Drivers/STM32F4xx_HAL_Driver/Src/stm32f4xx_hal_rtc_ex.c ****   /* Clear RTC Timestamp overrun Flag */
 219:Drivers/STM32F4xx_HAL_Driver/Src/stm32f4xx_hal_rtc_ex.c ****   __HAL_RTC_TIMESTAMP_CLEAR_FLAG(hrtc, RTC_FLAG_TSOVF);
 117              		.loc 1 219 3 is_stmt 1 view .LVU38
 118 004c 1968     		ldr	r1, [r3]
 119 004e CA68     		ldr	r2, [r1, #12]
 120 0050 D2B2     		uxtb	r2, r2
 121 0052 62F48452 		orn	r2, r2, #4224
 122 0056 CA60     		str	r2, [r1, #12]
 220:Drivers/STM32F4xx_HAL_Driver/Src/stm32f4xx_hal_rtc_ex.c **** 
ARM GAS  C:\Users\ADMINI~1\AppData\Local\Temp\ccahqaTu.s 			page 7


 221:Drivers/STM32F4xx_HAL_Driver/Src/stm32f4xx_hal_rtc_ex.c ****   /* Enable the Timestamp saving */
 222:Drivers/STM32F4xx_HAL_Driver/Src/stm32f4xx_hal_rtc_ex.c ****   __HAL_RTC_TIMESTAMP_ENABLE(hrtc);
 123              		.loc 1 222 3 view .LVU39
 124 0058 1968     		ldr	r1, [r3]
 125 005a 8A68     		ldr	r2, [r1, #8]
 126 005c 42F40062 		orr	r2, r2, #2048
 127 0060 8A60     		str	r2, [r1, #8]
 223:Drivers/STM32F4xx_HAL_Driver/Src/stm32f4xx_hal_rtc_ex.c **** 
 224:Drivers/STM32F4xx_HAL_Driver/Src/stm32f4xx_hal_rtc_ex.c ****   /* Enable the write protection for RTC registers */
 225:Drivers/STM32F4xx_HAL_Driver/Src/stm32f4xx_hal_rtc_ex.c ****   __HAL_RTC_WRITEPROTECTION_ENABLE(hrtc);
 128              		.loc 1 225 3 view .LVU40
 129              		.loc 1 225 3 view .LVU41
 130 0062 1A68     		ldr	r2, [r3]
 131 0064 FF21     		movs	r1, #255
 132 0066 5162     		str	r1, [r2, #36]
 133              		.loc 1 225 3 view .LVU42
 226:Drivers/STM32F4xx_HAL_Driver/Src/stm32f4xx_hal_rtc_ex.c **** 
 227:Drivers/STM32F4xx_HAL_Driver/Src/stm32f4xx_hal_rtc_ex.c ****   /* Change RTC state back to READY */
 228:Drivers/STM32F4xx_HAL_Driver/Src/stm32f4xx_hal_rtc_ex.c ****   hrtc->State = HAL_RTC_STATE_READY;
 134              		.loc 1 228 3 view .LVU43
 135              		.loc 1 228 15 is_stmt 0 view .LVU44
 136 0068 5877     		strb	r0, [r3, #29]
 229:Drivers/STM32F4xx_HAL_Driver/Src/stm32f4xx_hal_rtc_ex.c **** 
 230:Drivers/STM32F4xx_HAL_Driver/Src/stm32f4xx_hal_rtc_ex.c ****   /* Process Unlocked */
 231:Drivers/STM32F4xx_HAL_Driver/Src/stm32f4xx_hal_rtc_ex.c ****   __HAL_UNLOCK(hrtc);
 137              		.loc 1 231 3 is_stmt 1 view .LVU45
 138              		.loc 1 231 3 view .LVU46
 139 006a 0020     		movs	r0, #0
 140 006c 1877     		strb	r0, [r3, #28]
 141              		.loc 1 231 3 view .LVU47
 232:Drivers/STM32F4xx_HAL_Driver/Src/stm32f4xx_hal_rtc_ex.c **** 
 233:Drivers/STM32F4xx_HAL_Driver/Src/stm32f4xx_hal_rtc_ex.c ****   return HAL_OK;
 142              		.loc 1 233 3 view .LVU48
 234:Drivers/STM32F4xx_HAL_Driver/Src/stm32f4xx_hal_rtc_ex.c **** }
 143              		.loc 1 234 1 is_stmt 0 view .LVU49
 144 006e 30BC     		pop	{r4, r5}
 145              	.LCFI1:
 146              		.cfi_restore 5
 147              		.cfi_restore 4
 148              		.cfi_def_cfa_offset 0
 149 0070 7047     		bx	lr
 150              	.LVL8:
 151              	.L3:
 195:Drivers/STM32F4xx_HAL_Driver/Src/stm32f4xx_hal_rtc_ex.c **** 
 152              		.loc 1 195 3 discriminator 1 view .LVU50
 153 0072 0220     		movs	r0, #2
 154              		.loc 1 234 1 view .LVU51
 155 0074 7047     		bx	lr
 156              		.cfi_endproc
 157              	.LFE235:
 159              		.section	.text.HAL_RTCEx_SetTimeStamp_IT,"ax",%progbits
 160              		.align	1
 161              		.global	HAL_RTCEx_SetTimeStamp_IT
 162              		.syntax unified
 163              		.thumb
 164              		.thumb_func
 166              	HAL_RTCEx_SetTimeStamp_IT:
ARM GAS  C:\Users\ADMINI~1\AppData\Local\Temp\ccahqaTu.s 			page 8


 167              	.LVL9:
 168              	.LFB236:
 235:Drivers/STM32F4xx_HAL_Driver/Src/stm32f4xx_hal_rtc_ex.c **** 
 236:Drivers/STM32F4xx_HAL_Driver/Src/stm32f4xx_hal_rtc_ex.c **** /**
 237:Drivers/STM32F4xx_HAL_Driver/Src/stm32f4xx_hal_rtc_ex.c ****   * @brief  Sets Timestamp with Interrupt.
 238:Drivers/STM32F4xx_HAL_Driver/Src/stm32f4xx_hal_rtc_ex.c ****   * @param  hrtc pointer to a RTC_HandleTypeDef structure that contains
 239:Drivers/STM32F4xx_HAL_Driver/Src/stm32f4xx_hal_rtc_ex.c ****   *                the configuration information for RTC.
 240:Drivers/STM32F4xx_HAL_Driver/Src/stm32f4xx_hal_rtc_ex.c ****   * @note   This API must be called before enabling the Timestamp feature.
 241:Drivers/STM32F4xx_HAL_Driver/Src/stm32f4xx_hal_rtc_ex.c ****   * @param  RTC_TimeStampEdge Specifies the pin edge on which the Timestamp is
 242:Drivers/STM32F4xx_HAL_Driver/Src/stm32f4xx_hal_rtc_ex.c ****   *         activated.
 243:Drivers/STM32F4xx_HAL_Driver/Src/stm32f4xx_hal_rtc_ex.c ****   *          This parameter can be one of the following values:
 244:Drivers/STM32F4xx_HAL_Driver/Src/stm32f4xx_hal_rtc_ex.c ****   *             @arg RTC_TIMESTAMPEDGE_RISING: the Timestamp event occurs on
 245:Drivers/STM32F4xx_HAL_Driver/Src/stm32f4xx_hal_rtc_ex.c ****   *                                        the rising edge of the related pin.
 246:Drivers/STM32F4xx_HAL_Driver/Src/stm32f4xx_hal_rtc_ex.c ****   *             @arg RTC_TIMESTAMPEDGE_FALLING: the Timestamp event occurs on
 247:Drivers/STM32F4xx_HAL_Driver/Src/stm32f4xx_hal_rtc_ex.c ****   *                                        the falling edge of the related pin.
 248:Drivers/STM32F4xx_HAL_Driver/Src/stm32f4xx_hal_rtc_ex.c ****   * @param  RTC_TimeStampPin Specifies the RTC Timestamp Pin.
 249:Drivers/STM32F4xx_HAL_Driver/Src/stm32f4xx_hal_rtc_ex.c ****   *          This parameter can be one of the following values:
 250:Drivers/STM32F4xx_HAL_Driver/Src/stm32f4xx_hal_rtc_ex.c ****   *             @arg RTC_TIMESTAMPPIN_DEFAULT: PC13 is selected as RTC Timestamp Pin.
 251:Drivers/STM32F4xx_HAL_Driver/Src/stm32f4xx_hal_rtc_ex.c ****   *             @arg RTC_TIMESTAMPPIN_POS1: PI8 is selected as RTC Timestamp Pin.
 252:Drivers/STM32F4xx_HAL_Driver/Src/stm32f4xx_hal_rtc_ex.c ****   * @note RTC_TIMESTAMPPIN_POS1 corresponds to pin PA0 in the case of
 253:Drivers/STM32F4xx_HAL_Driver/Src/stm32f4xx_hal_rtc_ex.c ****   *       STM32F446xx devices.
 254:Drivers/STM32F4xx_HAL_Driver/Src/stm32f4xx_hal_rtc_ex.c ****   * @note RTC_TIMESTAMPPIN_POS1 is not applicable to the following list of devices:
 255:Drivers/STM32F4xx_HAL_Driver/Src/stm32f4xx_hal_rtc_ex.c ****   *       STM32F412xx, STM32F413xx and STM32F423xx.
 256:Drivers/STM32F4xx_HAL_Driver/Src/stm32f4xx_hal_rtc_ex.c ****   * @retval HAL status
 257:Drivers/STM32F4xx_HAL_Driver/Src/stm32f4xx_hal_rtc_ex.c ****   */
 258:Drivers/STM32F4xx_HAL_Driver/Src/stm32f4xx_hal_rtc_ex.c **** HAL_StatusTypeDef HAL_RTCEx_SetTimeStamp_IT(RTC_HandleTypeDef *hrtc, uint32_t RTC_TimeStampEdge, ui
 259:Drivers/STM32F4xx_HAL_Driver/Src/stm32f4xx_hal_rtc_ex.c **** {
 169              		.loc 1 259 1 is_stmt 1 view -0
 170              		.cfi_startproc
 171              		@ args = 0, pretend = 0, frame = 0
 172              		@ frame_needed = 0, uses_anonymous_args = 0
 173              		@ link register save eliminated.
 174              		.loc 1 259 1 is_stmt 0 view .LVU53
 175 0000 0346     		mov	r3, r0
 260:Drivers/STM32F4xx_HAL_Driver/Src/stm32f4xx_hal_rtc_ex.c ****   uint32_t tmpreg = 0U;
 176              		.loc 1 260 3 is_stmt 1 view .LVU54
 177              	.LVL10:
 261:Drivers/STM32F4xx_HAL_Driver/Src/stm32f4xx_hal_rtc_ex.c **** 
 262:Drivers/STM32F4xx_HAL_Driver/Src/stm32f4xx_hal_rtc_ex.c ****   /* Check the parameters */
 263:Drivers/STM32F4xx_HAL_Driver/Src/stm32f4xx_hal_rtc_ex.c ****   assert_param(IS_TIMESTAMP_EDGE(RTC_TimeStampEdge));
 178              		.loc 1 263 3 view .LVU55
 264:Drivers/STM32F4xx_HAL_Driver/Src/stm32f4xx_hal_rtc_ex.c ****   assert_param(IS_RTC_TIMESTAMP_PIN(RTC_TimeStampPin));
 179              		.loc 1 264 3 view .LVU56
 265:Drivers/STM32F4xx_HAL_Driver/Src/stm32f4xx_hal_rtc_ex.c **** 
 266:Drivers/STM32F4xx_HAL_Driver/Src/stm32f4xx_hal_rtc_ex.c ****   /* Process Locked */
 267:Drivers/STM32F4xx_HAL_Driver/Src/stm32f4xx_hal_rtc_ex.c ****   __HAL_LOCK(hrtc);
 180              		.loc 1 267 3 view .LVU57
 181              		.loc 1 267 3 view .LVU58
 182 0002 007F     		ldrb	r0, [r0, #28]	@ zero_extendqisi2
 183              	.LVL11:
 184              		.loc 1 267 3 is_stmt 0 view .LVU59
 185 0004 0128     		cmp	r0, #1
 186 0006 42D0     		beq	.L10
 259:Drivers/STM32F4xx_HAL_Driver/Src/stm32f4xx_hal_rtc_ex.c ****   uint32_t tmpreg = 0U;
 187              		.loc 1 259 1 view .LVU60
 188 0008 30B4     		push	{r4, r5}
 189              	.LCFI2:
ARM GAS  C:\Users\ADMINI~1\AppData\Local\Temp\ccahqaTu.s 			page 9


 190              		.cfi_def_cfa_offset 8
 191              		.cfi_offset 4, -8
 192              		.cfi_offset 5, -4
 193              		.loc 1 267 3 is_stmt 1 discriminator 2 view .LVU61
 194 000a 0120     		movs	r0, #1
 195 000c 1877     		strb	r0, [r3, #28]
 196              		.loc 1 267 3 discriminator 2 view .LVU62
 268:Drivers/STM32F4xx_HAL_Driver/Src/stm32f4xx_hal_rtc_ex.c **** 
 269:Drivers/STM32F4xx_HAL_Driver/Src/stm32f4xx_hal_rtc_ex.c ****   /* Change RTC state to BUSY */
 270:Drivers/STM32F4xx_HAL_Driver/Src/stm32f4xx_hal_rtc_ex.c ****   hrtc->State = HAL_RTC_STATE_BUSY;
 197              		.loc 1 270 3 view .LVU63
 198              		.loc 1 270 15 is_stmt 0 view .LVU64
 199 000e 0224     		movs	r4, #2
 200 0010 5C77     		strb	r4, [r3, #29]
 271:Drivers/STM32F4xx_HAL_Driver/Src/stm32f4xx_hal_rtc_ex.c **** 
 272:Drivers/STM32F4xx_HAL_Driver/Src/stm32f4xx_hal_rtc_ex.c ****   hrtc->Instance->TAFCR &= (uint32_t)~RTC_TAFCR_TSINSEL;
 201              		.loc 1 272 3 is_stmt 1 view .LVU65
 202              		.loc 1 272 7 is_stmt 0 view .LVU66
 203 0012 1D68     		ldr	r5, [r3]
 204              		.loc 1 272 17 view .LVU67
 205 0014 2C6C     		ldr	r4, [r5, #64]
 206              		.loc 1 272 25 view .LVU68
 207 0016 24F40034 		bic	r4, r4, #131072
 208 001a 2C64     		str	r4, [r5, #64]
 273:Drivers/STM32F4xx_HAL_Driver/Src/stm32f4xx_hal_rtc_ex.c ****   hrtc->Instance->TAFCR |= (uint32_t)(RTC_TimeStampPin);
 209              		.loc 1 273 3 is_stmt 1 view .LVU69
 210              		.loc 1 273 7 is_stmt 0 view .LVU70
 211 001c 1D68     		ldr	r5, [r3]
 212              		.loc 1 273 17 view .LVU71
 213 001e 2C6C     		ldr	r4, [r5, #64]
 214              		.loc 1 273 25 view .LVU72
 215 0020 2243     		orrs	r2, r2, r4
 216              	.LVL12:
 217              		.loc 1 273 25 view .LVU73
 218 0022 2A64     		str	r2, [r5, #64]
 274:Drivers/STM32F4xx_HAL_Driver/Src/stm32f4xx_hal_rtc_ex.c **** 
 275:Drivers/STM32F4xx_HAL_Driver/Src/stm32f4xx_hal_rtc_ex.c ****   /* Get the RTC_CR register and clear the bits to be configured */
 276:Drivers/STM32F4xx_HAL_Driver/Src/stm32f4xx_hal_rtc_ex.c ****   tmpreg = (uint32_t)(hrtc->Instance->CR & (uint32_t)~(RTC_CR_TSEDGE | RTC_CR_TSE));
 219              		.loc 1 276 3 is_stmt 1 view .LVU74
 220              		.loc 1 276 27 is_stmt 0 view .LVU75
 221 0024 1C68     		ldr	r4, [r3]
 222              		.loc 1 276 37 view .LVU76
 223 0026 A268     		ldr	r2, [r4, #8]
 224              		.loc 1 276 10 view .LVU77
 225 0028 22F40062 		bic	r2, r2, #2048
 226 002c 22F00802 		bic	r2, r2, #8
 227              	.LVL13:
 277:Drivers/STM32F4xx_HAL_Driver/Src/stm32f4xx_hal_rtc_ex.c **** 
 278:Drivers/STM32F4xx_HAL_Driver/Src/stm32f4xx_hal_rtc_ex.c ****   /* Configure the Timestamp TSEDGE bit */
 279:Drivers/STM32F4xx_HAL_Driver/Src/stm32f4xx_hal_rtc_ex.c ****   tmpreg |= RTC_TimeStampEdge;
 228              		.loc 1 279 3 is_stmt 1 view .LVU78
 229              		.loc 1 279 10 is_stmt 0 view .LVU79
 230 0030 0A43     		orrs	r2, r2, r1
 231              	.LVL14:
 280:Drivers/STM32F4xx_HAL_Driver/Src/stm32f4xx_hal_rtc_ex.c **** 
 281:Drivers/STM32F4xx_HAL_Driver/Src/stm32f4xx_hal_rtc_ex.c ****   /* Disable the write protection for RTC registers */
 282:Drivers/STM32F4xx_HAL_Driver/Src/stm32f4xx_hal_rtc_ex.c ****   __HAL_RTC_WRITEPROTECTION_DISABLE(hrtc);
ARM GAS  C:\Users\ADMINI~1\AppData\Local\Temp\ccahqaTu.s 			page 10


 232              		.loc 1 282 3 is_stmt 1 view .LVU80
 233              		.loc 1 282 3 view .LVU81
 234 0032 CA21     		movs	r1, #202
 235              	.LVL15:
 236              		.loc 1 282 3 is_stmt 0 view .LVU82
 237 0034 6162     		str	r1, [r4, #36]
 238              		.loc 1 282 3 is_stmt 1 view .LVU83
 239 0036 1968     		ldr	r1, [r3]
 240 0038 5324     		movs	r4, #83
 241 003a 4C62     		str	r4, [r1, #36]
 242              		.loc 1 282 3 view .LVU84
 283:Drivers/STM32F4xx_HAL_Driver/Src/stm32f4xx_hal_rtc_ex.c **** 
 284:Drivers/STM32F4xx_HAL_Driver/Src/stm32f4xx_hal_rtc_ex.c ****   /* Copy the desired configuration into the CR register */
 285:Drivers/STM32F4xx_HAL_Driver/Src/stm32f4xx_hal_rtc_ex.c ****   hrtc->Instance->CR = (uint32_t)tmpreg;
 243              		.loc 1 285 3 view .LVU85
 244              		.loc 1 285 7 is_stmt 0 view .LVU86
 245 003c 1968     		ldr	r1, [r3]
 246              		.loc 1 285 22 view .LVU87
 247 003e 8A60     		str	r2, [r1, #8]
 286:Drivers/STM32F4xx_HAL_Driver/Src/stm32f4xx_hal_rtc_ex.c **** 
 287:Drivers/STM32F4xx_HAL_Driver/Src/stm32f4xx_hal_rtc_ex.c ****   /* Clear RTC Timestamp flag */
 288:Drivers/STM32F4xx_HAL_Driver/Src/stm32f4xx_hal_rtc_ex.c ****   __HAL_RTC_TIMESTAMP_CLEAR_FLAG(hrtc, RTC_FLAG_TSF);
 248              		.loc 1 288 3 is_stmt 1 view .LVU88
 249 0040 1968     		ldr	r1, [r3]
 250 0042 CA68     		ldr	r2, [r1, #12]
 251              	.LVL16:
 252              		.loc 1 288 3 is_stmt 0 view .LVU89
 253 0044 D2B2     		uxtb	r2, r2
 254 0046 62F40862 		orn	r2, r2, #2176
 255 004a CA60     		str	r2, [r1, #12]
 289:Drivers/STM32F4xx_HAL_Driver/Src/stm32f4xx_hal_rtc_ex.c **** 
 290:Drivers/STM32F4xx_HAL_Driver/Src/stm32f4xx_hal_rtc_ex.c ****   /* Clear RTC Timestamp overrun Flag */
 291:Drivers/STM32F4xx_HAL_Driver/Src/stm32f4xx_hal_rtc_ex.c ****   __HAL_RTC_TIMESTAMP_CLEAR_FLAG(hrtc, RTC_FLAG_TSOVF);
 256              		.loc 1 291 3 is_stmt 1 view .LVU90
 257 004c 1968     		ldr	r1, [r3]
 258 004e CA68     		ldr	r2, [r1, #12]
 259 0050 D2B2     		uxtb	r2, r2
 260 0052 62F48452 		orn	r2, r2, #4224
 261 0056 CA60     		str	r2, [r1, #12]
 292:Drivers/STM32F4xx_HAL_Driver/Src/stm32f4xx_hal_rtc_ex.c **** 
 293:Drivers/STM32F4xx_HAL_Driver/Src/stm32f4xx_hal_rtc_ex.c ****   /* Enable the Timestamp saving */
 294:Drivers/STM32F4xx_HAL_Driver/Src/stm32f4xx_hal_rtc_ex.c ****   __HAL_RTC_TIMESTAMP_ENABLE(hrtc);
 262              		.loc 1 294 3 view .LVU91
 263 0058 1968     		ldr	r1, [r3]
 264 005a 8A68     		ldr	r2, [r1, #8]
 265 005c 42F40062 		orr	r2, r2, #2048
 266 0060 8A60     		str	r2, [r1, #8]
 295:Drivers/STM32F4xx_HAL_Driver/Src/stm32f4xx_hal_rtc_ex.c **** 
 296:Drivers/STM32F4xx_HAL_Driver/Src/stm32f4xx_hal_rtc_ex.c ****   /* Enable IT Timestamp */
 297:Drivers/STM32F4xx_HAL_Driver/Src/stm32f4xx_hal_rtc_ex.c ****   __HAL_RTC_TIMESTAMP_ENABLE_IT(hrtc, RTC_IT_TS);
 267              		.loc 1 297 3 view .LVU92
 268 0062 1968     		ldr	r1, [r3]
 269 0064 8A68     		ldr	r2, [r1, #8]
 270 0066 42F40042 		orr	r2, r2, #32768
 271 006a 8A60     		str	r2, [r1, #8]
 298:Drivers/STM32F4xx_HAL_Driver/Src/stm32f4xx_hal_rtc_ex.c **** 
 299:Drivers/STM32F4xx_HAL_Driver/Src/stm32f4xx_hal_rtc_ex.c ****   /* Enable the write protection for RTC registers */
ARM GAS  C:\Users\ADMINI~1\AppData\Local\Temp\ccahqaTu.s 			page 11


 300:Drivers/STM32F4xx_HAL_Driver/Src/stm32f4xx_hal_rtc_ex.c ****   __HAL_RTC_WRITEPROTECTION_ENABLE(hrtc);
 272              		.loc 1 300 3 view .LVU93
 273              		.loc 1 300 3 view .LVU94
 274 006c 1A68     		ldr	r2, [r3]
 275 006e FF21     		movs	r1, #255
 276 0070 5162     		str	r1, [r2, #36]
 277              		.loc 1 300 3 view .LVU95
 301:Drivers/STM32F4xx_HAL_Driver/Src/stm32f4xx_hal_rtc_ex.c **** 
 302:Drivers/STM32F4xx_HAL_Driver/Src/stm32f4xx_hal_rtc_ex.c ****   /* RTC Timestamp Interrupt Configuration: EXTI configuration */
 303:Drivers/STM32F4xx_HAL_Driver/Src/stm32f4xx_hal_rtc_ex.c ****   __HAL_RTC_TAMPER_TIMESTAMP_EXTI_ENABLE_IT();
 278              		.loc 1 303 3 view .LVU96
 279 0072 084A     		ldr	r2, .L15
 280 0074 1168     		ldr	r1, [r2]
 281 0076 41F40011 		orr	r1, r1, #2097152
 282 007a 1160     		str	r1, [r2]
 304:Drivers/STM32F4xx_HAL_Driver/Src/stm32f4xx_hal_rtc_ex.c ****   __HAL_RTC_TAMPER_TIMESTAMP_EXTI_ENABLE_RISING_EDGE();
 283              		.loc 1 304 3 view .LVU97
 284 007c 9168     		ldr	r1, [r2, #8]
 285 007e 41F40011 		orr	r1, r1, #2097152
 286 0082 9160     		str	r1, [r2, #8]
 305:Drivers/STM32F4xx_HAL_Driver/Src/stm32f4xx_hal_rtc_ex.c **** 
 306:Drivers/STM32F4xx_HAL_Driver/Src/stm32f4xx_hal_rtc_ex.c ****   /* Change RTC state back to READY */
 307:Drivers/STM32F4xx_HAL_Driver/Src/stm32f4xx_hal_rtc_ex.c ****   hrtc->State = HAL_RTC_STATE_READY;
 287              		.loc 1 307 3 view .LVU98
 288              		.loc 1 307 15 is_stmt 0 view .LVU99
 289 0084 5877     		strb	r0, [r3, #29]
 308:Drivers/STM32F4xx_HAL_Driver/Src/stm32f4xx_hal_rtc_ex.c **** 
 309:Drivers/STM32F4xx_HAL_Driver/Src/stm32f4xx_hal_rtc_ex.c ****   /* Process Unlocked */
 310:Drivers/STM32F4xx_HAL_Driver/Src/stm32f4xx_hal_rtc_ex.c ****   __HAL_UNLOCK(hrtc);
 290              		.loc 1 310 3 is_stmt 1 view .LVU100
 291              		.loc 1 310 3 view .LVU101
 292 0086 0020     		movs	r0, #0
 293 0088 1877     		strb	r0, [r3, #28]
 294              		.loc 1 310 3 view .LVU102
 311:Drivers/STM32F4xx_HAL_Driver/Src/stm32f4xx_hal_rtc_ex.c **** 
 312:Drivers/STM32F4xx_HAL_Driver/Src/stm32f4xx_hal_rtc_ex.c ****   return HAL_OK;
 295              		.loc 1 312 3 view .LVU103
 313:Drivers/STM32F4xx_HAL_Driver/Src/stm32f4xx_hal_rtc_ex.c **** }
 296              		.loc 1 313 1 is_stmt 0 view .LVU104
 297 008a 30BC     		pop	{r4, r5}
 298              	.LCFI3:
 299              		.cfi_restore 5
 300              		.cfi_restore 4
 301              		.cfi_def_cfa_offset 0
 302 008c 7047     		bx	lr
 303              	.LVL17:
 304              	.L10:
 267:Drivers/STM32F4xx_HAL_Driver/Src/stm32f4xx_hal_rtc_ex.c **** 
 305              		.loc 1 267 3 discriminator 1 view .LVU105
 306 008e 0220     		movs	r0, #2
 307              		.loc 1 313 1 view .LVU106
 308 0090 7047     		bx	lr
 309              	.L16:
 310 0092 00BF     		.align	2
 311              	.L15:
 312 0094 003C0140 		.word	1073822720
 313              		.cfi_endproc
ARM GAS  C:\Users\ADMINI~1\AppData\Local\Temp\ccahqaTu.s 			page 12


 314              	.LFE236:
 316              		.section	.text.HAL_RTCEx_DeactivateTimeStamp,"ax",%progbits
 317              		.align	1
 318              		.global	HAL_RTCEx_DeactivateTimeStamp
 319              		.syntax unified
 320              		.thumb
 321              		.thumb_func
 323              	HAL_RTCEx_DeactivateTimeStamp:
 324              	.LVL18:
 325              	.LFB237:
 314:Drivers/STM32F4xx_HAL_Driver/Src/stm32f4xx_hal_rtc_ex.c **** 
 315:Drivers/STM32F4xx_HAL_Driver/Src/stm32f4xx_hal_rtc_ex.c **** /**
 316:Drivers/STM32F4xx_HAL_Driver/Src/stm32f4xx_hal_rtc_ex.c ****   * @brief  Deactivates Timestamp.
 317:Drivers/STM32F4xx_HAL_Driver/Src/stm32f4xx_hal_rtc_ex.c ****   * @param  hrtc pointer to a RTC_HandleTypeDef structure that contains
 318:Drivers/STM32F4xx_HAL_Driver/Src/stm32f4xx_hal_rtc_ex.c ****   *                the configuration information for RTC.
 319:Drivers/STM32F4xx_HAL_Driver/Src/stm32f4xx_hal_rtc_ex.c ****   * @retval HAL status
 320:Drivers/STM32F4xx_HAL_Driver/Src/stm32f4xx_hal_rtc_ex.c ****   */
 321:Drivers/STM32F4xx_HAL_Driver/Src/stm32f4xx_hal_rtc_ex.c **** HAL_StatusTypeDef HAL_RTCEx_DeactivateTimeStamp(RTC_HandleTypeDef *hrtc)
 322:Drivers/STM32F4xx_HAL_Driver/Src/stm32f4xx_hal_rtc_ex.c **** {
 326              		.loc 1 322 1 is_stmt 1 view -0
 327              		.cfi_startproc
 328              		@ args = 0, pretend = 0, frame = 0
 329              		@ frame_needed = 0, uses_anonymous_args = 0
 330              		@ link register save eliminated.
 331              		.loc 1 322 1 is_stmt 0 view .LVU108
 332 0000 0346     		mov	r3, r0
 323:Drivers/STM32F4xx_HAL_Driver/Src/stm32f4xx_hal_rtc_ex.c ****   uint32_t tmpreg = 0U;
 333              		.loc 1 323 3 is_stmt 1 view .LVU109
 334              	.LVL19:
 324:Drivers/STM32F4xx_HAL_Driver/Src/stm32f4xx_hal_rtc_ex.c **** 
 325:Drivers/STM32F4xx_HAL_Driver/Src/stm32f4xx_hal_rtc_ex.c ****   /* Process Locked */
 326:Drivers/STM32F4xx_HAL_Driver/Src/stm32f4xx_hal_rtc_ex.c ****   __HAL_LOCK(hrtc);
 335              		.loc 1 326 3 view .LVU110
 336              		.loc 1 326 3 view .LVU111
 337 0002 027F     		ldrb	r2, [r0, #28]	@ zero_extendqisi2
 338 0004 012A     		cmp	r2, #1
 339 0006 1CD0     		beq	.L19
 340              		.loc 1 326 3 discriminator 2 view .LVU112
 341 0008 0121     		movs	r1, #1
 342 000a 0177     		strb	r1, [r0, #28]
 343              		.loc 1 326 3 discriminator 2 view .LVU113
 327:Drivers/STM32F4xx_HAL_Driver/Src/stm32f4xx_hal_rtc_ex.c **** 
 328:Drivers/STM32F4xx_HAL_Driver/Src/stm32f4xx_hal_rtc_ex.c ****   hrtc->State = HAL_RTC_STATE_BUSY;
 344              		.loc 1 328 3 view .LVU114
 345              		.loc 1 328 15 is_stmt 0 view .LVU115
 346 000c 0222     		movs	r2, #2
 347 000e 4277     		strb	r2, [r0, #29]
 329:Drivers/STM32F4xx_HAL_Driver/Src/stm32f4xx_hal_rtc_ex.c **** 
 330:Drivers/STM32F4xx_HAL_Driver/Src/stm32f4xx_hal_rtc_ex.c ****   /* Disable the write protection for RTC registers */
 331:Drivers/STM32F4xx_HAL_Driver/Src/stm32f4xx_hal_rtc_ex.c ****   __HAL_RTC_WRITEPROTECTION_DISABLE(hrtc);
 348              		.loc 1 331 3 is_stmt 1 view .LVU116
 349              		.loc 1 331 3 view .LVU117
 350 0010 0268     		ldr	r2, [r0]
 351 0012 CA20     		movs	r0, #202
 352              	.LVL20:
 353              		.loc 1 331 3 is_stmt 0 view .LVU118
 354 0014 5062     		str	r0, [r2, #36]
ARM GAS  C:\Users\ADMINI~1\AppData\Local\Temp\ccahqaTu.s 			page 13


 355              		.loc 1 331 3 is_stmt 1 view .LVU119
 356 0016 1A68     		ldr	r2, [r3]
 357 0018 5320     		movs	r0, #83
 358 001a 5062     		str	r0, [r2, #36]
 359              		.loc 1 331 3 view .LVU120
 332:Drivers/STM32F4xx_HAL_Driver/Src/stm32f4xx_hal_rtc_ex.c **** 
 333:Drivers/STM32F4xx_HAL_Driver/Src/stm32f4xx_hal_rtc_ex.c ****   /* In case of interrupt mode is used, the interrupt source must disabled */
 334:Drivers/STM32F4xx_HAL_Driver/Src/stm32f4xx_hal_rtc_ex.c ****   __HAL_RTC_TIMESTAMP_DISABLE_IT(hrtc, RTC_IT_TS);
 360              		.loc 1 334 3 view .LVU121
 361 001c 1868     		ldr	r0, [r3]
 362 001e 8268     		ldr	r2, [r0, #8]
 363 0020 22F40042 		bic	r2, r2, #32768
 364 0024 8260     		str	r2, [r0, #8]
 335:Drivers/STM32F4xx_HAL_Driver/Src/stm32f4xx_hal_rtc_ex.c **** 
 336:Drivers/STM32F4xx_HAL_Driver/Src/stm32f4xx_hal_rtc_ex.c ****   /* Get the RTC_CR register and clear the bits to be configured */
 337:Drivers/STM32F4xx_HAL_Driver/Src/stm32f4xx_hal_rtc_ex.c ****   tmpreg = (uint32_t)(hrtc->Instance->CR & (uint32_t)~(RTC_CR_TSEDGE | RTC_CR_TSE));
 365              		.loc 1 337 3 view .LVU122
 366              		.loc 1 337 27 is_stmt 0 view .LVU123
 367 0026 1868     		ldr	r0, [r3]
 368              		.loc 1 337 37 view .LVU124
 369 0028 8268     		ldr	r2, [r0, #8]
 370              		.loc 1 337 10 view .LVU125
 371 002a 22F40062 		bic	r2, r2, #2048
 372 002e 22F00802 		bic	r2, r2, #8
 373              	.LVL21:
 338:Drivers/STM32F4xx_HAL_Driver/Src/stm32f4xx_hal_rtc_ex.c **** 
 339:Drivers/STM32F4xx_HAL_Driver/Src/stm32f4xx_hal_rtc_ex.c ****   /* Configure the Timestamp TSEDGE and Enable bits */
 340:Drivers/STM32F4xx_HAL_Driver/Src/stm32f4xx_hal_rtc_ex.c ****   hrtc->Instance->CR = (uint32_t)tmpreg;
 374              		.loc 1 340 3 is_stmt 1 view .LVU126
 375              		.loc 1 340 22 is_stmt 0 view .LVU127
 376 0032 8260     		str	r2, [r0, #8]
 341:Drivers/STM32F4xx_HAL_Driver/Src/stm32f4xx_hal_rtc_ex.c **** 
 342:Drivers/STM32F4xx_HAL_Driver/Src/stm32f4xx_hal_rtc_ex.c ****   /* Enable the write protection for RTC registers */
 343:Drivers/STM32F4xx_HAL_Driver/Src/stm32f4xx_hal_rtc_ex.c ****   __HAL_RTC_WRITEPROTECTION_ENABLE(hrtc);
 377              		.loc 1 343 3 is_stmt 1 view .LVU128
 378              		.loc 1 343 3 view .LVU129
 379 0034 1A68     		ldr	r2, [r3]
 380              	.LVL22:
 381              		.loc 1 343 3 is_stmt 0 view .LVU130
 382 0036 FF20     		movs	r0, #255
 383              	.LVL23:
 384              		.loc 1 343 3 view .LVU131
 385 0038 5062     		str	r0, [r2, #36]
 386              		.loc 1 343 3 is_stmt 1 view .LVU132
 344:Drivers/STM32F4xx_HAL_Driver/Src/stm32f4xx_hal_rtc_ex.c **** 
 345:Drivers/STM32F4xx_HAL_Driver/Src/stm32f4xx_hal_rtc_ex.c ****   hrtc->State = HAL_RTC_STATE_READY;
 387              		.loc 1 345 3 view .LVU133
 388              		.loc 1 345 15 is_stmt 0 view .LVU134
 389 003a 5977     		strb	r1, [r3, #29]
 346:Drivers/STM32F4xx_HAL_Driver/Src/stm32f4xx_hal_rtc_ex.c **** 
 347:Drivers/STM32F4xx_HAL_Driver/Src/stm32f4xx_hal_rtc_ex.c ****   /* Process Unlocked */
 348:Drivers/STM32F4xx_HAL_Driver/Src/stm32f4xx_hal_rtc_ex.c ****   __HAL_UNLOCK(hrtc);
 390              		.loc 1 348 3 is_stmt 1 view .LVU135
 391              		.loc 1 348 3 view .LVU136
 392 003c 0020     		movs	r0, #0
 393 003e 1877     		strb	r0, [r3, #28]
 394              		.loc 1 348 3 view .LVU137
ARM GAS  C:\Users\ADMINI~1\AppData\Local\Temp\ccahqaTu.s 			page 14


 349:Drivers/STM32F4xx_HAL_Driver/Src/stm32f4xx_hal_rtc_ex.c **** 
 350:Drivers/STM32F4xx_HAL_Driver/Src/stm32f4xx_hal_rtc_ex.c ****   return HAL_OK;
 395              		.loc 1 350 3 view .LVU138
 396              		.loc 1 350 10 is_stmt 0 view .LVU139
 397 0040 7047     		bx	lr
 398              	.LVL24:
 399              	.L19:
 326:Drivers/STM32F4xx_HAL_Driver/Src/stm32f4xx_hal_rtc_ex.c **** 
 400              		.loc 1 326 3 discriminator 1 view .LVU140
 401 0042 0220     		movs	r0, #2
 402              	.LVL25:
 351:Drivers/STM32F4xx_HAL_Driver/Src/stm32f4xx_hal_rtc_ex.c **** }
 403              		.loc 1 351 1 view .LVU141
 404 0044 7047     		bx	lr
 405              		.cfi_endproc
 406              	.LFE237:
 408              		.section	.text.HAL_RTCEx_GetTimeStamp,"ax",%progbits
 409              		.align	1
 410              		.global	HAL_RTCEx_GetTimeStamp
 411              		.syntax unified
 412              		.thumb
 413              		.thumb_func
 415              	HAL_RTCEx_GetTimeStamp:
 416              	.LVL26:
 417              	.LFB238:
 352:Drivers/STM32F4xx_HAL_Driver/Src/stm32f4xx_hal_rtc_ex.c **** 
 353:Drivers/STM32F4xx_HAL_Driver/Src/stm32f4xx_hal_rtc_ex.c **** /**
 354:Drivers/STM32F4xx_HAL_Driver/Src/stm32f4xx_hal_rtc_ex.c ****   * @brief  Gets the RTC Timestamp value.
 355:Drivers/STM32F4xx_HAL_Driver/Src/stm32f4xx_hal_rtc_ex.c ****   * @param  hrtc pointer to a RTC_HandleTypeDef structure that contains
 356:Drivers/STM32F4xx_HAL_Driver/Src/stm32f4xx_hal_rtc_ex.c ****   *                the configuration information for RTC.
 357:Drivers/STM32F4xx_HAL_Driver/Src/stm32f4xx_hal_rtc_ex.c ****   * @param  sTimeStamp Pointer to Time structure
 358:Drivers/STM32F4xx_HAL_Driver/Src/stm32f4xx_hal_rtc_ex.c ****   * @param  sTimeStampDate Pointer to Date structure
 359:Drivers/STM32F4xx_HAL_Driver/Src/stm32f4xx_hal_rtc_ex.c ****   * @param  Format specifies the format of the entered parameters.
 360:Drivers/STM32F4xx_HAL_Driver/Src/stm32f4xx_hal_rtc_ex.c ****   *          This parameter can be one of the following values:
 361:Drivers/STM32F4xx_HAL_Driver/Src/stm32f4xx_hal_rtc_ex.c ****   *             @arg RTC_FORMAT_BIN: Binary data format
 362:Drivers/STM32F4xx_HAL_Driver/Src/stm32f4xx_hal_rtc_ex.c ****   *             @arg RTC_FORMAT_BCD: BCD data format
 363:Drivers/STM32F4xx_HAL_Driver/Src/stm32f4xx_hal_rtc_ex.c ****   * @retval HAL status
 364:Drivers/STM32F4xx_HAL_Driver/Src/stm32f4xx_hal_rtc_ex.c ****   */
 365:Drivers/STM32F4xx_HAL_Driver/Src/stm32f4xx_hal_rtc_ex.c **** HAL_StatusTypeDef HAL_RTCEx_GetTimeStamp(RTC_HandleTypeDef *hrtc, RTC_TimeTypeDef *sTimeStamp, RTC_
 366:Drivers/STM32F4xx_HAL_Driver/Src/stm32f4xx_hal_rtc_ex.c **** {
 418              		.loc 1 366 1 is_stmt 1 view -0
 419              		.cfi_startproc
 420              		@ args = 0, pretend = 0, frame = 0
 421              		@ frame_needed = 0, uses_anonymous_args = 0
 422              		.loc 1 366 1 is_stmt 0 view .LVU143
 423 0000 70B5     		push	{r4, r5, r6, lr}
 424              	.LCFI4:
 425              		.cfi_def_cfa_offset 16
 426              		.cfi_offset 4, -16
 427              		.cfi_offset 5, -12
 428              		.cfi_offset 6, -8
 429              		.cfi_offset 14, -4
 430 0002 0646     		mov	r6, r0
 431 0004 0C46     		mov	r4, r1
 432 0006 1546     		mov	r5, r2
 367:Drivers/STM32F4xx_HAL_Driver/Src/stm32f4xx_hal_rtc_ex.c ****   uint32_t tmptime = 0U;
 433              		.loc 1 367 3 is_stmt 1 view .LVU144
ARM GAS  C:\Users\ADMINI~1\AppData\Local\Temp\ccahqaTu.s 			page 15


 434              	.LVL27:
 368:Drivers/STM32F4xx_HAL_Driver/Src/stm32f4xx_hal_rtc_ex.c ****   uint32_t tmpdate = 0U;
 435              		.loc 1 368 3 view .LVU145
 369:Drivers/STM32F4xx_HAL_Driver/Src/stm32f4xx_hal_rtc_ex.c **** 
 370:Drivers/STM32F4xx_HAL_Driver/Src/stm32f4xx_hal_rtc_ex.c ****   /* Check the parameters */
 371:Drivers/STM32F4xx_HAL_Driver/Src/stm32f4xx_hal_rtc_ex.c ****   assert_param(IS_RTC_FORMAT(Format));
 436              		.loc 1 371 3 view .LVU146
 372:Drivers/STM32F4xx_HAL_Driver/Src/stm32f4xx_hal_rtc_ex.c **** 
 373:Drivers/STM32F4xx_HAL_Driver/Src/stm32f4xx_hal_rtc_ex.c ****   /* Get the Timestamp time and date registers values */
 374:Drivers/STM32F4xx_HAL_Driver/Src/stm32f4xx_hal_rtc_ex.c ****   tmptime = (uint32_t)(hrtc->Instance->TSTR & RTC_TR_RESERVED_MASK);
 437              		.loc 1 374 3 view .LVU147
 438              		.loc 1 374 28 is_stmt 0 view .LVU148
 439 0008 0168     		ldr	r1, [r0]
 440              	.LVL28:
 441              		.loc 1 374 38 view .LVU149
 442 000a 0A6B     		ldr	r2, [r1, #48]
 443              	.LVL29:
 375:Drivers/STM32F4xx_HAL_Driver/Src/stm32f4xx_hal_rtc_ex.c ****   tmpdate = (uint32_t)(hrtc->Instance->TSDR & RTC_DR_RESERVED_MASK);
 444              		.loc 1 375 3 is_stmt 1 view .LVU150
 445              		.loc 1 375 38 is_stmt 0 view .LVU151
 446 000c 496B     		ldr	r1, [r1, #52]
 447              	.LVL30:
 376:Drivers/STM32F4xx_HAL_Driver/Src/stm32f4xx_hal_rtc_ex.c **** 
 377:Drivers/STM32F4xx_HAL_Driver/Src/stm32f4xx_hal_rtc_ex.c ****   /* Fill the Time structure fields with the read parameters */
 378:Drivers/STM32F4xx_HAL_Driver/Src/stm32f4xx_hal_rtc_ex.c ****   sTimeStamp->Hours      = (uint8_t)((tmptime & (RTC_TSTR_HT  | RTC_TSTR_HU))  >> RTC_TSTR_HU_Pos);
 448              		.loc 1 378 3 is_stmt 1 view .LVU152
 449              		.loc 1 378 28 is_stmt 0 view .LVU153
 450 000e C2F30540 		ubfx	r0, r2, #16, #6
 451              	.LVL31:
 452              		.loc 1 378 26 view .LVU154
 453 0012 2070     		strb	r0, [r4]
 379:Drivers/STM32F4xx_HAL_Driver/Src/stm32f4xx_hal_rtc_ex.c ****   sTimeStamp->Minutes    = (uint8_t)((tmptime & (RTC_TSTR_MNT | RTC_TSTR_MNU)) >> RTC_TSTR_MNU_Pos)
 454              		.loc 1 379 3 is_stmt 1 view .LVU155
 455              		.loc 1 379 28 is_stmt 0 view .LVU156
 456 0014 C2F30620 		ubfx	r0, r2, #8, #7
 457              		.loc 1 379 26 view .LVU157
 458 0018 6070     		strb	r0, [r4, #1]
 380:Drivers/STM32F4xx_HAL_Driver/Src/stm32f4xx_hal_rtc_ex.c ****   sTimeStamp->Seconds    = (uint8_t)((tmptime & (RTC_TSTR_ST  | RTC_TSTR_SU))  >> RTC_TSTR_SU_Pos);
 459              		.loc 1 380 3 is_stmt 1 view .LVU158
 460              		.loc 1 380 28 is_stmt 0 view .LVU159
 461 001a 02F07F00 		and	r0, r2, #127
 462              		.loc 1 380 26 view .LVU160
 463 001e A070     		strb	r0, [r4, #2]
 381:Drivers/STM32F4xx_HAL_Driver/Src/stm32f4xx_hal_rtc_ex.c ****   sTimeStamp->TimeFormat = (uint8_t)((tmptime & (RTC_TSTR_PM))                 >> RTC_TSTR_PM_Pos);
 464              		.loc 1 381 3 is_stmt 1 view .LVU161
 465              		.loc 1 381 28 is_stmt 0 view .LVU162
 466 0020 C2F38052 		ubfx	r2, r2, #22, #1
 467              	.LVL32:
 468              		.loc 1 381 26 view .LVU163
 469 0024 E270     		strb	r2, [r4, #3]
 382:Drivers/STM32F4xx_HAL_Driver/Src/stm32f4xx_hal_rtc_ex.c ****   sTimeStamp->SubSeconds = (uint32_t) hrtc->Instance->TSSSR;
 470              		.loc 1 382 3 is_stmt 1 view .LVU164
 471              		.loc 1 382 43 is_stmt 0 view .LVU165
 472 0026 3268     		ldr	r2, [r6]
 473              		.loc 1 382 53 view .LVU166
 474 0028 926B     		ldr	r2, [r2, #56]
 475              		.loc 1 382 26 view .LVU167
ARM GAS  C:\Users\ADMINI~1\AppData\Local\Temp\ccahqaTu.s 			page 16


 476 002a 6260     		str	r2, [r4, #4]
 383:Drivers/STM32F4xx_HAL_Driver/Src/stm32f4xx_hal_rtc_ex.c **** 
 384:Drivers/STM32F4xx_HAL_Driver/Src/stm32f4xx_hal_rtc_ex.c ****   /* Fill the Date structure fields with the read parameters */
 385:Drivers/STM32F4xx_HAL_Driver/Src/stm32f4xx_hal_rtc_ex.c ****   sTimeStampDate->Year    = 0U;
 477              		.loc 1 385 3 is_stmt 1 view .LVU168
 478              		.loc 1 385 27 is_stmt 0 view .LVU169
 479 002c 0022     		movs	r2, #0
 480 002e EA70     		strb	r2, [r5, #3]
 386:Drivers/STM32F4xx_HAL_Driver/Src/stm32f4xx_hal_rtc_ex.c ****   sTimeStampDate->Month   = (uint8_t)((tmpdate & (RTC_TSDR_MT | RTC_TSDR_MU)) >> RTC_TSDR_MU_Pos);
 481              		.loc 1 386 3 is_stmt 1 view .LVU170
 482              		.loc 1 386 29 is_stmt 0 view .LVU171
 483 0030 C1F30422 		ubfx	r2, r1, #8, #5
 484              		.loc 1 386 27 view .LVU172
 485 0034 6A70     		strb	r2, [r5, #1]
 387:Drivers/STM32F4xx_HAL_Driver/Src/stm32f4xx_hal_rtc_ex.c ****   sTimeStampDate->Date    = (uint8_t)((tmpdate & (RTC_TSDR_DT | RTC_TSDR_DU)) >> RTC_TSDR_DU_Pos);
 486              		.loc 1 387 3 is_stmt 1 view .LVU173
 487              		.loc 1 387 29 is_stmt 0 view .LVU174
 488 0036 01F03F02 		and	r2, r1, #63
 489              		.loc 1 387 27 view .LVU175
 490 003a AA70     		strb	r2, [r5, #2]
 388:Drivers/STM32F4xx_HAL_Driver/Src/stm32f4xx_hal_rtc_ex.c ****   sTimeStampDate->WeekDay = (uint8_t)((tmpdate & (RTC_TSDR_WDU))              >> RTC_TSDR_WDU_Pos);
 491              		.loc 1 388 3 is_stmt 1 view .LVU176
 492              		.loc 1 388 29 is_stmt 0 view .LVU177
 493 003c C1F34231 		ubfx	r1, r1, #13, #3
 494              	.LVL33:
 495              		.loc 1 388 27 view .LVU178
 496 0040 2970     		strb	r1, [r5]
 389:Drivers/STM32F4xx_HAL_Driver/Src/stm32f4xx_hal_rtc_ex.c **** 
 390:Drivers/STM32F4xx_HAL_Driver/Src/stm32f4xx_hal_rtc_ex.c ****   /* Check the input parameters format */
 391:Drivers/STM32F4xx_HAL_Driver/Src/stm32f4xx_hal_rtc_ex.c ****   if (Format == RTC_FORMAT_BIN)
 497              		.loc 1 391 3 is_stmt 1 view .LVU179
 498              		.loc 1 391 6 is_stmt 0 view .LVU180
 499 0042 3BB1     		cbz	r3, .L23
 500              	.LVL34:
 501              	.L21:
 392:Drivers/STM32F4xx_HAL_Driver/Src/stm32f4xx_hal_rtc_ex.c ****   {
 393:Drivers/STM32F4xx_HAL_Driver/Src/stm32f4xx_hal_rtc_ex.c ****     /* Convert the Timestamp structure parameters to Binary format */
 394:Drivers/STM32F4xx_HAL_Driver/Src/stm32f4xx_hal_rtc_ex.c ****     sTimeStamp->Hours   = (uint8_t)RTC_Bcd2ToByte(sTimeStamp->Hours);
 395:Drivers/STM32F4xx_HAL_Driver/Src/stm32f4xx_hal_rtc_ex.c ****     sTimeStamp->Minutes = (uint8_t)RTC_Bcd2ToByte(sTimeStamp->Minutes);
 396:Drivers/STM32F4xx_HAL_Driver/Src/stm32f4xx_hal_rtc_ex.c ****     sTimeStamp->Seconds = (uint8_t)RTC_Bcd2ToByte(sTimeStamp->Seconds);
 397:Drivers/STM32F4xx_HAL_Driver/Src/stm32f4xx_hal_rtc_ex.c **** 
 398:Drivers/STM32F4xx_HAL_Driver/Src/stm32f4xx_hal_rtc_ex.c ****     /* Convert the DateTimeStamp structure parameters to Binary format */
 399:Drivers/STM32F4xx_HAL_Driver/Src/stm32f4xx_hal_rtc_ex.c ****     sTimeStampDate->Month   = (uint8_t)RTC_Bcd2ToByte(sTimeStampDate->Month);
 400:Drivers/STM32F4xx_HAL_Driver/Src/stm32f4xx_hal_rtc_ex.c ****     sTimeStampDate->Date    = (uint8_t)RTC_Bcd2ToByte(sTimeStampDate->Date);
 401:Drivers/STM32F4xx_HAL_Driver/Src/stm32f4xx_hal_rtc_ex.c ****     sTimeStampDate->WeekDay = (uint8_t)RTC_Bcd2ToByte(sTimeStampDate->WeekDay);
 402:Drivers/STM32F4xx_HAL_Driver/Src/stm32f4xx_hal_rtc_ex.c ****   }
 403:Drivers/STM32F4xx_HAL_Driver/Src/stm32f4xx_hal_rtc_ex.c **** 
 404:Drivers/STM32F4xx_HAL_Driver/Src/stm32f4xx_hal_rtc_ex.c ****   /* Clear the Timestamp Flag */
 405:Drivers/STM32F4xx_HAL_Driver/Src/stm32f4xx_hal_rtc_ex.c ****   __HAL_RTC_TIMESTAMP_CLEAR_FLAG(hrtc, RTC_FLAG_TSF);
 502              		.loc 1 405 3 is_stmt 1 view .LVU181
 503 0044 3268     		ldr	r2, [r6]
 504 0046 D368     		ldr	r3, [r2, #12]
 505 0048 DBB2     		uxtb	r3, r3
 506 004a 63F40863 		orn	r3, r3, #2176
 507 004e D360     		str	r3, [r2, #12]
 406:Drivers/STM32F4xx_HAL_Driver/Src/stm32f4xx_hal_rtc_ex.c **** 
 407:Drivers/STM32F4xx_HAL_Driver/Src/stm32f4xx_hal_rtc_ex.c ****   return HAL_OK;
ARM GAS  C:\Users\ADMINI~1\AppData\Local\Temp\ccahqaTu.s 			page 17


 508              		.loc 1 407 3 view .LVU182
 408:Drivers/STM32F4xx_HAL_Driver/Src/stm32f4xx_hal_rtc_ex.c **** }
 509              		.loc 1 408 1 is_stmt 0 view .LVU183
 510 0050 0020     		movs	r0, #0
 511 0052 70BD     		pop	{r4, r5, r6, pc}
 512              	.LVL35:
 513              	.L23:
 394:Drivers/STM32F4xx_HAL_Driver/Src/stm32f4xx_hal_rtc_ex.c ****     sTimeStamp->Minutes = (uint8_t)RTC_Bcd2ToByte(sTimeStamp->Minutes);
 514              		.loc 1 394 5 is_stmt 1 view .LVU184
 394:Drivers/STM32F4xx_HAL_Driver/Src/stm32f4xx_hal_rtc_ex.c ****     sTimeStamp->Minutes = (uint8_t)RTC_Bcd2ToByte(sTimeStamp->Minutes);
 515              		.loc 1 394 36 is_stmt 0 view .LVU185
 516 0054 2078     		ldrb	r0, [r4]	@ zero_extendqisi2
 517 0056 FFF7FEFF 		bl	RTC_Bcd2ToByte
 518              	.LVL36:
 394:Drivers/STM32F4xx_HAL_Driver/Src/stm32f4xx_hal_rtc_ex.c ****     sTimeStamp->Minutes = (uint8_t)RTC_Bcd2ToByte(sTimeStamp->Minutes);
 519              		.loc 1 394 25 discriminator 1 view .LVU186
 520 005a 2070     		strb	r0, [r4]
 395:Drivers/STM32F4xx_HAL_Driver/Src/stm32f4xx_hal_rtc_ex.c ****     sTimeStamp->Seconds = (uint8_t)RTC_Bcd2ToByte(sTimeStamp->Seconds);
 521              		.loc 1 395 5 is_stmt 1 view .LVU187
 395:Drivers/STM32F4xx_HAL_Driver/Src/stm32f4xx_hal_rtc_ex.c ****     sTimeStamp->Seconds = (uint8_t)RTC_Bcd2ToByte(sTimeStamp->Seconds);
 522              		.loc 1 395 36 is_stmt 0 view .LVU188
 523 005c 6078     		ldrb	r0, [r4, #1]	@ zero_extendqisi2
 524 005e FFF7FEFF 		bl	RTC_Bcd2ToByte
 525              	.LVL37:
 395:Drivers/STM32F4xx_HAL_Driver/Src/stm32f4xx_hal_rtc_ex.c ****     sTimeStamp->Seconds = (uint8_t)RTC_Bcd2ToByte(sTimeStamp->Seconds);
 526              		.loc 1 395 25 discriminator 1 view .LVU189
 527 0062 6070     		strb	r0, [r4, #1]
 396:Drivers/STM32F4xx_HAL_Driver/Src/stm32f4xx_hal_rtc_ex.c **** 
 528              		.loc 1 396 5 is_stmt 1 view .LVU190
 396:Drivers/STM32F4xx_HAL_Driver/Src/stm32f4xx_hal_rtc_ex.c **** 
 529              		.loc 1 396 36 is_stmt 0 view .LVU191
 530 0064 A078     		ldrb	r0, [r4, #2]	@ zero_extendqisi2
 531 0066 FFF7FEFF 		bl	RTC_Bcd2ToByte
 532              	.LVL38:
 396:Drivers/STM32F4xx_HAL_Driver/Src/stm32f4xx_hal_rtc_ex.c **** 
 533              		.loc 1 396 25 discriminator 1 view .LVU192
 534 006a A070     		strb	r0, [r4, #2]
 399:Drivers/STM32F4xx_HAL_Driver/Src/stm32f4xx_hal_rtc_ex.c ****     sTimeStampDate->Date    = (uint8_t)RTC_Bcd2ToByte(sTimeStampDate->Date);
 535              		.loc 1 399 5 is_stmt 1 view .LVU193
 399:Drivers/STM32F4xx_HAL_Driver/Src/stm32f4xx_hal_rtc_ex.c ****     sTimeStampDate->Date    = (uint8_t)RTC_Bcd2ToByte(sTimeStampDate->Date);
 536              		.loc 1 399 40 is_stmt 0 view .LVU194
 537 006c 6878     		ldrb	r0, [r5, #1]	@ zero_extendqisi2
 538 006e FFF7FEFF 		bl	RTC_Bcd2ToByte
 539              	.LVL39:
 399:Drivers/STM32F4xx_HAL_Driver/Src/stm32f4xx_hal_rtc_ex.c ****     sTimeStampDate->Date    = (uint8_t)RTC_Bcd2ToByte(sTimeStampDate->Date);
 540              		.loc 1 399 29 discriminator 1 view .LVU195
 541 0072 6870     		strb	r0, [r5, #1]
 400:Drivers/STM32F4xx_HAL_Driver/Src/stm32f4xx_hal_rtc_ex.c ****     sTimeStampDate->WeekDay = (uint8_t)RTC_Bcd2ToByte(sTimeStampDate->WeekDay);
 542              		.loc 1 400 5 is_stmt 1 view .LVU196
 400:Drivers/STM32F4xx_HAL_Driver/Src/stm32f4xx_hal_rtc_ex.c ****     sTimeStampDate->WeekDay = (uint8_t)RTC_Bcd2ToByte(sTimeStampDate->WeekDay);
 543              		.loc 1 400 40 is_stmt 0 view .LVU197
 544 0074 A878     		ldrb	r0, [r5, #2]	@ zero_extendqisi2
 545 0076 FFF7FEFF 		bl	RTC_Bcd2ToByte
 546              	.LVL40:
 400:Drivers/STM32F4xx_HAL_Driver/Src/stm32f4xx_hal_rtc_ex.c ****     sTimeStampDate->WeekDay = (uint8_t)RTC_Bcd2ToByte(sTimeStampDate->WeekDay);
 547              		.loc 1 400 29 discriminator 1 view .LVU198
 548 007a A870     		strb	r0, [r5, #2]
ARM GAS  C:\Users\ADMINI~1\AppData\Local\Temp\ccahqaTu.s 			page 18


 401:Drivers/STM32F4xx_HAL_Driver/Src/stm32f4xx_hal_rtc_ex.c ****   }
 549              		.loc 1 401 5 is_stmt 1 view .LVU199
 401:Drivers/STM32F4xx_HAL_Driver/Src/stm32f4xx_hal_rtc_ex.c ****   }
 550              		.loc 1 401 40 is_stmt 0 view .LVU200
 551 007c 2878     		ldrb	r0, [r5]	@ zero_extendqisi2
 552 007e FFF7FEFF 		bl	RTC_Bcd2ToByte
 553              	.LVL41:
 401:Drivers/STM32F4xx_HAL_Driver/Src/stm32f4xx_hal_rtc_ex.c ****   }
 554              		.loc 1 401 29 discriminator 1 view .LVU201
 555 0082 2870     		strb	r0, [r5]
 556 0084 DEE7     		b	.L21
 557              		.cfi_endproc
 558              	.LFE238:
 560              		.section	.text.HAL_RTCEx_SetTamper,"ax",%progbits
 561              		.align	1
 562              		.global	HAL_RTCEx_SetTamper
 563              		.syntax unified
 564              		.thumb
 565              		.thumb_func
 567              	HAL_RTCEx_SetTamper:
 568              	.LVL42:
 569              	.LFB239:
 409:Drivers/STM32F4xx_HAL_Driver/Src/stm32f4xx_hal_rtc_ex.c **** 
 410:Drivers/STM32F4xx_HAL_Driver/Src/stm32f4xx_hal_rtc_ex.c **** /**
 411:Drivers/STM32F4xx_HAL_Driver/Src/stm32f4xx_hal_rtc_ex.c ****   * @brief  Sets Tamper.
 412:Drivers/STM32F4xx_HAL_Driver/Src/stm32f4xx_hal_rtc_ex.c ****   * @note   By calling this API the tamper global interrupt will be disabled.
 413:Drivers/STM32F4xx_HAL_Driver/Src/stm32f4xx_hal_rtc_ex.c ****   * @param  hrtc pointer to a RTC_HandleTypeDef structure that contains
 414:Drivers/STM32F4xx_HAL_Driver/Src/stm32f4xx_hal_rtc_ex.c ****   *                the configuration information for RTC.
 415:Drivers/STM32F4xx_HAL_Driver/Src/stm32f4xx_hal_rtc_ex.c ****   * @param  sTamper Pointer to Tamper Structure.
 416:Drivers/STM32F4xx_HAL_Driver/Src/stm32f4xx_hal_rtc_ex.c ****   * @retval HAL status
 417:Drivers/STM32F4xx_HAL_Driver/Src/stm32f4xx_hal_rtc_ex.c ****   */
 418:Drivers/STM32F4xx_HAL_Driver/Src/stm32f4xx_hal_rtc_ex.c **** HAL_StatusTypeDef HAL_RTCEx_SetTamper(RTC_HandleTypeDef *hrtc, RTC_TamperTypeDef *sTamper)
 419:Drivers/STM32F4xx_HAL_Driver/Src/stm32f4xx_hal_rtc_ex.c **** {
 570              		.loc 1 419 1 is_stmt 1 view -0
 571              		.cfi_startproc
 572              		@ args = 0, pretend = 0, frame = 0
 573              		@ frame_needed = 0, uses_anonymous_args = 0
 574              		@ link register save eliminated.
 420:Drivers/STM32F4xx_HAL_Driver/Src/stm32f4xx_hal_rtc_ex.c ****   uint32_t tmpreg = 0U;
 575              		.loc 1 420 3 view .LVU203
 421:Drivers/STM32F4xx_HAL_Driver/Src/stm32f4xx_hal_rtc_ex.c **** 
 422:Drivers/STM32F4xx_HAL_Driver/Src/stm32f4xx_hal_rtc_ex.c ****   /* Check the parameters */
 423:Drivers/STM32F4xx_HAL_Driver/Src/stm32f4xx_hal_rtc_ex.c ****   assert_param(IS_RTC_TAMPER(sTamper->Tamper));
 576              		.loc 1 423 3 view .LVU204
 424:Drivers/STM32F4xx_HAL_Driver/Src/stm32f4xx_hal_rtc_ex.c ****   assert_param(IS_RTC_TAMPER_PIN(sTamper->PinSelection));
 577              		.loc 1 424 3 view .LVU205
 425:Drivers/STM32F4xx_HAL_Driver/Src/stm32f4xx_hal_rtc_ex.c ****   assert_param(IS_RTC_TAMPER_TRIGGER(sTamper->Trigger));
 578              		.loc 1 425 3 view .LVU206
 426:Drivers/STM32F4xx_HAL_Driver/Src/stm32f4xx_hal_rtc_ex.c ****   assert_param(IS_RTC_TAMPER_FILTER(sTamper->Filter));
 579              		.loc 1 426 3 view .LVU207
 427:Drivers/STM32F4xx_HAL_Driver/Src/stm32f4xx_hal_rtc_ex.c ****   assert_param(IS_RTC_TAMPER_FILTER_CONFIG_CORRECT(sTamper->Filter, sTamper->Trigger));
 580              		.loc 1 427 3 view .LVU208
 428:Drivers/STM32F4xx_HAL_Driver/Src/stm32f4xx_hal_rtc_ex.c ****   assert_param(IS_RTC_TAMPER_SAMPLING_FREQ(sTamper->SamplingFrequency));
 581              		.loc 1 428 3 view .LVU209
 429:Drivers/STM32F4xx_HAL_Driver/Src/stm32f4xx_hal_rtc_ex.c ****   assert_param(IS_RTC_TAMPER_PRECHARGE_DURATION(sTamper->PrechargeDuration));
 582              		.loc 1 429 3 view .LVU210
 430:Drivers/STM32F4xx_HAL_Driver/Src/stm32f4xx_hal_rtc_ex.c ****   assert_param(IS_RTC_TAMPER_PULLUP_STATE(sTamper->TamperPullUp));
ARM GAS  C:\Users\ADMINI~1\AppData\Local\Temp\ccahqaTu.s 			page 19


 583              		.loc 1 430 3 view .LVU211
 431:Drivers/STM32F4xx_HAL_Driver/Src/stm32f4xx_hal_rtc_ex.c ****   assert_param(IS_RTC_TAMPER_TIMESTAMPONTAMPER_DETECTION(sTamper->TimeStampOnTamperDetection));
 584              		.loc 1 431 3 view .LVU212
 432:Drivers/STM32F4xx_HAL_Driver/Src/stm32f4xx_hal_rtc_ex.c **** 
 433:Drivers/STM32F4xx_HAL_Driver/Src/stm32f4xx_hal_rtc_ex.c ****   /* Process Locked */
 434:Drivers/STM32F4xx_HAL_Driver/Src/stm32f4xx_hal_rtc_ex.c ****   __HAL_LOCK(hrtc);
 585              		.loc 1 434 3 view .LVU213
 586              		.loc 1 434 3 view .LVU214
 587 0000 037F     		ldrb	r3, [r0, #28]	@ zero_extendqisi2
 588 0002 012B     		cmp	r3, #1
 589 0004 28D0     		beq	.L28
 419:Drivers/STM32F4xx_HAL_Driver/Src/stm32f4xx_hal_rtc_ex.c ****   uint32_t tmpreg = 0U;
 590              		.loc 1 419 1 is_stmt 0 view .LVU215
 591 0006 30B4     		push	{r4, r5}
 592              	.LCFI5:
 593              		.cfi_def_cfa_offset 8
 594              		.cfi_offset 4, -8
 595              		.cfi_offset 5, -4
 596 0008 0246     		mov	r2, r0
 597              		.loc 1 434 3 is_stmt 1 discriminator 2 view .LVU216
 598 000a 0123     		movs	r3, #1
 599 000c 0377     		strb	r3, [r0, #28]
 600              		.loc 1 434 3 discriminator 2 view .LVU217
 435:Drivers/STM32F4xx_HAL_Driver/Src/stm32f4xx_hal_rtc_ex.c **** 
 436:Drivers/STM32F4xx_HAL_Driver/Src/stm32f4xx_hal_rtc_ex.c ****   hrtc->State = HAL_RTC_STATE_BUSY;
 601              		.loc 1 436 3 view .LVU218
 602              		.loc 1 436 15 is_stmt 0 view .LVU219
 603 000e 0223     		movs	r3, #2
 604 0010 4377     		strb	r3, [r0, #29]
 437:Drivers/STM32F4xx_HAL_Driver/Src/stm32f4xx_hal_rtc_ex.c **** 
 438:Drivers/STM32F4xx_HAL_Driver/Src/stm32f4xx_hal_rtc_ex.c ****   /* Copy control register into temporary variable */
 439:Drivers/STM32F4xx_HAL_Driver/Src/stm32f4xx_hal_rtc_ex.c ****   tmpreg = hrtc->Instance->TAFCR;
 605              		.loc 1 439 3 is_stmt 1 view .LVU220
 606              		.loc 1 439 16 is_stmt 0 view .LVU221
 607 0012 0468     		ldr	r4, [r0]
 608              		.loc 1 439 10 view .LVU222
 609 0014 206C     		ldr	r0, [r4, #64]
 610              	.LVL43:
 440:Drivers/STM32F4xx_HAL_Driver/Src/stm32f4xx_hal_rtc_ex.c **** 
 441:Drivers/STM32F4xx_HAL_Driver/Src/stm32f4xx_hal_rtc_ex.c ****   /* Enable selected tamper */
 442:Drivers/STM32F4xx_HAL_Driver/Src/stm32f4xx_hal_rtc_ex.c ****   tmpreg |= (sTamper->Tamper);
 611              		.loc 1 442 3 is_stmt 1 view .LVU223
 612              		.loc 1 442 21 is_stmt 0 view .LVU224
 613 0016 0D68     		ldr	r5, [r1]
 614              		.loc 1 442 10 view .LVU225
 615 0018 2843     		orrs	r0, r0, r5
 616              	.LVL44:
 443:Drivers/STM32F4xx_HAL_Driver/Src/stm32f4xx_hal_rtc_ex.c **** 
 444:Drivers/STM32F4xx_HAL_Driver/Src/stm32f4xx_hal_rtc_ex.c ****   /* Configure the tamper trigger bit (this bit is just on the right of the
 445:Drivers/STM32F4xx_HAL_Driver/Src/stm32f4xx_hal_rtc_ex.c ****        tamper enable bit, hence the one-time right shift before updating it) */
 446:Drivers/STM32F4xx_HAL_Driver/Src/stm32f4xx_hal_rtc_ex.c ****   if (sTamper->Trigger == RTC_TAMPERTRIGGER_FALLINGEDGE)
 617              		.loc 1 446 3 is_stmt 1 view .LVU226
 618              		.loc 1 446 14 is_stmt 0 view .LVU227
 619 001a 8B68     		ldr	r3, [r1, #8]
 620              		.loc 1 446 6 view .LVU228
 621 001c 022B     		cmp	r3, #2
 622 001e 18D0     		beq	.L33
ARM GAS  C:\Users\ADMINI~1\AppData\Local\Temp\ccahqaTu.s 			page 20


 447:Drivers/STM32F4xx_HAL_Driver/Src/stm32f4xx_hal_rtc_ex.c ****   {
 448:Drivers/STM32F4xx_HAL_Driver/Src/stm32f4xx_hal_rtc_ex.c ****     /* Set the tamper trigger bit (case of falling edge or high level) */
 449:Drivers/STM32F4xx_HAL_Driver/Src/stm32f4xx_hal_rtc_ex.c ****     tmpreg |= (uint32_t)(sTamper->Tamper << 1U);
 450:Drivers/STM32F4xx_HAL_Driver/Src/stm32f4xx_hal_rtc_ex.c ****   }
 451:Drivers/STM32F4xx_HAL_Driver/Src/stm32f4xx_hal_rtc_ex.c ****   else
 452:Drivers/STM32F4xx_HAL_Driver/Src/stm32f4xx_hal_rtc_ex.c ****   {
 453:Drivers/STM32F4xx_HAL_Driver/Src/stm32f4xx_hal_rtc_ex.c ****     /* Clear the tamper trigger bit (case of rising edge or low level) */
 454:Drivers/STM32F4xx_HAL_Driver/Src/stm32f4xx_hal_rtc_ex.c ****     tmpreg &= (uint32_t)~(sTamper->Tamper << 1U);
 623              		.loc 1 454 5 is_stmt 1 view .LVU229
 624              		.loc 1 454 12 is_stmt 0 view .LVU230
 625 0020 20EA4500 		bic	r0, r0, r5, lsl #1
 626              	.LVL45:
 627              	.L27:
 455:Drivers/STM32F4xx_HAL_Driver/Src/stm32f4xx_hal_rtc_ex.c ****   }
 456:Drivers/STM32F4xx_HAL_Driver/Src/stm32f4xx_hal_rtc_ex.c **** 
 457:Drivers/STM32F4xx_HAL_Driver/Src/stm32f4xx_hal_rtc_ex.c ****   /* Clear remaining fields before setting them */
 458:Drivers/STM32F4xx_HAL_Driver/Src/stm32f4xx_hal_rtc_ex.c ****   tmpreg &= ~(RTC_TAMPERFILTER_MASK              | \
 628              		.loc 1 458 3 is_stmt 1 view .LVU231
 629              		.loc 1 458 10 is_stmt 0 view .LVU232
 630 0024 6FF3D010 		bfc	r0, #7, #10
 631              	.LVL46:
 459:Drivers/STM32F4xx_HAL_Driver/Src/stm32f4xx_hal_rtc_ex.c ****               RTC_TAMPERSAMPLINGFREQ_RTCCLK_MASK | \
 460:Drivers/STM32F4xx_HAL_Driver/Src/stm32f4xx_hal_rtc_ex.c ****               RTC_TAMPERPRECHARGEDURATION_MASK   | \
 461:Drivers/STM32F4xx_HAL_Driver/Src/stm32f4xx_hal_rtc_ex.c ****               RTC_TAMPER_PULLUP_MASK             | \
 462:Drivers/STM32F4xx_HAL_Driver/Src/stm32f4xx_hal_rtc_ex.c ****               RTC_TAFCR_TAMP1INSEL               | \
 463:Drivers/STM32F4xx_HAL_Driver/Src/stm32f4xx_hal_rtc_ex.c ****               RTC_TIMESTAMPONTAMPERDETECTION_MASK);
 464:Drivers/STM32F4xx_HAL_Driver/Src/stm32f4xx_hal_rtc_ex.c **** 
 465:Drivers/STM32F4xx_HAL_Driver/Src/stm32f4xx_hal_rtc_ex.c ****   /* Set remaining parameters of desired configuration into temporary variable */
 466:Drivers/STM32F4xx_HAL_Driver/Src/stm32f4xx_hal_rtc_ex.c ****   tmpreg |= ((uint32_t)sTamper->Filter            | \
 632              		.loc 1 466 3 is_stmt 1 view .LVU233
 633              		.loc 1 466 31 is_stmt 0 view .LVU234
 634 0028 CB68     		ldr	r3, [r1, #12]
 467:Drivers/STM32F4xx_HAL_Driver/Src/stm32f4xx_hal_rtc_ex.c ****              (uint32_t)sTamper->SamplingFrequency | \
 635              		.loc 1 467 31 view .LVU235
 636 002a 0D69     		ldr	r5, [r1, #16]
 466:Drivers/STM32F4xx_HAL_Driver/Src/stm32f4xx_hal_rtc_ex.c ****              (uint32_t)sTamper->SamplingFrequency | \
 637              		.loc 1 466 51 view .LVU236
 638 002c 2B43     		orrs	r3, r3, r5
 468:Drivers/STM32F4xx_HAL_Driver/Src/stm32f4xx_hal_rtc_ex.c ****              (uint32_t)sTamper->PrechargeDuration | \
 639              		.loc 1 468 31 view .LVU237
 640 002e 4D69     		ldr	r5, [r1, #20]
 467:Drivers/STM32F4xx_HAL_Driver/Src/stm32f4xx_hal_rtc_ex.c ****              (uint32_t)sTamper->SamplingFrequency | \
 641              		.loc 1 467 51 view .LVU238
 642 0030 2B43     		orrs	r3, r3, r5
 469:Drivers/STM32F4xx_HAL_Driver/Src/stm32f4xx_hal_rtc_ex.c ****              (uint32_t)sTamper->TamperPullUp      | \
 643              		.loc 1 469 31 view .LVU239
 644 0032 8D69     		ldr	r5, [r1, #24]
 468:Drivers/STM32F4xx_HAL_Driver/Src/stm32f4xx_hal_rtc_ex.c ****              (uint32_t)sTamper->PrechargeDuration | \
 645              		.loc 1 468 51 view .LVU240
 646 0034 2B43     		orrs	r3, r3, r5
 470:Drivers/STM32F4xx_HAL_Driver/Src/stm32f4xx_hal_rtc_ex.c ****              (uint32_t)sTamper->PinSelection      | \
 647              		.loc 1 470 31 view .LVU241
 648 0036 4D68     		ldr	r5, [r1, #4]
 469:Drivers/STM32F4xx_HAL_Driver/Src/stm32f4xx_hal_rtc_ex.c ****              (uint32_t)sTamper->TamperPullUp      | \
 649              		.loc 1 469 51 view .LVU242
 650 0038 2B43     		orrs	r3, r3, r5
 471:Drivers/STM32F4xx_HAL_Driver/Src/stm32f4xx_hal_rtc_ex.c ****              (uint32_t)sTamper->TimeStampOnTamperDetection);
ARM GAS  C:\Users\ADMINI~1\AppData\Local\Temp\ccahqaTu.s 			page 21


 651              		.loc 1 471 31 view .LVU243
 652 003a C969     		ldr	r1, [r1, #28]
 653              	.LVL47:
 470:Drivers/STM32F4xx_HAL_Driver/Src/stm32f4xx_hal_rtc_ex.c ****              (uint32_t)sTamper->PinSelection      | \
 654              		.loc 1 470 51 view .LVU244
 655 003c 0B43     		orrs	r3, r3, r1
 466:Drivers/STM32F4xx_HAL_Driver/Src/stm32f4xx_hal_rtc_ex.c ****              (uint32_t)sTamper->SamplingFrequency | \
 656              		.loc 1 466 10 view .LVU245
 657 003e 0343     		orrs	r3, r3, r0
 658              	.LVL48:
 472:Drivers/STM32F4xx_HAL_Driver/Src/stm32f4xx_hal_rtc_ex.c **** 
 473:Drivers/STM32F4xx_HAL_Driver/Src/stm32f4xx_hal_rtc_ex.c ****   /* Disable tamper global interrupt in case it is enabled */
 474:Drivers/STM32F4xx_HAL_Driver/Src/stm32f4xx_hal_rtc_ex.c ****   tmpreg &= (uint32_t)~RTC_TAFCR_TAMPIE;
 659              		.loc 1 474 3 is_stmt 1 view .LVU246
 660              		.loc 1 474 10 is_stmt 0 view .LVU247
 661 0040 23F00403 		bic	r3, r3, #4
 662              	.LVL49:
 475:Drivers/STM32F4xx_HAL_Driver/Src/stm32f4xx_hal_rtc_ex.c **** 
 476:Drivers/STM32F4xx_HAL_Driver/Src/stm32f4xx_hal_rtc_ex.c ****   /* Copy desired configuration into configuration register */
 477:Drivers/STM32F4xx_HAL_Driver/Src/stm32f4xx_hal_rtc_ex.c ****   hrtc->Instance->TAFCR = tmpreg;
 663              		.loc 1 477 3 is_stmt 1 view .LVU248
 664              		.loc 1 477 25 is_stmt 0 view .LVU249
 665 0044 2364     		str	r3, [r4, #64]
 478:Drivers/STM32F4xx_HAL_Driver/Src/stm32f4xx_hal_rtc_ex.c **** 
 479:Drivers/STM32F4xx_HAL_Driver/Src/stm32f4xx_hal_rtc_ex.c ****   hrtc->State = HAL_RTC_STATE_READY;
 666              		.loc 1 479 3 is_stmt 1 view .LVU250
 667              		.loc 1 479 15 is_stmt 0 view .LVU251
 668 0046 0123     		movs	r3, #1
 669              	.LVL50:
 670              		.loc 1 479 15 view .LVU252
 671 0048 5377     		strb	r3, [r2, #29]
 672              	.LVL51:
 480:Drivers/STM32F4xx_HAL_Driver/Src/stm32f4xx_hal_rtc_ex.c **** 
 481:Drivers/STM32F4xx_HAL_Driver/Src/stm32f4xx_hal_rtc_ex.c ****   /* Process Unlocked */
 482:Drivers/STM32F4xx_HAL_Driver/Src/stm32f4xx_hal_rtc_ex.c ****   __HAL_UNLOCK(hrtc);
 673              		.loc 1 482 3 is_stmt 1 view .LVU253
 674              		.loc 1 482 3 view .LVU254
 675 004a 0020     		movs	r0, #0
 676 004c 1077     		strb	r0, [r2, #28]
 677              		.loc 1 482 3 view .LVU255
 483:Drivers/STM32F4xx_HAL_Driver/Src/stm32f4xx_hal_rtc_ex.c **** 
 484:Drivers/STM32F4xx_HAL_Driver/Src/stm32f4xx_hal_rtc_ex.c ****   return HAL_OK;
 678              		.loc 1 484 3 view .LVU256
 485:Drivers/STM32F4xx_HAL_Driver/Src/stm32f4xx_hal_rtc_ex.c **** }
 679              		.loc 1 485 1 is_stmt 0 view .LVU257
 680 004e 30BC     		pop	{r4, r5}
 681              	.LCFI6:
 682              		.cfi_remember_state
 683              		.cfi_restore 5
 684              		.cfi_restore 4
 685              		.cfi_def_cfa_offset 0
 686 0050 7047     		bx	lr
 687              	.LVL52:
 688              	.L33:
 689              	.LCFI7:
 690              		.cfi_restore_state
 449:Drivers/STM32F4xx_HAL_Driver/Src/stm32f4xx_hal_rtc_ex.c ****   }
ARM GAS  C:\Users\ADMINI~1\AppData\Local\Temp\ccahqaTu.s 			page 22


 691              		.loc 1 449 5 is_stmt 1 view .LVU258
 449:Drivers/STM32F4xx_HAL_Driver/Src/stm32f4xx_hal_rtc_ex.c ****   }
 692              		.loc 1 449 12 is_stmt 0 view .LVU259
 693 0052 40EA4500 		orr	r0, r0, r5, lsl #1
 694              	.LVL53:
 449:Drivers/STM32F4xx_HAL_Driver/Src/stm32f4xx_hal_rtc_ex.c ****   }
 695              		.loc 1 449 12 view .LVU260
 696 0056 E5E7     		b	.L27
 697              	.LVL54:
 698              	.L28:
 699              	.LCFI8:
 700              		.cfi_def_cfa_offset 0
 701              		.cfi_restore 4
 702              		.cfi_restore 5
 434:Drivers/STM32F4xx_HAL_Driver/Src/stm32f4xx_hal_rtc_ex.c **** 
 703              		.loc 1 434 3 discriminator 1 view .LVU261
 704 0058 0220     		movs	r0, #2
 705              	.LVL55:
 706              		.loc 1 485 1 view .LVU262
 707 005a 7047     		bx	lr
 708              		.cfi_endproc
 709              	.LFE239:
 711              		.section	.text.HAL_RTCEx_SetTamper_IT,"ax",%progbits
 712              		.align	1
 713              		.global	HAL_RTCEx_SetTamper_IT
 714              		.syntax unified
 715              		.thumb
 716              		.thumb_func
 718              	HAL_RTCEx_SetTamper_IT:
 719              	.LVL56:
 720              	.LFB240:
 486:Drivers/STM32F4xx_HAL_Driver/Src/stm32f4xx_hal_rtc_ex.c **** 
 487:Drivers/STM32F4xx_HAL_Driver/Src/stm32f4xx_hal_rtc_ex.c **** /**
 488:Drivers/STM32F4xx_HAL_Driver/Src/stm32f4xx_hal_rtc_ex.c ****   * @brief  Sets Tamper with interrupt.
 489:Drivers/STM32F4xx_HAL_Driver/Src/stm32f4xx_hal_rtc_ex.c ****   * @note   By calling this API the tamper global interrupt will be enabled.
 490:Drivers/STM32F4xx_HAL_Driver/Src/stm32f4xx_hal_rtc_ex.c ****   * @param  hrtc pointer to a RTC_HandleTypeDef structure that contains
 491:Drivers/STM32F4xx_HAL_Driver/Src/stm32f4xx_hal_rtc_ex.c ****   *                the configuration information for RTC.
 492:Drivers/STM32F4xx_HAL_Driver/Src/stm32f4xx_hal_rtc_ex.c ****   * @param  sTamper Pointer to RTC Tamper.
 493:Drivers/STM32F4xx_HAL_Driver/Src/stm32f4xx_hal_rtc_ex.c ****   * @retval HAL status
 494:Drivers/STM32F4xx_HAL_Driver/Src/stm32f4xx_hal_rtc_ex.c ****   */
 495:Drivers/STM32F4xx_HAL_Driver/Src/stm32f4xx_hal_rtc_ex.c **** HAL_StatusTypeDef HAL_RTCEx_SetTamper_IT(RTC_HandleTypeDef *hrtc, RTC_TamperTypeDef *sTamper)
 496:Drivers/STM32F4xx_HAL_Driver/Src/stm32f4xx_hal_rtc_ex.c **** {
 721              		.loc 1 496 1 is_stmt 1 view -0
 722              		.cfi_startproc
 723              		@ args = 0, pretend = 0, frame = 0
 724              		@ frame_needed = 0, uses_anonymous_args = 0
 725              		@ link register save eliminated.
 497:Drivers/STM32F4xx_HAL_Driver/Src/stm32f4xx_hal_rtc_ex.c ****   uint32_t tmpreg = 0U;
 726              		.loc 1 497 3 view .LVU264
 498:Drivers/STM32F4xx_HAL_Driver/Src/stm32f4xx_hal_rtc_ex.c **** 
 499:Drivers/STM32F4xx_HAL_Driver/Src/stm32f4xx_hal_rtc_ex.c ****   /* Check the parameters */
 500:Drivers/STM32F4xx_HAL_Driver/Src/stm32f4xx_hal_rtc_ex.c ****   assert_param(IS_RTC_TAMPER(sTamper->Tamper));
 727              		.loc 1 500 3 view .LVU265
 501:Drivers/STM32F4xx_HAL_Driver/Src/stm32f4xx_hal_rtc_ex.c ****   assert_param(IS_RTC_TAMPER_PIN(sTamper->PinSelection));
 728              		.loc 1 501 3 view .LVU266
 502:Drivers/STM32F4xx_HAL_Driver/Src/stm32f4xx_hal_rtc_ex.c ****   assert_param(IS_RTC_TAMPER_TRIGGER(sTamper->Trigger));
 729              		.loc 1 502 3 view .LVU267
ARM GAS  C:\Users\ADMINI~1\AppData\Local\Temp\ccahqaTu.s 			page 23


 503:Drivers/STM32F4xx_HAL_Driver/Src/stm32f4xx_hal_rtc_ex.c ****   assert_param(IS_RTC_TAMPER_FILTER(sTamper->Filter));
 730              		.loc 1 503 3 view .LVU268
 504:Drivers/STM32F4xx_HAL_Driver/Src/stm32f4xx_hal_rtc_ex.c ****   assert_param(IS_RTC_TAMPER_FILTER_CONFIG_CORRECT(sTamper->Filter, sTamper->Trigger));
 731              		.loc 1 504 3 view .LVU269
 505:Drivers/STM32F4xx_HAL_Driver/Src/stm32f4xx_hal_rtc_ex.c ****   assert_param(IS_RTC_TAMPER_SAMPLING_FREQ(sTamper->SamplingFrequency));
 732              		.loc 1 505 3 view .LVU270
 506:Drivers/STM32F4xx_HAL_Driver/Src/stm32f4xx_hal_rtc_ex.c ****   assert_param(IS_RTC_TAMPER_PRECHARGE_DURATION(sTamper->PrechargeDuration));
 733              		.loc 1 506 3 view .LVU271
 507:Drivers/STM32F4xx_HAL_Driver/Src/stm32f4xx_hal_rtc_ex.c ****   assert_param(IS_RTC_TAMPER_PULLUP_STATE(sTamper->TamperPullUp));
 734              		.loc 1 507 3 view .LVU272
 508:Drivers/STM32F4xx_HAL_Driver/Src/stm32f4xx_hal_rtc_ex.c ****   assert_param(IS_RTC_TAMPER_TIMESTAMPONTAMPER_DETECTION(sTamper->TimeStampOnTamperDetection));
 735              		.loc 1 508 3 view .LVU273
 509:Drivers/STM32F4xx_HAL_Driver/Src/stm32f4xx_hal_rtc_ex.c **** 
 510:Drivers/STM32F4xx_HAL_Driver/Src/stm32f4xx_hal_rtc_ex.c ****   /* Process Locked */
 511:Drivers/STM32F4xx_HAL_Driver/Src/stm32f4xx_hal_rtc_ex.c ****   __HAL_LOCK(hrtc);
 736              		.loc 1 511 3 view .LVU274
 737              		.loc 1 511 3 view .LVU275
 738 0000 037F     		ldrb	r3, [r0, #28]	@ zero_extendqisi2
 739 0002 012B     		cmp	r3, #1
 740 0004 31D0     		beq	.L38
 496:Drivers/STM32F4xx_HAL_Driver/Src/stm32f4xx_hal_rtc_ex.c ****   uint32_t tmpreg = 0U;
 741              		.loc 1 496 1 is_stmt 0 view .LVU276
 742 0006 30B4     		push	{r4, r5}
 743              	.LCFI9:
 744              		.cfi_def_cfa_offset 8
 745              		.cfi_offset 4, -8
 746              		.cfi_offset 5, -4
 747 0008 0246     		mov	r2, r0
 748              		.loc 1 511 3 is_stmt 1 discriminator 2 view .LVU277
 749 000a 0123     		movs	r3, #1
 750 000c 0377     		strb	r3, [r0, #28]
 751              		.loc 1 511 3 discriminator 2 view .LVU278
 512:Drivers/STM32F4xx_HAL_Driver/Src/stm32f4xx_hal_rtc_ex.c **** 
 513:Drivers/STM32F4xx_HAL_Driver/Src/stm32f4xx_hal_rtc_ex.c ****   hrtc->State = HAL_RTC_STATE_BUSY;
 752              		.loc 1 513 3 view .LVU279
 753              		.loc 1 513 15 is_stmt 0 view .LVU280
 754 000e 0223     		movs	r3, #2
 755 0010 4377     		strb	r3, [r0, #29]
 514:Drivers/STM32F4xx_HAL_Driver/Src/stm32f4xx_hal_rtc_ex.c **** 
 515:Drivers/STM32F4xx_HAL_Driver/Src/stm32f4xx_hal_rtc_ex.c ****   /* Copy control register into temporary variable */
 516:Drivers/STM32F4xx_HAL_Driver/Src/stm32f4xx_hal_rtc_ex.c ****   tmpreg = hrtc->Instance->TAFCR;
 756              		.loc 1 516 3 is_stmt 1 view .LVU281
 757              		.loc 1 516 16 is_stmt 0 view .LVU282
 758 0012 0468     		ldr	r4, [r0]
 759              		.loc 1 516 10 view .LVU283
 760 0014 206C     		ldr	r0, [r4, #64]
 761              	.LVL57:
 517:Drivers/STM32F4xx_HAL_Driver/Src/stm32f4xx_hal_rtc_ex.c **** 
 518:Drivers/STM32F4xx_HAL_Driver/Src/stm32f4xx_hal_rtc_ex.c ****   /* Enable selected tamper */
 519:Drivers/STM32F4xx_HAL_Driver/Src/stm32f4xx_hal_rtc_ex.c ****   tmpreg |= (sTamper->Tamper);
 762              		.loc 1 519 3 is_stmt 1 view .LVU284
 763              		.loc 1 519 21 is_stmt 0 view .LVU285
 764 0016 0D68     		ldr	r5, [r1]
 765              		.loc 1 519 10 view .LVU286
 766 0018 2843     		orrs	r0, r0, r5
 767              	.LVL58:
 520:Drivers/STM32F4xx_HAL_Driver/Src/stm32f4xx_hal_rtc_ex.c **** 
ARM GAS  C:\Users\ADMINI~1\AppData\Local\Temp\ccahqaTu.s 			page 24


 521:Drivers/STM32F4xx_HAL_Driver/Src/stm32f4xx_hal_rtc_ex.c ****   /* Configure the tamper trigger bit (this bit is just on the right of the
 522:Drivers/STM32F4xx_HAL_Driver/Src/stm32f4xx_hal_rtc_ex.c ****        tamper enable bit, hence the one-time right shift before updating it) */
 523:Drivers/STM32F4xx_HAL_Driver/Src/stm32f4xx_hal_rtc_ex.c ****   if (sTamper->Trigger == RTC_TAMPERTRIGGER_FALLINGEDGE)
 768              		.loc 1 523 3 is_stmt 1 view .LVU287
 769              		.loc 1 523 14 is_stmt 0 view .LVU288
 770 001a 8B68     		ldr	r3, [r1, #8]
 771              		.loc 1 523 6 view .LVU289
 772 001c 022B     		cmp	r3, #2
 773 001e 21D0     		beq	.L43
 524:Drivers/STM32F4xx_HAL_Driver/Src/stm32f4xx_hal_rtc_ex.c ****   {
 525:Drivers/STM32F4xx_HAL_Driver/Src/stm32f4xx_hal_rtc_ex.c ****     /* Set the tamper trigger bit (case of falling edge or high level) */
 526:Drivers/STM32F4xx_HAL_Driver/Src/stm32f4xx_hal_rtc_ex.c ****     tmpreg |= (uint32_t)(sTamper->Tamper << 1U);
 527:Drivers/STM32F4xx_HAL_Driver/Src/stm32f4xx_hal_rtc_ex.c ****   }
 528:Drivers/STM32F4xx_HAL_Driver/Src/stm32f4xx_hal_rtc_ex.c ****   else
 529:Drivers/STM32F4xx_HAL_Driver/Src/stm32f4xx_hal_rtc_ex.c ****   {
 530:Drivers/STM32F4xx_HAL_Driver/Src/stm32f4xx_hal_rtc_ex.c ****     /* Clear the tamper trigger bit (case of rising edge or low level) */
 531:Drivers/STM32F4xx_HAL_Driver/Src/stm32f4xx_hal_rtc_ex.c ****     tmpreg &= (uint32_t)~(sTamper->Tamper << 1U);
 774              		.loc 1 531 5 is_stmt 1 view .LVU290
 775              		.loc 1 531 12 is_stmt 0 view .LVU291
 776 0020 20EA4500 		bic	r0, r0, r5, lsl #1
 777              	.LVL59:
 778              	.L37:
 532:Drivers/STM32F4xx_HAL_Driver/Src/stm32f4xx_hal_rtc_ex.c ****   }
 533:Drivers/STM32F4xx_HAL_Driver/Src/stm32f4xx_hal_rtc_ex.c **** 
 534:Drivers/STM32F4xx_HAL_Driver/Src/stm32f4xx_hal_rtc_ex.c ****   /* Clear remaining fields before setting them */
 535:Drivers/STM32F4xx_HAL_Driver/Src/stm32f4xx_hal_rtc_ex.c ****   tmpreg &= ~(RTC_TAMPERFILTER_MASK              | \
 779              		.loc 1 535 3 is_stmt 1 view .LVU292
 780              		.loc 1 535 10 is_stmt 0 view .LVU293
 781 0024 6FF3D010 		bfc	r0, #7, #10
 782              	.LVL60:
 536:Drivers/STM32F4xx_HAL_Driver/Src/stm32f4xx_hal_rtc_ex.c ****               RTC_TAMPERSAMPLINGFREQ_RTCCLK_MASK | \
 537:Drivers/STM32F4xx_HAL_Driver/Src/stm32f4xx_hal_rtc_ex.c ****               RTC_TAMPERPRECHARGEDURATION_MASK   | \
 538:Drivers/STM32F4xx_HAL_Driver/Src/stm32f4xx_hal_rtc_ex.c ****               RTC_TAMPER_PULLUP_MASK             | \
 539:Drivers/STM32F4xx_HAL_Driver/Src/stm32f4xx_hal_rtc_ex.c ****               RTC_TAFCR_TAMP1INSEL               | \
 540:Drivers/STM32F4xx_HAL_Driver/Src/stm32f4xx_hal_rtc_ex.c ****               RTC_TIMESTAMPONTAMPERDETECTION_MASK);
 541:Drivers/STM32F4xx_HAL_Driver/Src/stm32f4xx_hal_rtc_ex.c **** 
 542:Drivers/STM32F4xx_HAL_Driver/Src/stm32f4xx_hal_rtc_ex.c ****   /* Set remaining parameters of desired configuration into temporary variable */
 543:Drivers/STM32F4xx_HAL_Driver/Src/stm32f4xx_hal_rtc_ex.c ****   tmpreg |= ((uint32_t)sTamper->Filter            | \
 783              		.loc 1 543 3 is_stmt 1 view .LVU294
 784              		.loc 1 543 31 is_stmt 0 view .LVU295
 785 0028 CB68     		ldr	r3, [r1, #12]
 544:Drivers/STM32F4xx_HAL_Driver/Src/stm32f4xx_hal_rtc_ex.c ****              (uint32_t)sTamper->SamplingFrequency | \
 786              		.loc 1 544 31 view .LVU296
 787 002a 0D69     		ldr	r5, [r1, #16]
 543:Drivers/STM32F4xx_HAL_Driver/Src/stm32f4xx_hal_rtc_ex.c ****              (uint32_t)sTamper->SamplingFrequency | \
 788              		.loc 1 543 51 view .LVU297
 789 002c 2B43     		orrs	r3, r3, r5
 545:Drivers/STM32F4xx_HAL_Driver/Src/stm32f4xx_hal_rtc_ex.c ****              (uint32_t)sTamper->PrechargeDuration | \
 790              		.loc 1 545 31 view .LVU298
 791 002e 4D69     		ldr	r5, [r1, #20]
 544:Drivers/STM32F4xx_HAL_Driver/Src/stm32f4xx_hal_rtc_ex.c ****              (uint32_t)sTamper->SamplingFrequency | \
 792              		.loc 1 544 51 view .LVU299
 793 0030 2B43     		orrs	r3, r3, r5
 546:Drivers/STM32F4xx_HAL_Driver/Src/stm32f4xx_hal_rtc_ex.c ****              (uint32_t)sTamper->TamperPullUp      | \
 794              		.loc 1 546 31 view .LVU300
 795 0032 8D69     		ldr	r5, [r1, #24]
 545:Drivers/STM32F4xx_HAL_Driver/Src/stm32f4xx_hal_rtc_ex.c ****              (uint32_t)sTamper->PrechargeDuration | \
ARM GAS  C:\Users\ADMINI~1\AppData\Local\Temp\ccahqaTu.s 			page 25


 796              		.loc 1 545 51 view .LVU301
 797 0034 2B43     		orrs	r3, r3, r5
 547:Drivers/STM32F4xx_HAL_Driver/Src/stm32f4xx_hal_rtc_ex.c ****              (uint32_t)sTamper->PinSelection      | \
 798              		.loc 1 547 31 view .LVU302
 799 0036 4D68     		ldr	r5, [r1, #4]
 546:Drivers/STM32F4xx_HAL_Driver/Src/stm32f4xx_hal_rtc_ex.c ****              (uint32_t)sTamper->TamperPullUp      | \
 800              		.loc 1 546 51 view .LVU303
 801 0038 2B43     		orrs	r3, r3, r5
 548:Drivers/STM32F4xx_HAL_Driver/Src/stm32f4xx_hal_rtc_ex.c ****              (uint32_t)sTamper->TimeStampOnTamperDetection);
 802              		.loc 1 548 31 view .LVU304
 803 003a C969     		ldr	r1, [r1, #28]
 804              	.LVL61:
 547:Drivers/STM32F4xx_HAL_Driver/Src/stm32f4xx_hal_rtc_ex.c ****              (uint32_t)sTamper->PinSelection      | \
 805              		.loc 1 547 51 view .LVU305
 806 003c 0B43     		orrs	r3, r3, r1
 543:Drivers/STM32F4xx_HAL_Driver/Src/stm32f4xx_hal_rtc_ex.c ****              (uint32_t)sTamper->SamplingFrequency | \
 807              		.loc 1 543 10 view .LVU306
 808 003e 0343     		orrs	r3, r3, r0
 809              	.LVL62:
 549:Drivers/STM32F4xx_HAL_Driver/Src/stm32f4xx_hal_rtc_ex.c **** 
 550:Drivers/STM32F4xx_HAL_Driver/Src/stm32f4xx_hal_rtc_ex.c ****   /* Enable global tamper interrupt */
 551:Drivers/STM32F4xx_HAL_Driver/Src/stm32f4xx_hal_rtc_ex.c ****   tmpreg |= (uint32_t)RTC_TAFCR_TAMPIE;
 810              		.loc 1 551 3 is_stmt 1 view .LVU307
 811              		.loc 1 551 10 is_stmt 0 view .LVU308
 812 0040 43F00403 		orr	r3, r3, #4
 813              	.LVL63:
 552:Drivers/STM32F4xx_HAL_Driver/Src/stm32f4xx_hal_rtc_ex.c **** 
 553:Drivers/STM32F4xx_HAL_Driver/Src/stm32f4xx_hal_rtc_ex.c ****   /* Copy desired configuration into configuration register */
 554:Drivers/STM32F4xx_HAL_Driver/Src/stm32f4xx_hal_rtc_ex.c ****   hrtc->Instance->TAFCR = tmpreg;
 814              		.loc 1 554 3 is_stmt 1 view .LVU309
 815              		.loc 1 554 25 is_stmt 0 view .LVU310
 816 0044 2364     		str	r3, [r4, #64]
 555:Drivers/STM32F4xx_HAL_Driver/Src/stm32f4xx_hal_rtc_ex.c **** 
 556:Drivers/STM32F4xx_HAL_Driver/Src/stm32f4xx_hal_rtc_ex.c ****   /* RTC Tamper Interrupt Configuration: EXTI configuration */
 557:Drivers/STM32F4xx_HAL_Driver/Src/stm32f4xx_hal_rtc_ex.c ****   __HAL_RTC_TAMPER_TIMESTAMP_EXTI_ENABLE_IT();
 817              		.loc 1 557 3 is_stmt 1 view .LVU311
 818 0046 0A4B     		ldr	r3, .L44
 819              	.LVL64:
 820              		.loc 1 557 3 is_stmt 0 view .LVU312
 821 0048 1968     		ldr	r1, [r3]
 822 004a 41F40011 		orr	r1, r1, #2097152
 823 004e 1960     		str	r1, [r3]
 824              	.LVL65:
 558:Drivers/STM32F4xx_HAL_Driver/Src/stm32f4xx_hal_rtc_ex.c ****   __HAL_RTC_TAMPER_TIMESTAMP_EXTI_ENABLE_RISING_EDGE();
 825              		.loc 1 558 3 is_stmt 1 view .LVU313
 826 0050 9968     		ldr	r1, [r3, #8]
 827 0052 41F40011 		orr	r1, r1, #2097152
 828 0056 9960     		str	r1, [r3, #8]
 559:Drivers/STM32F4xx_HAL_Driver/Src/stm32f4xx_hal_rtc_ex.c **** 
 560:Drivers/STM32F4xx_HAL_Driver/Src/stm32f4xx_hal_rtc_ex.c ****   hrtc->State = HAL_RTC_STATE_READY;
 829              		.loc 1 560 3 view .LVU314
 830              		.loc 1 560 15 is_stmt 0 view .LVU315
 831 0058 0123     		movs	r3, #1
 832 005a 5377     		strb	r3, [r2, #29]
 561:Drivers/STM32F4xx_HAL_Driver/Src/stm32f4xx_hal_rtc_ex.c **** 
 562:Drivers/STM32F4xx_HAL_Driver/Src/stm32f4xx_hal_rtc_ex.c ****   /* Process Unlocked */
 563:Drivers/STM32F4xx_HAL_Driver/Src/stm32f4xx_hal_rtc_ex.c ****   __HAL_UNLOCK(hrtc);
ARM GAS  C:\Users\ADMINI~1\AppData\Local\Temp\ccahqaTu.s 			page 26


 833              		.loc 1 563 3 is_stmt 1 view .LVU316
 834              		.loc 1 563 3 view .LVU317
 835 005c 0020     		movs	r0, #0
 836 005e 1077     		strb	r0, [r2, #28]
 837              		.loc 1 563 3 view .LVU318
 564:Drivers/STM32F4xx_HAL_Driver/Src/stm32f4xx_hal_rtc_ex.c **** 
 565:Drivers/STM32F4xx_HAL_Driver/Src/stm32f4xx_hal_rtc_ex.c ****   return HAL_OK;
 838              		.loc 1 565 3 view .LVU319
 566:Drivers/STM32F4xx_HAL_Driver/Src/stm32f4xx_hal_rtc_ex.c **** }
 839              		.loc 1 566 1 is_stmt 0 view .LVU320
 840 0060 30BC     		pop	{r4, r5}
 841              	.LCFI10:
 842              		.cfi_remember_state
 843              		.cfi_restore 5
 844              		.cfi_restore 4
 845              		.cfi_def_cfa_offset 0
 846 0062 7047     		bx	lr
 847              	.LVL66:
 848              	.L43:
 849              	.LCFI11:
 850              		.cfi_restore_state
 526:Drivers/STM32F4xx_HAL_Driver/Src/stm32f4xx_hal_rtc_ex.c ****   }
 851              		.loc 1 526 5 is_stmt 1 view .LVU321
 526:Drivers/STM32F4xx_HAL_Driver/Src/stm32f4xx_hal_rtc_ex.c ****   }
 852              		.loc 1 526 12 is_stmt 0 view .LVU322
 853 0064 40EA4500 		orr	r0, r0, r5, lsl #1
 854              	.LVL67:
 526:Drivers/STM32F4xx_HAL_Driver/Src/stm32f4xx_hal_rtc_ex.c ****   }
 855              		.loc 1 526 12 view .LVU323
 856 0068 DCE7     		b	.L37
 857              	.LVL68:
 858              	.L38:
 859              	.LCFI12:
 860              		.cfi_def_cfa_offset 0
 861              		.cfi_restore 4
 862              		.cfi_restore 5
 511:Drivers/STM32F4xx_HAL_Driver/Src/stm32f4xx_hal_rtc_ex.c **** 
 863              		.loc 1 511 3 discriminator 1 view .LVU324
 864 006a 0220     		movs	r0, #2
 865              	.LVL69:
 866              		.loc 1 566 1 view .LVU325
 867 006c 7047     		bx	lr
 868              	.L45:
 869 006e 00BF     		.align	2
 870              	.L44:
 871 0070 003C0140 		.word	1073822720
 872              		.cfi_endproc
 873              	.LFE240:
 875              		.section	.text.HAL_RTCEx_DeactivateTamper,"ax",%progbits
 876              		.align	1
 877              		.global	HAL_RTCEx_DeactivateTamper
 878              		.syntax unified
 879              		.thumb
 880              		.thumb_func
 882              	HAL_RTCEx_DeactivateTamper:
 883              	.LVL70:
 884              	.LFB241:
ARM GAS  C:\Users\ADMINI~1\AppData\Local\Temp\ccahqaTu.s 			page 27


 567:Drivers/STM32F4xx_HAL_Driver/Src/stm32f4xx_hal_rtc_ex.c **** 
 568:Drivers/STM32F4xx_HAL_Driver/Src/stm32f4xx_hal_rtc_ex.c **** /**
 569:Drivers/STM32F4xx_HAL_Driver/Src/stm32f4xx_hal_rtc_ex.c ****   * @brief  Deactivates Tamper.
 570:Drivers/STM32F4xx_HAL_Driver/Src/stm32f4xx_hal_rtc_ex.c ****   * @note   The tamper global interrupt bit will remain unchanged.
 571:Drivers/STM32F4xx_HAL_Driver/Src/stm32f4xx_hal_rtc_ex.c ****   * @param  hrtc pointer to a RTC_HandleTypeDef structure that contains
 572:Drivers/STM32F4xx_HAL_Driver/Src/stm32f4xx_hal_rtc_ex.c ****   *                the configuration information for RTC.
 573:Drivers/STM32F4xx_HAL_Driver/Src/stm32f4xx_hal_rtc_ex.c ****   * @param  Tamper Selected tamper pin.
 574:Drivers/STM32F4xx_HAL_Driver/Src/stm32f4xx_hal_rtc_ex.c ****   *          This parameter can be any combination of the following values:
 575:Drivers/STM32F4xx_HAL_Driver/Src/stm32f4xx_hal_rtc_ex.c ****   *            @arg RTC_TAMPER_1:  Tamper 1
 576:Drivers/STM32F4xx_HAL_Driver/Src/stm32f4xx_hal_rtc_ex.c ****   *            @arg RTC_TAMPER_2:  Tamper 2
 577:Drivers/STM32F4xx_HAL_Driver/Src/stm32f4xx_hal_rtc_ex.c ****   * @note   RTC_TAMPER_2 is not applicable to all devices.
 578:Drivers/STM32F4xx_HAL_Driver/Src/stm32f4xx_hal_rtc_ex.c ****   * @retval HAL status
 579:Drivers/STM32F4xx_HAL_Driver/Src/stm32f4xx_hal_rtc_ex.c ****   */
 580:Drivers/STM32F4xx_HAL_Driver/Src/stm32f4xx_hal_rtc_ex.c **** HAL_StatusTypeDef HAL_RTCEx_DeactivateTamper(RTC_HandleTypeDef *hrtc, uint32_t Tamper)
 581:Drivers/STM32F4xx_HAL_Driver/Src/stm32f4xx_hal_rtc_ex.c **** {
 885              		.loc 1 581 1 is_stmt 1 view -0
 886              		.cfi_startproc
 887              		@ args = 0, pretend = 0, frame = 0
 888              		@ frame_needed = 0, uses_anonymous_args = 0
 889              		@ link register save eliminated.
 582:Drivers/STM32F4xx_HAL_Driver/Src/stm32f4xx_hal_rtc_ex.c ****   assert_param(IS_RTC_TAMPER(Tamper));
 890              		.loc 1 582 3 view .LVU327
 583:Drivers/STM32F4xx_HAL_Driver/Src/stm32f4xx_hal_rtc_ex.c **** 
 584:Drivers/STM32F4xx_HAL_Driver/Src/stm32f4xx_hal_rtc_ex.c ****   /* Process Locked */
 585:Drivers/STM32F4xx_HAL_Driver/Src/stm32f4xx_hal_rtc_ex.c ****   __HAL_LOCK(hrtc);
 891              		.loc 1 585 3 view .LVU328
 892              		.loc 1 585 3 view .LVU329
 893 0000 037F     		ldrb	r3, [r0, #28]	@ zero_extendqisi2
 894 0002 012B     		cmp	r3, #1
 895 0004 10D0     		beq	.L48
 581:Drivers/STM32F4xx_HAL_Driver/Src/stm32f4xx_hal_rtc_ex.c ****   assert_param(IS_RTC_TAMPER(Tamper));
 896              		.loc 1 581 1 is_stmt 0 view .LVU330
 897 0006 10B4     		push	{r4}
 898              	.LCFI13:
 899              		.cfi_def_cfa_offset 4
 900              		.cfi_offset 4, -4
 901              		.loc 1 585 3 is_stmt 1 discriminator 2 view .LVU331
 902 0008 0122     		movs	r2, #1
 903 000a 0277     		strb	r2, [r0, #28]
 904              		.loc 1 585 3 discriminator 2 view .LVU332
 586:Drivers/STM32F4xx_HAL_Driver/Src/stm32f4xx_hal_rtc_ex.c **** 
 587:Drivers/STM32F4xx_HAL_Driver/Src/stm32f4xx_hal_rtc_ex.c ****   hrtc->State = HAL_RTC_STATE_BUSY;
 905              		.loc 1 587 3 view .LVU333
 906              		.loc 1 587 15 is_stmt 0 view .LVU334
 907 000c 0223     		movs	r3, #2
 908 000e 4377     		strb	r3, [r0, #29]
 588:Drivers/STM32F4xx_HAL_Driver/Src/stm32f4xx_hal_rtc_ex.c **** 
 589:Drivers/STM32F4xx_HAL_Driver/Src/stm32f4xx_hal_rtc_ex.c ****   /* Disable the selected Tamper pin */
 590:Drivers/STM32F4xx_HAL_Driver/Src/stm32f4xx_hal_rtc_ex.c ****   hrtc->Instance->TAFCR &= (uint32_t)~Tamper;
 909              		.loc 1 590 3 is_stmt 1 view .LVU335
 910              		.loc 1 590 7 is_stmt 0 view .LVU336
 911 0010 0468     		ldr	r4, [r0]
 912              		.loc 1 590 17 view .LVU337
 913 0012 236C     		ldr	r3, [r4, #64]
 914              		.loc 1 590 25 view .LVU338
 915 0014 23EA0103 		bic	r3, r3, r1
 916 0018 2364     		str	r3, [r4, #64]
ARM GAS  C:\Users\ADMINI~1\AppData\Local\Temp\ccahqaTu.s 			page 28


 591:Drivers/STM32F4xx_HAL_Driver/Src/stm32f4xx_hal_rtc_ex.c **** 
 592:Drivers/STM32F4xx_HAL_Driver/Src/stm32f4xx_hal_rtc_ex.c ****   hrtc->State = HAL_RTC_STATE_READY;
 917              		.loc 1 592 3 is_stmt 1 view .LVU339
 918              		.loc 1 592 15 is_stmt 0 view .LVU340
 919 001a 4277     		strb	r2, [r0, #29]
 593:Drivers/STM32F4xx_HAL_Driver/Src/stm32f4xx_hal_rtc_ex.c **** 
 594:Drivers/STM32F4xx_HAL_Driver/Src/stm32f4xx_hal_rtc_ex.c ****   /* Process Unlocked */
 595:Drivers/STM32F4xx_HAL_Driver/Src/stm32f4xx_hal_rtc_ex.c ****   __HAL_UNLOCK(hrtc);
 920              		.loc 1 595 3 is_stmt 1 view .LVU341
 921              		.loc 1 595 3 view .LVU342
 922 001c 0023     		movs	r3, #0
 923 001e 0377     		strb	r3, [r0, #28]
 924              		.loc 1 595 3 view .LVU343
 596:Drivers/STM32F4xx_HAL_Driver/Src/stm32f4xx_hal_rtc_ex.c **** 
 597:Drivers/STM32F4xx_HAL_Driver/Src/stm32f4xx_hal_rtc_ex.c ****   return HAL_OK;
 925              		.loc 1 597 3 view .LVU344
 926              		.loc 1 597 10 is_stmt 0 view .LVU345
 927 0020 1846     		mov	r0, r3
 928              	.LVL71:
 598:Drivers/STM32F4xx_HAL_Driver/Src/stm32f4xx_hal_rtc_ex.c **** }
 929              		.loc 1 598 1 view .LVU346
 930 0022 5DF8044B 		ldr	r4, [sp], #4
 931              	.LCFI14:
 932              		.cfi_restore 4
 933              		.cfi_def_cfa_offset 0
 934 0026 7047     		bx	lr
 935              	.LVL72:
 936              	.L48:
 585:Drivers/STM32F4xx_HAL_Driver/Src/stm32f4xx_hal_rtc_ex.c **** 
 937              		.loc 1 585 3 discriminator 1 view .LVU347
 938 0028 0220     		movs	r0, #2
 939              	.LVL73:
 940              		.loc 1 598 1 view .LVU348
 941 002a 7047     		bx	lr
 942              		.cfi_endproc
 943              	.LFE241:
 945              		.section	.text.HAL_RTCEx_TimeStampEventCallback,"ax",%progbits
 946              		.align	1
 947              		.weak	HAL_RTCEx_TimeStampEventCallback
 948              		.syntax unified
 949              		.thumb
 950              		.thumb_func
 952              	HAL_RTCEx_TimeStampEventCallback:
 953              	.LVL74:
 954              	.LFB243:
 599:Drivers/STM32F4xx_HAL_Driver/Src/stm32f4xx_hal_rtc_ex.c **** 
 600:Drivers/STM32F4xx_HAL_Driver/Src/stm32f4xx_hal_rtc_ex.c **** /**
 601:Drivers/STM32F4xx_HAL_Driver/Src/stm32f4xx_hal_rtc_ex.c ****   * @brief  Handles Timestamp and Tamper interrupt request.
 602:Drivers/STM32F4xx_HAL_Driver/Src/stm32f4xx_hal_rtc_ex.c ****   * @param  hrtc pointer to a RTC_HandleTypeDef structure that contains
 603:Drivers/STM32F4xx_HAL_Driver/Src/stm32f4xx_hal_rtc_ex.c ****   *                the configuration information for RTC.
 604:Drivers/STM32F4xx_HAL_Driver/Src/stm32f4xx_hal_rtc_ex.c ****   * @retval None
 605:Drivers/STM32F4xx_HAL_Driver/Src/stm32f4xx_hal_rtc_ex.c ****   */
 606:Drivers/STM32F4xx_HAL_Driver/Src/stm32f4xx_hal_rtc_ex.c **** void HAL_RTCEx_TamperTimeStampIRQHandler(RTC_HandleTypeDef *hrtc)
 607:Drivers/STM32F4xx_HAL_Driver/Src/stm32f4xx_hal_rtc_ex.c **** {
 608:Drivers/STM32F4xx_HAL_Driver/Src/stm32f4xx_hal_rtc_ex.c ****   /* Get the Timestamp interrupt source enable status */
 609:Drivers/STM32F4xx_HAL_Driver/Src/stm32f4xx_hal_rtc_ex.c ****   if (__HAL_RTC_TIMESTAMP_GET_IT_SOURCE(hrtc, RTC_IT_TS) != 0U)
 610:Drivers/STM32F4xx_HAL_Driver/Src/stm32f4xx_hal_rtc_ex.c ****   {
ARM GAS  C:\Users\ADMINI~1\AppData\Local\Temp\ccahqaTu.s 			page 29


 611:Drivers/STM32F4xx_HAL_Driver/Src/stm32f4xx_hal_rtc_ex.c ****     /* Get the pending status of the Timestamp Interrupt */
 612:Drivers/STM32F4xx_HAL_Driver/Src/stm32f4xx_hal_rtc_ex.c ****     if (__HAL_RTC_TIMESTAMP_GET_FLAG(hrtc, RTC_FLAG_TSF) != 0U)
 613:Drivers/STM32F4xx_HAL_Driver/Src/stm32f4xx_hal_rtc_ex.c ****     {
 614:Drivers/STM32F4xx_HAL_Driver/Src/stm32f4xx_hal_rtc_ex.c ****       /* Timestamp callback */
 615:Drivers/STM32F4xx_HAL_Driver/Src/stm32f4xx_hal_rtc_ex.c **** #if (USE_HAL_RTC_REGISTER_CALLBACKS == 1)
 616:Drivers/STM32F4xx_HAL_Driver/Src/stm32f4xx_hal_rtc_ex.c ****       hrtc->TimeStampEventCallback(hrtc);
 617:Drivers/STM32F4xx_HAL_Driver/Src/stm32f4xx_hal_rtc_ex.c **** #else
 618:Drivers/STM32F4xx_HAL_Driver/Src/stm32f4xx_hal_rtc_ex.c ****       HAL_RTCEx_TimeStampEventCallback(hrtc);
 619:Drivers/STM32F4xx_HAL_Driver/Src/stm32f4xx_hal_rtc_ex.c **** #endif /* USE_HAL_RTC_REGISTER_CALLBACKS */
 620:Drivers/STM32F4xx_HAL_Driver/Src/stm32f4xx_hal_rtc_ex.c **** 
 621:Drivers/STM32F4xx_HAL_Driver/Src/stm32f4xx_hal_rtc_ex.c ****       /* Clear the Timestamp interrupt pending bit */
 622:Drivers/STM32F4xx_HAL_Driver/Src/stm32f4xx_hal_rtc_ex.c ****       __HAL_RTC_TIMESTAMP_CLEAR_FLAG(hrtc, RTC_FLAG_TSF);
 623:Drivers/STM32F4xx_HAL_Driver/Src/stm32f4xx_hal_rtc_ex.c ****     }
 624:Drivers/STM32F4xx_HAL_Driver/Src/stm32f4xx_hal_rtc_ex.c ****   }
 625:Drivers/STM32F4xx_HAL_Driver/Src/stm32f4xx_hal_rtc_ex.c **** 
 626:Drivers/STM32F4xx_HAL_Driver/Src/stm32f4xx_hal_rtc_ex.c ****   /* Get the Tamper 1 interrupt source enable status */
 627:Drivers/STM32F4xx_HAL_Driver/Src/stm32f4xx_hal_rtc_ex.c ****   if (__HAL_RTC_TAMPER_GET_IT_SOURCE(hrtc, RTC_IT_TAMP) != 0U)
 628:Drivers/STM32F4xx_HAL_Driver/Src/stm32f4xx_hal_rtc_ex.c ****   {
 629:Drivers/STM32F4xx_HAL_Driver/Src/stm32f4xx_hal_rtc_ex.c ****     /* Get the pending status of the Tamper 1 Interrupt */
 630:Drivers/STM32F4xx_HAL_Driver/Src/stm32f4xx_hal_rtc_ex.c ****     if (__HAL_RTC_TAMPER_GET_FLAG(hrtc, RTC_FLAG_TAMP1F) != 0U)
 631:Drivers/STM32F4xx_HAL_Driver/Src/stm32f4xx_hal_rtc_ex.c ****     {
 632:Drivers/STM32F4xx_HAL_Driver/Src/stm32f4xx_hal_rtc_ex.c ****       /* Tamper callback */
 633:Drivers/STM32F4xx_HAL_Driver/Src/stm32f4xx_hal_rtc_ex.c **** #if (USE_HAL_RTC_REGISTER_CALLBACKS == 1)
 634:Drivers/STM32F4xx_HAL_Driver/Src/stm32f4xx_hal_rtc_ex.c ****       hrtc->Tamper1EventCallback(hrtc);
 635:Drivers/STM32F4xx_HAL_Driver/Src/stm32f4xx_hal_rtc_ex.c **** #else
 636:Drivers/STM32F4xx_HAL_Driver/Src/stm32f4xx_hal_rtc_ex.c ****       HAL_RTCEx_Tamper1EventCallback(hrtc);
 637:Drivers/STM32F4xx_HAL_Driver/Src/stm32f4xx_hal_rtc_ex.c **** #endif /* USE_HAL_RTC_REGISTER_CALLBACKS */
 638:Drivers/STM32F4xx_HAL_Driver/Src/stm32f4xx_hal_rtc_ex.c **** 
 639:Drivers/STM32F4xx_HAL_Driver/Src/stm32f4xx_hal_rtc_ex.c ****       /* Clear the Tamper interrupt pending bit */
 640:Drivers/STM32F4xx_HAL_Driver/Src/stm32f4xx_hal_rtc_ex.c ****       __HAL_RTC_TAMPER_CLEAR_FLAG(hrtc, RTC_FLAG_TAMP1F);
 641:Drivers/STM32F4xx_HAL_Driver/Src/stm32f4xx_hal_rtc_ex.c ****     }
 642:Drivers/STM32F4xx_HAL_Driver/Src/stm32f4xx_hal_rtc_ex.c ****   }
 643:Drivers/STM32F4xx_HAL_Driver/Src/stm32f4xx_hal_rtc_ex.c **** 
 644:Drivers/STM32F4xx_HAL_Driver/Src/stm32f4xx_hal_rtc_ex.c **** #if defined(RTC_TAMPER2_SUPPORT)
 645:Drivers/STM32F4xx_HAL_Driver/Src/stm32f4xx_hal_rtc_ex.c ****   /* Get the Tamper 2 interrupt source enable status */
 646:Drivers/STM32F4xx_HAL_Driver/Src/stm32f4xx_hal_rtc_ex.c ****   if (__HAL_RTC_TAMPER_GET_IT_SOURCE(hrtc, RTC_IT_TAMP) != 0U)
 647:Drivers/STM32F4xx_HAL_Driver/Src/stm32f4xx_hal_rtc_ex.c ****   {
 648:Drivers/STM32F4xx_HAL_Driver/Src/stm32f4xx_hal_rtc_ex.c ****     /* Get the pending status of the Tamper 2 Interrupt */
 649:Drivers/STM32F4xx_HAL_Driver/Src/stm32f4xx_hal_rtc_ex.c ****     if (__HAL_RTC_TAMPER_GET_FLAG(hrtc, RTC_FLAG_TAMP2F) != 0U)
 650:Drivers/STM32F4xx_HAL_Driver/Src/stm32f4xx_hal_rtc_ex.c ****     {
 651:Drivers/STM32F4xx_HAL_Driver/Src/stm32f4xx_hal_rtc_ex.c ****       /* Tamper callback */
 652:Drivers/STM32F4xx_HAL_Driver/Src/stm32f4xx_hal_rtc_ex.c **** #if (USE_HAL_RTC_REGISTER_CALLBACKS == 1)
 653:Drivers/STM32F4xx_HAL_Driver/Src/stm32f4xx_hal_rtc_ex.c ****       hrtc->Tamper2EventCallback(hrtc);
 654:Drivers/STM32F4xx_HAL_Driver/Src/stm32f4xx_hal_rtc_ex.c **** #else
 655:Drivers/STM32F4xx_HAL_Driver/Src/stm32f4xx_hal_rtc_ex.c ****       HAL_RTCEx_Tamper2EventCallback(hrtc);
 656:Drivers/STM32F4xx_HAL_Driver/Src/stm32f4xx_hal_rtc_ex.c **** #endif /* USE_HAL_RTC_REGISTER_CALLBACKS */
 657:Drivers/STM32F4xx_HAL_Driver/Src/stm32f4xx_hal_rtc_ex.c **** 
 658:Drivers/STM32F4xx_HAL_Driver/Src/stm32f4xx_hal_rtc_ex.c ****       /* Clear the Tamper interrupt pending bit */
 659:Drivers/STM32F4xx_HAL_Driver/Src/stm32f4xx_hal_rtc_ex.c ****       __HAL_RTC_TAMPER_CLEAR_FLAG(hrtc, RTC_FLAG_TAMP2F);
 660:Drivers/STM32F4xx_HAL_Driver/Src/stm32f4xx_hal_rtc_ex.c ****     }
 661:Drivers/STM32F4xx_HAL_Driver/Src/stm32f4xx_hal_rtc_ex.c ****   }
 662:Drivers/STM32F4xx_HAL_Driver/Src/stm32f4xx_hal_rtc_ex.c **** #endif /* RTC_TAMPER2_SUPPORT */
 663:Drivers/STM32F4xx_HAL_Driver/Src/stm32f4xx_hal_rtc_ex.c **** 
 664:Drivers/STM32F4xx_HAL_Driver/Src/stm32f4xx_hal_rtc_ex.c ****   /* Clear the EXTI's Flag for RTC Timestamp and Tamper */
 665:Drivers/STM32F4xx_HAL_Driver/Src/stm32f4xx_hal_rtc_ex.c ****   __HAL_RTC_TAMPER_TIMESTAMP_EXTI_CLEAR_FLAG();
 666:Drivers/STM32F4xx_HAL_Driver/Src/stm32f4xx_hal_rtc_ex.c **** 
 667:Drivers/STM32F4xx_HAL_Driver/Src/stm32f4xx_hal_rtc_ex.c ****   /* Change RTC state */
ARM GAS  C:\Users\ADMINI~1\AppData\Local\Temp\ccahqaTu.s 			page 30


 668:Drivers/STM32F4xx_HAL_Driver/Src/stm32f4xx_hal_rtc_ex.c ****   hrtc->State = HAL_RTC_STATE_READY;
 669:Drivers/STM32F4xx_HAL_Driver/Src/stm32f4xx_hal_rtc_ex.c **** }
 670:Drivers/STM32F4xx_HAL_Driver/Src/stm32f4xx_hal_rtc_ex.c **** 
 671:Drivers/STM32F4xx_HAL_Driver/Src/stm32f4xx_hal_rtc_ex.c **** /**
 672:Drivers/STM32F4xx_HAL_Driver/Src/stm32f4xx_hal_rtc_ex.c ****   * @brief  Timestamp callback.
 673:Drivers/STM32F4xx_HAL_Driver/Src/stm32f4xx_hal_rtc_ex.c ****   * @param  hrtc pointer to a RTC_HandleTypeDef structure that contains
 674:Drivers/STM32F4xx_HAL_Driver/Src/stm32f4xx_hal_rtc_ex.c ****   *                the configuration information for RTC.
 675:Drivers/STM32F4xx_HAL_Driver/Src/stm32f4xx_hal_rtc_ex.c ****   * @retval None
 676:Drivers/STM32F4xx_HAL_Driver/Src/stm32f4xx_hal_rtc_ex.c ****   */
 677:Drivers/STM32F4xx_HAL_Driver/Src/stm32f4xx_hal_rtc_ex.c **** __weak void HAL_RTCEx_TimeStampEventCallback(RTC_HandleTypeDef *hrtc)
 678:Drivers/STM32F4xx_HAL_Driver/Src/stm32f4xx_hal_rtc_ex.c **** {
 955              		.loc 1 678 1 is_stmt 1 view -0
 956              		.cfi_startproc
 957              		@ args = 0, pretend = 0, frame = 0
 958              		@ frame_needed = 0, uses_anonymous_args = 0
 959              		@ link register save eliminated.
 679:Drivers/STM32F4xx_HAL_Driver/Src/stm32f4xx_hal_rtc_ex.c ****   /* Prevent unused argument(s) compilation warning */
 680:Drivers/STM32F4xx_HAL_Driver/Src/stm32f4xx_hal_rtc_ex.c ****   UNUSED(hrtc);
 960              		.loc 1 680 3 view .LVU350
 681:Drivers/STM32F4xx_HAL_Driver/Src/stm32f4xx_hal_rtc_ex.c **** 
 682:Drivers/STM32F4xx_HAL_Driver/Src/stm32f4xx_hal_rtc_ex.c ****   /* NOTE: This function should not be modified, when the callback is needed,
 683:Drivers/STM32F4xx_HAL_Driver/Src/stm32f4xx_hal_rtc_ex.c ****            the HAL_RTCEx_TimeStampEventCallback could be implemented in the user file
 684:Drivers/STM32F4xx_HAL_Driver/Src/stm32f4xx_hal_rtc_ex.c ****   */
 685:Drivers/STM32F4xx_HAL_Driver/Src/stm32f4xx_hal_rtc_ex.c **** }
 961              		.loc 1 685 1 is_stmt 0 view .LVU351
 962 0000 7047     		bx	lr
 963              		.cfi_endproc
 964              	.LFE243:
 966              		.section	.text.HAL_RTCEx_Tamper1EventCallback,"ax",%progbits
 967              		.align	1
 968              		.weak	HAL_RTCEx_Tamper1EventCallback
 969              		.syntax unified
 970              		.thumb
 971              		.thumb_func
 973              	HAL_RTCEx_Tamper1EventCallback:
 974              	.LVL75:
 975              	.LFB244:
 686:Drivers/STM32F4xx_HAL_Driver/Src/stm32f4xx_hal_rtc_ex.c **** 
 687:Drivers/STM32F4xx_HAL_Driver/Src/stm32f4xx_hal_rtc_ex.c **** /**
 688:Drivers/STM32F4xx_HAL_Driver/Src/stm32f4xx_hal_rtc_ex.c ****   * @brief  Tamper 1 callback.
 689:Drivers/STM32F4xx_HAL_Driver/Src/stm32f4xx_hal_rtc_ex.c ****   * @param  hrtc pointer to a RTC_HandleTypeDef structure that contains
 690:Drivers/STM32F4xx_HAL_Driver/Src/stm32f4xx_hal_rtc_ex.c ****   *                the configuration information for RTC.
 691:Drivers/STM32F4xx_HAL_Driver/Src/stm32f4xx_hal_rtc_ex.c ****   * @retval None
 692:Drivers/STM32F4xx_HAL_Driver/Src/stm32f4xx_hal_rtc_ex.c ****   */
 693:Drivers/STM32F4xx_HAL_Driver/Src/stm32f4xx_hal_rtc_ex.c **** __weak void HAL_RTCEx_Tamper1EventCallback(RTC_HandleTypeDef *hrtc)
 694:Drivers/STM32F4xx_HAL_Driver/Src/stm32f4xx_hal_rtc_ex.c **** {
 976              		.loc 1 694 1 is_stmt 1 view -0
 977              		.cfi_startproc
 978              		@ args = 0, pretend = 0, frame = 0
 979              		@ frame_needed = 0, uses_anonymous_args = 0
 980              		@ link register save eliminated.
 695:Drivers/STM32F4xx_HAL_Driver/Src/stm32f4xx_hal_rtc_ex.c ****   /* Prevent unused argument(s) compilation warning */
 696:Drivers/STM32F4xx_HAL_Driver/Src/stm32f4xx_hal_rtc_ex.c ****   UNUSED(hrtc);
 981              		.loc 1 696 3 view .LVU353
 697:Drivers/STM32F4xx_HAL_Driver/Src/stm32f4xx_hal_rtc_ex.c **** 
 698:Drivers/STM32F4xx_HAL_Driver/Src/stm32f4xx_hal_rtc_ex.c ****   /* NOTE: This function should not be modified, when the callback is needed,
 699:Drivers/STM32F4xx_HAL_Driver/Src/stm32f4xx_hal_rtc_ex.c ****            the HAL_RTCEx_Tamper1EventCallback could be implemented in the user file
ARM GAS  C:\Users\ADMINI~1\AppData\Local\Temp\ccahqaTu.s 			page 31


 700:Drivers/STM32F4xx_HAL_Driver/Src/stm32f4xx_hal_rtc_ex.c ****    */
 701:Drivers/STM32F4xx_HAL_Driver/Src/stm32f4xx_hal_rtc_ex.c **** }
 982              		.loc 1 701 1 is_stmt 0 view .LVU354
 983 0000 7047     		bx	lr
 984              		.cfi_endproc
 985              	.LFE244:
 987              		.section	.text.HAL_RTCEx_Tamper2EventCallback,"ax",%progbits
 988              		.align	1
 989              		.weak	HAL_RTCEx_Tamper2EventCallback
 990              		.syntax unified
 991              		.thumb
 992              		.thumb_func
 994              	HAL_RTCEx_Tamper2EventCallback:
 995              	.LVL76:
 996              	.LFB245:
 702:Drivers/STM32F4xx_HAL_Driver/Src/stm32f4xx_hal_rtc_ex.c **** 
 703:Drivers/STM32F4xx_HAL_Driver/Src/stm32f4xx_hal_rtc_ex.c **** #if defined(RTC_TAMPER2_SUPPORT)
 704:Drivers/STM32F4xx_HAL_Driver/Src/stm32f4xx_hal_rtc_ex.c **** /**
 705:Drivers/STM32F4xx_HAL_Driver/Src/stm32f4xx_hal_rtc_ex.c ****   * @brief  Tamper 2 callback.
 706:Drivers/STM32F4xx_HAL_Driver/Src/stm32f4xx_hal_rtc_ex.c ****   * @param  hrtc pointer to a RTC_HandleTypeDef structure that contains
 707:Drivers/STM32F4xx_HAL_Driver/Src/stm32f4xx_hal_rtc_ex.c ****   *                the configuration information for RTC.
 708:Drivers/STM32F4xx_HAL_Driver/Src/stm32f4xx_hal_rtc_ex.c ****   * @retval None
 709:Drivers/STM32F4xx_HAL_Driver/Src/stm32f4xx_hal_rtc_ex.c ****   */
 710:Drivers/STM32F4xx_HAL_Driver/Src/stm32f4xx_hal_rtc_ex.c **** __weak void HAL_RTCEx_Tamper2EventCallback(RTC_HandleTypeDef *hrtc)
 711:Drivers/STM32F4xx_HAL_Driver/Src/stm32f4xx_hal_rtc_ex.c **** {
 997              		.loc 1 711 1 is_stmt 1 view -0
 998              		.cfi_startproc
 999              		@ args = 0, pretend = 0, frame = 0
 1000              		@ frame_needed = 0, uses_anonymous_args = 0
 1001              		@ link register save eliminated.
 712:Drivers/STM32F4xx_HAL_Driver/Src/stm32f4xx_hal_rtc_ex.c ****   /* Prevent unused argument(s) compilation warning */
 713:Drivers/STM32F4xx_HAL_Driver/Src/stm32f4xx_hal_rtc_ex.c ****   UNUSED(hrtc);
 1002              		.loc 1 713 3 view .LVU356
 714:Drivers/STM32F4xx_HAL_Driver/Src/stm32f4xx_hal_rtc_ex.c **** 
 715:Drivers/STM32F4xx_HAL_Driver/Src/stm32f4xx_hal_rtc_ex.c ****   /* NOTE: This function should not be modified, when the callback is needed,
 716:Drivers/STM32F4xx_HAL_Driver/Src/stm32f4xx_hal_rtc_ex.c ****            the HAL_RTCEx_Tamper2EventCallback could be implemented in the user file
 717:Drivers/STM32F4xx_HAL_Driver/Src/stm32f4xx_hal_rtc_ex.c ****    */
 718:Drivers/STM32F4xx_HAL_Driver/Src/stm32f4xx_hal_rtc_ex.c **** }
 1003              		.loc 1 718 1 is_stmt 0 view .LVU357
 1004 0000 7047     		bx	lr
 1005              		.cfi_endproc
 1006              	.LFE245:
 1008              		.section	.text.HAL_RTCEx_TamperTimeStampIRQHandler,"ax",%progbits
 1009              		.align	1
 1010              		.global	HAL_RTCEx_TamperTimeStampIRQHandler
 1011              		.syntax unified
 1012              		.thumb
 1013              		.thumb_func
 1015              	HAL_RTCEx_TamperTimeStampIRQHandler:
 1016              	.LVL77:
 1017              	.LFB242:
 607:Drivers/STM32F4xx_HAL_Driver/Src/stm32f4xx_hal_rtc_ex.c ****   /* Get the Timestamp interrupt source enable status */
 1018              		.loc 1 607 1 is_stmt 1 view -0
 1019              		.cfi_startproc
 1020              		@ args = 0, pretend = 0, frame = 0
 1021              		@ frame_needed = 0, uses_anonymous_args = 0
 607:Drivers/STM32F4xx_HAL_Driver/Src/stm32f4xx_hal_rtc_ex.c ****   /* Get the Timestamp interrupt source enable status */
ARM GAS  C:\Users\ADMINI~1\AppData\Local\Temp\ccahqaTu.s 			page 32


 1022              		.loc 1 607 1 is_stmt 0 view .LVU359
 1023 0000 10B5     		push	{r4, lr}
 1024              	.LCFI15:
 1025              		.cfi_def_cfa_offset 8
 1026              		.cfi_offset 4, -8
 1027              		.cfi_offset 14, -4
 1028 0002 0446     		mov	r4, r0
 609:Drivers/STM32F4xx_HAL_Driver/Src/stm32f4xx_hal_rtc_ex.c ****   {
 1029              		.loc 1 609 3 is_stmt 1 view .LVU360
 609:Drivers/STM32F4xx_HAL_Driver/Src/stm32f4xx_hal_rtc_ex.c ****   {
 1030              		.loc 1 609 7 is_stmt 0 view .LVU361
 1031 0004 0368     		ldr	r3, [r0]
 1032 0006 9A68     		ldr	r2, [r3, #8]
 609:Drivers/STM32F4xx_HAL_Driver/Src/stm32f4xx_hal_rtc_ex.c ****   {
 1033              		.loc 1 609 6 view .LVU362
 1034 0008 12F4004F 		tst	r2, #32768
 1035 000c 03D0     		beq	.L57
 612:Drivers/STM32F4xx_HAL_Driver/Src/stm32f4xx_hal_rtc_ex.c ****     {
 1036              		.loc 1 612 5 is_stmt 1 view .LVU363
 612:Drivers/STM32F4xx_HAL_Driver/Src/stm32f4xx_hal_rtc_ex.c ****     {
 1037              		.loc 1 612 9 is_stmt 0 view .LVU364
 1038 000e DB68     		ldr	r3, [r3, #12]
 612:Drivers/STM32F4xx_HAL_Driver/Src/stm32f4xx_hal_rtc_ex.c ****     {
 1039              		.loc 1 612 8 view .LVU365
 1040 0010 13F4006F 		tst	r3, #2048
 1041 0014 18D1     		bne	.L61
 1042              	.LVL78:
 1043              	.L57:
 627:Drivers/STM32F4xx_HAL_Driver/Src/stm32f4xx_hal_rtc_ex.c ****   {
 1044              		.loc 1 627 3 is_stmt 1 view .LVU366
 627:Drivers/STM32F4xx_HAL_Driver/Src/stm32f4xx_hal_rtc_ex.c ****   {
 1045              		.loc 1 627 7 is_stmt 0 view .LVU367
 1046 0016 2368     		ldr	r3, [r4]
 1047 0018 1A6C     		ldr	r2, [r3, #64]
 627:Drivers/STM32F4xx_HAL_Driver/Src/stm32f4xx_hal_rtc_ex.c ****   {
 1048              		.loc 1 627 6 view .LVU368
 1049 001a 12F0040F 		tst	r2, #4
 1050 001e 03D0     		beq	.L58
 630:Drivers/STM32F4xx_HAL_Driver/Src/stm32f4xx_hal_rtc_ex.c ****     {
 1051              		.loc 1 630 5 is_stmt 1 view .LVU369
 630:Drivers/STM32F4xx_HAL_Driver/Src/stm32f4xx_hal_rtc_ex.c ****     {
 1052              		.loc 1 630 9 is_stmt 0 view .LVU370
 1053 0020 DB68     		ldr	r3, [r3, #12]
 630:Drivers/STM32F4xx_HAL_Driver/Src/stm32f4xx_hal_rtc_ex.c ****     {
 1054              		.loc 1 630 8 view .LVU371
 1055 0022 13F4005F 		tst	r3, #8192
 1056 0026 18D1     		bne	.L62
 1057              	.L58:
 646:Drivers/STM32F4xx_HAL_Driver/Src/stm32f4xx_hal_rtc_ex.c ****   {
 1058              		.loc 1 646 3 is_stmt 1 view .LVU372
 646:Drivers/STM32F4xx_HAL_Driver/Src/stm32f4xx_hal_rtc_ex.c ****   {
 1059              		.loc 1 646 7 is_stmt 0 view .LVU373
 1060 0028 2368     		ldr	r3, [r4]
 1061 002a 1A6C     		ldr	r2, [r3, #64]
 646:Drivers/STM32F4xx_HAL_Driver/Src/stm32f4xx_hal_rtc_ex.c ****   {
 1062              		.loc 1 646 6 view .LVU374
 1063 002c 12F0040F 		tst	r2, #4
ARM GAS  C:\Users\ADMINI~1\AppData\Local\Temp\ccahqaTu.s 			page 33


 1064 0030 03D0     		beq	.L59
 649:Drivers/STM32F4xx_HAL_Driver/Src/stm32f4xx_hal_rtc_ex.c ****     {
 1065              		.loc 1 649 5 is_stmt 1 view .LVU375
 649:Drivers/STM32F4xx_HAL_Driver/Src/stm32f4xx_hal_rtc_ex.c ****     {
 1066              		.loc 1 649 9 is_stmt 0 view .LVU376
 1067 0032 DB68     		ldr	r3, [r3, #12]
 649:Drivers/STM32F4xx_HAL_Driver/Src/stm32f4xx_hal_rtc_ex.c ****     {
 1068              		.loc 1 649 8 view .LVU377
 1069 0034 13F4804F 		tst	r3, #16384
 1070 0038 19D1     		bne	.L63
 1071              	.L59:
 665:Drivers/STM32F4xx_HAL_Driver/Src/stm32f4xx_hal_rtc_ex.c **** 
 1072              		.loc 1 665 3 is_stmt 1 view .LVU378
 1073 003a 124B     		ldr	r3, .L64
 1074 003c 4FF40012 		mov	r2, #2097152
 1075 0040 5A61     		str	r2, [r3, #20]
 668:Drivers/STM32F4xx_HAL_Driver/Src/stm32f4xx_hal_rtc_ex.c **** }
 1076              		.loc 1 668 3 view .LVU379
 668:Drivers/STM32F4xx_HAL_Driver/Src/stm32f4xx_hal_rtc_ex.c **** }
 1077              		.loc 1 668 15 is_stmt 0 view .LVU380
 1078 0042 0123     		movs	r3, #1
 1079 0044 6377     		strb	r3, [r4, #29]
 669:Drivers/STM32F4xx_HAL_Driver/Src/stm32f4xx_hal_rtc_ex.c **** 
 1080              		.loc 1 669 1 view .LVU381
 1081 0046 10BD     		pop	{r4, pc}
 1082              	.LVL79:
 1083              	.L61:
 618:Drivers/STM32F4xx_HAL_Driver/Src/stm32f4xx_hal_rtc_ex.c **** #endif /* USE_HAL_RTC_REGISTER_CALLBACKS */
 1084              		.loc 1 618 7 is_stmt 1 view .LVU382
 1085 0048 FFF7FEFF 		bl	HAL_RTCEx_TimeStampEventCallback
 1086              	.LVL80:
 622:Drivers/STM32F4xx_HAL_Driver/Src/stm32f4xx_hal_rtc_ex.c ****     }
 1087              		.loc 1 622 7 view .LVU383
 1088 004c 2268     		ldr	r2, [r4]
 1089 004e D368     		ldr	r3, [r2, #12]
 1090 0050 DBB2     		uxtb	r3, r3
 1091 0052 63F40863 		orn	r3, r3, #2176
 1092 0056 D360     		str	r3, [r2, #12]
 1093 0058 DDE7     		b	.L57
 1094              	.L62:
 636:Drivers/STM32F4xx_HAL_Driver/Src/stm32f4xx_hal_rtc_ex.c **** #endif /* USE_HAL_RTC_REGISTER_CALLBACKS */
 1095              		.loc 1 636 7 view .LVU384
 1096 005a 2046     		mov	r0, r4
 1097 005c FFF7FEFF 		bl	HAL_RTCEx_Tamper1EventCallback
 1098              	.LVL81:
 640:Drivers/STM32F4xx_HAL_Driver/Src/stm32f4xx_hal_rtc_ex.c ****     }
 1099              		.loc 1 640 7 view .LVU385
 1100 0060 2268     		ldr	r2, [r4]
 1101 0062 D368     		ldr	r3, [r2, #12]
 1102 0064 DBB2     		uxtb	r3, r3
 1103 0066 63F40253 		orn	r3, r3, #8320
 1104 006a D360     		str	r3, [r2, #12]
 1105 006c DCE7     		b	.L58
 1106              	.L63:
 655:Drivers/STM32F4xx_HAL_Driver/Src/stm32f4xx_hal_rtc_ex.c **** #endif /* USE_HAL_RTC_REGISTER_CALLBACKS */
 1107              		.loc 1 655 7 view .LVU386
 1108 006e 2046     		mov	r0, r4
ARM GAS  C:\Users\ADMINI~1\AppData\Local\Temp\ccahqaTu.s 			page 34


 1109 0070 FFF7FEFF 		bl	HAL_RTCEx_Tamper2EventCallback
 1110              	.LVL82:
 659:Drivers/STM32F4xx_HAL_Driver/Src/stm32f4xx_hal_rtc_ex.c ****     }
 1111              		.loc 1 659 7 view .LVU387
 1112 0074 2268     		ldr	r2, [r4]
 1113 0076 D368     		ldr	r3, [r2, #12]
 1114 0078 DBB2     		uxtb	r3, r3
 1115 007a 63F48143 		orn	r3, r3, #16512
 1116 007e D360     		str	r3, [r2, #12]
 1117 0080 DBE7     		b	.L59
 1118              	.L65:
 1119 0082 00BF     		.align	2
 1120              	.L64:
 1121 0084 003C0140 		.word	1073822720
 1122              		.cfi_endproc
 1123              	.LFE242:
 1125              		.section	.text.HAL_RTCEx_PollForTimeStampEvent,"ax",%progbits
 1126              		.align	1
 1127              		.global	HAL_RTCEx_PollForTimeStampEvent
 1128              		.syntax unified
 1129              		.thumb
 1130              		.thumb_func
 1132              	HAL_RTCEx_PollForTimeStampEvent:
 1133              	.LVL83:
 1134              	.LFB246:
 719:Drivers/STM32F4xx_HAL_Driver/Src/stm32f4xx_hal_rtc_ex.c **** #endif /* RTC_TAMPER2_SUPPORT */
 720:Drivers/STM32F4xx_HAL_Driver/Src/stm32f4xx_hal_rtc_ex.c **** 
 721:Drivers/STM32F4xx_HAL_Driver/Src/stm32f4xx_hal_rtc_ex.c **** /**
 722:Drivers/STM32F4xx_HAL_Driver/Src/stm32f4xx_hal_rtc_ex.c ****   * @brief  Handles Timestamp polling request.
 723:Drivers/STM32F4xx_HAL_Driver/Src/stm32f4xx_hal_rtc_ex.c ****   * @param  hrtc pointer to a RTC_HandleTypeDef structure that contains
 724:Drivers/STM32F4xx_HAL_Driver/Src/stm32f4xx_hal_rtc_ex.c ****   *                the configuration information for RTC.
 725:Drivers/STM32F4xx_HAL_Driver/Src/stm32f4xx_hal_rtc_ex.c ****   * @param  Timeout Timeout duration
 726:Drivers/STM32F4xx_HAL_Driver/Src/stm32f4xx_hal_rtc_ex.c ****   * @retval HAL status
 727:Drivers/STM32F4xx_HAL_Driver/Src/stm32f4xx_hal_rtc_ex.c ****   */
 728:Drivers/STM32F4xx_HAL_Driver/Src/stm32f4xx_hal_rtc_ex.c **** HAL_StatusTypeDef HAL_RTCEx_PollForTimeStampEvent(RTC_HandleTypeDef *hrtc, uint32_t Timeout)
 729:Drivers/STM32F4xx_HAL_Driver/Src/stm32f4xx_hal_rtc_ex.c **** {
 1135              		.loc 1 729 1 view -0
 1136              		.cfi_startproc
 1137              		@ args = 0, pretend = 0, frame = 0
 1138              		@ frame_needed = 0, uses_anonymous_args = 0
 1139              		.loc 1 729 1 is_stmt 0 view .LVU389
 1140 0000 70B5     		push	{r4, r5, r6, lr}
 1141              	.LCFI16:
 1142              		.cfi_def_cfa_offset 16
 1143              		.cfi_offset 4, -16
 1144              		.cfi_offset 5, -12
 1145              		.cfi_offset 6, -8
 1146              		.cfi_offset 14, -4
 1147 0002 0546     		mov	r5, r0
 1148 0004 0C46     		mov	r4, r1
 730:Drivers/STM32F4xx_HAL_Driver/Src/stm32f4xx_hal_rtc_ex.c ****   uint32_t tickstart = 0U;
 1149              		.loc 1 730 3 is_stmt 1 view .LVU390
 1150              	.LVL84:
 731:Drivers/STM32F4xx_HAL_Driver/Src/stm32f4xx_hal_rtc_ex.c **** 
 732:Drivers/STM32F4xx_HAL_Driver/Src/stm32f4xx_hal_rtc_ex.c ****   /* Get tick */
 733:Drivers/STM32F4xx_HAL_Driver/Src/stm32f4xx_hal_rtc_ex.c ****   tickstart = HAL_GetTick();
 1151              		.loc 1 733 3 view .LVU391
ARM GAS  C:\Users\ADMINI~1\AppData\Local\Temp\ccahqaTu.s 			page 35


 1152              		.loc 1 733 15 is_stmt 0 view .LVU392
 1153 0006 FFF7FEFF 		bl	HAL_GetTick
 1154              	.LVL85:
 1155              		.loc 1 733 15 view .LVU393
 1156 000a 0646     		mov	r6, r0
 1157              	.LVL86:
 734:Drivers/STM32F4xx_HAL_Driver/Src/stm32f4xx_hal_rtc_ex.c **** 
 735:Drivers/STM32F4xx_HAL_Driver/Src/stm32f4xx_hal_rtc_ex.c ****   while (__HAL_RTC_TIMESTAMP_GET_FLAG(hrtc, RTC_FLAG_TSF) == 0U)
 1158              		.loc 1 735 3 is_stmt 1 view .LVU394
 1159              		.loc 1 735 9 is_stmt 0 view .LVU395
 1160 000c 04E0     		b	.L67
 1161              	.LVL87:
 1162              	.L68:
 736:Drivers/STM32F4xx_HAL_Driver/Src/stm32f4xx_hal_rtc_ex.c ****   {
 737:Drivers/STM32F4xx_HAL_Driver/Src/stm32f4xx_hal_rtc_ex.c ****     if (Timeout != HAL_MAX_DELAY)
 738:Drivers/STM32F4xx_HAL_Driver/Src/stm32f4xx_hal_rtc_ex.c ****     {
 739:Drivers/STM32F4xx_HAL_Driver/Src/stm32f4xx_hal_rtc_ex.c ****       if ((Timeout == 0U) || ((HAL_GetTick() - tickstart) > Timeout))
 740:Drivers/STM32F4xx_HAL_Driver/Src/stm32f4xx_hal_rtc_ex.c ****       {
 741:Drivers/STM32F4xx_HAL_Driver/Src/stm32f4xx_hal_rtc_ex.c ****         hrtc->State = HAL_RTC_STATE_TIMEOUT;
 742:Drivers/STM32F4xx_HAL_Driver/Src/stm32f4xx_hal_rtc_ex.c ****         return HAL_TIMEOUT;
 743:Drivers/STM32F4xx_HAL_Driver/Src/stm32f4xx_hal_rtc_ex.c ****       }
 744:Drivers/STM32F4xx_HAL_Driver/Src/stm32f4xx_hal_rtc_ex.c ****     }
 745:Drivers/STM32F4xx_HAL_Driver/Src/stm32f4xx_hal_rtc_ex.c **** 
 746:Drivers/STM32F4xx_HAL_Driver/Src/stm32f4xx_hal_rtc_ex.c ****     if (__HAL_RTC_TIMESTAMP_GET_FLAG(hrtc, RTC_FLAG_TSOVF) != 0U)
 1163              		.loc 1 746 5 is_stmt 1 view .LVU396
 1164              		.loc 1 746 9 is_stmt 0 view .LVU397
 1165 000e 2B68     		ldr	r3, [r5]
 1166 0010 DA68     		ldr	r2, [r3, #12]
 1167              		.loc 1 746 8 view .LVU398
 1168 0012 12F4805F 		tst	r2, #4096
 1169 0016 10D1     		bne	.L73
 1170              	.L67:
 735:Drivers/STM32F4xx_HAL_Driver/Src/stm32f4xx_hal_rtc_ex.c ****   {
 1171              		.loc 1 735 59 is_stmt 1 view .LVU399
 735:Drivers/STM32F4xx_HAL_Driver/Src/stm32f4xx_hal_rtc_ex.c ****   {
 1172              		.loc 1 735 10 is_stmt 0 view .LVU400
 1173 0018 2B68     		ldr	r3, [r5]
 1174 001a DB68     		ldr	r3, [r3, #12]
 735:Drivers/STM32F4xx_HAL_Driver/Src/stm32f4xx_hal_rtc_ex.c ****   {
 1175              		.loc 1 735 59 view .LVU401
 1176 001c 13F4006F 		tst	r3, #2048
 1177 0020 14D1     		bne	.L74
 737:Drivers/STM32F4xx_HAL_Driver/Src/stm32f4xx_hal_rtc_ex.c ****     {
 1178              		.loc 1 737 5 is_stmt 1 view .LVU402
 737:Drivers/STM32F4xx_HAL_Driver/Src/stm32f4xx_hal_rtc_ex.c ****     {
 1179              		.loc 1 737 8 is_stmt 0 view .LVU403
 1180 0022 B4F1FF3F 		cmp	r4, #-1
 1181 0026 F2D0     		beq	.L68
 739:Drivers/STM32F4xx_HAL_Driver/Src/stm32f4xx_hal_rtc_ex.c ****       {
 1182              		.loc 1 739 7 is_stmt 1 view .LVU404
 739:Drivers/STM32F4xx_HAL_Driver/Src/stm32f4xx_hal_rtc_ex.c ****       {
 1183              		.loc 1 739 10 is_stmt 0 view .LVU405
 1184 0028 24B1     		cbz	r4, .L69
 739:Drivers/STM32F4xx_HAL_Driver/Src/stm32f4xx_hal_rtc_ex.c ****       {
 1185              		.loc 1 739 32 discriminator 1 view .LVU406
 1186 002a FFF7FEFF 		bl	HAL_GetTick
 1187              	.LVL88:
ARM GAS  C:\Users\ADMINI~1\AppData\Local\Temp\ccahqaTu.s 			page 36


 739:Drivers/STM32F4xx_HAL_Driver/Src/stm32f4xx_hal_rtc_ex.c ****       {
 1188              		.loc 1 739 46 discriminator 1 view .LVU407
 1189 002e 831B     		subs	r3, r0, r6
 739:Drivers/STM32F4xx_HAL_Driver/Src/stm32f4xx_hal_rtc_ex.c ****       {
 1190              		.loc 1 739 27 discriminator 1 view .LVU408
 1191 0030 A342     		cmp	r3, r4
 1192 0032 ECD9     		bls	.L68
 1193              	.L69:
 741:Drivers/STM32F4xx_HAL_Driver/Src/stm32f4xx_hal_rtc_ex.c ****         return HAL_TIMEOUT;
 1194              		.loc 1 741 9 is_stmt 1 view .LVU409
 741:Drivers/STM32F4xx_HAL_Driver/Src/stm32f4xx_hal_rtc_ex.c ****         return HAL_TIMEOUT;
 1195              		.loc 1 741 21 is_stmt 0 view .LVU410
 1196 0034 0320     		movs	r0, #3
 1197 0036 6877     		strb	r0, [r5, #29]
 742:Drivers/STM32F4xx_HAL_Driver/Src/stm32f4xx_hal_rtc_ex.c ****       }
 1198              		.loc 1 742 9 is_stmt 1 view .LVU411
 1199              	.L70:
 747:Drivers/STM32F4xx_HAL_Driver/Src/stm32f4xx_hal_rtc_ex.c ****     {
 748:Drivers/STM32F4xx_HAL_Driver/Src/stm32f4xx_hal_rtc_ex.c ****       /* Clear the Timestamp Overrun Flag */
 749:Drivers/STM32F4xx_HAL_Driver/Src/stm32f4xx_hal_rtc_ex.c ****       __HAL_RTC_TIMESTAMP_CLEAR_FLAG(hrtc, RTC_FLAG_TSOVF);
 750:Drivers/STM32F4xx_HAL_Driver/Src/stm32f4xx_hal_rtc_ex.c **** 
 751:Drivers/STM32F4xx_HAL_Driver/Src/stm32f4xx_hal_rtc_ex.c ****       /* Change Timestamp state */
 752:Drivers/STM32F4xx_HAL_Driver/Src/stm32f4xx_hal_rtc_ex.c ****       hrtc->State = HAL_RTC_STATE_ERROR;
 753:Drivers/STM32F4xx_HAL_Driver/Src/stm32f4xx_hal_rtc_ex.c **** 
 754:Drivers/STM32F4xx_HAL_Driver/Src/stm32f4xx_hal_rtc_ex.c ****       return HAL_ERROR;
 755:Drivers/STM32F4xx_HAL_Driver/Src/stm32f4xx_hal_rtc_ex.c ****     }
 756:Drivers/STM32F4xx_HAL_Driver/Src/stm32f4xx_hal_rtc_ex.c ****   }
 757:Drivers/STM32F4xx_HAL_Driver/Src/stm32f4xx_hal_rtc_ex.c **** 
 758:Drivers/STM32F4xx_HAL_Driver/Src/stm32f4xx_hal_rtc_ex.c ****   /* Change RTC state */
 759:Drivers/STM32F4xx_HAL_Driver/Src/stm32f4xx_hal_rtc_ex.c ****   hrtc->State = HAL_RTC_STATE_READY;
 760:Drivers/STM32F4xx_HAL_Driver/Src/stm32f4xx_hal_rtc_ex.c **** 
 761:Drivers/STM32F4xx_HAL_Driver/Src/stm32f4xx_hal_rtc_ex.c ****   return HAL_OK;
 762:Drivers/STM32F4xx_HAL_Driver/Src/stm32f4xx_hal_rtc_ex.c **** }
 1200              		.loc 1 762 1 is_stmt 0 view .LVU412
 1201 0038 70BD     		pop	{r4, r5, r6, pc}
 1202              	.LVL89:
 1203              	.L73:
 749:Drivers/STM32F4xx_HAL_Driver/Src/stm32f4xx_hal_rtc_ex.c **** 
 1204              		.loc 1 749 7 is_stmt 1 view .LVU413
 1205 003a DA68     		ldr	r2, [r3, #12]
 1206 003c D2B2     		uxtb	r2, r2
 1207 003e 62F48452 		orn	r2, r2, #4224
 1208 0042 DA60     		str	r2, [r3, #12]
 752:Drivers/STM32F4xx_HAL_Driver/Src/stm32f4xx_hal_rtc_ex.c **** 
 1209              		.loc 1 752 7 view .LVU414
 752:Drivers/STM32F4xx_HAL_Driver/Src/stm32f4xx_hal_rtc_ex.c **** 
 1210              		.loc 1 752 19 is_stmt 0 view .LVU415
 1211 0044 0423     		movs	r3, #4
 1212 0046 6B77     		strb	r3, [r5, #29]
 754:Drivers/STM32F4xx_HAL_Driver/Src/stm32f4xx_hal_rtc_ex.c ****     }
 1213              		.loc 1 754 7 is_stmt 1 view .LVU416
 754:Drivers/STM32F4xx_HAL_Driver/Src/stm32f4xx_hal_rtc_ex.c ****     }
 1214              		.loc 1 754 14 is_stmt 0 view .LVU417
 1215 0048 0120     		movs	r0, #1
 1216 004a F5E7     		b	.L70
 1217              	.L74:
 759:Drivers/STM32F4xx_HAL_Driver/Src/stm32f4xx_hal_rtc_ex.c **** 
ARM GAS  C:\Users\ADMINI~1\AppData\Local\Temp\ccahqaTu.s 			page 37


 1218              		.loc 1 759 3 is_stmt 1 view .LVU418
 759:Drivers/STM32F4xx_HAL_Driver/Src/stm32f4xx_hal_rtc_ex.c **** 
 1219              		.loc 1 759 15 is_stmt 0 view .LVU419
 1220 004c 0123     		movs	r3, #1
 1221 004e 6B77     		strb	r3, [r5, #29]
 761:Drivers/STM32F4xx_HAL_Driver/Src/stm32f4xx_hal_rtc_ex.c **** }
 1222              		.loc 1 761 3 is_stmt 1 view .LVU420
 761:Drivers/STM32F4xx_HAL_Driver/Src/stm32f4xx_hal_rtc_ex.c **** }
 1223              		.loc 1 761 10 is_stmt 0 view .LVU421
 1224 0050 0020     		movs	r0, #0
 1225 0052 F1E7     		b	.L70
 1226              		.cfi_endproc
 1227              	.LFE246:
 1229              		.section	.text.HAL_RTCEx_PollForTamper1Event,"ax",%progbits
 1230              		.align	1
 1231              		.global	HAL_RTCEx_PollForTamper1Event
 1232              		.syntax unified
 1233              		.thumb
 1234              		.thumb_func
 1236              	HAL_RTCEx_PollForTamper1Event:
 1237              	.LVL90:
 1238              	.LFB247:
 763:Drivers/STM32F4xx_HAL_Driver/Src/stm32f4xx_hal_rtc_ex.c **** 
 764:Drivers/STM32F4xx_HAL_Driver/Src/stm32f4xx_hal_rtc_ex.c **** /**
 765:Drivers/STM32F4xx_HAL_Driver/Src/stm32f4xx_hal_rtc_ex.c ****   * @brief  Handles Tamper 1 Polling.
 766:Drivers/STM32F4xx_HAL_Driver/Src/stm32f4xx_hal_rtc_ex.c ****   * @param  hrtc pointer to a RTC_HandleTypeDef structure that contains
 767:Drivers/STM32F4xx_HAL_Driver/Src/stm32f4xx_hal_rtc_ex.c ****   *                the configuration information for RTC.
 768:Drivers/STM32F4xx_HAL_Driver/Src/stm32f4xx_hal_rtc_ex.c ****   * @param  Timeout Timeout duration
 769:Drivers/STM32F4xx_HAL_Driver/Src/stm32f4xx_hal_rtc_ex.c ****   * @retval HAL status
 770:Drivers/STM32F4xx_HAL_Driver/Src/stm32f4xx_hal_rtc_ex.c ****   */
 771:Drivers/STM32F4xx_HAL_Driver/Src/stm32f4xx_hal_rtc_ex.c **** HAL_StatusTypeDef HAL_RTCEx_PollForTamper1Event(RTC_HandleTypeDef *hrtc, uint32_t Timeout)
 772:Drivers/STM32F4xx_HAL_Driver/Src/stm32f4xx_hal_rtc_ex.c **** {
 1239              		.loc 1 772 1 is_stmt 1 view -0
 1240              		.cfi_startproc
 1241              		@ args = 0, pretend = 0, frame = 0
 1242              		@ frame_needed = 0, uses_anonymous_args = 0
 1243              		.loc 1 772 1 is_stmt 0 view .LVU423
 1244 0000 70B5     		push	{r4, r5, r6, lr}
 1245              	.LCFI17:
 1246              		.cfi_def_cfa_offset 16
 1247              		.cfi_offset 4, -16
 1248              		.cfi_offset 5, -12
 1249              		.cfi_offset 6, -8
 1250              		.cfi_offset 14, -4
 1251 0002 0446     		mov	r4, r0
 1252 0004 0D46     		mov	r5, r1
 773:Drivers/STM32F4xx_HAL_Driver/Src/stm32f4xx_hal_rtc_ex.c ****   uint32_t tickstart = 0U;
 1253              		.loc 1 773 3 is_stmt 1 view .LVU424
 1254              	.LVL91:
 774:Drivers/STM32F4xx_HAL_Driver/Src/stm32f4xx_hal_rtc_ex.c **** 
 775:Drivers/STM32F4xx_HAL_Driver/Src/stm32f4xx_hal_rtc_ex.c ****   /* Get tick */
 776:Drivers/STM32F4xx_HAL_Driver/Src/stm32f4xx_hal_rtc_ex.c ****   tickstart = HAL_GetTick();
 1255              		.loc 1 776 3 view .LVU425
 1256              		.loc 1 776 15 is_stmt 0 view .LVU426
 1257 0006 FFF7FEFF 		bl	HAL_GetTick
 1258              	.LVL92:
 1259              		.loc 1 776 15 view .LVU427
ARM GAS  C:\Users\ADMINI~1\AppData\Local\Temp\ccahqaTu.s 			page 38


 1260 000a 0646     		mov	r6, r0
 1261              	.LVL93:
 777:Drivers/STM32F4xx_HAL_Driver/Src/stm32f4xx_hal_rtc_ex.c **** 
 778:Drivers/STM32F4xx_HAL_Driver/Src/stm32f4xx_hal_rtc_ex.c ****   /* Get the status of the Interrupt */
 779:Drivers/STM32F4xx_HAL_Driver/Src/stm32f4xx_hal_rtc_ex.c ****   while (__HAL_RTC_TAMPER_GET_FLAG(hrtc, RTC_FLAG_TAMP1F) == 0U)
 1262              		.loc 1 779 3 is_stmt 1 view .LVU428
 1263              	.L77:
 1264              		.loc 1 779 59 view .LVU429
 1265              		.loc 1 779 10 is_stmt 0 view .LVU430
 1266 000c 2368     		ldr	r3, [r4]
 1267 000e DA68     		ldr	r2, [r3, #12]
 1268              		.loc 1 779 59 view .LVU431
 1269 0010 12F4005F 		tst	r2, #8192
 1270 0014 0BD1     		bne	.L82
 780:Drivers/STM32F4xx_HAL_Driver/Src/stm32f4xx_hal_rtc_ex.c ****   {
 781:Drivers/STM32F4xx_HAL_Driver/Src/stm32f4xx_hal_rtc_ex.c ****     if (Timeout != HAL_MAX_DELAY)
 1271              		.loc 1 781 5 is_stmt 1 view .LVU432
 1272              		.loc 1 781 8 is_stmt 0 view .LVU433
 1273 0016 B5F1FF3F 		cmp	r5, #-1
 1274 001a F7D0     		beq	.L77
 782:Drivers/STM32F4xx_HAL_Driver/Src/stm32f4xx_hal_rtc_ex.c ****     {
 783:Drivers/STM32F4xx_HAL_Driver/Src/stm32f4xx_hal_rtc_ex.c ****       if ((Timeout == 0U) || ((HAL_GetTick() - tickstart) > Timeout))
 1275              		.loc 1 783 7 is_stmt 1 view .LVU434
 1276              		.loc 1 783 10 is_stmt 0 view .LVU435
 1277 001c 25B1     		cbz	r5, .L78
 1278              		.loc 1 783 32 discriminator 1 view .LVU436
 1279 001e FFF7FEFF 		bl	HAL_GetTick
 1280              	.LVL94:
 1281              		.loc 1 783 46 discriminator 1 view .LVU437
 1282 0022 801B     		subs	r0, r0, r6
 1283              		.loc 1 783 27 discriminator 1 view .LVU438
 1284 0024 A842     		cmp	r0, r5
 1285 0026 F1D9     		bls	.L77
 1286              	.L78:
 784:Drivers/STM32F4xx_HAL_Driver/Src/stm32f4xx_hal_rtc_ex.c ****       {
 785:Drivers/STM32F4xx_HAL_Driver/Src/stm32f4xx_hal_rtc_ex.c ****         hrtc->State = HAL_RTC_STATE_TIMEOUT;
 1287              		.loc 1 785 9 is_stmt 1 view .LVU439
 1288              		.loc 1 785 21 is_stmt 0 view .LVU440
 1289 0028 0320     		movs	r0, #3
 1290 002a 6077     		strb	r0, [r4, #29]
 786:Drivers/STM32F4xx_HAL_Driver/Src/stm32f4xx_hal_rtc_ex.c ****         return HAL_TIMEOUT;
 1291              		.loc 1 786 9 is_stmt 1 view .LVU441
 1292              		.loc 1 786 16 is_stmt 0 view .LVU442
 1293 002c 07E0     		b	.L79
 1294              	.L82:
 787:Drivers/STM32F4xx_HAL_Driver/Src/stm32f4xx_hal_rtc_ex.c ****       }
 788:Drivers/STM32F4xx_HAL_Driver/Src/stm32f4xx_hal_rtc_ex.c ****     }
 789:Drivers/STM32F4xx_HAL_Driver/Src/stm32f4xx_hal_rtc_ex.c ****   }
 790:Drivers/STM32F4xx_HAL_Driver/Src/stm32f4xx_hal_rtc_ex.c **** 
 791:Drivers/STM32F4xx_HAL_Driver/Src/stm32f4xx_hal_rtc_ex.c ****   /* Clear the Tamper Flag */
 792:Drivers/STM32F4xx_HAL_Driver/Src/stm32f4xx_hal_rtc_ex.c ****   __HAL_RTC_TAMPER_CLEAR_FLAG(hrtc, RTC_FLAG_TAMP1F);
 1295              		.loc 1 792 3 is_stmt 1 view .LVU443
 1296 002e DA68     		ldr	r2, [r3, #12]
 1297 0030 D2B2     		uxtb	r2, r2
 1298 0032 62F40252 		orn	r2, r2, #8320
 1299 0036 DA60     		str	r2, [r3, #12]
 793:Drivers/STM32F4xx_HAL_Driver/Src/stm32f4xx_hal_rtc_ex.c **** 
ARM GAS  C:\Users\ADMINI~1\AppData\Local\Temp\ccahqaTu.s 			page 39


 794:Drivers/STM32F4xx_HAL_Driver/Src/stm32f4xx_hal_rtc_ex.c ****   /* Change RTC state */
 795:Drivers/STM32F4xx_HAL_Driver/Src/stm32f4xx_hal_rtc_ex.c ****   hrtc->State = HAL_RTC_STATE_READY;
 1300              		.loc 1 795 3 view .LVU444
 1301              		.loc 1 795 15 is_stmt 0 view .LVU445
 1302 0038 0123     		movs	r3, #1
 1303 003a 6377     		strb	r3, [r4, #29]
 796:Drivers/STM32F4xx_HAL_Driver/Src/stm32f4xx_hal_rtc_ex.c **** 
 797:Drivers/STM32F4xx_HAL_Driver/Src/stm32f4xx_hal_rtc_ex.c ****   return HAL_OK;
 1304              		.loc 1 797 3 is_stmt 1 view .LVU446
 1305              		.loc 1 797 10 is_stmt 0 view .LVU447
 1306 003c 0020     		movs	r0, #0
 1307              	.L79:
 798:Drivers/STM32F4xx_HAL_Driver/Src/stm32f4xx_hal_rtc_ex.c **** }
 1308              		.loc 1 798 1 view .LVU448
 1309 003e 70BD     		pop	{r4, r5, r6, pc}
 1310              		.loc 1 798 1 view .LVU449
 1311              		.cfi_endproc
 1312              	.LFE247:
 1314              		.section	.text.HAL_RTCEx_PollForTamper2Event,"ax",%progbits
 1315              		.align	1
 1316              		.global	HAL_RTCEx_PollForTamper2Event
 1317              		.syntax unified
 1318              		.thumb
 1319              		.thumb_func
 1321              	HAL_RTCEx_PollForTamper2Event:
 1322              	.LVL95:
 1323              	.LFB248:
 799:Drivers/STM32F4xx_HAL_Driver/Src/stm32f4xx_hal_rtc_ex.c **** 
 800:Drivers/STM32F4xx_HAL_Driver/Src/stm32f4xx_hal_rtc_ex.c **** #if defined(RTC_TAMPER2_SUPPORT)
 801:Drivers/STM32F4xx_HAL_Driver/Src/stm32f4xx_hal_rtc_ex.c **** /**
 802:Drivers/STM32F4xx_HAL_Driver/Src/stm32f4xx_hal_rtc_ex.c ****   * @brief  Handles Tamper 2 Polling.
 803:Drivers/STM32F4xx_HAL_Driver/Src/stm32f4xx_hal_rtc_ex.c ****   * @param  hrtc pointer to a RTC_HandleTypeDef structure that contains
 804:Drivers/STM32F4xx_HAL_Driver/Src/stm32f4xx_hal_rtc_ex.c ****   *                the configuration information for RTC.
 805:Drivers/STM32F4xx_HAL_Driver/Src/stm32f4xx_hal_rtc_ex.c ****   * @param  Timeout Timeout duration
 806:Drivers/STM32F4xx_HAL_Driver/Src/stm32f4xx_hal_rtc_ex.c ****   * @retval HAL status
 807:Drivers/STM32F4xx_HAL_Driver/Src/stm32f4xx_hal_rtc_ex.c ****   */
 808:Drivers/STM32F4xx_HAL_Driver/Src/stm32f4xx_hal_rtc_ex.c **** HAL_StatusTypeDef HAL_RTCEx_PollForTamper2Event(RTC_HandleTypeDef *hrtc, uint32_t Timeout)
 809:Drivers/STM32F4xx_HAL_Driver/Src/stm32f4xx_hal_rtc_ex.c **** {
 1324              		.loc 1 809 1 is_stmt 1 view -0
 1325              		.cfi_startproc
 1326              		@ args = 0, pretend = 0, frame = 0
 1327              		@ frame_needed = 0, uses_anonymous_args = 0
 1328              		.loc 1 809 1 is_stmt 0 view .LVU451
 1329 0000 70B5     		push	{r4, r5, r6, lr}
 1330              	.LCFI18:
 1331              		.cfi_def_cfa_offset 16
 1332              		.cfi_offset 4, -16
 1333              		.cfi_offset 5, -12
 1334              		.cfi_offset 6, -8
 1335              		.cfi_offset 14, -4
 1336 0002 0446     		mov	r4, r0
 1337 0004 0D46     		mov	r5, r1
 810:Drivers/STM32F4xx_HAL_Driver/Src/stm32f4xx_hal_rtc_ex.c ****   uint32_t tickstart = 0U;
 1338              		.loc 1 810 3 is_stmt 1 view .LVU452
 1339              	.LVL96:
 811:Drivers/STM32F4xx_HAL_Driver/Src/stm32f4xx_hal_rtc_ex.c **** 
 812:Drivers/STM32F4xx_HAL_Driver/Src/stm32f4xx_hal_rtc_ex.c ****   /* Get tick */
ARM GAS  C:\Users\ADMINI~1\AppData\Local\Temp\ccahqaTu.s 			page 40


 813:Drivers/STM32F4xx_HAL_Driver/Src/stm32f4xx_hal_rtc_ex.c ****   tickstart = HAL_GetTick();
 1340              		.loc 1 813 3 view .LVU453
 1341              		.loc 1 813 15 is_stmt 0 view .LVU454
 1342 0006 FFF7FEFF 		bl	HAL_GetTick
 1343              	.LVL97:
 1344              		.loc 1 813 15 view .LVU455
 1345 000a 0646     		mov	r6, r0
 1346              	.LVL98:
 814:Drivers/STM32F4xx_HAL_Driver/Src/stm32f4xx_hal_rtc_ex.c **** 
 815:Drivers/STM32F4xx_HAL_Driver/Src/stm32f4xx_hal_rtc_ex.c ****   /* Get the status of the Interrupt */
 816:Drivers/STM32F4xx_HAL_Driver/Src/stm32f4xx_hal_rtc_ex.c ****   while (__HAL_RTC_TAMPER_GET_FLAG(hrtc, RTC_FLAG_TAMP2F) == 0U)
 1347              		.loc 1 816 3 is_stmt 1 view .LVU456
 1348              	.L85:
 1349              		.loc 1 816 59 view .LVU457
 1350              		.loc 1 816 10 is_stmt 0 view .LVU458
 1351 000c 2368     		ldr	r3, [r4]
 1352 000e DA68     		ldr	r2, [r3, #12]
 1353              		.loc 1 816 59 view .LVU459
 1354 0010 12F4804F 		tst	r2, #16384
 1355 0014 0BD1     		bne	.L90
 817:Drivers/STM32F4xx_HAL_Driver/Src/stm32f4xx_hal_rtc_ex.c ****   {
 818:Drivers/STM32F4xx_HAL_Driver/Src/stm32f4xx_hal_rtc_ex.c ****     if (Timeout != HAL_MAX_DELAY)
 1356              		.loc 1 818 5 is_stmt 1 view .LVU460
 1357              		.loc 1 818 8 is_stmt 0 view .LVU461
 1358 0016 B5F1FF3F 		cmp	r5, #-1
 1359 001a F7D0     		beq	.L85
 819:Drivers/STM32F4xx_HAL_Driver/Src/stm32f4xx_hal_rtc_ex.c ****     {
 820:Drivers/STM32F4xx_HAL_Driver/Src/stm32f4xx_hal_rtc_ex.c ****       if ((Timeout == 0U) || ((HAL_GetTick() - tickstart) > Timeout))
 1360              		.loc 1 820 7 is_stmt 1 view .LVU462
 1361              		.loc 1 820 10 is_stmt 0 view .LVU463
 1362 001c 25B1     		cbz	r5, .L86
 1363              		.loc 1 820 32 discriminator 1 view .LVU464
 1364 001e FFF7FEFF 		bl	HAL_GetTick
 1365              	.LVL99:
 1366              		.loc 1 820 46 discriminator 1 view .LVU465
 1367 0022 801B     		subs	r0, r0, r6
 1368              		.loc 1 820 27 discriminator 1 view .LVU466
 1369 0024 A842     		cmp	r0, r5
 1370 0026 F1D9     		bls	.L85
 1371              	.L86:
 821:Drivers/STM32F4xx_HAL_Driver/Src/stm32f4xx_hal_rtc_ex.c ****       {
 822:Drivers/STM32F4xx_HAL_Driver/Src/stm32f4xx_hal_rtc_ex.c ****         hrtc->State = HAL_RTC_STATE_TIMEOUT;
 1372              		.loc 1 822 9 is_stmt 1 view .LVU467
 1373              		.loc 1 822 21 is_stmt 0 view .LVU468
 1374 0028 0320     		movs	r0, #3
 1375 002a 6077     		strb	r0, [r4, #29]
 823:Drivers/STM32F4xx_HAL_Driver/Src/stm32f4xx_hal_rtc_ex.c ****         return HAL_TIMEOUT;
 1376              		.loc 1 823 9 is_stmt 1 view .LVU469
 1377              		.loc 1 823 16 is_stmt 0 view .LVU470
 1378 002c 07E0     		b	.L87
 1379              	.L90:
 824:Drivers/STM32F4xx_HAL_Driver/Src/stm32f4xx_hal_rtc_ex.c ****       }
 825:Drivers/STM32F4xx_HAL_Driver/Src/stm32f4xx_hal_rtc_ex.c ****     }
 826:Drivers/STM32F4xx_HAL_Driver/Src/stm32f4xx_hal_rtc_ex.c ****   }
 827:Drivers/STM32F4xx_HAL_Driver/Src/stm32f4xx_hal_rtc_ex.c **** 
 828:Drivers/STM32F4xx_HAL_Driver/Src/stm32f4xx_hal_rtc_ex.c ****   /* Clear the Tamper Flag */
 829:Drivers/STM32F4xx_HAL_Driver/Src/stm32f4xx_hal_rtc_ex.c ****   __HAL_RTC_TAMPER_CLEAR_FLAG(hrtc, RTC_FLAG_TAMP2F);
ARM GAS  C:\Users\ADMINI~1\AppData\Local\Temp\ccahqaTu.s 			page 41


 1380              		.loc 1 829 3 is_stmt 1 view .LVU471
 1381 002e DA68     		ldr	r2, [r3, #12]
 1382 0030 D2B2     		uxtb	r2, r2
 1383 0032 62F48142 		orn	r2, r2, #16512
 1384 0036 DA60     		str	r2, [r3, #12]
 830:Drivers/STM32F4xx_HAL_Driver/Src/stm32f4xx_hal_rtc_ex.c **** 
 831:Drivers/STM32F4xx_HAL_Driver/Src/stm32f4xx_hal_rtc_ex.c ****   /* Change RTC state */
 832:Drivers/STM32F4xx_HAL_Driver/Src/stm32f4xx_hal_rtc_ex.c ****   hrtc->State = HAL_RTC_STATE_READY;
 1385              		.loc 1 832 3 view .LVU472
 1386              		.loc 1 832 15 is_stmt 0 view .LVU473
 1387 0038 0123     		movs	r3, #1
 1388 003a 6377     		strb	r3, [r4, #29]
 833:Drivers/STM32F4xx_HAL_Driver/Src/stm32f4xx_hal_rtc_ex.c **** 
 834:Drivers/STM32F4xx_HAL_Driver/Src/stm32f4xx_hal_rtc_ex.c ****   return HAL_OK;
 1389              		.loc 1 834 3 is_stmt 1 view .LVU474
 1390              		.loc 1 834 10 is_stmt 0 view .LVU475
 1391 003c 0020     		movs	r0, #0
 1392              	.L87:
 835:Drivers/STM32F4xx_HAL_Driver/Src/stm32f4xx_hal_rtc_ex.c **** }
 1393              		.loc 1 835 1 view .LVU476
 1394 003e 70BD     		pop	{r4, r5, r6, pc}
 1395              		.loc 1 835 1 view .LVU477
 1396              		.cfi_endproc
 1397              	.LFE248:
 1399              		.section	.text.HAL_RTCEx_SetWakeUpTimer,"ax",%progbits
 1400              		.align	1
 1401              		.global	HAL_RTCEx_SetWakeUpTimer
 1402              		.syntax unified
 1403              		.thumb
 1404              		.thumb_func
 1406              	HAL_RTCEx_SetWakeUpTimer:
 1407              	.LVL100:
 1408              	.LFB249:
 836:Drivers/STM32F4xx_HAL_Driver/Src/stm32f4xx_hal_rtc_ex.c **** #endif /* RTC_TAMPER2_SUPPORT */
 837:Drivers/STM32F4xx_HAL_Driver/Src/stm32f4xx_hal_rtc_ex.c **** 
 838:Drivers/STM32F4xx_HAL_Driver/Src/stm32f4xx_hal_rtc_ex.c **** /**
 839:Drivers/STM32F4xx_HAL_Driver/Src/stm32f4xx_hal_rtc_ex.c ****   * @}
 840:Drivers/STM32F4xx_HAL_Driver/Src/stm32f4xx_hal_rtc_ex.c ****   */
 841:Drivers/STM32F4xx_HAL_Driver/Src/stm32f4xx_hal_rtc_ex.c **** 
 842:Drivers/STM32F4xx_HAL_Driver/Src/stm32f4xx_hal_rtc_ex.c **** /** @defgroup RTCEx_Exported_Functions_Group2 RTC Wakeup functions
 843:Drivers/STM32F4xx_HAL_Driver/Src/stm32f4xx_hal_rtc_ex.c ****   * @brief    RTC Wakeup functions
 844:Drivers/STM32F4xx_HAL_Driver/Src/stm32f4xx_hal_rtc_ex.c ****   *
 845:Drivers/STM32F4xx_HAL_Driver/Src/stm32f4xx_hal_rtc_ex.c **** @verbatim
 846:Drivers/STM32F4xx_HAL_Driver/Src/stm32f4xx_hal_rtc_ex.c ****  ===============================================================================
 847:Drivers/STM32F4xx_HAL_Driver/Src/stm32f4xx_hal_rtc_ex.c ****                         ##### RTC Wakeup functions #####
 848:Drivers/STM32F4xx_HAL_Driver/Src/stm32f4xx_hal_rtc_ex.c ****  ===============================================================================
 849:Drivers/STM32F4xx_HAL_Driver/Src/stm32f4xx_hal_rtc_ex.c **** 
 850:Drivers/STM32F4xx_HAL_Driver/Src/stm32f4xx_hal_rtc_ex.c ****  [..] This section provides functions allowing to configure Wakeup feature
 851:Drivers/STM32F4xx_HAL_Driver/Src/stm32f4xx_hal_rtc_ex.c **** 
 852:Drivers/STM32F4xx_HAL_Driver/Src/stm32f4xx_hal_rtc_ex.c **** @endverbatim
 853:Drivers/STM32F4xx_HAL_Driver/Src/stm32f4xx_hal_rtc_ex.c ****   * @{
 854:Drivers/STM32F4xx_HAL_Driver/Src/stm32f4xx_hal_rtc_ex.c ****   */
 855:Drivers/STM32F4xx_HAL_Driver/Src/stm32f4xx_hal_rtc_ex.c **** 
 856:Drivers/STM32F4xx_HAL_Driver/Src/stm32f4xx_hal_rtc_ex.c **** /**
 857:Drivers/STM32F4xx_HAL_Driver/Src/stm32f4xx_hal_rtc_ex.c ****   * @brief  Sets wakeup timer.
 858:Drivers/STM32F4xx_HAL_Driver/Src/stm32f4xx_hal_rtc_ex.c ****   * @param  hrtc pointer to a RTC_HandleTypeDef structure that contains
 859:Drivers/STM32F4xx_HAL_Driver/Src/stm32f4xx_hal_rtc_ex.c ****   *                the configuration information for RTC.
ARM GAS  C:\Users\ADMINI~1\AppData\Local\Temp\ccahqaTu.s 			page 42


 860:Drivers/STM32F4xx_HAL_Driver/Src/stm32f4xx_hal_rtc_ex.c ****   * @param  WakeUpCounter Wakeup counter
 861:Drivers/STM32F4xx_HAL_Driver/Src/stm32f4xx_hal_rtc_ex.c ****   * @param  WakeUpClock Wakeup clock
 862:Drivers/STM32F4xx_HAL_Driver/Src/stm32f4xx_hal_rtc_ex.c ****   * @retval HAL status
 863:Drivers/STM32F4xx_HAL_Driver/Src/stm32f4xx_hal_rtc_ex.c ****   */
 864:Drivers/STM32F4xx_HAL_Driver/Src/stm32f4xx_hal_rtc_ex.c **** HAL_StatusTypeDef HAL_RTCEx_SetWakeUpTimer(RTC_HandleTypeDef *hrtc, uint32_t WakeUpCounter, uint32_
 865:Drivers/STM32F4xx_HAL_Driver/Src/stm32f4xx_hal_rtc_ex.c **** {
 1409              		.loc 1 865 1 is_stmt 1 view -0
 1410              		.cfi_startproc
 1411              		@ args = 0, pretend = 0, frame = 0
 1412              		@ frame_needed = 0, uses_anonymous_args = 0
 1413              		.loc 1 865 1 is_stmt 0 view .LVU479
 1414 0000 F8B5     		push	{r3, r4, r5, r6, r7, lr}
 1415              	.LCFI19:
 1416              		.cfi_def_cfa_offset 24
 1417              		.cfi_offset 3, -24
 1418              		.cfi_offset 4, -20
 1419              		.cfi_offset 5, -16
 1420              		.cfi_offset 6, -12
 1421              		.cfi_offset 7, -8
 1422              		.cfi_offset 14, -4
 866:Drivers/STM32F4xx_HAL_Driver/Src/stm32f4xx_hal_rtc_ex.c ****   uint32_t tickstart = 0U;
 1423              		.loc 1 866 3 is_stmt 1 view .LVU480
 1424              	.LVL101:
 867:Drivers/STM32F4xx_HAL_Driver/Src/stm32f4xx_hal_rtc_ex.c **** 
 868:Drivers/STM32F4xx_HAL_Driver/Src/stm32f4xx_hal_rtc_ex.c ****   /* Check the parameters */
 869:Drivers/STM32F4xx_HAL_Driver/Src/stm32f4xx_hal_rtc_ex.c ****   assert_param(IS_RTC_WAKEUP_CLOCK(WakeUpClock));
 1425              		.loc 1 869 3 view .LVU481
 870:Drivers/STM32F4xx_HAL_Driver/Src/stm32f4xx_hal_rtc_ex.c ****   assert_param(IS_RTC_WAKEUP_COUNTER(WakeUpCounter));
 1426              		.loc 1 870 3 view .LVU482
 871:Drivers/STM32F4xx_HAL_Driver/Src/stm32f4xx_hal_rtc_ex.c **** 
 872:Drivers/STM32F4xx_HAL_Driver/Src/stm32f4xx_hal_rtc_ex.c ****   /* Process Locked */
 873:Drivers/STM32F4xx_HAL_Driver/Src/stm32f4xx_hal_rtc_ex.c ****   __HAL_LOCK(hrtc);
 1427              		.loc 1 873 3 view .LVU483
 1428              		.loc 1 873 3 view .LVU484
 1429 0002 037F     		ldrb	r3, [r0, #28]	@ zero_extendqisi2
 1430 0004 012B     		cmp	r3, #1
 1431 0006 5FD0     		beq	.L98
 1432 0008 0446     		mov	r4, r0
 1433 000a 0D46     		mov	r5, r1
 1434 000c 1646     		mov	r6, r2
 1435              		.loc 1 873 3 discriminator 2 view .LVU485
 1436 000e 0123     		movs	r3, #1
 1437 0010 0377     		strb	r3, [r0, #28]
 1438              		.loc 1 873 3 discriminator 2 view .LVU486
 874:Drivers/STM32F4xx_HAL_Driver/Src/stm32f4xx_hal_rtc_ex.c **** 
 875:Drivers/STM32F4xx_HAL_Driver/Src/stm32f4xx_hal_rtc_ex.c ****   hrtc->State = HAL_RTC_STATE_BUSY;
 1439              		.loc 1 875 3 view .LVU487
 1440              		.loc 1 875 15 is_stmt 0 view .LVU488
 1441 0012 0223     		movs	r3, #2
 1442 0014 4377     		strb	r3, [r0, #29]
 876:Drivers/STM32F4xx_HAL_Driver/Src/stm32f4xx_hal_rtc_ex.c **** 
 877:Drivers/STM32F4xx_HAL_Driver/Src/stm32f4xx_hal_rtc_ex.c ****   /* Disable the write protection for RTC registers */
 878:Drivers/STM32F4xx_HAL_Driver/Src/stm32f4xx_hal_rtc_ex.c ****   __HAL_RTC_WRITEPROTECTION_DISABLE(hrtc);
 1443              		.loc 1 878 3 is_stmt 1 view .LVU489
 1444              		.loc 1 878 3 view .LVU490
 1445 0016 0368     		ldr	r3, [r0]
 1446 0018 CA22     		movs	r2, #202
ARM GAS  C:\Users\ADMINI~1\AppData\Local\Temp\ccahqaTu.s 			page 43


 1447              	.LVL102:
 1448              		.loc 1 878 3 is_stmt 0 view .LVU491
 1449 001a 5A62     		str	r2, [r3, #36]
 1450              		.loc 1 878 3 is_stmt 1 view .LVU492
 1451 001c 0368     		ldr	r3, [r0]
 1452 001e 5322     		movs	r2, #83
 1453 0020 5A62     		str	r2, [r3, #36]
 1454              		.loc 1 878 3 view .LVU493
 879:Drivers/STM32F4xx_HAL_Driver/Src/stm32f4xx_hal_rtc_ex.c **** 
 880:Drivers/STM32F4xx_HAL_Driver/Src/stm32f4xx_hal_rtc_ex.c ****   /* Check RTC WUTWF flag is reset only when wakeup timer enabled*/
 881:Drivers/STM32F4xx_HAL_Driver/Src/stm32f4xx_hal_rtc_ex.c ****   if ((hrtc->Instance->CR & RTC_CR_WUTE) != 0U)
 1455              		.loc 1 881 3 view .LVU494
 1456              		.loc 1 881 12 is_stmt 0 view .LVU495
 1457 0022 0368     		ldr	r3, [r0]
 1458              		.loc 1 881 22 view .LVU496
 1459 0024 9B68     		ldr	r3, [r3, #8]
 1460              		.loc 1 881 6 view .LVU497
 1461 0026 13F4806F 		tst	r3, #1024
 1462 002a 15D0     		beq	.L93
 882:Drivers/STM32F4xx_HAL_Driver/Src/stm32f4xx_hal_rtc_ex.c ****   {
 883:Drivers/STM32F4xx_HAL_Driver/Src/stm32f4xx_hal_rtc_ex.c ****     tickstart = HAL_GetTick();
 1463              		.loc 1 883 5 is_stmt 1 view .LVU498
 1464              		.loc 1 883 17 is_stmt 0 view .LVU499
 1465 002c FFF7FEFF 		bl	HAL_GetTick
 1466              	.LVL103:
 1467              		.loc 1 883 17 view .LVU500
 1468 0030 0746     		mov	r7, r0
 1469              	.LVL104:
 884:Drivers/STM32F4xx_HAL_Driver/Src/stm32f4xx_hal_rtc_ex.c **** 
 885:Drivers/STM32F4xx_HAL_Driver/Src/stm32f4xx_hal_rtc_ex.c ****     /* Wait till RTC WUTWF flag is reset and if timeout is reached exit */
 886:Drivers/STM32F4xx_HAL_Driver/Src/stm32f4xx_hal_rtc_ex.c ****     while (__HAL_RTC_WAKEUPTIMER_GET_FLAG(hrtc, RTC_FLAG_WUTWF) != 0U)
 1470              		.loc 1 886 5 is_stmt 1 view .LVU501
 1471              	.L94:
 1472              		.loc 1 886 65 view .LVU502
 1473              		.loc 1 886 12 is_stmt 0 view .LVU503
 1474 0032 2368     		ldr	r3, [r4]
 1475 0034 DB68     		ldr	r3, [r3, #12]
 1476              		.loc 1 886 65 view .LVU504
 1477 0036 13F0040F 		tst	r3, #4
 1478 003a 0DD0     		beq	.L93
 887:Drivers/STM32F4xx_HAL_Driver/Src/stm32f4xx_hal_rtc_ex.c ****     {
 888:Drivers/STM32F4xx_HAL_Driver/Src/stm32f4xx_hal_rtc_ex.c ****       if ((HAL_GetTick() - tickstart) > RTC_TIMEOUT_VALUE)
 1479              		.loc 1 888 7 is_stmt 1 view .LVU505
 1480              		.loc 1 888 12 is_stmt 0 view .LVU506
 1481 003c FFF7FEFF 		bl	HAL_GetTick
 1482              	.LVL105:
 1483              		.loc 1 888 26 discriminator 1 view .LVU507
 1484 0040 C01B     		subs	r0, r0, r7
 1485              		.loc 1 888 10 discriminator 1 view .LVU508
 1486 0042 B0F57A7F 		cmp	r0, #1000
 1487 0046 F4D9     		bls	.L94
 889:Drivers/STM32F4xx_HAL_Driver/Src/stm32f4xx_hal_rtc_ex.c ****       {
 890:Drivers/STM32F4xx_HAL_Driver/Src/stm32f4xx_hal_rtc_ex.c ****         /* Enable the write protection for RTC registers */
 891:Drivers/STM32F4xx_HAL_Driver/Src/stm32f4xx_hal_rtc_ex.c ****         __HAL_RTC_WRITEPROTECTION_ENABLE(hrtc);
 1488              		.loc 1 891 9 is_stmt 1 view .LVU509
 1489              		.loc 1 891 9 view .LVU510
 1490 0048 2368     		ldr	r3, [r4]
ARM GAS  C:\Users\ADMINI~1\AppData\Local\Temp\ccahqaTu.s 			page 44


 1491 004a FF22     		movs	r2, #255
 1492 004c 5A62     		str	r2, [r3, #36]
 1493              		.loc 1 891 9 view .LVU511
 892:Drivers/STM32F4xx_HAL_Driver/Src/stm32f4xx_hal_rtc_ex.c **** 
 893:Drivers/STM32F4xx_HAL_Driver/Src/stm32f4xx_hal_rtc_ex.c ****         hrtc->State = HAL_RTC_STATE_TIMEOUT;
 1494              		.loc 1 893 9 view .LVU512
 1495              		.loc 1 893 21 is_stmt 0 view .LVU513
 1496 004e 0320     		movs	r0, #3
 1497 0050 6077     		strb	r0, [r4, #29]
 894:Drivers/STM32F4xx_HAL_Driver/Src/stm32f4xx_hal_rtc_ex.c **** 
 895:Drivers/STM32F4xx_HAL_Driver/Src/stm32f4xx_hal_rtc_ex.c ****         /* Process Unlocked */
 896:Drivers/STM32F4xx_HAL_Driver/Src/stm32f4xx_hal_rtc_ex.c ****         __HAL_UNLOCK(hrtc);
 1498              		.loc 1 896 9 is_stmt 1 view .LVU514
 1499              		.loc 1 896 9 view .LVU515
 1500 0052 0023     		movs	r3, #0
 1501 0054 2377     		strb	r3, [r4, #28]
 1502              		.loc 1 896 9 view .LVU516
 897:Drivers/STM32F4xx_HAL_Driver/Src/stm32f4xx_hal_rtc_ex.c **** 
 898:Drivers/STM32F4xx_HAL_Driver/Src/stm32f4xx_hal_rtc_ex.c ****         return HAL_TIMEOUT;
 1503              		.loc 1 898 9 view .LVU517
 1504              		.loc 1 898 16 is_stmt 0 view .LVU518
 1505 0056 36E0     		b	.L92
 1506              	.LVL106:
 1507              	.L93:
 899:Drivers/STM32F4xx_HAL_Driver/Src/stm32f4xx_hal_rtc_ex.c ****       }
 900:Drivers/STM32F4xx_HAL_Driver/Src/stm32f4xx_hal_rtc_ex.c ****     }
 901:Drivers/STM32F4xx_HAL_Driver/Src/stm32f4xx_hal_rtc_ex.c ****   }
 902:Drivers/STM32F4xx_HAL_Driver/Src/stm32f4xx_hal_rtc_ex.c **** 
 903:Drivers/STM32F4xx_HAL_Driver/Src/stm32f4xx_hal_rtc_ex.c ****   /* Disable the Wakeup timer */
 904:Drivers/STM32F4xx_HAL_Driver/Src/stm32f4xx_hal_rtc_ex.c ****   __HAL_RTC_WAKEUPTIMER_DISABLE(hrtc);
 1508              		.loc 1 904 3 is_stmt 1 view .LVU519
 1509 0058 2268     		ldr	r2, [r4]
 1510 005a 9368     		ldr	r3, [r2, #8]
 1511 005c 23F48063 		bic	r3, r3, #1024
 1512 0060 9360     		str	r3, [r2, #8]
 905:Drivers/STM32F4xx_HAL_Driver/Src/stm32f4xx_hal_rtc_ex.c **** 
 906:Drivers/STM32F4xx_HAL_Driver/Src/stm32f4xx_hal_rtc_ex.c ****   /* Clear the Wakeup flag */
 907:Drivers/STM32F4xx_HAL_Driver/Src/stm32f4xx_hal_rtc_ex.c ****   __HAL_RTC_WAKEUPTIMER_CLEAR_FLAG(hrtc, RTC_FLAG_WUTF);
 1513              		.loc 1 907 3 view .LVU520
 1514 0062 2268     		ldr	r2, [r4]
 1515 0064 D368     		ldr	r3, [r2, #12]
 1516 0066 DBB2     		uxtb	r3, r3
 1517 0068 63F49063 		orn	r3, r3, #1152
 1518 006c D360     		str	r3, [r2, #12]
 908:Drivers/STM32F4xx_HAL_Driver/Src/stm32f4xx_hal_rtc_ex.c **** 
 909:Drivers/STM32F4xx_HAL_Driver/Src/stm32f4xx_hal_rtc_ex.c ****   /* Get tick */
 910:Drivers/STM32F4xx_HAL_Driver/Src/stm32f4xx_hal_rtc_ex.c ****   tickstart = HAL_GetTick();
 1519              		.loc 1 910 3 view .LVU521
 1520              		.loc 1 910 15 is_stmt 0 view .LVU522
 1521 006e FFF7FEFF 		bl	HAL_GetTick
 1522              	.LVL107:
 1523 0072 0746     		mov	r7, r0
 1524              	.LVL108:
 911:Drivers/STM32F4xx_HAL_Driver/Src/stm32f4xx_hal_rtc_ex.c **** 
 912:Drivers/STM32F4xx_HAL_Driver/Src/stm32f4xx_hal_rtc_ex.c ****   /* Wait till RTC WUTWF flag is set and if timeout is reached exit */
 913:Drivers/STM32F4xx_HAL_Driver/Src/stm32f4xx_hal_rtc_ex.c ****   while (__HAL_RTC_WAKEUPTIMER_GET_FLAG(hrtc, RTC_FLAG_WUTWF) == 0U)
 1525              		.loc 1 913 3 is_stmt 1 view .LVU523
ARM GAS  C:\Users\ADMINI~1\AppData\Local\Temp\ccahqaTu.s 			page 45


 1526              	.L96:
 1527              		.loc 1 913 63 view .LVU524
 1528              		.loc 1 913 10 is_stmt 0 view .LVU525
 1529 0074 2368     		ldr	r3, [r4]
 1530 0076 DA68     		ldr	r2, [r3, #12]
 1531              		.loc 1 913 63 view .LVU526
 1532 0078 12F0040F 		tst	r2, #4
 1533 007c 0DD1     		bne	.L100
 914:Drivers/STM32F4xx_HAL_Driver/Src/stm32f4xx_hal_rtc_ex.c ****   {
 915:Drivers/STM32F4xx_HAL_Driver/Src/stm32f4xx_hal_rtc_ex.c ****     if ((HAL_GetTick() - tickstart) > RTC_TIMEOUT_VALUE)
 1534              		.loc 1 915 5 is_stmt 1 view .LVU527
 1535              		.loc 1 915 10 is_stmt 0 view .LVU528
 1536 007e FFF7FEFF 		bl	HAL_GetTick
 1537              	.LVL109:
 1538              		.loc 1 915 24 discriminator 1 view .LVU529
 1539 0082 C01B     		subs	r0, r0, r7
 1540              		.loc 1 915 8 discriminator 1 view .LVU530
 1541 0084 B0F57A7F 		cmp	r0, #1000
 1542 0088 F4D9     		bls	.L96
 916:Drivers/STM32F4xx_HAL_Driver/Src/stm32f4xx_hal_rtc_ex.c ****     {
 917:Drivers/STM32F4xx_HAL_Driver/Src/stm32f4xx_hal_rtc_ex.c ****       /* Enable the write protection for RTC registers */
 918:Drivers/STM32F4xx_HAL_Driver/Src/stm32f4xx_hal_rtc_ex.c ****       __HAL_RTC_WRITEPROTECTION_ENABLE(hrtc);
 1543              		.loc 1 918 7 is_stmt 1 view .LVU531
 1544              		.loc 1 918 7 view .LVU532
 1545 008a 2368     		ldr	r3, [r4]
 1546 008c FF22     		movs	r2, #255
 1547 008e 5A62     		str	r2, [r3, #36]
 1548              		.loc 1 918 7 view .LVU533
 919:Drivers/STM32F4xx_HAL_Driver/Src/stm32f4xx_hal_rtc_ex.c **** 
 920:Drivers/STM32F4xx_HAL_Driver/Src/stm32f4xx_hal_rtc_ex.c ****       hrtc->State = HAL_RTC_STATE_TIMEOUT;
 1549              		.loc 1 920 7 view .LVU534
 1550              		.loc 1 920 19 is_stmt 0 view .LVU535
 1551 0090 0320     		movs	r0, #3
 1552 0092 6077     		strb	r0, [r4, #29]
 921:Drivers/STM32F4xx_HAL_Driver/Src/stm32f4xx_hal_rtc_ex.c **** 
 922:Drivers/STM32F4xx_HAL_Driver/Src/stm32f4xx_hal_rtc_ex.c ****       /* Process Unlocked */
 923:Drivers/STM32F4xx_HAL_Driver/Src/stm32f4xx_hal_rtc_ex.c ****       __HAL_UNLOCK(hrtc);
 1553              		.loc 1 923 7 is_stmt 1 view .LVU536
 1554              		.loc 1 923 7 view .LVU537
 1555 0094 0023     		movs	r3, #0
 1556 0096 2377     		strb	r3, [r4, #28]
 1557              		.loc 1 923 7 view .LVU538
 924:Drivers/STM32F4xx_HAL_Driver/Src/stm32f4xx_hal_rtc_ex.c **** 
 925:Drivers/STM32F4xx_HAL_Driver/Src/stm32f4xx_hal_rtc_ex.c ****       return HAL_TIMEOUT;
 1558              		.loc 1 925 7 view .LVU539
 1559              		.loc 1 925 14 is_stmt 0 view .LVU540
 1560 0098 15E0     		b	.L92
 1561              	.L100:
 926:Drivers/STM32F4xx_HAL_Driver/Src/stm32f4xx_hal_rtc_ex.c ****     }
 927:Drivers/STM32F4xx_HAL_Driver/Src/stm32f4xx_hal_rtc_ex.c ****   }
 928:Drivers/STM32F4xx_HAL_Driver/Src/stm32f4xx_hal_rtc_ex.c **** 
 929:Drivers/STM32F4xx_HAL_Driver/Src/stm32f4xx_hal_rtc_ex.c ****   /* Clear the Wakeup Timer clock source bits in CR register */
 930:Drivers/STM32F4xx_HAL_Driver/Src/stm32f4xx_hal_rtc_ex.c ****   hrtc->Instance->CR &= (uint32_t)~RTC_CR_WUCKSEL;
 1562              		.loc 1 930 3 is_stmt 1 view .LVU541
 1563              		.loc 1 930 17 is_stmt 0 view .LVU542
 1564 009a 9A68     		ldr	r2, [r3, #8]
 1565              		.loc 1 930 22 view .LVU543
ARM GAS  C:\Users\ADMINI~1\AppData\Local\Temp\ccahqaTu.s 			page 46


 1566 009c 22F00702 		bic	r2, r2, #7
 1567 00a0 9A60     		str	r2, [r3, #8]
 931:Drivers/STM32F4xx_HAL_Driver/Src/stm32f4xx_hal_rtc_ex.c **** 
 932:Drivers/STM32F4xx_HAL_Driver/Src/stm32f4xx_hal_rtc_ex.c ****   /* Configure the clock source */
 933:Drivers/STM32F4xx_HAL_Driver/Src/stm32f4xx_hal_rtc_ex.c ****   hrtc->Instance->CR |= (uint32_t)WakeUpClock;
 1568              		.loc 1 933 3 is_stmt 1 view .LVU544
 1569              		.loc 1 933 7 is_stmt 0 view .LVU545
 1570 00a2 2268     		ldr	r2, [r4]
 1571              		.loc 1 933 17 view .LVU546
 1572 00a4 9368     		ldr	r3, [r2, #8]
 1573              		.loc 1 933 22 view .LVU547
 1574 00a6 3343     		orrs	r3, r3, r6
 1575 00a8 9360     		str	r3, [r2, #8]
 934:Drivers/STM32F4xx_HAL_Driver/Src/stm32f4xx_hal_rtc_ex.c **** 
 935:Drivers/STM32F4xx_HAL_Driver/Src/stm32f4xx_hal_rtc_ex.c ****   /* Configure the Wakeup Timer counter */
 936:Drivers/STM32F4xx_HAL_Driver/Src/stm32f4xx_hal_rtc_ex.c ****   hrtc->Instance->WUTR = (uint32_t)WakeUpCounter;
 1576              		.loc 1 936 3 is_stmt 1 view .LVU548
 1577              		.loc 1 936 7 is_stmt 0 view .LVU549
 1578 00aa 2368     		ldr	r3, [r4]
 1579              		.loc 1 936 24 view .LVU550
 1580 00ac 5D61     		str	r5, [r3, #20]
 937:Drivers/STM32F4xx_HAL_Driver/Src/stm32f4xx_hal_rtc_ex.c **** 
 938:Drivers/STM32F4xx_HAL_Driver/Src/stm32f4xx_hal_rtc_ex.c ****   /* Enable the Wakeup Timer */
 939:Drivers/STM32F4xx_HAL_Driver/Src/stm32f4xx_hal_rtc_ex.c ****   __HAL_RTC_WAKEUPTIMER_ENABLE(hrtc);
 1581              		.loc 1 939 3 is_stmt 1 view .LVU551
 1582 00ae 2268     		ldr	r2, [r4]
 1583 00b0 9368     		ldr	r3, [r2, #8]
 1584 00b2 43F48063 		orr	r3, r3, #1024
 1585 00b6 9360     		str	r3, [r2, #8]
 940:Drivers/STM32F4xx_HAL_Driver/Src/stm32f4xx_hal_rtc_ex.c **** 
 941:Drivers/STM32F4xx_HAL_Driver/Src/stm32f4xx_hal_rtc_ex.c ****   /* Enable the write protection for RTC registers */
 942:Drivers/STM32F4xx_HAL_Driver/Src/stm32f4xx_hal_rtc_ex.c ****   __HAL_RTC_WRITEPROTECTION_ENABLE(hrtc);
 1586              		.loc 1 942 3 view .LVU552
 1587              		.loc 1 942 3 view .LVU553
 1588 00b8 2368     		ldr	r3, [r4]
 1589 00ba FF22     		movs	r2, #255
 1590 00bc 5A62     		str	r2, [r3, #36]
 1591              		.loc 1 942 3 view .LVU554
 943:Drivers/STM32F4xx_HAL_Driver/Src/stm32f4xx_hal_rtc_ex.c **** 
 944:Drivers/STM32F4xx_HAL_Driver/Src/stm32f4xx_hal_rtc_ex.c ****   hrtc->State = HAL_RTC_STATE_READY;
 1592              		.loc 1 944 3 view .LVU555
 1593              		.loc 1 944 15 is_stmt 0 view .LVU556
 1594 00be 0123     		movs	r3, #1
 1595 00c0 6377     		strb	r3, [r4, #29]
 945:Drivers/STM32F4xx_HAL_Driver/Src/stm32f4xx_hal_rtc_ex.c **** 
 946:Drivers/STM32F4xx_HAL_Driver/Src/stm32f4xx_hal_rtc_ex.c ****   /* Process Unlocked */
 947:Drivers/STM32F4xx_HAL_Driver/Src/stm32f4xx_hal_rtc_ex.c ****   __HAL_UNLOCK(hrtc);
 1596              		.loc 1 947 3 is_stmt 1 view .LVU557
 1597              		.loc 1 947 3 view .LVU558
 1598 00c2 0020     		movs	r0, #0
 1599 00c4 2077     		strb	r0, [r4, #28]
 1600              		.loc 1 947 3 view .LVU559
 948:Drivers/STM32F4xx_HAL_Driver/Src/stm32f4xx_hal_rtc_ex.c **** 
 949:Drivers/STM32F4xx_HAL_Driver/Src/stm32f4xx_hal_rtc_ex.c ****   return HAL_OK;
 1601              		.loc 1 949 3 view .LVU560
 1602              	.LVL110:
 1603              	.L92:
ARM GAS  C:\Users\ADMINI~1\AppData\Local\Temp\ccahqaTu.s 			page 47


 950:Drivers/STM32F4xx_HAL_Driver/Src/stm32f4xx_hal_rtc_ex.c **** }
 1604              		.loc 1 950 1 is_stmt 0 view .LVU561
 1605 00c6 F8BD     		pop	{r3, r4, r5, r6, r7, pc}
 1606              	.LVL111:
 1607              	.L98:
 873:Drivers/STM32F4xx_HAL_Driver/Src/stm32f4xx_hal_rtc_ex.c **** 
 1608              		.loc 1 873 3 discriminator 1 view .LVU562
 1609 00c8 0220     		movs	r0, #2
 1610              	.LVL112:
 873:Drivers/STM32F4xx_HAL_Driver/Src/stm32f4xx_hal_rtc_ex.c **** 
 1611              		.loc 1 873 3 discriminator 1 view .LVU563
 1612 00ca FCE7     		b	.L92
 1613              		.cfi_endproc
 1614              	.LFE249:
 1616              		.section	.text.HAL_RTCEx_SetWakeUpTimer_IT,"ax",%progbits
 1617              		.align	1
 1618              		.global	HAL_RTCEx_SetWakeUpTimer_IT
 1619              		.syntax unified
 1620              		.thumb
 1621              		.thumb_func
 1623              	HAL_RTCEx_SetWakeUpTimer_IT:
 1624              	.LVL113:
 1625              	.LFB250:
 951:Drivers/STM32F4xx_HAL_Driver/Src/stm32f4xx_hal_rtc_ex.c **** 
 952:Drivers/STM32F4xx_HAL_Driver/Src/stm32f4xx_hal_rtc_ex.c **** /**
 953:Drivers/STM32F4xx_HAL_Driver/Src/stm32f4xx_hal_rtc_ex.c ****   * @brief  Sets wakeup timer with interrupt.
 954:Drivers/STM32F4xx_HAL_Driver/Src/stm32f4xx_hal_rtc_ex.c ****   * @param  hrtc pointer to a RTC_HandleTypeDef structure that contains
 955:Drivers/STM32F4xx_HAL_Driver/Src/stm32f4xx_hal_rtc_ex.c ****   *                the configuration information for RTC.
 956:Drivers/STM32F4xx_HAL_Driver/Src/stm32f4xx_hal_rtc_ex.c ****   * @param  WakeUpCounter Wakeup counter
 957:Drivers/STM32F4xx_HAL_Driver/Src/stm32f4xx_hal_rtc_ex.c ****   * @param  WakeUpClock Wakeup clock
 958:Drivers/STM32F4xx_HAL_Driver/Src/stm32f4xx_hal_rtc_ex.c ****   * @retval HAL status
 959:Drivers/STM32F4xx_HAL_Driver/Src/stm32f4xx_hal_rtc_ex.c ****   */
 960:Drivers/STM32F4xx_HAL_Driver/Src/stm32f4xx_hal_rtc_ex.c **** HAL_StatusTypeDef HAL_RTCEx_SetWakeUpTimer_IT(RTC_HandleTypeDef *hrtc, uint32_t WakeUpCounter, uint
 961:Drivers/STM32F4xx_HAL_Driver/Src/stm32f4xx_hal_rtc_ex.c **** {
 1626              		.loc 1 961 1 is_stmt 1 view -0
 1627              		.cfi_startproc
 1628              		@ args = 0, pretend = 0, frame = 8
 1629              		@ frame_needed = 0, uses_anonymous_args = 0
 1630              		@ link register save eliminated.
 1631              		.loc 1 961 1 is_stmt 0 view .LVU565
 1632 0000 70B4     		push	{r4, r5, r6}
 1633              	.LCFI20:
 1634              		.cfi_def_cfa_offset 12
 1635              		.cfi_offset 4, -12
 1636              		.cfi_offset 5, -8
 1637              		.cfi_offset 6, -4
 1638 0002 83B0     		sub	sp, sp, #12
 1639              	.LCFI21:
 1640              		.cfi_def_cfa_offset 24
 1641 0004 0346     		mov	r3, r0
 962:Drivers/STM32F4xx_HAL_Driver/Src/stm32f4xx_hal_rtc_ex.c ****   __IO uint32_t count  = RTC_TIMEOUT_VALUE * (SystemCoreClock / 32U / 1000U);
 1642              		.loc 1 962 3 is_stmt 1 view .LVU566
 1643              		.loc 1 962 69 is_stmt 0 view .LVU567
 1644 0006 3948     		ldr	r0, .L112
 1645              	.LVL114:
 1646              		.loc 1 962 69 view .LVU568
 1647 0008 0468     		ldr	r4, [r0]
ARM GAS  C:\Users\ADMINI~1\AppData\Local\Temp\ccahqaTu.s 			page 48


 1648 000a 3948     		ldr	r0, .L112+4
 1649 000c A0FB0404 		umull	r0, r4, r0, r4
 1650 0010 E40A     		lsrs	r4, r4, #11
 1651              		.loc 1 962 44 view .LVU569
 1652 0012 4FF47A70 		mov	r0, #1000
 1653 0016 00FB04F4 		mul	r4, r0, r4
 1654              		.loc 1 962 17 view .LVU570
 1655 001a 0194     		str	r4, [sp, #4]
 963:Drivers/STM32F4xx_HAL_Driver/Src/stm32f4xx_hal_rtc_ex.c **** 
 964:Drivers/STM32F4xx_HAL_Driver/Src/stm32f4xx_hal_rtc_ex.c ****   /* Check the parameters */
 965:Drivers/STM32F4xx_HAL_Driver/Src/stm32f4xx_hal_rtc_ex.c ****   assert_param(IS_RTC_WAKEUP_CLOCK(WakeUpClock));
 1656              		.loc 1 965 3 is_stmt 1 view .LVU571
 966:Drivers/STM32F4xx_HAL_Driver/Src/stm32f4xx_hal_rtc_ex.c ****   assert_param(IS_RTC_WAKEUP_COUNTER(WakeUpCounter));
 1657              		.loc 1 966 3 view .LVU572
 967:Drivers/STM32F4xx_HAL_Driver/Src/stm32f4xx_hal_rtc_ex.c **** 
 968:Drivers/STM32F4xx_HAL_Driver/Src/stm32f4xx_hal_rtc_ex.c ****   /* Process Locked */
 969:Drivers/STM32F4xx_HAL_Driver/Src/stm32f4xx_hal_rtc_ex.c ****   __HAL_LOCK(hrtc);
 1658              		.loc 1 969 3 view .LVU573
 1659              		.loc 1 969 3 view .LVU574
 1660 001c 187F     		ldrb	r0, [r3, #28]	@ zero_extendqisi2
 1661 001e 0128     		cmp	r0, #1
 1662 0020 62D0     		beq	.L108
 1663              		.loc 1 969 3 discriminator 2 view .LVU575
 1664 0022 0120     		movs	r0, #1
 1665 0024 1877     		strb	r0, [r3, #28]
 1666              		.loc 1 969 3 discriminator 2 view .LVU576
 970:Drivers/STM32F4xx_HAL_Driver/Src/stm32f4xx_hal_rtc_ex.c **** 
 971:Drivers/STM32F4xx_HAL_Driver/Src/stm32f4xx_hal_rtc_ex.c ****   hrtc->State = HAL_RTC_STATE_BUSY;
 1667              		.loc 1 971 3 view .LVU577
 1668              		.loc 1 971 15 is_stmt 0 view .LVU578
 1669 0026 0220     		movs	r0, #2
 1670 0028 5877     		strb	r0, [r3, #29]
 972:Drivers/STM32F4xx_HAL_Driver/Src/stm32f4xx_hal_rtc_ex.c **** 
 973:Drivers/STM32F4xx_HAL_Driver/Src/stm32f4xx_hal_rtc_ex.c ****   /* Disable the write protection for RTC registers */
 974:Drivers/STM32F4xx_HAL_Driver/Src/stm32f4xx_hal_rtc_ex.c ****   __HAL_RTC_WRITEPROTECTION_DISABLE(hrtc);
 1671              		.loc 1 974 3 is_stmt 1 view .LVU579
 1672              		.loc 1 974 3 view .LVU580
 1673 002a 1868     		ldr	r0, [r3]
 1674 002c CA25     		movs	r5, #202
 1675 002e 4562     		str	r5, [r0, #36]
 1676              		.loc 1 974 3 view .LVU581
 1677 0030 1868     		ldr	r0, [r3]
 1678 0032 5325     		movs	r5, #83
 1679 0034 4562     		str	r5, [r0, #36]
 1680              		.loc 1 974 3 view .LVU582
 975:Drivers/STM32F4xx_HAL_Driver/Src/stm32f4xx_hal_rtc_ex.c **** 
 976:Drivers/STM32F4xx_HAL_Driver/Src/stm32f4xx_hal_rtc_ex.c ****   /* Check RTC WUTWF flag is reset only when wakeup timer enabled */
 977:Drivers/STM32F4xx_HAL_Driver/Src/stm32f4xx_hal_rtc_ex.c ****   if ((hrtc->Instance->CR & RTC_CR_WUTE) != 0U)
 1681              		.loc 1 977 3 view .LVU583
 1682              		.loc 1 977 12 is_stmt 0 view .LVU584
 1683 0036 1E68     		ldr	r6, [r3]
 1684              		.loc 1 977 22 view .LVU585
 1685 0038 B068     		ldr	r0, [r6, #8]
 1686              		.loc 1 977 6 view .LVU586
 1687 003a 10F4806F 		tst	r0, #1024
 1688 003e 08D0     		beq	.L103
 1689              	.L105:
ARM GAS  C:\Users\ADMINI~1\AppData\Local\Temp\ccahqaTu.s 			page 49


 978:Drivers/STM32F4xx_HAL_Driver/Src/stm32f4xx_hal_rtc_ex.c ****   {
 979:Drivers/STM32F4xx_HAL_Driver/Src/stm32f4xx_hal_rtc_ex.c ****     /* Wait till RTC WUTWF flag is reset and if timeout is reached exit */
 980:Drivers/STM32F4xx_HAL_Driver/Src/stm32f4xx_hal_rtc_ex.c ****     do
 1690              		.loc 1 980 5 is_stmt 1 view .LVU587
 981:Drivers/STM32F4xx_HAL_Driver/Src/stm32f4xx_hal_rtc_ex.c ****     {
 982:Drivers/STM32F4xx_HAL_Driver/Src/stm32f4xx_hal_rtc_ex.c ****       if (count-- == 0U)
 1691              		.loc 1 982 7 view .LVU588
 1692              		.loc 1 982 16 is_stmt 0 view .LVU589
 1693 0040 0198     		ldr	r0, [sp, #4]
 1694 0042 451E     		subs	r5, r0, #1
 1695 0044 0195     		str	r5, [sp, #4]
 1696              		.loc 1 982 10 view .LVU590
 1697 0046 0028     		cmp	r0, #0
 1698 0048 3DD0     		beq	.L110
 983:Drivers/STM32F4xx_HAL_Driver/Src/stm32f4xx_hal_rtc_ex.c ****       {
 984:Drivers/STM32F4xx_HAL_Driver/Src/stm32f4xx_hal_rtc_ex.c ****         /* Enable the write protection for RTC registers */
 985:Drivers/STM32F4xx_HAL_Driver/Src/stm32f4xx_hal_rtc_ex.c ****         __HAL_RTC_WRITEPROTECTION_ENABLE(hrtc);
 986:Drivers/STM32F4xx_HAL_Driver/Src/stm32f4xx_hal_rtc_ex.c **** 
 987:Drivers/STM32F4xx_HAL_Driver/Src/stm32f4xx_hal_rtc_ex.c ****         hrtc->State = HAL_RTC_STATE_TIMEOUT;
 988:Drivers/STM32F4xx_HAL_Driver/Src/stm32f4xx_hal_rtc_ex.c **** 
 989:Drivers/STM32F4xx_HAL_Driver/Src/stm32f4xx_hal_rtc_ex.c ****         /* Process Unlocked */
 990:Drivers/STM32F4xx_HAL_Driver/Src/stm32f4xx_hal_rtc_ex.c ****         __HAL_UNLOCK(hrtc);
 991:Drivers/STM32F4xx_HAL_Driver/Src/stm32f4xx_hal_rtc_ex.c **** 
 992:Drivers/STM32F4xx_HAL_Driver/Src/stm32f4xx_hal_rtc_ex.c ****         return HAL_TIMEOUT;
 993:Drivers/STM32F4xx_HAL_Driver/Src/stm32f4xx_hal_rtc_ex.c ****       }
 994:Drivers/STM32F4xx_HAL_Driver/Src/stm32f4xx_hal_rtc_ex.c ****     } while (__HAL_RTC_WAKEUPTIMER_GET_FLAG(hrtc, RTC_FLAG_WUTWF) != 0U);
 1699              		.loc 1 994 67 is_stmt 1 view .LVU591
 1700              		.loc 1 994 14 is_stmt 0 view .LVU592
 1701 004a F068     		ldr	r0, [r6, #12]
 1702              		.loc 1 994 67 view .LVU593
 1703 004c 10F0040F 		tst	r0, #4
 1704 0050 F6D1     		bne	.L105
 1705              	.L103:
 995:Drivers/STM32F4xx_HAL_Driver/Src/stm32f4xx_hal_rtc_ex.c ****   }
 996:Drivers/STM32F4xx_HAL_Driver/Src/stm32f4xx_hal_rtc_ex.c **** 
 997:Drivers/STM32F4xx_HAL_Driver/Src/stm32f4xx_hal_rtc_ex.c ****   /* Disable the Wakeup timer */
 998:Drivers/STM32F4xx_HAL_Driver/Src/stm32f4xx_hal_rtc_ex.c ****   __HAL_RTC_WAKEUPTIMER_DISABLE(hrtc);
 1706              		.loc 1 998 3 is_stmt 1 view .LVU594
 1707 0052 B068     		ldr	r0, [r6, #8]
 1708 0054 20F48060 		bic	r0, r0, #1024
 1709 0058 B060     		str	r0, [r6, #8]
 999:Drivers/STM32F4xx_HAL_Driver/Src/stm32f4xx_hal_rtc_ex.c **** 
1000:Drivers/STM32F4xx_HAL_Driver/Src/stm32f4xx_hal_rtc_ex.c ****   /* Clear the Wakeup flag */
1001:Drivers/STM32F4xx_HAL_Driver/Src/stm32f4xx_hal_rtc_ex.c ****   __HAL_RTC_WAKEUPTIMER_CLEAR_FLAG(hrtc, RTC_FLAG_WUTF);
 1710              		.loc 1 1001 3 view .LVU595
 1711 005a 1D68     		ldr	r5, [r3]
 1712 005c E868     		ldr	r0, [r5, #12]
 1713 005e C0B2     		uxtb	r0, r0
 1714 0060 60F49060 		orn	r0, r0, #1152
 1715 0064 E860     		str	r0, [r5, #12]
1002:Drivers/STM32F4xx_HAL_Driver/Src/stm32f4xx_hal_rtc_ex.c **** 
1003:Drivers/STM32F4xx_HAL_Driver/Src/stm32f4xx_hal_rtc_ex.c ****   /* Reload the counter */
1004:Drivers/STM32F4xx_HAL_Driver/Src/stm32f4xx_hal_rtc_ex.c ****   count = RTC_TIMEOUT_VALUE * (SystemCoreClock / 32U / 1000U);
 1716              		.loc 1 1004 3 view .LVU596
 1717              		.loc 1 1004 9 is_stmt 0 view .LVU597
 1718 0066 0194     		str	r4, [sp, #4]
 1719              	.L107:
ARM GAS  C:\Users\ADMINI~1\AppData\Local\Temp\ccahqaTu.s 			page 50


1005:Drivers/STM32F4xx_HAL_Driver/Src/stm32f4xx_hal_rtc_ex.c **** 
1006:Drivers/STM32F4xx_HAL_Driver/Src/stm32f4xx_hal_rtc_ex.c ****   /* Wait till RTC WUTWF flag is set and if timeout is reached exit */
1007:Drivers/STM32F4xx_HAL_Driver/Src/stm32f4xx_hal_rtc_ex.c ****   do
 1720              		.loc 1 1007 3 is_stmt 1 view .LVU598
1008:Drivers/STM32F4xx_HAL_Driver/Src/stm32f4xx_hal_rtc_ex.c ****   {
1009:Drivers/STM32F4xx_HAL_Driver/Src/stm32f4xx_hal_rtc_ex.c ****     if (count-- == 0U)
 1721              		.loc 1 1009 5 view .LVU599
 1722              		.loc 1 1009 14 is_stmt 0 view .LVU600
 1723 0068 0198     		ldr	r0, [sp, #4]
 1724 006a 441E     		subs	r4, r0, #1
 1725 006c 0194     		str	r4, [sp, #4]
 1726              		.loc 1 1009 8 view .LVU601
 1727 006e 0028     		cmp	r0, #0
 1728 0070 30D0     		beq	.L111
1010:Drivers/STM32F4xx_HAL_Driver/Src/stm32f4xx_hal_rtc_ex.c ****     {
1011:Drivers/STM32F4xx_HAL_Driver/Src/stm32f4xx_hal_rtc_ex.c ****       /* Enable the write protection for RTC registers */
1012:Drivers/STM32F4xx_HAL_Driver/Src/stm32f4xx_hal_rtc_ex.c ****       __HAL_RTC_WRITEPROTECTION_ENABLE(hrtc);
1013:Drivers/STM32F4xx_HAL_Driver/Src/stm32f4xx_hal_rtc_ex.c **** 
1014:Drivers/STM32F4xx_HAL_Driver/Src/stm32f4xx_hal_rtc_ex.c ****       hrtc->State = HAL_RTC_STATE_TIMEOUT;
1015:Drivers/STM32F4xx_HAL_Driver/Src/stm32f4xx_hal_rtc_ex.c **** 
1016:Drivers/STM32F4xx_HAL_Driver/Src/stm32f4xx_hal_rtc_ex.c ****       /* Process Unlocked */
1017:Drivers/STM32F4xx_HAL_Driver/Src/stm32f4xx_hal_rtc_ex.c ****       __HAL_UNLOCK(hrtc);
1018:Drivers/STM32F4xx_HAL_Driver/Src/stm32f4xx_hal_rtc_ex.c **** 
1019:Drivers/STM32F4xx_HAL_Driver/Src/stm32f4xx_hal_rtc_ex.c ****       return HAL_TIMEOUT;
1020:Drivers/STM32F4xx_HAL_Driver/Src/stm32f4xx_hal_rtc_ex.c ****     }
1021:Drivers/STM32F4xx_HAL_Driver/Src/stm32f4xx_hal_rtc_ex.c ****   } while (__HAL_RTC_WAKEUPTIMER_GET_FLAG(hrtc, RTC_FLAG_WUTWF) == 0U);
 1729              		.loc 1 1021 65 is_stmt 1 view .LVU602
 1730              		.loc 1 1021 12 is_stmt 0 view .LVU603
 1731 0072 1868     		ldr	r0, [r3]
 1732 0074 C468     		ldr	r4, [r0, #12]
 1733              		.loc 1 1021 65 view .LVU604
 1734 0076 14F0040F 		tst	r4, #4
 1735 007a F5D0     		beq	.L107
1022:Drivers/STM32F4xx_HAL_Driver/Src/stm32f4xx_hal_rtc_ex.c **** 
1023:Drivers/STM32F4xx_HAL_Driver/Src/stm32f4xx_hal_rtc_ex.c ****   /* Clear the Wakeup Timer clock source bits in CR register */
1024:Drivers/STM32F4xx_HAL_Driver/Src/stm32f4xx_hal_rtc_ex.c ****   hrtc->Instance->CR &= (uint32_t)~RTC_CR_WUCKSEL;
 1736              		.loc 1 1024 3 is_stmt 1 view .LVU605
 1737              		.loc 1 1024 17 is_stmt 0 view .LVU606
 1738 007c 8468     		ldr	r4, [r0, #8]
 1739              		.loc 1 1024 22 view .LVU607
 1740 007e 24F00704 		bic	r4, r4, #7
 1741 0082 8460     		str	r4, [r0, #8]
1025:Drivers/STM32F4xx_HAL_Driver/Src/stm32f4xx_hal_rtc_ex.c **** 
1026:Drivers/STM32F4xx_HAL_Driver/Src/stm32f4xx_hal_rtc_ex.c ****   /* Configure the clock source */
1027:Drivers/STM32F4xx_HAL_Driver/Src/stm32f4xx_hal_rtc_ex.c ****   hrtc->Instance->CR |= (uint32_t)WakeUpClock;
 1742              		.loc 1 1027 3 is_stmt 1 view .LVU608
 1743              		.loc 1 1027 7 is_stmt 0 view .LVU609
 1744 0084 1C68     		ldr	r4, [r3]
 1745              		.loc 1 1027 17 view .LVU610
 1746 0086 A068     		ldr	r0, [r4, #8]
 1747              		.loc 1 1027 22 view .LVU611
 1748 0088 0243     		orrs	r2, r2, r0
 1749              	.LVL115:
 1750              		.loc 1 1027 22 view .LVU612
 1751 008a A260     		str	r2, [r4, #8]
1028:Drivers/STM32F4xx_HAL_Driver/Src/stm32f4xx_hal_rtc_ex.c **** 
1029:Drivers/STM32F4xx_HAL_Driver/Src/stm32f4xx_hal_rtc_ex.c ****   /* Configure the Wakeup Timer counter */
ARM GAS  C:\Users\ADMINI~1\AppData\Local\Temp\ccahqaTu.s 			page 51


1030:Drivers/STM32F4xx_HAL_Driver/Src/stm32f4xx_hal_rtc_ex.c ****   hrtc->Instance->WUTR = (uint32_t)WakeUpCounter;
 1752              		.loc 1 1030 3 is_stmt 1 view .LVU613
 1753              		.loc 1 1030 7 is_stmt 0 view .LVU614
 1754 008c 1A68     		ldr	r2, [r3]
 1755              		.loc 1 1030 24 view .LVU615
 1756 008e 5161     		str	r1, [r2, #20]
1031:Drivers/STM32F4xx_HAL_Driver/Src/stm32f4xx_hal_rtc_ex.c **** 
1032:Drivers/STM32F4xx_HAL_Driver/Src/stm32f4xx_hal_rtc_ex.c ****   /* RTC wakeup timer Interrupt Configuration: EXTI configuration */
1033:Drivers/STM32F4xx_HAL_Driver/Src/stm32f4xx_hal_rtc_ex.c ****   __HAL_RTC_WAKEUPTIMER_EXTI_ENABLE_IT();
 1757              		.loc 1 1033 3 is_stmt 1 view .LVU616
 1758 0090 184A     		ldr	r2, .L112+8
 1759 0092 1168     		ldr	r1, [r2]
 1760              	.LVL116:
 1761              		.loc 1 1033 3 is_stmt 0 view .LVU617
 1762 0094 41F48001 		orr	r1, r1, #4194304
 1763 0098 1160     		str	r1, [r2]
1034:Drivers/STM32F4xx_HAL_Driver/Src/stm32f4xx_hal_rtc_ex.c ****   __HAL_RTC_WAKEUPTIMER_EXTI_ENABLE_RISING_EDGE();
 1764              		.loc 1 1034 3 is_stmt 1 view .LVU618
 1765 009a 9168     		ldr	r1, [r2, #8]
 1766 009c 41F48001 		orr	r1, r1, #4194304
 1767 00a0 9160     		str	r1, [r2, #8]
1035:Drivers/STM32F4xx_HAL_Driver/Src/stm32f4xx_hal_rtc_ex.c **** 
1036:Drivers/STM32F4xx_HAL_Driver/Src/stm32f4xx_hal_rtc_ex.c ****   /* Configure the interrupt in the RTC_CR register */
1037:Drivers/STM32F4xx_HAL_Driver/Src/stm32f4xx_hal_rtc_ex.c ****   __HAL_RTC_WAKEUPTIMER_ENABLE_IT(hrtc, RTC_IT_WUT);
 1768              		.loc 1 1037 3 view .LVU619
 1769 00a2 1968     		ldr	r1, [r3]
 1770 00a4 8A68     		ldr	r2, [r1, #8]
 1771 00a6 42F48042 		orr	r2, r2, #16384
 1772 00aa 8A60     		str	r2, [r1, #8]
1038:Drivers/STM32F4xx_HAL_Driver/Src/stm32f4xx_hal_rtc_ex.c **** 
1039:Drivers/STM32F4xx_HAL_Driver/Src/stm32f4xx_hal_rtc_ex.c ****   /* Enable the Wakeup Timer */
1040:Drivers/STM32F4xx_HAL_Driver/Src/stm32f4xx_hal_rtc_ex.c ****   __HAL_RTC_WAKEUPTIMER_ENABLE(hrtc);
 1773              		.loc 1 1040 3 view .LVU620
 1774 00ac 1968     		ldr	r1, [r3]
 1775 00ae 8A68     		ldr	r2, [r1, #8]
 1776 00b0 42F48062 		orr	r2, r2, #1024
 1777 00b4 8A60     		str	r2, [r1, #8]
1041:Drivers/STM32F4xx_HAL_Driver/Src/stm32f4xx_hal_rtc_ex.c **** 
1042:Drivers/STM32F4xx_HAL_Driver/Src/stm32f4xx_hal_rtc_ex.c ****   /* Enable the write protection for RTC registers */
1043:Drivers/STM32F4xx_HAL_Driver/Src/stm32f4xx_hal_rtc_ex.c ****   __HAL_RTC_WRITEPROTECTION_ENABLE(hrtc);
 1778              		.loc 1 1043 3 view .LVU621
 1779              		.loc 1 1043 3 view .LVU622
 1780 00b6 1A68     		ldr	r2, [r3]
 1781 00b8 FF21     		movs	r1, #255
 1782 00ba 5162     		str	r1, [r2, #36]
 1783              		.loc 1 1043 3 view .LVU623
1044:Drivers/STM32F4xx_HAL_Driver/Src/stm32f4xx_hal_rtc_ex.c **** 
1045:Drivers/STM32F4xx_HAL_Driver/Src/stm32f4xx_hal_rtc_ex.c ****   hrtc->State = HAL_RTC_STATE_READY;
 1784              		.loc 1 1045 3 view .LVU624
 1785              		.loc 1 1045 15 is_stmt 0 view .LVU625
 1786 00bc 0122     		movs	r2, #1
 1787 00be 5A77     		strb	r2, [r3, #29]
1046:Drivers/STM32F4xx_HAL_Driver/Src/stm32f4xx_hal_rtc_ex.c **** 
1047:Drivers/STM32F4xx_HAL_Driver/Src/stm32f4xx_hal_rtc_ex.c ****   /* Process Unlocked */
1048:Drivers/STM32F4xx_HAL_Driver/Src/stm32f4xx_hal_rtc_ex.c ****   __HAL_UNLOCK(hrtc);
 1788              		.loc 1 1048 3 is_stmt 1 view .LVU626
 1789              		.loc 1 1048 3 view .LVU627
ARM GAS  C:\Users\ADMINI~1\AppData\Local\Temp\ccahqaTu.s 			page 52


 1790 00c0 0020     		movs	r0, #0
 1791 00c2 1877     		strb	r0, [r3, #28]
 1792              		.loc 1 1048 3 view .LVU628
1049:Drivers/STM32F4xx_HAL_Driver/Src/stm32f4xx_hal_rtc_ex.c **** 
1050:Drivers/STM32F4xx_HAL_Driver/Src/stm32f4xx_hal_rtc_ex.c ****   return HAL_OK;
 1793              		.loc 1 1050 3 view .LVU629
 1794              		.loc 1 1050 10 is_stmt 0 view .LVU630
 1795 00c4 0DE0     		b	.L102
 1796              	.LVL117:
 1797              	.L110:
 985:Drivers/STM32F4xx_HAL_Driver/Src/stm32f4xx_hal_rtc_ex.c **** 
 1798              		.loc 1 985 9 is_stmt 1 view .LVU631
 985:Drivers/STM32F4xx_HAL_Driver/Src/stm32f4xx_hal_rtc_ex.c **** 
 1799              		.loc 1 985 9 view .LVU632
 1800 00c6 FF22     		movs	r2, #255
 1801              	.LVL118:
 985:Drivers/STM32F4xx_HAL_Driver/Src/stm32f4xx_hal_rtc_ex.c **** 
 1802              		.loc 1 985 9 is_stmt 0 view .LVU633
 1803 00c8 7262     		str	r2, [r6, #36]
 985:Drivers/STM32F4xx_HAL_Driver/Src/stm32f4xx_hal_rtc_ex.c **** 
 1804              		.loc 1 985 9 is_stmt 1 view .LVU634
 987:Drivers/STM32F4xx_HAL_Driver/Src/stm32f4xx_hal_rtc_ex.c **** 
 1805              		.loc 1 987 9 view .LVU635
 987:Drivers/STM32F4xx_HAL_Driver/Src/stm32f4xx_hal_rtc_ex.c **** 
 1806              		.loc 1 987 21 is_stmt 0 view .LVU636
 1807 00ca 0320     		movs	r0, #3
 1808 00cc 5877     		strb	r0, [r3, #29]
 990:Drivers/STM32F4xx_HAL_Driver/Src/stm32f4xx_hal_rtc_ex.c **** 
 1809              		.loc 1 990 9 is_stmt 1 view .LVU637
 990:Drivers/STM32F4xx_HAL_Driver/Src/stm32f4xx_hal_rtc_ex.c **** 
 1810              		.loc 1 990 9 view .LVU638
 1811 00ce 0022     		movs	r2, #0
 1812 00d0 1A77     		strb	r2, [r3, #28]
 990:Drivers/STM32F4xx_HAL_Driver/Src/stm32f4xx_hal_rtc_ex.c **** 
 1813              		.loc 1 990 9 view .LVU639
 992:Drivers/STM32F4xx_HAL_Driver/Src/stm32f4xx_hal_rtc_ex.c ****       }
 1814              		.loc 1 992 9 view .LVU640
 992:Drivers/STM32F4xx_HAL_Driver/Src/stm32f4xx_hal_rtc_ex.c ****       }
 1815              		.loc 1 992 16 is_stmt 0 view .LVU641
 1816 00d2 06E0     		b	.L102
 1817              	.LVL119:
 1818              	.L111:
1012:Drivers/STM32F4xx_HAL_Driver/Src/stm32f4xx_hal_rtc_ex.c **** 
 1819              		.loc 1 1012 7 is_stmt 1 view .LVU642
1012:Drivers/STM32F4xx_HAL_Driver/Src/stm32f4xx_hal_rtc_ex.c **** 
 1820              		.loc 1 1012 7 view .LVU643
 1821 00d4 1A68     		ldr	r2, [r3]
 1822              	.LVL120:
1012:Drivers/STM32F4xx_HAL_Driver/Src/stm32f4xx_hal_rtc_ex.c **** 
 1823              		.loc 1 1012 7 is_stmt 0 view .LVU644
 1824 00d6 FF21     		movs	r1, #255
 1825              	.LVL121:
1012:Drivers/STM32F4xx_HAL_Driver/Src/stm32f4xx_hal_rtc_ex.c **** 
 1826              		.loc 1 1012 7 view .LVU645
 1827 00d8 5162     		str	r1, [r2, #36]
1012:Drivers/STM32F4xx_HAL_Driver/Src/stm32f4xx_hal_rtc_ex.c **** 
 1828              		.loc 1 1012 7 is_stmt 1 view .LVU646
ARM GAS  C:\Users\ADMINI~1\AppData\Local\Temp\ccahqaTu.s 			page 53


1014:Drivers/STM32F4xx_HAL_Driver/Src/stm32f4xx_hal_rtc_ex.c **** 
 1829              		.loc 1 1014 7 view .LVU647
1014:Drivers/STM32F4xx_HAL_Driver/Src/stm32f4xx_hal_rtc_ex.c **** 
 1830              		.loc 1 1014 19 is_stmt 0 view .LVU648
 1831 00da 0320     		movs	r0, #3
 1832 00dc 5877     		strb	r0, [r3, #29]
1017:Drivers/STM32F4xx_HAL_Driver/Src/stm32f4xx_hal_rtc_ex.c **** 
 1833              		.loc 1 1017 7 is_stmt 1 view .LVU649
1017:Drivers/STM32F4xx_HAL_Driver/Src/stm32f4xx_hal_rtc_ex.c **** 
 1834              		.loc 1 1017 7 view .LVU650
 1835 00de 0022     		movs	r2, #0
 1836 00e0 1A77     		strb	r2, [r3, #28]
1017:Drivers/STM32F4xx_HAL_Driver/Src/stm32f4xx_hal_rtc_ex.c **** 
 1837              		.loc 1 1017 7 view .LVU651
1019:Drivers/STM32F4xx_HAL_Driver/Src/stm32f4xx_hal_rtc_ex.c ****     }
 1838              		.loc 1 1019 7 view .LVU652
 1839              	.L102:
1051:Drivers/STM32F4xx_HAL_Driver/Src/stm32f4xx_hal_rtc_ex.c **** }
 1840              		.loc 1 1051 1 is_stmt 0 view .LVU653
 1841 00e2 03B0     		add	sp, sp, #12
 1842              	.LCFI22:
 1843              		.cfi_remember_state
 1844              		.cfi_def_cfa_offset 12
 1845              		@ sp needed
 1846 00e4 70BC     		pop	{r4, r5, r6}
 1847              	.LCFI23:
 1848              		.cfi_restore 6
 1849              		.cfi_restore 5
 1850              		.cfi_restore 4
 1851              		.cfi_def_cfa_offset 0
 1852 00e6 7047     		bx	lr
 1853              	.LVL122:
 1854              	.L108:
 1855              	.LCFI24:
 1856              		.cfi_restore_state
 969:Drivers/STM32F4xx_HAL_Driver/Src/stm32f4xx_hal_rtc_ex.c **** 
 1857              		.loc 1 969 3 discriminator 1 view .LVU654
 1858 00e8 0220     		movs	r0, #2
 1859 00ea FAE7     		b	.L102
 1860              	.L113:
 1861              		.align	2
 1862              	.L112:
 1863 00ec 00000000 		.word	SystemCoreClock
 1864 00f0 D34D6210 		.word	274877907
 1865 00f4 003C0140 		.word	1073822720
 1866              		.cfi_endproc
 1867              	.LFE250:
 1869              		.section	.text.HAL_RTCEx_DeactivateWakeUpTimer,"ax",%progbits
 1870              		.align	1
 1871              		.global	HAL_RTCEx_DeactivateWakeUpTimer
 1872              		.syntax unified
 1873              		.thumb
 1874              		.thumb_func
 1876              	HAL_RTCEx_DeactivateWakeUpTimer:
 1877              	.LVL123:
 1878              	.LFB251:
1052:Drivers/STM32F4xx_HAL_Driver/Src/stm32f4xx_hal_rtc_ex.c **** 
ARM GAS  C:\Users\ADMINI~1\AppData\Local\Temp\ccahqaTu.s 			page 54


1053:Drivers/STM32F4xx_HAL_Driver/Src/stm32f4xx_hal_rtc_ex.c **** /**
1054:Drivers/STM32F4xx_HAL_Driver/Src/stm32f4xx_hal_rtc_ex.c ****   * @brief  Deactivates wakeup timer counter.
1055:Drivers/STM32F4xx_HAL_Driver/Src/stm32f4xx_hal_rtc_ex.c ****   * @param  hrtc pointer to a RTC_HandleTypeDef structure that contains
1056:Drivers/STM32F4xx_HAL_Driver/Src/stm32f4xx_hal_rtc_ex.c ****   *                the configuration information for RTC.
1057:Drivers/STM32F4xx_HAL_Driver/Src/stm32f4xx_hal_rtc_ex.c ****   * @retval HAL status
1058:Drivers/STM32F4xx_HAL_Driver/Src/stm32f4xx_hal_rtc_ex.c ****   */
1059:Drivers/STM32F4xx_HAL_Driver/Src/stm32f4xx_hal_rtc_ex.c **** HAL_StatusTypeDef HAL_RTCEx_DeactivateWakeUpTimer(RTC_HandleTypeDef *hrtc)
1060:Drivers/STM32F4xx_HAL_Driver/Src/stm32f4xx_hal_rtc_ex.c **** {
 1879              		.loc 1 1060 1 is_stmt 1 view -0
 1880              		.cfi_startproc
 1881              		@ args = 0, pretend = 0, frame = 0
 1882              		@ frame_needed = 0, uses_anonymous_args = 0
 1883              		.loc 1 1060 1 is_stmt 0 view .LVU656
 1884 0000 38B5     		push	{r3, r4, r5, lr}
 1885              	.LCFI25:
 1886              		.cfi_def_cfa_offset 16
 1887              		.cfi_offset 3, -16
 1888              		.cfi_offset 4, -12
 1889              		.cfi_offset 5, -8
 1890              		.cfi_offset 14, -4
1061:Drivers/STM32F4xx_HAL_Driver/Src/stm32f4xx_hal_rtc_ex.c ****   uint32_t tickstart = 0U;
 1891              		.loc 1 1061 3 is_stmt 1 view .LVU657
 1892              	.LVL124:
1062:Drivers/STM32F4xx_HAL_Driver/Src/stm32f4xx_hal_rtc_ex.c **** 
1063:Drivers/STM32F4xx_HAL_Driver/Src/stm32f4xx_hal_rtc_ex.c ****   /* Process Locked */
1064:Drivers/STM32F4xx_HAL_Driver/Src/stm32f4xx_hal_rtc_ex.c ****   __HAL_LOCK(hrtc);
 1893              		.loc 1 1064 3 view .LVU658
 1894              		.loc 1 1064 3 view .LVU659
 1895 0002 037F     		ldrb	r3, [r0, #28]	@ zero_extendqisi2
 1896 0004 012B     		cmp	r3, #1
 1897 0006 31D0     		beq	.L118
 1898 0008 0446     		mov	r4, r0
 1899              		.loc 1 1064 3 discriminator 2 view .LVU660
 1900 000a 0123     		movs	r3, #1
 1901 000c 0377     		strb	r3, [r0, #28]
 1902              		.loc 1 1064 3 discriminator 2 view .LVU661
1065:Drivers/STM32F4xx_HAL_Driver/Src/stm32f4xx_hal_rtc_ex.c **** 
1066:Drivers/STM32F4xx_HAL_Driver/Src/stm32f4xx_hal_rtc_ex.c ****   hrtc->State = HAL_RTC_STATE_BUSY;
 1903              		.loc 1 1066 3 view .LVU662
 1904              		.loc 1 1066 15 is_stmt 0 view .LVU663
 1905 000e 0223     		movs	r3, #2
 1906 0010 4377     		strb	r3, [r0, #29]
1067:Drivers/STM32F4xx_HAL_Driver/Src/stm32f4xx_hal_rtc_ex.c **** 
1068:Drivers/STM32F4xx_HAL_Driver/Src/stm32f4xx_hal_rtc_ex.c ****   /* Disable the write protection for RTC registers */
1069:Drivers/STM32F4xx_HAL_Driver/Src/stm32f4xx_hal_rtc_ex.c ****   __HAL_RTC_WRITEPROTECTION_DISABLE(hrtc);
 1907              		.loc 1 1069 3 is_stmt 1 view .LVU664
 1908              		.loc 1 1069 3 view .LVU665
 1909 0012 0368     		ldr	r3, [r0]
 1910 0014 CA22     		movs	r2, #202
 1911 0016 5A62     		str	r2, [r3, #36]
 1912              		.loc 1 1069 3 view .LVU666
 1913 0018 0368     		ldr	r3, [r0]
 1914 001a 5322     		movs	r2, #83
 1915 001c 5A62     		str	r2, [r3, #36]
 1916              		.loc 1 1069 3 view .LVU667
1070:Drivers/STM32F4xx_HAL_Driver/Src/stm32f4xx_hal_rtc_ex.c **** 
1071:Drivers/STM32F4xx_HAL_Driver/Src/stm32f4xx_hal_rtc_ex.c ****   /* Disable the Wakeup Timer */
ARM GAS  C:\Users\ADMINI~1\AppData\Local\Temp\ccahqaTu.s 			page 55


1072:Drivers/STM32F4xx_HAL_Driver/Src/stm32f4xx_hal_rtc_ex.c ****   __HAL_RTC_WAKEUPTIMER_DISABLE(hrtc);
 1917              		.loc 1 1072 3 view .LVU668
 1918 001e 0268     		ldr	r2, [r0]
 1919 0020 9368     		ldr	r3, [r2, #8]
 1920 0022 23F48063 		bic	r3, r3, #1024
 1921 0026 9360     		str	r3, [r2, #8]
1073:Drivers/STM32F4xx_HAL_Driver/Src/stm32f4xx_hal_rtc_ex.c **** 
1074:Drivers/STM32F4xx_HAL_Driver/Src/stm32f4xx_hal_rtc_ex.c ****   /* In case of interrupt mode is used, the interrupt source must disabled */
1075:Drivers/STM32F4xx_HAL_Driver/Src/stm32f4xx_hal_rtc_ex.c ****   __HAL_RTC_WAKEUPTIMER_DISABLE_IT(hrtc, RTC_IT_WUT);
 1922              		.loc 1 1075 3 view .LVU669
 1923 0028 0268     		ldr	r2, [r0]
 1924 002a 9368     		ldr	r3, [r2, #8]
 1925 002c 23F48043 		bic	r3, r3, #16384
 1926 0030 9360     		str	r3, [r2, #8]
1076:Drivers/STM32F4xx_HAL_Driver/Src/stm32f4xx_hal_rtc_ex.c **** 
1077:Drivers/STM32F4xx_HAL_Driver/Src/stm32f4xx_hal_rtc_ex.c ****   /* Get tick */
1078:Drivers/STM32F4xx_HAL_Driver/Src/stm32f4xx_hal_rtc_ex.c ****   tickstart = HAL_GetTick();
 1927              		.loc 1 1078 3 view .LVU670
 1928              		.loc 1 1078 15 is_stmt 0 view .LVU671
 1929 0032 FFF7FEFF 		bl	HAL_GetTick
 1930              	.LVL125:
 1931              		.loc 1 1078 15 view .LVU672
 1932 0036 0546     		mov	r5, r0
 1933              	.LVL126:
1079:Drivers/STM32F4xx_HAL_Driver/Src/stm32f4xx_hal_rtc_ex.c **** 
1080:Drivers/STM32F4xx_HAL_Driver/Src/stm32f4xx_hal_rtc_ex.c ****   /* Wait till RTC WUTWF flag is set and if timeout is reached exit */
1081:Drivers/STM32F4xx_HAL_Driver/Src/stm32f4xx_hal_rtc_ex.c ****   while (__HAL_RTC_WAKEUPTIMER_GET_FLAG(hrtc, RTC_FLAG_WUTWF) == 0U)
 1934              		.loc 1 1081 3 is_stmt 1 view .LVU673
 1935              	.L116:
 1936              		.loc 1 1081 63 view .LVU674
 1937              		.loc 1 1081 10 is_stmt 0 view .LVU675
 1938 0038 2368     		ldr	r3, [r4]
 1939 003a DA68     		ldr	r2, [r3, #12]
 1940              		.loc 1 1081 63 view .LVU676
 1941 003c 12F0040F 		tst	r2, #4
 1942 0040 0DD1     		bne	.L120
1082:Drivers/STM32F4xx_HAL_Driver/Src/stm32f4xx_hal_rtc_ex.c ****   {
1083:Drivers/STM32F4xx_HAL_Driver/Src/stm32f4xx_hal_rtc_ex.c ****     if ((HAL_GetTick() - tickstart) > RTC_TIMEOUT_VALUE)
 1943              		.loc 1 1083 5 is_stmt 1 view .LVU677
 1944              		.loc 1 1083 10 is_stmt 0 view .LVU678
 1945 0042 FFF7FEFF 		bl	HAL_GetTick
 1946              	.LVL127:
 1947              		.loc 1 1083 24 discriminator 1 view .LVU679
 1948 0046 431B     		subs	r3, r0, r5
 1949              		.loc 1 1083 8 discriminator 1 view .LVU680
 1950 0048 B3F57A7F 		cmp	r3, #1000
 1951 004c F4D9     		bls	.L116
1084:Drivers/STM32F4xx_HAL_Driver/Src/stm32f4xx_hal_rtc_ex.c ****     {
1085:Drivers/STM32F4xx_HAL_Driver/Src/stm32f4xx_hal_rtc_ex.c ****       /* Enable the write protection for RTC registers */
1086:Drivers/STM32F4xx_HAL_Driver/Src/stm32f4xx_hal_rtc_ex.c ****       __HAL_RTC_WRITEPROTECTION_ENABLE(hrtc);
 1952              		.loc 1 1086 7 is_stmt 1 view .LVU681
 1953              		.loc 1 1086 7 view .LVU682
 1954 004e 2368     		ldr	r3, [r4]
 1955 0050 FF22     		movs	r2, #255
 1956 0052 5A62     		str	r2, [r3, #36]
 1957              		.loc 1 1086 7 view .LVU683
1087:Drivers/STM32F4xx_HAL_Driver/Src/stm32f4xx_hal_rtc_ex.c **** 
ARM GAS  C:\Users\ADMINI~1\AppData\Local\Temp\ccahqaTu.s 			page 56


1088:Drivers/STM32F4xx_HAL_Driver/Src/stm32f4xx_hal_rtc_ex.c ****       hrtc->State = HAL_RTC_STATE_TIMEOUT;
 1958              		.loc 1 1088 7 view .LVU684
 1959              		.loc 1 1088 19 is_stmt 0 view .LVU685
 1960 0054 0320     		movs	r0, #3
 1961 0056 6077     		strb	r0, [r4, #29]
1089:Drivers/STM32F4xx_HAL_Driver/Src/stm32f4xx_hal_rtc_ex.c **** 
1090:Drivers/STM32F4xx_HAL_Driver/Src/stm32f4xx_hal_rtc_ex.c ****       /* Process Unlocked */
1091:Drivers/STM32F4xx_HAL_Driver/Src/stm32f4xx_hal_rtc_ex.c ****       __HAL_UNLOCK(hrtc);
 1962              		.loc 1 1091 7 is_stmt 1 view .LVU686
 1963              		.loc 1 1091 7 view .LVU687
 1964 0058 0023     		movs	r3, #0
 1965 005a 2377     		strb	r3, [r4, #28]
 1966              		.loc 1 1091 7 view .LVU688
1092:Drivers/STM32F4xx_HAL_Driver/Src/stm32f4xx_hal_rtc_ex.c **** 
1093:Drivers/STM32F4xx_HAL_Driver/Src/stm32f4xx_hal_rtc_ex.c ****       return HAL_TIMEOUT;
 1967              		.loc 1 1093 7 view .LVU689
 1968              		.loc 1 1093 14 is_stmt 0 view .LVU690
 1969 005c 05E0     		b	.L115
 1970              	.L120:
1094:Drivers/STM32F4xx_HAL_Driver/Src/stm32f4xx_hal_rtc_ex.c ****     }
1095:Drivers/STM32F4xx_HAL_Driver/Src/stm32f4xx_hal_rtc_ex.c ****   }
1096:Drivers/STM32F4xx_HAL_Driver/Src/stm32f4xx_hal_rtc_ex.c **** 
1097:Drivers/STM32F4xx_HAL_Driver/Src/stm32f4xx_hal_rtc_ex.c ****   /* Enable the write protection for RTC registers */
1098:Drivers/STM32F4xx_HAL_Driver/Src/stm32f4xx_hal_rtc_ex.c ****   __HAL_RTC_WRITEPROTECTION_ENABLE(hrtc);
 1971              		.loc 1 1098 3 is_stmt 1 view .LVU691
 1972              		.loc 1 1098 3 view .LVU692
 1973 005e FF22     		movs	r2, #255
 1974 0060 5A62     		str	r2, [r3, #36]
 1975              		.loc 1 1098 3 view .LVU693
1099:Drivers/STM32F4xx_HAL_Driver/Src/stm32f4xx_hal_rtc_ex.c **** 
1100:Drivers/STM32F4xx_HAL_Driver/Src/stm32f4xx_hal_rtc_ex.c ****   hrtc->State = HAL_RTC_STATE_READY;
 1976              		.loc 1 1100 3 view .LVU694
 1977              		.loc 1 1100 15 is_stmt 0 view .LVU695
 1978 0062 0123     		movs	r3, #1
 1979 0064 6377     		strb	r3, [r4, #29]
1101:Drivers/STM32F4xx_HAL_Driver/Src/stm32f4xx_hal_rtc_ex.c **** 
1102:Drivers/STM32F4xx_HAL_Driver/Src/stm32f4xx_hal_rtc_ex.c ****   /* Process Unlocked */
1103:Drivers/STM32F4xx_HAL_Driver/Src/stm32f4xx_hal_rtc_ex.c ****   __HAL_UNLOCK(hrtc);
 1980              		.loc 1 1103 3 is_stmt 1 view .LVU696
 1981              		.loc 1 1103 3 view .LVU697
 1982 0066 0020     		movs	r0, #0
 1983 0068 2077     		strb	r0, [r4, #28]
 1984              		.loc 1 1103 3 view .LVU698
1104:Drivers/STM32F4xx_HAL_Driver/Src/stm32f4xx_hal_rtc_ex.c **** 
1105:Drivers/STM32F4xx_HAL_Driver/Src/stm32f4xx_hal_rtc_ex.c ****   return HAL_OK;
 1985              		.loc 1 1105 3 view .LVU699
 1986              	.LVL128:
 1987              	.L115:
1106:Drivers/STM32F4xx_HAL_Driver/Src/stm32f4xx_hal_rtc_ex.c **** }
 1988              		.loc 1 1106 1 is_stmt 0 view .LVU700
 1989 006a 38BD     		pop	{r3, r4, r5, pc}
 1990              	.LVL129:
 1991              	.L118:
1064:Drivers/STM32F4xx_HAL_Driver/Src/stm32f4xx_hal_rtc_ex.c **** 
 1992              		.loc 1 1064 3 discriminator 1 view .LVU701
 1993 006c 0220     		movs	r0, #2
 1994              	.LVL130:
ARM GAS  C:\Users\ADMINI~1\AppData\Local\Temp\ccahqaTu.s 			page 57


1064:Drivers/STM32F4xx_HAL_Driver/Src/stm32f4xx_hal_rtc_ex.c **** 
 1995              		.loc 1 1064 3 discriminator 1 view .LVU702
 1996 006e FCE7     		b	.L115
 1997              		.cfi_endproc
 1998              	.LFE251:
 2000              		.section	.text.HAL_RTCEx_GetWakeUpTimer,"ax",%progbits
 2001              		.align	1
 2002              		.global	HAL_RTCEx_GetWakeUpTimer
 2003              		.syntax unified
 2004              		.thumb
 2005              		.thumb_func
 2007              	HAL_RTCEx_GetWakeUpTimer:
 2008              	.LVL131:
 2009              	.LFB252:
1107:Drivers/STM32F4xx_HAL_Driver/Src/stm32f4xx_hal_rtc_ex.c **** 
1108:Drivers/STM32F4xx_HAL_Driver/Src/stm32f4xx_hal_rtc_ex.c **** /**
1109:Drivers/STM32F4xx_HAL_Driver/Src/stm32f4xx_hal_rtc_ex.c ****   * @brief  Gets wakeup timer counter.
1110:Drivers/STM32F4xx_HAL_Driver/Src/stm32f4xx_hal_rtc_ex.c ****   * @param  hrtc pointer to a RTC_HandleTypeDef structure that contains
1111:Drivers/STM32F4xx_HAL_Driver/Src/stm32f4xx_hal_rtc_ex.c ****   *                the configuration information for RTC.
1112:Drivers/STM32F4xx_HAL_Driver/Src/stm32f4xx_hal_rtc_ex.c ****   * @retval Counter value
1113:Drivers/STM32F4xx_HAL_Driver/Src/stm32f4xx_hal_rtc_ex.c ****   */
1114:Drivers/STM32F4xx_HAL_Driver/Src/stm32f4xx_hal_rtc_ex.c **** uint32_t HAL_RTCEx_GetWakeUpTimer(RTC_HandleTypeDef *hrtc)
1115:Drivers/STM32F4xx_HAL_Driver/Src/stm32f4xx_hal_rtc_ex.c **** {
 2010              		.loc 1 1115 1 is_stmt 1 view -0
 2011              		.cfi_startproc
 2012              		@ args = 0, pretend = 0, frame = 0
 2013              		@ frame_needed = 0, uses_anonymous_args = 0
 2014              		@ link register save eliminated.
1116:Drivers/STM32F4xx_HAL_Driver/Src/stm32f4xx_hal_rtc_ex.c ****   /* Get the counter value */
1117:Drivers/STM32F4xx_HAL_Driver/Src/stm32f4xx_hal_rtc_ex.c ****   return ((uint32_t)(hrtc->Instance->WUTR & RTC_WUTR_WUT));
 2015              		.loc 1 1117 3 view .LVU704
 2016              		.loc 1 1117 26 is_stmt 0 view .LVU705
 2017 0000 0368     		ldr	r3, [r0]
 2018              		.loc 1 1117 36 view .LVU706
 2019 0002 5869     		ldr	r0, [r3, #20]
 2020              	.LVL132:
1118:Drivers/STM32F4xx_HAL_Driver/Src/stm32f4xx_hal_rtc_ex.c **** }
 2021              		.loc 1 1118 1 view .LVU707
 2022 0004 80B2     		uxth	r0, r0
 2023 0006 7047     		bx	lr
 2024              		.cfi_endproc
 2025              	.LFE252:
 2027              		.section	.text.HAL_RTCEx_WakeUpTimerEventCallback,"ax",%progbits
 2028              		.align	1
 2029              		.weak	HAL_RTCEx_WakeUpTimerEventCallback
 2030              		.syntax unified
 2031              		.thumb
 2032              		.thumb_func
 2034              	HAL_RTCEx_WakeUpTimerEventCallback:
 2035              	.LVL133:
 2036              	.LFB254:
1119:Drivers/STM32F4xx_HAL_Driver/Src/stm32f4xx_hal_rtc_ex.c **** 
1120:Drivers/STM32F4xx_HAL_Driver/Src/stm32f4xx_hal_rtc_ex.c **** /**
1121:Drivers/STM32F4xx_HAL_Driver/Src/stm32f4xx_hal_rtc_ex.c ****   * @brief  Handles Wakeup Timer interrupt request.
1122:Drivers/STM32F4xx_HAL_Driver/Src/stm32f4xx_hal_rtc_ex.c ****   * @note   Unlike alarm interrupt line (shared by Alarms A and B) or tamper
1123:Drivers/STM32F4xx_HAL_Driver/Src/stm32f4xx_hal_rtc_ex.c ****   *         interrupt line (shared by timestamp and tampers) wakeup timer
1124:Drivers/STM32F4xx_HAL_Driver/Src/stm32f4xx_hal_rtc_ex.c ****   *         interrupt line is exclusive to the wakeup timer.
ARM GAS  C:\Users\ADMINI~1\AppData\Local\Temp\ccahqaTu.s 			page 58


1125:Drivers/STM32F4xx_HAL_Driver/Src/stm32f4xx_hal_rtc_ex.c ****   *         There is no need in this case to check on the interrupt enable
1126:Drivers/STM32F4xx_HAL_Driver/Src/stm32f4xx_hal_rtc_ex.c ****   *         status via __HAL_RTC_WAKEUPTIMER_GET_IT_SOURCE().
1127:Drivers/STM32F4xx_HAL_Driver/Src/stm32f4xx_hal_rtc_ex.c ****   * @param  hrtc pointer to a RTC_HandleTypeDef structure that contains
1128:Drivers/STM32F4xx_HAL_Driver/Src/stm32f4xx_hal_rtc_ex.c ****   *                the configuration information for RTC.
1129:Drivers/STM32F4xx_HAL_Driver/Src/stm32f4xx_hal_rtc_ex.c ****   * @retval None
1130:Drivers/STM32F4xx_HAL_Driver/Src/stm32f4xx_hal_rtc_ex.c ****   */
1131:Drivers/STM32F4xx_HAL_Driver/Src/stm32f4xx_hal_rtc_ex.c **** void HAL_RTCEx_WakeUpTimerIRQHandler(RTC_HandleTypeDef *hrtc)
1132:Drivers/STM32F4xx_HAL_Driver/Src/stm32f4xx_hal_rtc_ex.c **** {
1133:Drivers/STM32F4xx_HAL_Driver/Src/stm32f4xx_hal_rtc_ex.c ****   /* Get the pending status of the Wakeup timer Interrupt */
1134:Drivers/STM32F4xx_HAL_Driver/Src/stm32f4xx_hal_rtc_ex.c ****   if (__HAL_RTC_WAKEUPTIMER_GET_FLAG(hrtc, RTC_FLAG_WUTF) != 0U)
1135:Drivers/STM32F4xx_HAL_Driver/Src/stm32f4xx_hal_rtc_ex.c ****   {
1136:Drivers/STM32F4xx_HAL_Driver/Src/stm32f4xx_hal_rtc_ex.c ****     /* Wakeup timer callback */
1137:Drivers/STM32F4xx_HAL_Driver/Src/stm32f4xx_hal_rtc_ex.c **** #if (USE_HAL_RTC_REGISTER_CALLBACKS == 1)
1138:Drivers/STM32F4xx_HAL_Driver/Src/stm32f4xx_hal_rtc_ex.c ****     hrtc->WakeUpTimerEventCallback(hrtc);
1139:Drivers/STM32F4xx_HAL_Driver/Src/stm32f4xx_hal_rtc_ex.c **** #else
1140:Drivers/STM32F4xx_HAL_Driver/Src/stm32f4xx_hal_rtc_ex.c ****     HAL_RTCEx_WakeUpTimerEventCallback(hrtc);
1141:Drivers/STM32F4xx_HAL_Driver/Src/stm32f4xx_hal_rtc_ex.c **** #endif /* USE_HAL_RTC_REGISTER_CALLBACKS */
1142:Drivers/STM32F4xx_HAL_Driver/Src/stm32f4xx_hal_rtc_ex.c **** 
1143:Drivers/STM32F4xx_HAL_Driver/Src/stm32f4xx_hal_rtc_ex.c ****     /* Clear the Wakeup timer interrupt pending bit */
1144:Drivers/STM32F4xx_HAL_Driver/Src/stm32f4xx_hal_rtc_ex.c ****     __HAL_RTC_WAKEUPTIMER_CLEAR_FLAG(hrtc, RTC_FLAG_WUTF);
1145:Drivers/STM32F4xx_HAL_Driver/Src/stm32f4xx_hal_rtc_ex.c ****   }
1146:Drivers/STM32F4xx_HAL_Driver/Src/stm32f4xx_hal_rtc_ex.c **** 
1147:Drivers/STM32F4xx_HAL_Driver/Src/stm32f4xx_hal_rtc_ex.c ****   /* Clear the EXTI's line Flag for RTC WakeUpTimer */
1148:Drivers/STM32F4xx_HAL_Driver/Src/stm32f4xx_hal_rtc_ex.c ****   __HAL_RTC_WAKEUPTIMER_EXTI_CLEAR_FLAG();
1149:Drivers/STM32F4xx_HAL_Driver/Src/stm32f4xx_hal_rtc_ex.c **** 
1150:Drivers/STM32F4xx_HAL_Driver/Src/stm32f4xx_hal_rtc_ex.c ****   /* Change RTC state */
1151:Drivers/STM32F4xx_HAL_Driver/Src/stm32f4xx_hal_rtc_ex.c ****   hrtc->State = HAL_RTC_STATE_READY;
1152:Drivers/STM32F4xx_HAL_Driver/Src/stm32f4xx_hal_rtc_ex.c **** }
1153:Drivers/STM32F4xx_HAL_Driver/Src/stm32f4xx_hal_rtc_ex.c **** 
1154:Drivers/STM32F4xx_HAL_Driver/Src/stm32f4xx_hal_rtc_ex.c **** /**
1155:Drivers/STM32F4xx_HAL_Driver/Src/stm32f4xx_hal_rtc_ex.c ****   * @brief  Wakeup Timer callback.
1156:Drivers/STM32F4xx_HAL_Driver/Src/stm32f4xx_hal_rtc_ex.c ****   * @param  hrtc pointer to a RTC_HandleTypeDef structure that contains
1157:Drivers/STM32F4xx_HAL_Driver/Src/stm32f4xx_hal_rtc_ex.c ****   *                the configuration information for RTC.
1158:Drivers/STM32F4xx_HAL_Driver/Src/stm32f4xx_hal_rtc_ex.c ****   * @retval None
1159:Drivers/STM32F4xx_HAL_Driver/Src/stm32f4xx_hal_rtc_ex.c ****   */
1160:Drivers/STM32F4xx_HAL_Driver/Src/stm32f4xx_hal_rtc_ex.c **** __weak void HAL_RTCEx_WakeUpTimerEventCallback(RTC_HandleTypeDef *hrtc)
1161:Drivers/STM32F4xx_HAL_Driver/Src/stm32f4xx_hal_rtc_ex.c **** {
 2037              		.loc 1 1161 1 is_stmt 1 view -0
 2038              		.cfi_startproc
 2039              		@ args = 0, pretend = 0, frame = 0
 2040              		@ frame_needed = 0, uses_anonymous_args = 0
 2041              		@ link register save eliminated.
1162:Drivers/STM32F4xx_HAL_Driver/Src/stm32f4xx_hal_rtc_ex.c ****   /* Prevent unused argument(s) compilation warning */
1163:Drivers/STM32F4xx_HAL_Driver/Src/stm32f4xx_hal_rtc_ex.c ****   UNUSED(hrtc);
 2042              		.loc 1 1163 3 view .LVU709
1164:Drivers/STM32F4xx_HAL_Driver/Src/stm32f4xx_hal_rtc_ex.c **** 
1165:Drivers/STM32F4xx_HAL_Driver/Src/stm32f4xx_hal_rtc_ex.c ****   /* NOTE: This function should not be modified, when the callback is needed,
1166:Drivers/STM32F4xx_HAL_Driver/Src/stm32f4xx_hal_rtc_ex.c ****            the HAL_RTCEx_WakeUpTimerEventCallback could be implemented in the user file
1167:Drivers/STM32F4xx_HAL_Driver/Src/stm32f4xx_hal_rtc_ex.c ****    */
1168:Drivers/STM32F4xx_HAL_Driver/Src/stm32f4xx_hal_rtc_ex.c **** }
 2043              		.loc 1 1168 1 is_stmt 0 view .LVU710
 2044 0000 7047     		bx	lr
 2045              		.cfi_endproc
 2046              	.LFE254:
 2048              		.section	.text.HAL_RTCEx_WakeUpTimerIRQHandler,"ax",%progbits
 2049              		.align	1
 2050              		.global	HAL_RTCEx_WakeUpTimerIRQHandler
ARM GAS  C:\Users\ADMINI~1\AppData\Local\Temp\ccahqaTu.s 			page 59


 2051              		.syntax unified
 2052              		.thumb
 2053              		.thumb_func
 2055              	HAL_RTCEx_WakeUpTimerIRQHandler:
 2056              	.LVL134:
 2057              	.LFB253:
1132:Drivers/STM32F4xx_HAL_Driver/Src/stm32f4xx_hal_rtc_ex.c ****   /* Get the pending status of the Wakeup timer Interrupt */
 2058              		.loc 1 1132 1 is_stmt 1 view -0
 2059              		.cfi_startproc
 2060              		@ args = 0, pretend = 0, frame = 0
 2061              		@ frame_needed = 0, uses_anonymous_args = 0
1132:Drivers/STM32F4xx_HAL_Driver/Src/stm32f4xx_hal_rtc_ex.c ****   /* Get the pending status of the Wakeup timer Interrupt */
 2062              		.loc 1 1132 1 is_stmt 0 view .LVU712
 2063 0000 10B5     		push	{r4, lr}
 2064              	.LCFI26:
 2065              		.cfi_def_cfa_offset 8
 2066              		.cfi_offset 4, -8
 2067              		.cfi_offset 14, -4
 2068 0002 0446     		mov	r4, r0
1134:Drivers/STM32F4xx_HAL_Driver/Src/stm32f4xx_hal_rtc_ex.c ****   {
 2069              		.loc 1 1134 3 is_stmt 1 view .LVU713
1134:Drivers/STM32F4xx_HAL_Driver/Src/stm32f4xx_hal_rtc_ex.c ****   {
 2070              		.loc 1 1134 7 is_stmt 0 view .LVU714
 2071 0004 0368     		ldr	r3, [r0]
 2072 0006 DB68     		ldr	r3, [r3, #12]
1134:Drivers/STM32F4xx_HAL_Driver/Src/stm32f4xx_hal_rtc_ex.c ****   {
 2073              		.loc 1 1134 6 view .LVU715
 2074 0008 13F4806F 		tst	r3, #1024
 2075 000c 06D1     		bne	.L126
 2076              	.LVL135:
 2077              	.L124:
1148:Drivers/STM32F4xx_HAL_Driver/Src/stm32f4xx_hal_rtc_ex.c **** 
 2078              		.loc 1 1148 3 is_stmt 1 view .LVU716
 2079 000e 084B     		ldr	r3, .L127
 2080 0010 4FF48002 		mov	r2, #4194304
 2081 0014 5A61     		str	r2, [r3, #20]
1151:Drivers/STM32F4xx_HAL_Driver/Src/stm32f4xx_hal_rtc_ex.c **** }
 2082              		.loc 1 1151 3 view .LVU717
1151:Drivers/STM32F4xx_HAL_Driver/Src/stm32f4xx_hal_rtc_ex.c **** }
 2083              		.loc 1 1151 15 is_stmt 0 view .LVU718
 2084 0016 0123     		movs	r3, #1
 2085 0018 6377     		strb	r3, [r4, #29]
1152:Drivers/STM32F4xx_HAL_Driver/Src/stm32f4xx_hal_rtc_ex.c **** 
 2086              		.loc 1 1152 1 view .LVU719
 2087 001a 10BD     		pop	{r4, pc}
 2088              	.LVL136:
 2089              	.L126:
1140:Drivers/STM32F4xx_HAL_Driver/Src/stm32f4xx_hal_rtc_ex.c **** #endif /* USE_HAL_RTC_REGISTER_CALLBACKS */
 2090              		.loc 1 1140 5 is_stmt 1 view .LVU720
 2091 001c FFF7FEFF 		bl	HAL_RTCEx_WakeUpTimerEventCallback
 2092              	.LVL137:
1144:Drivers/STM32F4xx_HAL_Driver/Src/stm32f4xx_hal_rtc_ex.c ****   }
 2093              		.loc 1 1144 5 view .LVU721
 2094 0020 2268     		ldr	r2, [r4]
 2095 0022 D368     		ldr	r3, [r2, #12]
 2096 0024 DBB2     		uxtb	r3, r3
 2097 0026 63F49063 		orn	r3, r3, #1152
ARM GAS  C:\Users\ADMINI~1\AppData\Local\Temp\ccahqaTu.s 			page 60


 2098 002a D360     		str	r3, [r2, #12]
 2099 002c EFE7     		b	.L124
 2100              	.L128:
 2101 002e 00BF     		.align	2
 2102              	.L127:
 2103 0030 003C0140 		.word	1073822720
 2104              		.cfi_endproc
 2105              	.LFE253:
 2107              		.section	.text.HAL_RTCEx_PollForWakeUpTimerEvent,"ax",%progbits
 2108              		.align	1
 2109              		.global	HAL_RTCEx_PollForWakeUpTimerEvent
 2110              		.syntax unified
 2111              		.thumb
 2112              		.thumb_func
 2114              	HAL_RTCEx_PollForWakeUpTimerEvent:
 2115              	.LVL138:
 2116              	.LFB255:
1169:Drivers/STM32F4xx_HAL_Driver/Src/stm32f4xx_hal_rtc_ex.c **** 
1170:Drivers/STM32F4xx_HAL_Driver/Src/stm32f4xx_hal_rtc_ex.c **** /**
1171:Drivers/STM32F4xx_HAL_Driver/Src/stm32f4xx_hal_rtc_ex.c ****   * @brief  Handles Wakeup Timer Polling.
1172:Drivers/STM32F4xx_HAL_Driver/Src/stm32f4xx_hal_rtc_ex.c ****   * @param  hrtc pointer to a RTC_HandleTypeDef structure that contains
1173:Drivers/STM32F4xx_HAL_Driver/Src/stm32f4xx_hal_rtc_ex.c ****   *                the configuration information for RTC.
1174:Drivers/STM32F4xx_HAL_Driver/Src/stm32f4xx_hal_rtc_ex.c ****   * @param  Timeout Timeout duration
1175:Drivers/STM32F4xx_HAL_Driver/Src/stm32f4xx_hal_rtc_ex.c ****   * @retval HAL status
1176:Drivers/STM32F4xx_HAL_Driver/Src/stm32f4xx_hal_rtc_ex.c ****   */
1177:Drivers/STM32F4xx_HAL_Driver/Src/stm32f4xx_hal_rtc_ex.c **** HAL_StatusTypeDef HAL_RTCEx_PollForWakeUpTimerEvent(RTC_HandleTypeDef *hrtc, uint32_t Timeout)
1178:Drivers/STM32F4xx_HAL_Driver/Src/stm32f4xx_hal_rtc_ex.c **** {
 2117              		.loc 1 1178 1 view -0
 2118              		.cfi_startproc
 2119              		@ args = 0, pretend = 0, frame = 0
 2120              		@ frame_needed = 0, uses_anonymous_args = 0
 2121              		.loc 1 1178 1 is_stmt 0 view .LVU723
 2122 0000 70B5     		push	{r4, r5, r6, lr}
 2123              	.LCFI27:
 2124              		.cfi_def_cfa_offset 16
 2125              		.cfi_offset 4, -16
 2126              		.cfi_offset 5, -12
 2127              		.cfi_offset 6, -8
 2128              		.cfi_offset 14, -4
 2129 0002 0446     		mov	r4, r0
 2130 0004 0D46     		mov	r5, r1
1179:Drivers/STM32F4xx_HAL_Driver/Src/stm32f4xx_hal_rtc_ex.c ****   uint32_t tickstart = 0U;
 2131              		.loc 1 1179 3 is_stmt 1 view .LVU724
 2132              	.LVL139:
1180:Drivers/STM32F4xx_HAL_Driver/Src/stm32f4xx_hal_rtc_ex.c **** 
1181:Drivers/STM32F4xx_HAL_Driver/Src/stm32f4xx_hal_rtc_ex.c ****   /* Get tick */
1182:Drivers/STM32F4xx_HAL_Driver/Src/stm32f4xx_hal_rtc_ex.c ****   tickstart = HAL_GetTick();
 2133              		.loc 1 1182 3 view .LVU725
 2134              		.loc 1 1182 15 is_stmt 0 view .LVU726
 2135 0006 FFF7FEFF 		bl	HAL_GetTick
 2136              	.LVL140:
 2137              		.loc 1 1182 15 view .LVU727
 2138 000a 0646     		mov	r6, r0
 2139              	.LVL141:
1183:Drivers/STM32F4xx_HAL_Driver/Src/stm32f4xx_hal_rtc_ex.c **** 
1184:Drivers/STM32F4xx_HAL_Driver/Src/stm32f4xx_hal_rtc_ex.c ****   while (__HAL_RTC_WAKEUPTIMER_GET_FLAG(hrtc, RTC_FLAG_WUTF) == 0U)
 2140              		.loc 1 1184 3 is_stmt 1 view .LVU728
ARM GAS  C:\Users\ADMINI~1\AppData\Local\Temp\ccahqaTu.s 			page 61


 2141              	.L131:
 2142              		.loc 1 1184 62 view .LVU729
 2143              		.loc 1 1184 10 is_stmt 0 view .LVU730
 2144 000c 2368     		ldr	r3, [r4]
 2145 000e DA68     		ldr	r2, [r3, #12]
 2146              		.loc 1 1184 62 view .LVU731
 2147 0010 12F4806F 		tst	r2, #1024
 2148 0014 0BD1     		bne	.L136
1185:Drivers/STM32F4xx_HAL_Driver/Src/stm32f4xx_hal_rtc_ex.c ****   {
1186:Drivers/STM32F4xx_HAL_Driver/Src/stm32f4xx_hal_rtc_ex.c ****     if (Timeout != HAL_MAX_DELAY)
 2149              		.loc 1 1186 5 is_stmt 1 view .LVU732
 2150              		.loc 1 1186 8 is_stmt 0 view .LVU733
 2151 0016 B5F1FF3F 		cmp	r5, #-1
 2152 001a F7D0     		beq	.L131
1187:Drivers/STM32F4xx_HAL_Driver/Src/stm32f4xx_hal_rtc_ex.c ****     {
1188:Drivers/STM32F4xx_HAL_Driver/Src/stm32f4xx_hal_rtc_ex.c ****       if ((Timeout == 0U) || ((HAL_GetTick() - tickstart) > Timeout))
 2153              		.loc 1 1188 7 is_stmt 1 view .LVU734
 2154              		.loc 1 1188 10 is_stmt 0 view .LVU735
 2155 001c 25B1     		cbz	r5, .L132
 2156              		.loc 1 1188 32 discriminator 1 view .LVU736
 2157 001e FFF7FEFF 		bl	HAL_GetTick
 2158              	.LVL142:
 2159              		.loc 1 1188 46 discriminator 1 view .LVU737
 2160 0022 801B     		subs	r0, r0, r6
 2161              		.loc 1 1188 27 discriminator 1 view .LVU738
 2162 0024 A842     		cmp	r0, r5
 2163 0026 F1D9     		bls	.L131
 2164              	.L132:
1189:Drivers/STM32F4xx_HAL_Driver/Src/stm32f4xx_hal_rtc_ex.c ****       {
1190:Drivers/STM32F4xx_HAL_Driver/Src/stm32f4xx_hal_rtc_ex.c ****         hrtc->State = HAL_RTC_STATE_TIMEOUT;
 2165              		.loc 1 1190 9 is_stmt 1 view .LVU739
 2166              		.loc 1 1190 21 is_stmt 0 view .LVU740
 2167 0028 0320     		movs	r0, #3
 2168 002a 6077     		strb	r0, [r4, #29]
1191:Drivers/STM32F4xx_HAL_Driver/Src/stm32f4xx_hal_rtc_ex.c ****         return HAL_TIMEOUT;
 2169              		.loc 1 1191 9 is_stmt 1 view .LVU741
 2170              		.loc 1 1191 16 is_stmt 0 view .LVU742
 2171 002c 07E0     		b	.L133
 2172              	.L136:
1192:Drivers/STM32F4xx_HAL_Driver/Src/stm32f4xx_hal_rtc_ex.c ****       }
1193:Drivers/STM32F4xx_HAL_Driver/Src/stm32f4xx_hal_rtc_ex.c ****     }
1194:Drivers/STM32F4xx_HAL_Driver/Src/stm32f4xx_hal_rtc_ex.c ****   }
1195:Drivers/STM32F4xx_HAL_Driver/Src/stm32f4xx_hal_rtc_ex.c **** 
1196:Drivers/STM32F4xx_HAL_Driver/Src/stm32f4xx_hal_rtc_ex.c ****   /* Clear the Wakeup timer Flag */
1197:Drivers/STM32F4xx_HAL_Driver/Src/stm32f4xx_hal_rtc_ex.c ****   __HAL_RTC_WAKEUPTIMER_CLEAR_FLAG(hrtc, RTC_FLAG_WUTF);
 2173              		.loc 1 1197 3 is_stmt 1 view .LVU743
 2174 002e DA68     		ldr	r2, [r3, #12]
 2175 0030 D2B2     		uxtb	r2, r2
 2176 0032 62F49062 		orn	r2, r2, #1152
 2177 0036 DA60     		str	r2, [r3, #12]
1198:Drivers/STM32F4xx_HAL_Driver/Src/stm32f4xx_hal_rtc_ex.c **** 
1199:Drivers/STM32F4xx_HAL_Driver/Src/stm32f4xx_hal_rtc_ex.c ****   /* Change RTC state */
1200:Drivers/STM32F4xx_HAL_Driver/Src/stm32f4xx_hal_rtc_ex.c ****   hrtc->State = HAL_RTC_STATE_READY;
 2178              		.loc 1 1200 3 view .LVU744
 2179              		.loc 1 1200 15 is_stmt 0 view .LVU745
 2180 0038 0123     		movs	r3, #1
 2181 003a 6377     		strb	r3, [r4, #29]
ARM GAS  C:\Users\ADMINI~1\AppData\Local\Temp\ccahqaTu.s 			page 62


1201:Drivers/STM32F4xx_HAL_Driver/Src/stm32f4xx_hal_rtc_ex.c **** 
1202:Drivers/STM32F4xx_HAL_Driver/Src/stm32f4xx_hal_rtc_ex.c ****   return HAL_OK;
 2182              		.loc 1 1202 3 is_stmt 1 view .LVU746
 2183              		.loc 1 1202 10 is_stmt 0 view .LVU747
 2184 003c 0020     		movs	r0, #0
 2185              	.L133:
1203:Drivers/STM32F4xx_HAL_Driver/Src/stm32f4xx_hal_rtc_ex.c **** }
 2186              		.loc 1 1203 1 view .LVU748
 2187 003e 70BD     		pop	{r4, r5, r6, pc}
 2188              		.loc 1 1203 1 view .LVU749
 2189              		.cfi_endproc
 2190              	.LFE255:
 2192              		.section	.text.HAL_RTCEx_BKUPWrite,"ax",%progbits
 2193              		.align	1
 2194              		.global	HAL_RTCEx_BKUPWrite
 2195              		.syntax unified
 2196              		.thumb
 2197              		.thumb_func
 2199              	HAL_RTCEx_BKUPWrite:
 2200              	.LVL143:
 2201              	.LFB256:
1204:Drivers/STM32F4xx_HAL_Driver/Src/stm32f4xx_hal_rtc_ex.c **** 
1205:Drivers/STM32F4xx_HAL_Driver/Src/stm32f4xx_hal_rtc_ex.c **** /**
1206:Drivers/STM32F4xx_HAL_Driver/Src/stm32f4xx_hal_rtc_ex.c ****   * @}
1207:Drivers/STM32F4xx_HAL_Driver/Src/stm32f4xx_hal_rtc_ex.c ****   */
1208:Drivers/STM32F4xx_HAL_Driver/Src/stm32f4xx_hal_rtc_ex.c **** 
1209:Drivers/STM32F4xx_HAL_Driver/Src/stm32f4xx_hal_rtc_ex.c **** /** @defgroup RTCEx_Exported_Functions_Group3 Extended Peripheral Control functions
1210:Drivers/STM32F4xx_HAL_Driver/Src/stm32f4xx_hal_rtc_ex.c ****   * @brief    Extended Peripheral Control functions
1211:Drivers/STM32F4xx_HAL_Driver/Src/stm32f4xx_hal_rtc_ex.c ****   *
1212:Drivers/STM32F4xx_HAL_Driver/Src/stm32f4xx_hal_rtc_ex.c **** @verbatim
1213:Drivers/STM32F4xx_HAL_Driver/Src/stm32f4xx_hal_rtc_ex.c ****  ===============================================================================
1214:Drivers/STM32F4xx_HAL_Driver/Src/stm32f4xx_hal_rtc_ex.c ****               ##### Extended Peripheral Control functions #####
1215:Drivers/STM32F4xx_HAL_Driver/Src/stm32f4xx_hal_rtc_ex.c ****  ===============================================================================
1216:Drivers/STM32F4xx_HAL_Driver/Src/stm32f4xx_hal_rtc_ex.c ****     [..]
1217:Drivers/STM32F4xx_HAL_Driver/Src/stm32f4xx_hal_rtc_ex.c ****     This subsection provides functions allowing to
1218:Drivers/STM32F4xx_HAL_Driver/Src/stm32f4xx_hal_rtc_ex.c ****       (+) Write a data in a specified RTC Backup data register
1219:Drivers/STM32F4xx_HAL_Driver/Src/stm32f4xx_hal_rtc_ex.c ****       (+) Read a data in a specified RTC Backup data register
1220:Drivers/STM32F4xx_HAL_Driver/Src/stm32f4xx_hal_rtc_ex.c ****       (+) Set the Coarse calibration parameters.
1221:Drivers/STM32F4xx_HAL_Driver/Src/stm32f4xx_hal_rtc_ex.c ****       (+) Deactivate the Coarse calibration parameters
1222:Drivers/STM32F4xx_HAL_Driver/Src/stm32f4xx_hal_rtc_ex.c ****       (+) Set the Smooth calibration parameters.
1223:Drivers/STM32F4xx_HAL_Driver/Src/stm32f4xx_hal_rtc_ex.c ****       (+) Configure the Synchronization Shift Control Settings.
1224:Drivers/STM32F4xx_HAL_Driver/Src/stm32f4xx_hal_rtc_ex.c ****       (+) Configure the Calibration Pinout (RTC_CALIB) Selection (1Hz or 512Hz).
1225:Drivers/STM32F4xx_HAL_Driver/Src/stm32f4xx_hal_rtc_ex.c ****       (+) Deactivate the Calibration Pinout (RTC_CALIB) Selection (1Hz or 512Hz).
1226:Drivers/STM32F4xx_HAL_Driver/Src/stm32f4xx_hal_rtc_ex.c ****       (+) Enable the RTC reference clock detection.
1227:Drivers/STM32F4xx_HAL_Driver/Src/stm32f4xx_hal_rtc_ex.c ****       (+) Disable the RTC reference clock detection.
1228:Drivers/STM32F4xx_HAL_Driver/Src/stm32f4xx_hal_rtc_ex.c ****       (+) Enable the Bypass Shadow feature.
1229:Drivers/STM32F4xx_HAL_Driver/Src/stm32f4xx_hal_rtc_ex.c ****       (+) Disable the Bypass Shadow feature.
1230:Drivers/STM32F4xx_HAL_Driver/Src/stm32f4xx_hal_rtc_ex.c **** 
1231:Drivers/STM32F4xx_HAL_Driver/Src/stm32f4xx_hal_rtc_ex.c **** @endverbatim
1232:Drivers/STM32F4xx_HAL_Driver/Src/stm32f4xx_hal_rtc_ex.c ****   * @{
1233:Drivers/STM32F4xx_HAL_Driver/Src/stm32f4xx_hal_rtc_ex.c ****   */
1234:Drivers/STM32F4xx_HAL_Driver/Src/stm32f4xx_hal_rtc_ex.c **** 
1235:Drivers/STM32F4xx_HAL_Driver/Src/stm32f4xx_hal_rtc_ex.c **** /**
1236:Drivers/STM32F4xx_HAL_Driver/Src/stm32f4xx_hal_rtc_ex.c ****   * @brief  Writes a data in a specified RTC Backup data register.
1237:Drivers/STM32F4xx_HAL_Driver/Src/stm32f4xx_hal_rtc_ex.c ****   * @param  hrtc pointer to a RTC_HandleTypeDef structure that contains
1238:Drivers/STM32F4xx_HAL_Driver/Src/stm32f4xx_hal_rtc_ex.c ****   *                the configuration information for RTC.
1239:Drivers/STM32F4xx_HAL_Driver/Src/stm32f4xx_hal_rtc_ex.c ****   * @param  BackupRegister RTC Backup data Register number.
ARM GAS  C:\Users\ADMINI~1\AppData\Local\Temp\ccahqaTu.s 			page 63


1240:Drivers/STM32F4xx_HAL_Driver/Src/stm32f4xx_hal_rtc_ex.c ****   *          This parameter can be: RTC_BKP_DRx (where x can be from 0 to 19)
1241:Drivers/STM32F4xx_HAL_Driver/Src/stm32f4xx_hal_rtc_ex.c ****   *                                 to specify the register.
1242:Drivers/STM32F4xx_HAL_Driver/Src/stm32f4xx_hal_rtc_ex.c ****   * @param  Data Data to be written in the specified RTC Backup data register.
1243:Drivers/STM32F4xx_HAL_Driver/Src/stm32f4xx_hal_rtc_ex.c ****   * @retval None
1244:Drivers/STM32F4xx_HAL_Driver/Src/stm32f4xx_hal_rtc_ex.c ****   */
1245:Drivers/STM32F4xx_HAL_Driver/Src/stm32f4xx_hal_rtc_ex.c **** void HAL_RTCEx_BKUPWrite(RTC_HandleTypeDef *hrtc, uint32_t BackupRegister, uint32_t Data)
1246:Drivers/STM32F4xx_HAL_Driver/Src/stm32f4xx_hal_rtc_ex.c **** {
 2202              		.loc 1 1246 1 is_stmt 1 view -0
 2203              		.cfi_startproc
 2204              		@ args = 0, pretend = 0, frame = 0
 2205              		@ frame_needed = 0, uses_anonymous_args = 0
 2206              		@ link register save eliminated.
1247:Drivers/STM32F4xx_HAL_Driver/Src/stm32f4xx_hal_rtc_ex.c ****   uint32_t tmp = 0U;
 2207              		.loc 1 1247 3 view .LVU751
1248:Drivers/STM32F4xx_HAL_Driver/Src/stm32f4xx_hal_rtc_ex.c **** 
1249:Drivers/STM32F4xx_HAL_Driver/Src/stm32f4xx_hal_rtc_ex.c ****   /* Check the parameters */
1250:Drivers/STM32F4xx_HAL_Driver/Src/stm32f4xx_hal_rtc_ex.c ****   assert_param(IS_RTC_BKP(BackupRegister));
 2208              		.loc 1 1250 3 view .LVU752
1251:Drivers/STM32F4xx_HAL_Driver/Src/stm32f4xx_hal_rtc_ex.c **** 
1252:Drivers/STM32F4xx_HAL_Driver/Src/stm32f4xx_hal_rtc_ex.c ****   tmp = (uint32_t) & (hrtc->Instance->BKP0R);
 2209              		.loc 1 1252 3 view .LVU753
 2210              		.loc 1 1252 27 is_stmt 0 view .LVU754
 2211 0000 0368     		ldr	r3, [r0]
 2212              		.loc 1 1252 20 view .LVU755
 2213 0002 5033     		adds	r3, r3, #80
 2214              	.LVL144:
1253:Drivers/STM32F4xx_HAL_Driver/Src/stm32f4xx_hal_rtc_ex.c ****   tmp += (BackupRegister * 4U);
 2215              		.loc 1 1253 3 is_stmt 1 view .LVU756
1254:Drivers/STM32F4xx_HAL_Driver/Src/stm32f4xx_hal_rtc_ex.c **** 
1255:Drivers/STM32F4xx_HAL_Driver/Src/stm32f4xx_hal_rtc_ex.c ****   /* Write the specified register */
1256:Drivers/STM32F4xx_HAL_Driver/Src/stm32f4xx_hal_rtc_ex.c ****   *(__IO uint32_t *)tmp = (uint32_t)Data;
 2216              		.loc 1 1256 3 view .LVU757
 2217              		.loc 1 1256 25 is_stmt 0 view .LVU758
 2218 0004 43F82120 		str	r2, [r3, r1, lsl #2]
1257:Drivers/STM32F4xx_HAL_Driver/Src/stm32f4xx_hal_rtc_ex.c **** }
 2219              		.loc 1 1257 1 view .LVU759
 2220 0008 7047     		bx	lr
 2221              		.cfi_endproc
 2222              	.LFE256:
 2224              		.section	.text.HAL_RTCEx_BKUPRead,"ax",%progbits
 2225              		.align	1
 2226              		.global	HAL_RTCEx_BKUPRead
 2227              		.syntax unified
 2228              		.thumb
 2229              		.thumb_func
 2231              	HAL_RTCEx_BKUPRead:
 2232              	.LVL145:
 2233              	.LFB257:
1258:Drivers/STM32F4xx_HAL_Driver/Src/stm32f4xx_hal_rtc_ex.c **** 
1259:Drivers/STM32F4xx_HAL_Driver/Src/stm32f4xx_hal_rtc_ex.c **** /**
1260:Drivers/STM32F4xx_HAL_Driver/Src/stm32f4xx_hal_rtc_ex.c ****   * @brief  Reads data from the specified RTC Backup data Register.
1261:Drivers/STM32F4xx_HAL_Driver/Src/stm32f4xx_hal_rtc_ex.c ****   * @param  hrtc pointer to a RTC_HandleTypeDef structure that contains
1262:Drivers/STM32F4xx_HAL_Driver/Src/stm32f4xx_hal_rtc_ex.c ****   *                the configuration information for RTC.
1263:Drivers/STM32F4xx_HAL_Driver/Src/stm32f4xx_hal_rtc_ex.c ****   * @param  BackupRegister RTC Backup data Register number.
1264:Drivers/STM32F4xx_HAL_Driver/Src/stm32f4xx_hal_rtc_ex.c ****   *          This parameter can be: RTC_BKP_DRx (where x can be from 0 to 19)
1265:Drivers/STM32F4xx_HAL_Driver/Src/stm32f4xx_hal_rtc_ex.c ****   *                                 to specify the register.
1266:Drivers/STM32F4xx_HAL_Driver/Src/stm32f4xx_hal_rtc_ex.c ****   * @retval Read value
ARM GAS  C:\Users\ADMINI~1\AppData\Local\Temp\ccahqaTu.s 			page 64


1267:Drivers/STM32F4xx_HAL_Driver/Src/stm32f4xx_hal_rtc_ex.c ****   */
1268:Drivers/STM32F4xx_HAL_Driver/Src/stm32f4xx_hal_rtc_ex.c **** uint32_t HAL_RTCEx_BKUPRead(RTC_HandleTypeDef *hrtc, uint32_t BackupRegister)
1269:Drivers/STM32F4xx_HAL_Driver/Src/stm32f4xx_hal_rtc_ex.c **** {
 2234              		.loc 1 1269 1 is_stmt 1 view -0
 2235              		.cfi_startproc
 2236              		@ args = 0, pretend = 0, frame = 0
 2237              		@ frame_needed = 0, uses_anonymous_args = 0
 2238              		@ link register save eliminated.
1270:Drivers/STM32F4xx_HAL_Driver/Src/stm32f4xx_hal_rtc_ex.c ****   uint32_t tmp = 0U;
 2239              		.loc 1 1270 3 view .LVU761
1271:Drivers/STM32F4xx_HAL_Driver/Src/stm32f4xx_hal_rtc_ex.c **** 
1272:Drivers/STM32F4xx_HAL_Driver/Src/stm32f4xx_hal_rtc_ex.c ****   /* Check the parameters */
1273:Drivers/STM32F4xx_HAL_Driver/Src/stm32f4xx_hal_rtc_ex.c ****   assert_param(IS_RTC_BKP(BackupRegister));
 2240              		.loc 1 1273 3 view .LVU762
1274:Drivers/STM32F4xx_HAL_Driver/Src/stm32f4xx_hal_rtc_ex.c **** 
1275:Drivers/STM32F4xx_HAL_Driver/Src/stm32f4xx_hal_rtc_ex.c ****   tmp = (uint32_t) & (hrtc->Instance->BKP0R);
 2241              		.loc 1 1275 3 view .LVU763
 2242              		.loc 1 1275 27 is_stmt 0 view .LVU764
 2243 0000 0368     		ldr	r3, [r0]
 2244              		.loc 1 1275 20 view .LVU765
 2245 0002 5033     		adds	r3, r3, #80
 2246              	.LVL146:
1276:Drivers/STM32F4xx_HAL_Driver/Src/stm32f4xx_hal_rtc_ex.c ****   tmp += (BackupRegister * 4U);
 2247              		.loc 1 1276 3 is_stmt 1 view .LVU766
1277:Drivers/STM32F4xx_HAL_Driver/Src/stm32f4xx_hal_rtc_ex.c **** 
1278:Drivers/STM32F4xx_HAL_Driver/Src/stm32f4xx_hal_rtc_ex.c ****   /* Read the specified register */
1279:Drivers/STM32F4xx_HAL_Driver/Src/stm32f4xx_hal_rtc_ex.c ****   return (*(__IO uint32_t *)tmp);
 2248              		.loc 1 1279 3 view .LVU767
 2249              		.loc 1 1279 11 is_stmt 0 view .LVU768
 2250 0004 53F82100 		ldr	r0, [r3, r1, lsl #2]
 2251              	.LVL147:
1280:Drivers/STM32F4xx_HAL_Driver/Src/stm32f4xx_hal_rtc_ex.c **** }
 2252              		.loc 1 1280 1 view .LVU769
 2253 0008 7047     		bx	lr
 2254              		.cfi_endproc
 2255              	.LFE257:
 2257              		.section	.text.HAL_RTCEx_SetCoarseCalib,"ax",%progbits
 2258              		.align	1
 2259              		.global	HAL_RTCEx_SetCoarseCalib
 2260              		.syntax unified
 2261              		.thumb
 2262              		.thumb_func
 2264              	HAL_RTCEx_SetCoarseCalib:
 2265              	.LVL148:
 2266              	.LFB258:
1281:Drivers/STM32F4xx_HAL_Driver/Src/stm32f4xx_hal_rtc_ex.c **** 
1282:Drivers/STM32F4xx_HAL_Driver/Src/stm32f4xx_hal_rtc_ex.c **** /**
1283:Drivers/STM32F4xx_HAL_Driver/Src/stm32f4xx_hal_rtc_ex.c ****   * @brief  Sets the Coarse calibration parameters.
1284:Drivers/STM32F4xx_HAL_Driver/Src/stm32f4xx_hal_rtc_ex.c ****   * @param  hrtc pointer to a RTC_HandleTypeDef structure that contains
1285:Drivers/STM32F4xx_HAL_Driver/Src/stm32f4xx_hal_rtc_ex.c ****   *                the configuration information for RTC.
1286:Drivers/STM32F4xx_HAL_Driver/Src/stm32f4xx_hal_rtc_ex.c ****   * @param  CalibSign Specifies the sign of the coarse calibration value.
1287:Drivers/STM32F4xx_HAL_Driver/Src/stm32f4xx_hal_rtc_ex.c ****   *          This parameter can be  one of the following values:
1288:Drivers/STM32F4xx_HAL_Driver/Src/stm32f4xx_hal_rtc_ex.c ****   *             @arg RTC_CALIBSIGN_POSITIVE: The value sign is positive
1289:Drivers/STM32F4xx_HAL_Driver/Src/stm32f4xx_hal_rtc_ex.c ****   *             @arg RTC_CALIBSIGN_NEGATIVE: The value sign is negative
1290:Drivers/STM32F4xx_HAL_Driver/Src/stm32f4xx_hal_rtc_ex.c ****   * @param  Value value of coarse calibration expressed in ppm (coded on 5 bits).
1291:Drivers/STM32F4xx_HAL_Driver/Src/stm32f4xx_hal_rtc_ex.c ****   *
1292:Drivers/STM32F4xx_HAL_Driver/Src/stm32f4xx_hal_rtc_ex.c ****   * @note   This Calibration value should be between 0 and 63 when using negative
ARM GAS  C:\Users\ADMINI~1\AppData\Local\Temp\ccahqaTu.s 			page 65


1293:Drivers/STM32F4xx_HAL_Driver/Src/stm32f4xx_hal_rtc_ex.c ****   *         sign with a 2-ppm step.
1294:Drivers/STM32F4xx_HAL_Driver/Src/stm32f4xx_hal_rtc_ex.c ****   *
1295:Drivers/STM32F4xx_HAL_Driver/Src/stm32f4xx_hal_rtc_ex.c ****   * @note   This Calibration value should be between 0 and 126 when using positive
1296:Drivers/STM32F4xx_HAL_Driver/Src/stm32f4xx_hal_rtc_ex.c ****   *         sign with a 4-ppm step.
1297:Drivers/STM32F4xx_HAL_Driver/Src/stm32f4xx_hal_rtc_ex.c ****   * @retval HAL status
1298:Drivers/STM32F4xx_HAL_Driver/Src/stm32f4xx_hal_rtc_ex.c ****   */
1299:Drivers/STM32F4xx_HAL_Driver/Src/stm32f4xx_hal_rtc_ex.c **** HAL_StatusTypeDef HAL_RTCEx_SetCoarseCalib(RTC_HandleTypeDef *hrtc, uint32_t CalibSign, uint32_t Va
1300:Drivers/STM32F4xx_HAL_Driver/Src/stm32f4xx_hal_rtc_ex.c **** {
 2267              		.loc 1 1300 1 is_stmt 1 view -0
 2268              		.cfi_startproc
 2269              		@ args = 0, pretend = 0, frame = 0
 2270              		@ frame_needed = 0, uses_anonymous_args = 0
1301:Drivers/STM32F4xx_HAL_Driver/Src/stm32f4xx_hal_rtc_ex.c ****   HAL_StatusTypeDef status;
 2271              		.loc 1 1301 3 view .LVU771
1302:Drivers/STM32F4xx_HAL_Driver/Src/stm32f4xx_hal_rtc_ex.c **** 
1303:Drivers/STM32F4xx_HAL_Driver/Src/stm32f4xx_hal_rtc_ex.c ****   /* Check the parameters */
1304:Drivers/STM32F4xx_HAL_Driver/Src/stm32f4xx_hal_rtc_ex.c ****   assert_param(IS_RTC_CALIB_SIGN(CalibSign));
 2272              		.loc 1 1304 3 view .LVU772
1305:Drivers/STM32F4xx_HAL_Driver/Src/stm32f4xx_hal_rtc_ex.c ****   assert_param(IS_RTC_CALIB_VALUE(Value));
 2273              		.loc 1 1305 3 view .LVU773
1306:Drivers/STM32F4xx_HAL_Driver/Src/stm32f4xx_hal_rtc_ex.c **** 
1307:Drivers/STM32F4xx_HAL_Driver/Src/stm32f4xx_hal_rtc_ex.c ****   /* Process Locked */
1308:Drivers/STM32F4xx_HAL_Driver/Src/stm32f4xx_hal_rtc_ex.c ****   __HAL_LOCK(hrtc);
 2274              		.loc 1 1308 3 view .LVU774
 2275              		.loc 1 1308 3 view .LVU775
 2276 0000 037F     		ldrb	r3, [r0, #28]	@ zero_extendqisi2
 2277 0002 012B     		cmp	r3, #1
 2278 0004 26D0     		beq	.L142
1300:Drivers/STM32F4xx_HAL_Driver/Src/stm32f4xx_hal_rtc_ex.c ****   HAL_StatusTypeDef status;
 2279              		.loc 1 1300 1 is_stmt 0 view .LVU776
 2280 0006 70B5     		push	{r4, r5, r6, lr}
 2281              	.LCFI28:
 2282              		.cfi_def_cfa_offset 16
 2283              		.cfi_offset 4, -16
 2284              		.cfi_offset 5, -12
 2285              		.cfi_offset 6, -8
 2286              		.cfi_offset 14, -4
 2287 0008 0446     		mov	r4, r0
 2288 000a 0E46     		mov	r6, r1
 2289 000c 1546     		mov	r5, r2
 2290              		.loc 1 1308 3 is_stmt 1 discriminator 2 view .LVU777
 2291 000e 0123     		movs	r3, #1
 2292 0010 0377     		strb	r3, [r0, #28]
 2293              		.loc 1 1308 3 discriminator 2 view .LVU778
1309:Drivers/STM32F4xx_HAL_Driver/Src/stm32f4xx_hal_rtc_ex.c **** 
1310:Drivers/STM32F4xx_HAL_Driver/Src/stm32f4xx_hal_rtc_ex.c ****   hrtc->State = HAL_RTC_STATE_BUSY;
 2294              		.loc 1 1310 3 view .LVU779
 2295              		.loc 1 1310 15 is_stmt 0 view .LVU780
 2296 0012 0223     		movs	r3, #2
 2297 0014 4377     		strb	r3, [r0, #29]
1311:Drivers/STM32F4xx_HAL_Driver/Src/stm32f4xx_hal_rtc_ex.c **** 
1312:Drivers/STM32F4xx_HAL_Driver/Src/stm32f4xx_hal_rtc_ex.c ****   /* Disable the write protection for RTC registers */
1313:Drivers/STM32F4xx_HAL_Driver/Src/stm32f4xx_hal_rtc_ex.c ****   __HAL_RTC_WRITEPROTECTION_DISABLE(hrtc);
 2298              		.loc 1 1313 3 is_stmt 1 view .LVU781
 2299              		.loc 1 1313 3 view .LVU782
 2300 0016 0368     		ldr	r3, [r0]
 2301 0018 CA22     		movs	r2, #202
ARM GAS  C:\Users\ADMINI~1\AppData\Local\Temp\ccahqaTu.s 			page 66


 2302              	.LVL149:
 2303              		.loc 1 1313 3 is_stmt 0 view .LVU783
 2304 001a 5A62     		str	r2, [r3, #36]
 2305              		.loc 1 1313 3 is_stmt 1 view .LVU784
 2306 001c 0368     		ldr	r3, [r0]
 2307 001e 5322     		movs	r2, #83
 2308 0020 5A62     		str	r2, [r3, #36]
 2309              		.loc 1 1313 3 view .LVU785
1314:Drivers/STM32F4xx_HAL_Driver/Src/stm32f4xx_hal_rtc_ex.c **** 
1315:Drivers/STM32F4xx_HAL_Driver/Src/stm32f4xx_hal_rtc_ex.c ****   /* Enter Initialization mode */
1316:Drivers/STM32F4xx_HAL_Driver/Src/stm32f4xx_hal_rtc_ex.c ****   status = RTC_EnterInitMode(hrtc);
 2310              		.loc 1 1316 3 view .LVU786
 2311              		.loc 1 1316 12 is_stmt 0 view .LVU787
 2312 0022 FFF7FEFF 		bl	RTC_EnterInitMode
 2313              	.LVL150:
1317:Drivers/STM32F4xx_HAL_Driver/Src/stm32f4xx_hal_rtc_ex.c **** 
1318:Drivers/STM32F4xx_HAL_Driver/Src/stm32f4xx_hal_rtc_ex.c ****   if (status == HAL_OK)
 2314              		.loc 1 1318 3 is_stmt 1 view .LVU788
 2315              		.loc 1 1318 6 is_stmt 0 view .LVU789
 2316 0026 28B1     		cbz	r0, .L147
 2317              	.LVL151:
 2318              	.L141:
1319:Drivers/STM32F4xx_HAL_Driver/Src/stm32f4xx_hal_rtc_ex.c ****   {
1320:Drivers/STM32F4xx_HAL_Driver/Src/stm32f4xx_hal_rtc_ex.c ****     /* Enable the Coarse Calibration */
1321:Drivers/STM32F4xx_HAL_Driver/Src/stm32f4xx_hal_rtc_ex.c ****     __HAL_RTC_COARSE_CALIB_ENABLE(hrtc);
1322:Drivers/STM32F4xx_HAL_Driver/Src/stm32f4xx_hal_rtc_ex.c **** 
1323:Drivers/STM32F4xx_HAL_Driver/Src/stm32f4xx_hal_rtc_ex.c ****     /* Set the coarse calibration value */
1324:Drivers/STM32F4xx_HAL_Driver/Src/stm32f4xx_hal_rtc_ex.c ****     hrtc->Instance->CALIBR = (uint32_t)(CalibSign | Value);
1325:Drivers/STM32F4xx_HAL_Driver/Src/stm32f4xx_hal_rtc_ex.c **** 
1326:Drivers/STM32F4xx_HAL_Driver/Src/stm32f4xx_hal_rtc_ex.c ****     /* Exit Initialization mode */
1327:Drivers/STM32F4xx_HAL_Driver/Src/stm32f4xx_hal_rtc_ex.c ****     status = RTC_ExitInitMode(hrtc);
1328:Drivers/STM32F4xx_HAL_Driver/Src/stm32f4xx_hal_rtc_ex.c ****   }
1329:Drivers/STM32F4xx_HAL_Driver/Src/stm32f4xx_hal_rtc_ex.c **** 
1330:Drivers/STM32F4xx_HAL_Driver/Src/stm32f4xx_hal_rtc_ex.c ****   if (status == HAL_OK)
1331:Drivers/STM32F4xx_HAL_Driver/Src/stm32f4xx_hal_rtc_ex.c ****   {
1332:Drivers/STM32F4xx_HAL_Driver/Src/stm32f4xx_hal_rtc_ex.c ****     hrtc->State = HAL_RTC_STATE_READY;
1333:Drivers/STM32F4xx_HAL_Driver/Src/stm32f4xx_hal_rtc_ex.c ****   }
1334:Drivers/STM32F4xx_HAL_Driver/Src/stm32f4xx_hal_rtc_ex.c **** 
1335:Drivers/STM32F4xx_HAL_Driver/Src/stm32f4xx_hal_rtc_ex.c ****   /* Enable the write protection for RTC registers */
1336:Drivers/STM32F4xx_HAL_Driver/Src/stm32f4xx_hal_rtc_ex.c ****   __HAL_RTC_WRITEPROTECTION_ENABLE(hrtc);
 2319              		.loc 1 1336 3 is_stmt 1 view .LVU790
 2320              		.loc 1 1336 3 view .LVU791
 2321 0028 2368     		ldr	r3, [r4]
 2322 002a FF22     		movs	r2, #255
 2323 002c 5A62     		str	r2, [r3, #36]
 2324              		.loc 1 1336 3 view .LVU792
1337:Drivers/STM32F4xx_HAL_Driver/Src/stm32f4xx_hal_rtc_ex.c **** 
1338:Drivers/STM32F4xx_HAL_Driver/Src/stm32f4xx_hal_rtc_ex.c ****   /* Process Unlocked */
1339:Drivers/STM32F4xx_HAL_Driver/Src/stm32f4xx_hal_rtc_ex.c ****   __HAL_UNLOCK(hrtc);
 2325              		.loc 1 1339 3 view .LVU793
 2326              		.loc 1 1339 3 view .LVU794
 2327 002e 0023     		movs	r3, #0
 2328 0030 2377     		strb	r3, [r4, #28]
 2329              		.loc 1 1339 3 view .LVU795
1340:Drivers/STM32F4xx_HAL_Driver/Src/stm32f4xx_hal_rtc_ex.c **** 
1341:Drivers/STM32F4xx_HAL_Driver/Src/stm32f4xx_hal_rtc_ex.c ****   return status;
 2330              		.loc 1 1341 3 view .LVU796
ARM GAS  C:\Users\ADMINI~1\AppData\Local\Temp\ccahqaTu.s 			page 67


1342:Drivers/STM32F4xx_HAL_Driver/Src/stm32f4xx_hal_rtc_ex.c **** }
 2331              		.loc 1 1342 1 is_stmt 0 view .LVU797
 2332 0032 70BD     		pop	{r4, r5, r6, pc}
 2333              	.LVL152:
 2334              	.L147:
1321:Drivers/STM32F4xx_HAL_Driver/Src/stm32f4xx_hal_rtc_ex.c **** 
 2335              		.loc 1 1321 5 is_stmt 1 view .LVU798
 2336 0034 2268     		ldr	r2, [r4]
 2337 0036 9368     		ldr	r3, [r2, #8]
 2338 0038 43F08003 		orr	r3, r3, #128
 2339 003c 9360     		str	r3, [r2, #8]
1324:Drivers/STM32F4xx_HAL_Driver/Src/stm32f4xx_hal_rtc_ex.c **** 
 2340              		.loc 1 1324 5 view .LVU799
1324:Drivers/STM32F4xx_HAL_Driver/Src/stm32f4xx_hal_rtc_ex.c **** 
 2341              		.loc 1 1324 9 is_stmt 0 view .LVU800
 2342 003e 2368     		ldr	r3, [r4]
1324:Drivers/STM32F4xx_HAL_Driver/Src/stm32f4xx_hal_rtc_ex.c **** 
 2343              		.loc 1 1324 51 view .LVU801
 2344 0040 3543     		orrs	r5, r5, r6
 2345              	.LVL153:
1324:Drivers/STM32F4xx_HAL_Driver/Src/stm32f4xx_hal_rtc_ex.c **** 
 2346              		.loc 1 1324 28 view .LVU802
 2347 0042 9D61     		str	r5, [r3, #24]
1327:Drivers/STM32F4xx_HAL_Driver/Src/stm32f4xx_hal_rtc_ex.c ****   }
 2348              		.loc 1 1327 5 is_stmt 1 view .LVU803
1327:Drivers/STM32F4xx_HAL_Driver/Src/stm32f4xx_hal_rtc_ex.c ****   }
 2349              		.loc 1 1327 14 is_stmt 0 view .LVU804
 2350 0044 2046     		mov	r0, r4
 2351              	.LVL154:
1327:Drivers/STM32F4xx_HAL_Driver/Src/stm32f4xx_hal_rtc_ex.c ****   }
 2352              		.loc 1 1327 14 view .LVU805
 2353 0046 FFF7FEFF 		bl	RTC_ExitInitMode
 2354              	.LVL155:
1330:Drivers/STM32F4xx_HAL_Driver/Src/stm32f4xx_hal_rtc_ex.c ****   {
 2355              		.loc 1 1330 3 is_stmt 1 view .LVU806
1330:Drivers/STM32F4xx_HAL_Driver/Src/stm32f4xx_hal_rtc_ex.c ****   {
 2356              		.loc 1 1330 6 is_stmt 0 view .LVU807
 2357 004a 0028     		cmp	r0, #0
 2358 004c ECD1     		bne	.L141
1332:Drivers/STM32F4xx_HAL_Driver/Src/stm32f4xx_hal_rtc_ex.c ****   }
 2359              		.loc 1 1332 5 is_stmt 1 view .LVU808
1332:Drivers/STM32F4xx_HAL_Driver/Src/stm32f4xx_hal_rtc_ex.c ****   }
 2360              		.loc 1 1332 17 is_stmt 0 view .LVU809
 2361 004e 0123     		movs	r3, #1
 2362 0050 6377     		strb	r3, [r4, #29]
 2363 0052 E9E7     		b	.L141
 2364              	.LVL156:
 2365              	.L142:
 2366              	.LCFI29:
 2367              		.cfi_def_cfa_offset 0
 2368              		.cfi_restore 4
 2369              		.cfi_restore 5
 2370              		.cfi_restore 6
 2371              		.cfi_restore 14
1308:Drivers/STM32F4xx_HAL_Driver/Src/stm32f4xx_hal_rtc_ex.c **** 
 2372              		.loc 1 1308 3 discriminator 1 view .LVU810
 2373 0054 0220     		movs	r0, #2
