ARM GAS  C:\Users\ADMINI~1\AppData\Local\Temp\ccpCjxJh.s 			page 1


   1              		.cpu cortex-m4
   2              		.arch armv7e-m
   3              		.fpu fpv4-sp-d16
   4              		.eabi_attribute 27, 1
   5              		.eabi_attribute 28, 1
   6              		.eabi_attribute 20, 1
   7              		.eabi_attribute 21, 1
   8              		.eabi_attribute 23, 3
   9              		.eabi_attribute 24, 1
  10              		.eabi_attribute 25, 1
  11              		.eabi_attribute 26, 1
  12              		.eabi_attribute 30, 1
  13              		.eabi_attribute 34, 1
  14              		.eabi_attribute 18, 4
  15              		.file	"usbd_core.c"
  16              		.text
  17              	.Ltext0:
  18              		.cfi_sections	.debug_frame
  19              		.file 1 "Middlewares/ST/STM32_USB_Device_Library/Core/Src/usbd_core.c"
  20              		.section	.text.USBD_Init,"ax",%progbits
  21              		.align	1
  22              		.global	USBD_Init
  23              		.syntax unified
  24              		.thumb
  25              		.thumb_func
  27              	USBD_Init:
  28              	.LVL0:
  29              	.LFB239:
   1:Middlewares/ST/STM32_USB_Device_Library/Core/Src/usbd_core.c **** /**
   2:Middlewares/ST/STM32_USB_Device_Library/Core/Src/usbd_core.c ****   ******************************************************************************
   3:Middlewares/ST/STM32_USB_Device_Library/Core/Src/usbd_core.c ****   * @file    usbd_core.c
   4:Middlewares/ST/STM32_USB_Device_Library/Core/Src/usbd_core.c ****   * @author  MCD Application Team
   5:Middlewares/ST/STM32_USB_Device_Library/Core/Src/usbd_core.c ****   * @brief   This file provides all the USBD core functions.
   6:Middlewares/ST/STM32_USB_Device_Library/Core/Src/usbd_core.c ****   ******************************************************************************
   7:Middlewares/ST/STM32_USB_Device_Library/Core/Src/usbd_core.c ****   * @attention
   8:Middlewares/ST/STM32_USB_Device_Library/Core/Src/usbd_core.c ****   *
   9:Middlewares/ST/STM32_USB_Device_Library/Core/Src/usbd_core.c ****   * Copyright (c) 2015 STMicroelectronics.
  10:Middlewares/ST/STM32_USB_Device_Library/Core/Src/usbd_core.c ****   * All rights reserved.
  11:Middlewares/ST/STM32_USB_Device_Library/Core/Src/usbd_core.c ****   *
  12:Middlewares/ST/STM32_USB_Device_Library/Core/Src/usbd_core.c ****   * This software is licensed under terms that can be found in the LICENSE file
  13:Middlewares/ST/STM32_USB_Device_Library/Core/Src/usbd_core.c ****   * in the root directory of this software component.
  14:Middlewares/ST/STM32_USB_Device_Library/Core/Src/usbd_core.c ****   * If no LICENSE file comes with this software, it is provided AS-IS.
  15:Middlewares/ST/STM32_USB_Device_Library/Core/Src/usbd_core.c ****   *
  16:Middlewares/ST/STM32_USB_Device_Library/Core/Src/usbd_core.c ****   ******************************************************************************
  17:Middlewares/ST/STM32_USB_Device_Library/Core/Src/usbd_core.c ****   */
  18:Middlewares/ST/STM32_USB_Device_Library/Core/Src/usbd_core.c **** 
  19:Middlewares/ST/STM32_USB_Device_Library/Core/Src/usbd_core.c **** /* Includes ------------------------------------------------------------------*/
  20:Middlewares/ST/STM32_USB_Device_Library/Core/Src/usbd_core.c **** #include "usbd_core.h"
  21:Middlewares/ST/STM32_USB_Device_Library/Core/Src/usbd_core.c **** 
  22:Middlewares/ST/STM32_USB_Device_Library/Core/Src/usbd_core.c **** #ifdef USE_USBD_COMPOSITE
  23:Middlewares/ST/STM32_USB_Device_Library/Core/Src/usbd_core.c **** #include "usbd_composite_builder.h"
  24:Middlewares/ST/STM32_USB_Device_Library/Core/Src/usbd_core.c **** #endif /* USE_USBD_COMPOSITE */
  25:Middlewares/ST/STM32_USB_Device_Library/Core/Src/usbd_core.c **** 
  26:Middlewares/ST/STM32_USB_Device_Library/Core/Src/usbd_core.c **** /** @addtogroup STM32_USBD_DEVICE_LIBRARY
  27:Middlewares/ST/STM32_USB_Device_Library/Core/Src/usbd_core.c ****   * @{
  28:Middlewares/ST/STM32_USB_Device_Library/Core/Src/usbd_core.c ****   */
  29:Middlewares/ST/STM32_USB_Device_Library/Core/Src/usbd_core.c **** 
ARM GAS  C:\Users\ADMINI~1\AppData\Local\Temp\ccpCjxJh.s 			page 2


  30:Middlewares/ST/STM32_USB_Device_Library/Core/Src/usbd_core.c **** 
  31:Middlewares/ST/STM32_USB_Device_Library/Core/Src/usbd_core.c **** /** @defgroup USBD_CORE
  32:Middlewares/ST/STM32_USB_Device_Library/Core/Src/usbd_core.c ****   * @brief usbd core module
  33:Middlewares/ST/STM32_USB_Device_Library/Core/Src/usbd_core.c ****   * @{
  34:Middlewares/ST/STM32_USB_Device_Library/Core/Src/usbd_core.c ****   */
  35:Middlewares/ST/STM32_USB_Device_Library/Core/Src/usbd_core.c **** 
  36:Middlewares/ST/STM32_USB_Device_Library/Core/Src/usbd_core.c **** /** @defgroup USBD_CORE_Private_TypesDefinitions
  37:Middlewares/ST/STM32_USB_Device_Library/Core/Src/usbd_core.c ****   * @{
  38:Middlewares/ST/STM32_USB_Device_Library/Core/Src/usbd_core.c ****   */
  39:Middlewares/ST/STM32_USB_Device_Library/Core/Src/usbd_core.c **** 
  40:Middlewares/ST/STM32_USB_Device_Library/Core/Src/usbd_core.c **** /**
  41:Middlewares/ST/STM32_USB_Device_Library/Core/Src/usbd_core.c ****   * @}
  42:Middlewares/ST/STM32_USB_Device_Library/Core/Src/usbd_core.c ****   */
  43:Middlewares/ST/STM32_USB_Device_Library/Core/Src/usbd_core.c **** 
  44:Middlewares/ST/STM32_USB_Device_Library/Core/Src/usbd_core.c **** 
  45:Middlewares/ST/STM32_USB_Device_Library/Core/Src/usbd_core.c **** /** @defgroup USBD_CORE_Private_Defines
  46:Middlewares/ST/STM32_USB_Device_Library/Core/Src/usbd_core.c ****   * @{
  47:Middlewares/ST/STM32_USB_Device_Library/Core/Src/usbd_core.c ****   */
  48:Middlewares/ST/STM32_USB_Device_Library/Core/Src/usbd_core.c **** 
  49:Middlewares/ST/STM32_USB_Device_Library/Core/Src/usbd_core.c **** /**
  50:Middlewares/ST/STM32_USB_Device_Library/Core/Src/usbd_core.c ****   * @}
  51:Middlewares/ST/STM32_USB_Device_Library/Core/Src/usbd_core.c ****   */
  52:Middlewares/ST/STM32_USB_Device_Library/Core/Src/usbd_core.c **** 
  53:Middlewares/ST/STM32_USB_Device_Library/Core/Src/usbd_core.c **** 
  54:Middlewares/ST/STM32_USB_Device_Library/Core/Src/usbd_core.c **** /** @defgroup USBD_CORE_Private_Macros
  55:Middlewares/ST/STM32_USB_Device_Library/Core/Src/usbd_core.c ****   * @{
  56:Middlewares/ST/STM32_USB_Device_Library/Core/Src/usbd_core.c ****   */
  57:Middlewares/ST/STM32_USB_Device_Library/Core/Src/usbd_core.c **** 
  58:Middlewares/ST/STM32_USB_Device_Library/Core/Src/usbd_core.c **** /**
  59:Middlewares/ST/STM32_USB_Device_Library/Core/Src/usbd_core.c ****   * @}
  60:Middlewares/ST/STM32_USB_Device_Library/Core/Src/usbd_core.c ****   */
  61:Middlewares/ST/STM32_USB_Device_Library/Core/Src/usbd_core.c **** 
  62:Middlewares/ST/STM32_USB_Device_Library/Core/Src/usbd_core.c **** 
  63:Middlewares/ST/STM32_USB_Device_Library/Core/Src/usbd_core.c **** /** @defgroup USBD_CORE_Private_FunctionPrototypes
  64:Middlewares/ST/STM32_USB_Device_Library/Core/Src/usbd_core.c ****   * @{
  65:Middlewares/ST/STM32_USB_Device_Library/Core/Src/usbd_core.c ****   */
  66:Middlewares/ST/STM32_USB_Device_Library/Core/Src/usbd_core.c **** 
  67:Middlewares/ST/STM32_USB_Device_Library/Core/Src/usbd_core.c **** /**
  68:Middlewares/ST/STM32_USB_Device_Library/Core/Src/usbd_core.c ****   * @}
  69:Middlewares/ST/STM32_USB_Device_Library/Core/Src/usbd_core.c ****   */
  70:Middlewares/ST/STM32_USB_Device_Library/Core/Src/usbd_core.c **** 
  71:Middlewares/ST/STM32_USB_Device_Library/Core/Src/usbd_core.c **** /** @defgroup USBD_CORE_Private_Variables
  72:Middlewares/ST/STM32_USB_Device_Library/Core/Src/usbd_core.c ****   * @{
  73:Middlewares/ST/STM32_USB_Device_Library/Core/Src/usbd_core.c ****   */
  74:Middlewares/ST/STM32_USB_Device_Library/Core/Src/usbd_core.c **** 
  75:Middlewares/ST/STM32_USB_Device_Library/Core/Src/usbd_core.c **** /**
  76:Middlewares/ST/STM32_USB_Device_Library/Core/Src/usbd_core.c ****   * @}
  77:Middlewares/ST/STM32_USB_Device_Library/Core/Src/usbd_core.c ****   */
  78:Middlewares/ST/STM32_USB_Device_Library/Core/Src/usbd_core.c **** 
  79:Middlewares/ST/STM32_USB_Device_Library/Core/Src/usbd_core.c **** 
  80:Middlewares/ST/STM32_USB_Device_Library/Core/Src/usbd_core.c **** /** @defgroup USBD_CORE_Private_Functions
  81:Middlewares/ST/STM32_USB_Device_Library/Core/Src/usbd_core.c ****   * @{
  82:Middlewares/ST/STM32_USB_Device_Library/Core/Src/usbd_core.c ****   */
  83:Middlewares/ST/STM32_USB_Device_Library/Core/Src/usbd_core.c **** 
  84:Middlewares/ST/STM32_USB_Device_Library/Core/Src/usbd_core.c **** /**
  85:Middlewares/ST/STM32_USB_Device_Library/Core/Src/usbd_core.c ****   * @brief  USBD_Init
  86:Middlewares/ST/STM32_USB_Device_Library/Core/Src/usbd_core.c ****   *         Initializes the device stack and load the class driver
ARM GAS  C:\Users\ADMINI~1\AppData\Local\Temp\ccpCjxJh.s 			page 3


  87:Middlewares/ST/STM32_USB_Device_Library/Core/Src/usbd_core.c ****   * @param  pdev: device instance
  88:Middlewares/ST/STM32_USB_Device_Library/Core/Src/usbd_core.c ****   * @param  pdesc: Descriptor structure address
  89:Middlewares/ST/STM32_USB_Device_Library/Core/Src/usbd_core.c ****   * @param  id: Low level core index
  90:Middlewares/ST/STM32_USB_Device_Library/Core/Src/usbd_core.c ****   * @retval None
  91:Middlewares/ST/STM32_USB_Device_Library/Core/Src/usbd_core.c ****   */
  92:Middlewares/ST/STM32_USB_Device_Library/Core/Src/usbd_core.c **** USBD_StatusTypeDef USBD_Init(USBD_HandleTypeDef *pdev,
  93:Middlewares/ST/STM32_USB_Device_Library/Core/Src/usbd_core.c ****                              USBD_DescriptorsTypeDef *pdesc, uint8_t id)
  94:Middlewares/ST/STM32_USB_Device_Library/Core/Src/usbd_core.c **** {
  30              		.loc 1 94 1 view -0
  31              		.cfi_startproc
  32              		@ args = 0, pretend = 0, frame = 0
  33              		@ frame_needed = 0, uses_anonymous_args = 0
  95:Middlewares/ST/STM32_USB_Device_Library/Core/Src/usbd_core.c ****   USBD_StatusTypeDef ret;
  34              		.loc 1 95 3 view .LVU1
  96:Middlewares/ST/STM32_USB_Device_Library/Core/Src/usbd_core.c **** 
  97:Middlewares/ST/STM32_USB_Device_Library/Core/Src/usbd_core.c ****   /* Check whether the USB Host handle is valid */
  98:Middlewares/ST/STM32_USB_Device_Library/Core/Src/usbd_core.c ****   if (pdev == NULL)
  35              		.loc 1 98 3 view .LVU2
  36              		.loc 1 98 6 is_stmt 0 view .LVU3
  37 0000 98B1     		cbz	r0, .L4
  94:Middlewares/ST/STM32_USB_Device_Library/Core/Src/usbd_core.c ****   USBD_StatusTypeDef ret;
  38              		.loc 1 94 1 view .LVU4
  39 0002 08B5     		push	{r3, lr}
  40              	.LCFI0:
  41              		.cfi_def_cfa_offset 8
  42              		.cfi_offset 3, -8
  43              		.cfi_offset 14, -4
  44 0004 0346     		mov	r3, r0
  99:Middlewares/ST/STM32_USB_Device_Library/Core/Src/usbd_core.c ****   {
 100:Middlewares/ST/STM32_USB_Device_Library/Core/Src/usbd_core.c **** #if (USBD_DEBUG_LEVEL > 1U)
 101:Middlewares/ST/STM32_USB_Device_Library/Core/Src/usbd_core.c ****     USBD_ErrLog("Invalid Device handle");
 102:Middlewares/ST/STM32_USB_Device_Library/Core/Src/usbd_core.c **** #endif /* (USBD_DEBUG_LEVEL > 1U) */
 103:Middlewares/ST/STM32_USB_Device_Library/Core/Src/usbd_core.c ****     return USBD_FAIL;
 104:Middlewares/ST/STM32_USB_Device_Library/Core/Src/usbd_core.c ****   }
 105:Middlewares/ST/STM32_USB_Device_Library/Core/Src/usbd_core.c **** 
 106:Middlewares/ST/STM32_USB_Device_Library/Core/Src/usbd_core.c **** #ifdef USE_USBD_COMPOSITE
 107:Middlewares/ST/STM32_USB_Device_Library/Core/Src/usbd_core.c ****   /* Parse the table of classes in use */
 108:Middlewares/ST/STM32_USB_Device_Library/Core/Src/usbd_core.c ****   for (uint32_t i = 0; i < USBD_MAX_SUPPORTED_CLASS; i++)
 109:Middlewares/ST/STM32_USB_Device_Library/Core/Src/usbd_core.c ****   {
 110:Middlewares/ST/STM32_USB_Device_Library/Core/Src/usbd_core.c ****     /* Unlink previous class*/
 111:Middlewares/ST/STM32_USB_Device_Library/Core/Src/usbd_core.c ****     pdev->pClass[i] = NULL;
 112:Middlewares/ST/STM32_USB_Device_Library/Core/Src/usbd_core.c ****     pdev->pUserData[i] = NULL;
 113:Middlewares/ST/STM32_USB_Device_Library/Core/Src/usbd_core.c **** 
 114:Middlewares/ST/STM32_USB_Device_Library/Core/Src/usbd_core.c ****     /* Set class as inactive */
 115:Middlewares/ST/STM32_USB_Device_Library/Core/Src/usbd_core.c ****     pdev->tclasslist[i].Active = 0;
 116:Middlewares/ST/STM32_USB_Device_Library/Core/Src/usbd_core.c ****     pdev->NumClasses = 0;
 117:Middlewares/ST/STM32_USB_Device_Library/Core/Src/usbd_core.c ****     pdev->classId = 0;
 118:Middlewares/ST/STM32_USB_Device_Library/Core/Src/usbd_core.c ****   }
 119:Middlewares/ST/STM32_USB_Device_Library/Core/Src/usbd_core.c **** #else
 120:Middlewares/ST/STM32_USB_Device_Library/Core/Src/usbd_core.c ****   /* Unlink previous class*/
 121:Middlewares/ST/STM32_USB_Device_Library/Core/Src/usbd_core.c ****   pdev->pClass[0] = NULL;
  45              		.loc 1 121 3 is_stmt 1 view .LVU5
  46              		.loc 1 121 19 is_stmt 0 view .LVU6
  47 0006 0020     		movs	r0, #0
  48              	.LVL1:
  49              		.loc 1 121 19 view .LVU7
  50 0008 C3F8B802 		str	r0, [r3, #696]
ARM GAS  C:\Users\ADMINI~1\AppData\Local\Temp\ccpCjxJh.s 			page 4


 122:Middlewares/ST/STM32_USB_Device_Library/Core/Src/usbd_core.c ****   pdev->pUserData[0] = NULL;
  51              		.loc 1 122 3 is_stmt 1 view .LVU8
  52              		.loc 1 122 22 is_stmt 0 view .LVU9
  53 000c C3F8C402 		str	r0, [r3, #708]
 123:Middlewares/ST/STM32_USB_Device_Library/Core/Src/usbd_core.c **** #endif /* USE_USBD_COMPOSITE */
 124:Middlewares/ST/STM32_USB_Device_Library/Core/Src/usbd_core.c **** 
 125:Middlewares/ST/STM32_USB_Device_Library/Core/Src/usbd_core.c ****   pdev->pConfDesc = NULL;
  54              		.loc 1 125 3 is_stmt 1 view .LVU10
  55              		.loc 1 125 19 is_stmt 0 view .LVU11
  56 0010 C3F8D002 		str	r0, [r3, #720]
 126:Middlewares/ST/STM32_USB_Device_Library/Core/Src/usbd_core.c **** 
 127:Middlewares/ST/STM32_USB_Device_Library/Core/Src/usbd_core.c ****   /* Assign USBD Descriptors */
 128:Middlewares/ST/STM32_USB_Device_Library/Core/Src/usbd_core.c ****   if (pdesc != NULL)
  57              		.loc 1 128 3 is_stmt 1 view .LVU12
  58              		.loc 1 128 6 is_stmt 0 view .LVU13
  59 0014 09B1     		cbz	r1, .L3
 129:Middlewares/ST/STM32_USB_Device_Library/Core/Src/usbd_core.c ****   {
 130:Middlewares/ST/STM32_USB_Device_Library/Core/Src/usbd_core.c ****     pdev->pDesc = pdesc;
  60              		.loc 1 130 5 is_stmt 1 view .LVU14
  61              		.loc 1 130 17 is_stmt 0 view .LVU15
  62 0016 C3F8B412 		str	r1, [r3, #692]
  63              	.L3:
 131:Middlewares/ST/STM32_USB_Device_Library/Core/Src/usbd_core.c ****   }
 132:Middlewares/ST/STM32_USB_Device_Library/Core/Src/usbd_core.c **** 
 133:Middlewares/ST/STM32_USB_Device_Library/Core/Src/usbd_core.c ****   /* Set Device initial State */
 134:Middlewares/ST/STM32_USB_Device_Library/Core/Src/usbd_core.c ****   pdev->dev_state = USBD_STATE_DEFAULT;
  64              		.loc 1 134 3 is_stmt 1 view .LVU16
  65              		.loc 1 134 19 is_stmt 0 view .LVU17
  66 001a 0121     		movs	r1, #1
  67              	.LVL2:
  68              		.loc 1 134 19 view .LVU18
  69 001c 83F89C12 		strb	r1, [r3, #668]
 135:Middlewares/ST/STM32_USB_Device_Library/Core/Src/usbd_core.c ****   pdev->id = id;
  70              		.loc 1 135 3 is_stmt 1 view .LVU19
  71              		.loc 1 135 12 is_stmt 0 view .LVU20
  72 0020 1A70     		strb	r2, [r3]
 136:Middlewares/ST/STM32_USB_Device_Library/Core/Src/usbd_core.c **** 
 137:Middlewares/ST/STM32_USB_Device_Library/Core/Src/usbd_core.c ****   /* Initialize low level driver */
 138:Middlewares/ST/STM32_USB_Device_Library/Core/Src/usbd_core.c ****   ret = USBD_LL_Init(pdev);
  73              		.loc 1 138 3 is_stmt 1 view .LVU21
  74              		.loc 1 138 9 is_stmt 0 view .LVU22
  75 0022 1846     		mov	r0, r3
  76 0024 FFF7FEFF 		bl	USBD_LL_Init
  77              	.LVL3:
 139:Middlewares/ST/STM32_USB_Device_Library/Core/Src/usbd_core.c **** 
 140:Middlewares/ST/STM32_USB_Device_Library/Core/Src/usbd_core.c ****   return ret;
  78              		.loc 1 140 3 is_stmt 1 view .LVU23
 141:Middlewares/ST/STM32_USB_Device_Library/Core/Src/usbd_core.c **** }
  79              		.loc 1 141 1 is_stmt 0 view .LVU24
  80 0028 08BD     		pop	{r3, pc}
  81              	.LVL4:
  82              	.L4:
  83              	.LCFI1:
  84              		.cfi_def_cfa_offset 0
  85              		.cfi_restore 3
  86              		.cfi_restore 14
 103:Middlewares/ST/STM32_USB_Device_Library/Core/Src/usbd_core.c ****   }
ARM GAS  C:\Users\ADMINI~1\AppData\Local\Temp\ccpCjxJh.s 			page 5


  87              		.loc 1 103 12 view .LVU25
  88 002a 0320     		movs	r0, #3
  89              	.LVL5:
  90              		.loc 1 141 1 view .LVU26
  91 002c 7047     		bx	lr
  92              		.cfi_endproc
  93              	.LFE239:
  95              		.section	.text.USBD_DeInit,"ax",%progbits
  96              		.align	1
  97              		.global	USBD_DeInit
  98              		.syntax unified
  99              		.thumb
 100              		.thumb_func
 102              	USBD_DeInit:
 103              	.LVL6:
 104              	.LFB240:
 142:Middlewares/ST/STM32_USB_Device_Library/Core/Src/usbd_core.c **** 
 143:Middlewares/ST/STM32_USB_Device_Library/Core/Src/usbd_core.c **** /**
 144:Middlewares/ST/STM32_USB_Device_Library/Core/Src/usbd_core.c ****   * @brief  USBD_DeInit
 145:Middlewares/ST/STM32_USB_Device_Library/Core/Src/usbd_core.c ****   *         Re-Initialize the device library
 146:Middlewares/ST/STM32_USB_Device_Library/Core/Src/usbd_core.c ****   * @param  pdev: device instance
 147:Middlewares/ST/STM32_USB_Device_Library/Core/Src/usbd_core.c ****   * @retval status: status
 148:Middlewares/ST/STM32_USB_Device_Library/Core/Src/usbd_core.c ****   */
 149:Middlewares/ST/STM32_USB_Device_Library/Core/Src/usbd_core.c **** USBD_StatusTypeDef USBD_DeInit(USBD_HandleTypeDef *pdev)
 150:Middlewares/ST/STM32_USB_Device_Library/Core/Src/usbd_core.c **** {
 105              		.loc 1 150 1 is_stmt 1 view -0
 106              		.cfi_startproc
 107              		@ args = 0, pretend = 0, frame = 0
 108              		@ frame_needed = 0, uses_anonymous_args = 0
 109              		.loc 1 150 1 is_stmt 0 view .LVU28
 110 0000 10B5     		push	{r4, lr}
 111              	.LCFI2:
 112              		.cfi_def_cfa_offset 8
 113              		.cfi_offset 4, -8
 114              		.cfi_offset 14, -4
 115 0002 0446     		mov	r4, r0
 151:Middlewares/ST/STM32_USB_Device_Library/Core/Src/usbd_core.c ****   USBD_StatusTypeDef ret;
 116              		.loc 1 151 3 is_stmt 1 view .LVU29
 152:Middlewares/ST/STM32_USB_Device_Library/Core/Src/usbd_core.c **** 
 153:Middlewares/ST/STM32_USB_Device_Library/Core/Src/usbd_core.c ****   /* Disconnect the USB Device */
 154:Middlewares/ST/STM32_USB_Device_Library/Core/Src/usbd_core.c ****   (void)USBD_LL_Stop(pdev);
 117              		.loc 1 154 3 view .LVU30
 118              		.loc 1 154 9 is_stmt 0 view .LVU31
 119 0004 FFF7FEFF 		bl	USBD_LL_Stop
 120              	.LVL7:
 155:Middlewares/ST/STM32_USB_Device_Library/Core/Src/usbd_core.c **** 
 156:Middlewares/ST/STM32_USB_Device_Library/Core/Src/usbd_core.c ****   /* Set Default State */
 157:Middlewares/ST/STM32_USB_Device_Library/Core/Src/usbd_core.c ****   pdev->dev_state = USBD_STATE_DEFAULT;
 121              		.loc 1 157 3 is_stmt 1 view .LVU32
 122              		.loc 1 157 19 is_stmt 0 view .LVU33
 123 0008 0123     		movs	r3, #1
 124 000a 84F89C32 		strb	r3, [r4, #668]
 158:Middlewares/ST/STM32_USB_Device_Library/Core/Src/usbd_core.c **** 
 159:Middlewares/ST/STM32_USB_Device_Library/Core/Src/usbd_core.c **** #ifdef USE_USBD_COMPOSITE
 160:Middlewares/ST/STM32_USB_Device_Library/Core/Src/usbd_core.c ****   /* Parse the table of classes in use */
 161:Middlewares/ST/STM32_USB_Device_Library/Core/Src/usbd_core.c ****   for (uint32_t i = 0; i < USBD_MAX_SUPPORTED_CLASS; i++)
 162:Middlewares/ST/STM32_USB_Device_Library/Core/Src/usbd_core.c ****   {
ARM GAS  C:\Users\ADMINI~1\AppData\Local\Temp\ccpCjxJh.s 			page 6


 163:Middlewares/ST/STM32_USB_Device_Library/Core/Src/usbd_core.c ****     /* Check if current class is in use */
 164:Middlewares/ST/STM32_USB_Device_Library/Core/Src/usbd_core.c ****     if ((pdev->tclasslist[i].Active) == 1U)
 165:Middlewares/ST/STM32_USB_Device_Library/Core/Src/usbd_core.c ****     {
 166:Middlewares/ST/STM32_USB_Device_Library/Core/Src/usbd_core.c ****       if (pdev->pClass[i] != NULL)
 167:Middlewares/ST/STM32_USB_Device_Library/Core/Src/usbd_core.c ****       {
 168:Middlewares/ST/STM32_USB_Device_Library/Core/Src/usbd_core.c ****         pdev->classId = i;
 169:Middlewares/ST/STM32_USB_Device_Library/Core/Src/usbd_core.c ****         /* Free Class Resources */
 170:Middlewares/ST/STM32_USB_Device_Library/Core/Src/usbd_core.c ****         pdev->pClass[i]->DeInit(pdev, (uint8_t)pdev->dev_config);
 171:Middlewares/ST/STM32_USB_Device_Library/Core/Src/usbd_core.c ****       }
 172:Middlewares/ST/STM32_USB_Device_Library/Core/Src/usbd_core.c ****     }
 173:Middlewares/ST/STM32_USB_Device_Library/Core/Src/usbd_core.c ****   }
 174:Middlewares/ST/STM32_USB_Device_Library/Core/Src/usbd_core.c **** #else
 175:Middlewares/ST/STM32_USB_Device_Library/Core/Src/usbd_core.c ****   /* Free Class Resources */
 176:Middlewares/ST/STM32_USB_Device_Library/Core/Src/usbd_core.c ****   if (pdev->pClass[0] != NULL)
 125              		.loc 1 176 3 is_stmt 1 view .LVU34
 126              		.loc 1 176 19 is_stmt 0 view .LVU35
 127 000e D4F8B832 		ldr	r3, [r4, #696]
 128              		.loc 1 176 6 view .LVU36
 129 0012 1BB1     		cbz	r3, .L10
 177:Middlewares/ST/STM32_USB_Device_Library/Core/Src/usbd_core.c ****   {
 178:Middlewares/ST/STM32_USB_Device_Library/Core/Src/usbd_core.c ****     pdev->pClass[0]->DeInit(pdev, (uint8_t)pdev->dev_config);
 130              		.loc 1 178 5 is_stmt 1 view .LVU37
 131              		.loc 1 178 20 is_stmt 0 view .LVU38
 132 0014 5B68     		ldr	r3, [r3, #4]
 133              		.loc 1 178 5 view .LVU39
 134 0016 2179     		ldrb	r1, [r4, #4]	@ zero_extendqisi2
 135 0018 2046     		mov	r0, r4
 136 001a 9847     		blx	r3
 137              	.LVL8:
 138              	.L10:
 179:Middlewares/ST/STM32_USB_Device_Library/Core/Src/usbd_core.c ****   }
 180:Middlewares/ST/STM32_USB_Device_Library/Core/Src/usbd_core.c **** 
 181:Middlewares/ST/STM32_USB_Device_Library/Core/Src/usbd_core.c ****   pdev->pUserData[0] = NULL;
 139              		.loc 1 181 3 is_stmt 1 view .LVU40
 140              		.loc 1 181 22 is_stmt 0 view .LVU41
 141 001c 0023     		movs	r3, #0
 142 001e C4F8C432 		str	r3, [r4, #708]
 182:Middlewares/ST/STM32_USB_Device_Library/Core/Src/usbd_core.c **** 
 183:Middlewares/ST/STM32_USB_Device_Library/Core/Src/usbd_core.c **** #endif /* USE_USBD_COMPOSITE */
 184:Middlewares/ST/STM32_USB_Device_Library/Core/Src/usbd_core.c **** 
 185:Middlewares/ST/STM32_USB_Device_Library/Core/Src/usbd_core.c ****   /* Free Device descriptors resources */
 186:Middlewares/ST/STM32_USB_Device_Library/Core/Src/usbd_core.c ****   pdev->pDesc = NULL;
 143              		.loc 1 186 3 is_stmt 1 view .LVU42
 144              		.loc 1 186 15 is_stmt 0 view .LVU43
 145 0022 C4F8B432 		str	r3, [r4, #692]
 187:Middlewares/ST/STM32_USB_Device_Library/Core/Src/usbd_core.c ****   pdev->pConfDesc = NULL;
 146              		.loc 1 187 3 is_stmt 1 view .LVU44
 147              		.loc 1 187 19 is_stmt 0 view .LVU45
 148 0026 C4F8D032 		str	r3, [r4, #720]
 188:Middlewares/ST/STM32_USB_Device_Library/Core/Src/usbd_core.c **** 
 189:Middlewares/ST/STM32_USB_Device_Library/Core/Src/usbd_core.c ****   /* DeInitialize low level driver */
 190:Middlewares/ST/STM32_USB_Device_Library/Core/Src/usbd_core.c ****   ret = USBD_LL_DeInit(pdev);
 149              		.loc 1 190 3 is_stmt 1 view .LVU46
 150              		.loc 1 190 9 is_stmt 0 view .LVU47
 151 002a 2046     		mov	r0, r4
 152 002c FFF7FEFF 		bl	USBD_LL_DeInit
 153              	.LVL9:
ARM GAS  C:\Users\ADMINI~1\AppData\Local\Temp\ccpCjxJh.s 			page 7


 191:Middlewares/ST/STM32_USB_Device_Library/Core/Src/usbd_core.c **** 
 192:Middlewares/ST/STM32_USB_Device_Library/Core/Src/usbd_core.c ****   return ret;
 154              		.loc 1 192 3 is_stmt 1 view .LVU48
 193:Middlewares/ST/STM32_USB_Device_Library/Core/Src/usbd_core.c **** }
 155              		.loc 1 193 1 is_stmt 0 view .LVU49
 156 0030 10BD     		pop	{r4, pc}
 157              		.loc 1 193 1 view .LVU50
 158              		.cfi_endproc
 159              	.LFE240:
 161              		.section	.text.USBD_RegisterClass,"ax",%progbits
 162              		.align	1
 163              		.global	USBD_RegisterClass
 164              		.syntax unified
 165              		.thumb
 166              		.thumb_func
 168              	USBD_RegisterClass:
 169              	.LVL10:
 170              	.LFB241:
 194:Middlewares/ST/STM32_USB_Device_Library/Core/Src/usbd_core.c **** 
 195:Middlewares/ST/STM32_USB_Device_Library/Core/Src/usbd_core.c **** /**
 196:Middlewares/ST/STM32_USB_Device_Library/Core/Src/usbd_core.c ****   * @brief  USBD_RegisterClass
 197:Middlewares/ST/STM32_USB_Device_Library/Core/Src/usbd_core.c ****   *         Link class driver to Device Core.
 198:Middlewares/ST/STM32_USB_Device_Library/Core/Src/usbd_core.c ****   * @param  pDevice : Device Handle
 199:Middlewares/ST/STM32_USB_Device_Library/Core/Src/usbd_core.c ****   * @param  pclass: Class handle
 200:Middlewares/ST/STM32_USB_Device_Library/Core/Src/usbd_core.c ****   * @retval USBD Status
 201:Middlewares/ST/STM32_USB_Device_Library/Core/Src/usbd_core.c ****   */
 202:Middlewares/ST/STM32_USB_Device_Library/Core/Src/usbd_core.c **** USBD_StatusTypeDef USBD_RegisterClass(USBD_HandleTypeDef *pdev, USBD_ClassTypeDef *pclass)
 203:Middlewares/ST/STM32_USB_Device_Library/Core/Src/usbd_core.c **** {
 171              		.loc 1 203 1 is_stmt 1 view -0
 172              		.cfi_startproc
 173              		@ args = 0, pretend = 0, frame = 8
 174              		@ frame_needed = 0, uses_anonymous_args = 0
 175              		.loc 1 203 1 is_stmt 0 view .LVU52
 176 0000 10B5     		push	{r4, lr}
 177              	.LCFI3:
 178              		.cfi_def_cfa_offset 8
 179              		.cfi_offset 4, -8
 180              		.cfi_offset 14, -4
 181 0002 82B0     		sub	sp, sp, #8
 182              	.LCFI4:
 183              		.cfi_def_cfa_offset 16
 204:Middlewares/ST/STM32_USB_Device_Library/Core/Src/usbd_core.c ****   uint16_t len = 0U;
 184              		.loc 1 204 3 is_stmt 1 view .LVU53
 185              		.loc 1 204 12 is_stmt 0 view .LVU54
 186 0004 0023     		movs	r3, #0
 187 0006 ADF80630 		strh	r3, [sp, #6]	@ movhi
 205:Middlewares/ST/STM32_USB_Device_Library/Core/Src/usbd_core.c **** 
 206:Middlewares/ST/STM32_USB_Device_Library/Core/Src/usbd_core.c ****   if (pclass == NULL)
 188              		.loc 1 206 3 is_stmt 1 view .LVU55
 189              		.loc 1 206 6 is_stmt 0 view .LVU56
 190 000a B9B1     		cbz	r1, .L15
 191 000c 0446     		mov	r4, r0
 207:Middlewares/ST/STM32_USB_Device_Library/Core/Src/usbd_core.c ****   {
 208:Middlewares/ST/STM32_USB_Device_Library/Core/Src/usbd_core.c **** #if (USBD_DEBUG_LEVEL > 1U)
 209:Middlewares/ST/STM32_USB_Device_Library/Core/Src/usbd_core.c ****     USBD_ErrLog("Invalid Class handle");
 210:Middlewares/ST/STM32_USB_Device_Library/Core/Src/usbd_core.c **** #endif /* (USBD_DEBUG_LEVEL > 1U) */
 211:Middlewares/ST/STM32_USB_Device_Library/Core/Src/usbd_core.c ****     return USBD_FAIL;
ARM GAS  C:\Users\ADMINI~1\AppData\Local\Temp\ccpCjxJh.s 			page 8


 212:Middlewares/ST/STM32_USB_Device_Library/Core/Src/usbd_core.c ****   }
 213:Middlewares/ST/STM32_USB_Device_Library/Core/Src/usbd_core.c **** 
 214:Middlewares/ST/STM32_USB_Device_Library/Core/Src/usbd_core.c ****   /* link the class to the USB Device handle */
 215:Middlewares/ST/STM32_USB_Device_Library/Core/Src/usbd_core.c ****   pdev->pClass[0] = pclass;
 192              		.loc 1 215 3 is_stmt 1 view .LVU57
 193              		.loc 1 215 19 is_stmt 0 view .LVU58
 194 000e C0F8B812 		str	r1, [r0, #696]
 216:Middlewares/ST/STM32_USB_Device_Library/Core/Src/usbd_core.c **** 
 217:Middlewares/ST/STM32_USB_Device_Library/Core/Src/usbd_core.c ****   /* Get Device Configuration Descriptor */
 218:Middlewares/ST/STM32_USB_Device_Library/Core/Src/usbd_core.c **** #ifdef USE_USB_HS
 219:Middlewares/ST/STM32_USB_Device_Library/Core/Src/usbd_core.c ****   if (pdev->pClass[pdev->classId]->GetHSConfigDescriptor != NULL)
 220:Middlewares/ST/STM32_USB_Device_Library/Core/Src/usbd_core.c ****   {
 221:Middlewares/ST/STM32_USB_Device_Library/Core/Src/usbd_core.c ****     pdev->pConfDesc = (void *)pdev->pClass[pdev->classId]->GetHSConfigDescriptor(&len);
 222:Middlewares/ST/STM32_USB_Device_Library/Core/Src/usbd_core.c ****   }
 223:Middlewares/ST/STM32_USB_Device_Library/Core/Src/usbd_core.c **** #else /* Default USE_USB_FS */
 224:Middlewares/ST/STM32_USB_Device_Library/Core/Src/usbd_core.c ****   if (pdev->pClass[pdev->classId]->GetFSConfigDescriptor != NULL)
 195              		.loc 1 224 3 is_stmt 1 view .LVU59
 196              		.loc 1 224 24 is_stmt 0 view .LVU60
 197 0012 D0F8D422 		ldr	r2, [r0, #724]
 198              		.loc 1 224 34 view .LVU61
 199 0016 CB6A     		ldr	r3, [r1, #44]
 200              		.loc 1 224 6 view .LVU62
 201 0018 43B1     		cbz	r3, .L14
 225:Middlewares/ST/STM32_USB_Device_Library/Core/Src/usbd_core.c ****   {
 226:Middlewares/ST/STM32_USB_Device_Library/Core/Src/usbd_core.c ****     pdev->pConfDesc = (void *)pdev->pClass[pdev->classId]->GetFSConfigDescriptor(&len);
 202              		.loc 1 226 5 is_stmt 1 view .LVU63
 203              		.loc 1 226 43 is_stmt 0 view .LVU64
 204 001a AE32     		adds	r2, r2, #174
 205 001c 50F82230 		ldr	r3, [r0, r2, lsl #2]
 206              		.loc 1 226 58 view .LVU65
 207 0020 DB6A     		ldr	r3, [r3, #44]
 208              		.loc 1 226 31 view .LVU66
 209 0022 0DF10600 		add	r0, sp, #6
 210              	.LVL11:
 211              		.loc 1 226 31 view .LVU67
 212 0026 9847     		blx	r3
 213              	.LVL12:
 214              		.loc 1 226 21 discriminator 1 view .LVU68
 215 0028 C4F8D002 		str	r0, [r4, #720]
 216              	.L14:
 227:Middlewares/ST/STM32_USB_Device_Library/Core/Src/usbd_core.c ****   }
 228:Middlewares/ST/STM32_USB_Device_Library/Core/Src/usbd_core.c **** #endif /* USE_USB_FS */
 229:Middlewares/ST/STM32_USB_Device_Library/Core/Src/usbd_core.c **** 
 230:Middlewares/ST/STM32_USB_Device_Library/Core/Src/usbd_core.c ****   /* Increment the NumClasses */
 231:Middlewares/ST/STM32_USB_Device_Library/Core/Src/usbd_core.c ****   pdev->NumClasses ++;
 217              		.loc 1 231 3 is_stmt 1 view .LVU69
 218              		.loc 1 231 7 is_stmt 0 view .LVU70
 219 002c D4F8D832 		ldr	r3, [r4, #728]
 220              		.loc 1 231 20 view .LVU71
 221 0030 0133     		adds	r3, r3, #1
 222 0032 C4F8D832 		str	r3, [r4, #728]
 232:Middlewares/ST/STM32_USB_Device_Library/Core/Src/usbd_core.c **** 
 233:Middlewares/ST/STM32_USB_Device_Library/Core/Src/usbd_core.c ****   return USBD_OK;
 223              		.loc 1 233 3 is_stmt 1 view .LVU72
 224              		.loc 1 233 10 is_stmt 0 view .LVU73
 225 0036 0020     		movs	r0, #0
 226              	.LVL13:
ARM GAS  C:\Users\ADMINI~1\AppData\Local\Temp\ccpCjxJh.s 			page 9


 227              	.L13:
 234:Middlewares/ST/STM32_USB_Device_Library/Core/Src/usbd_core.c **** }
 228              		.loc 1 234 1 view .LVU74
 229 0038 02B0     		add	sp, sp, #8
 230              	.LCFI5:
 231              		.cfi_remember_state
 232              		.cfi_def_cfa_offset 8
 233              		@ sp needed
 234 003a 10BD     		pop	{r4, pc}
 235              	.LVL14:
 236              	.L15:
 237              	.LCFI6:
 238              		.cfi_restore_state
 211:Middlewares/ST/STM32_USB_Device_Library/Core/Src/usbd_core.c ****   }
 239              		.loc 1 211 12 view .LVU75
 240 003c 0320     		movs	r0, #3
 241              	.LVL15:
 211:Middlewares/ST/STM32_USB_Device_Library/Core/Src/usbd_core.c ****   }
 242              		.loc 1 211 12 view .LVU76
 243 003e FBE7     		b	.L13
 244              		.cfi_endproc
 245              	.LFE241:
 247              		.section	.text.USBD_Start,"ax",%progbits
 248              		.align	1
 249              		.global	USBD_Start
 250              		.syntax unified
 251              		.thumb
 252              		.thumb_func
 254              	USBD_Start:
 255              	.LVL16:
 256              	.LFB242:
 235:Middlewares/ST/STM32_USB_Device_Library/Core/Src/usbd_core.c **** 
 236:Middlewares/ST/STM32_USB_Device_Library/Core/Src/usbd_core.c **** #ifdef USE_USBD_COMPOSITE
 237:Middlewares/ST/STM32_USB_Device_Library/Core/Src/usbd_core.c **** /**
 238:Middlewares/ST/STM32_USB_Device_Library/Core/Src/usbd_core.c ****   * @brief  USBD_RegisterClassComposite
 239:Middlewares/ST/STM32_USB_Device_Library/Core/Src/usbd_core.c ****   *         Link class driver to Device Core.
 240:Middlewares/ST/STM32_USB_Device_Library/Core/Src/usbd_core.c ****   * @param  pdev : Device Handle
 241:Middlewares/ST/STM32_USB_Device_Library/Core/Src/usbd_core.c ****   * @param  pclass: Class handle
 242:Middlewares/ST/STM32_USB_Device_Library/Core/Src/usbd_core.c ****   * @param  classtype: Class type
 243:Middlewares/ST/STM32_USB_Device_Library/Core/Src/usbd_core.c ****   * @param  EpAddr: Endpoint Address handle
 244:Middlewares/ST/STM32_USB_Device_Library/Core/Src/usbd_core.c ****   * @retval USBD Status
 245:Middlewares/ST/STM32_USB_Device_Library/Core/Src/usbd_core.c ****   */
 246:Middlewares/ST/STM32_USB_Device_Library/Core/Src/usbd_core.c **** USBD_StatusTypeDef  USBD_RegisterClassComposite(USBD_HandleTypeDef *pdev, USBD_ClassTypeDef *pclass
 247:Middlewares/ST/STM32_USB_Device_Library/Core/Src/usbd_core.c ****                                                 USBD_CompositeClassTypeDef classtype, uint8_t *EpAd
 248:Middlewares/ST/STM32_USB_Device_Library/Core/Src/usbd_core.c **** {
 249:Middlewares/ST/STM32_USB_Device_Library/Core/Src/usbd_core.c ****   USBD_StatusTypeDef   ret = USBD_OK;
 250:Middlewares/ST/STM32_USB_Device_Library/Core/Src/usbd_core.c ****   uint16_t len = 0U;
 251:Middlewares/ST/STM32_USB_Device_Library/Core/Src/usbd_core.c **** 
 252:Middlewares/ST/STM32_USB_Device_Library/Core/Src/usbd_core.c ****   if ((pdev->classId < USBD_MAX_SUPPORTED_CLASS) && (pdev->NumClasses < USBD_MAX_SUPPORTED_CLASS))
 253:Middlewares/ST/STM32_USB_Device_Library/Core/Src/usbd_core.c ****   {
 254:Middlewares/ST/STM32_USB_Device_Library/Core/Src/usbd_core.c ****     if ((uint32_t)pclass != 0U)
 255:Middlewares/ST/STM32_USB_Device_Library/Core/Src/usbd_core.c ****     {
 256:Middlewares/ST/STM32_USB_Device_Library/Core/Src/usbd_core.c ****       /* Link the class to the USB Device handle */
 257:Middlewares/ST/STM32_USB_Device_Library/Core/Src/usbd_core.c ****       pdev->pClass[pdev->classId] = pclass;
 258:Middlewares/ST/STM32_USB_Device_Library/Core/Src/usbd_core.c ****       ret = USBD_OK;
 259:Middlewares/ST/STM32_USB_Device_Library/Core/Src/usbd_core.c **** 
 260:Middlewares/ST/STM32_USB_Device_Library/Core/Src/usbd_core.c ****       pdev->tclasslist[pdev->classId].EpAdd = EpAddr;
ARM GAS  C:\Users\ADMINI~1\AppData\Local\Temp\ccpCjxJh.s 			page 10


 261:Middlewares/ST/STM32_USB_Device_Library/Core/Src/usbd_core.c **** 
 262:Middlewares/ST/STM32_USB_Device_Library/Core/Src/usbd_core.c ****       /* Call the composite class builder */
 263:Middlewares/ST/STM32_USB_Device_Library/Core/Src/usbd_core.c ****       (void)USBD_CMPSIT_AddClass(pdev, pclass, classtype, 0);
 264:Middlewares/ST/STM32_USB_Device_Library/Core/Src/usbd_core.c **** 
 265:Middlewares/ST/STM32_USB_Device_Library/Core/Src/usbd_core.c ****       /* Increment the ClassId for the next occurrence */
 266:Middlewares/ST/STM32_USB_Device_Library/Core/Src/usbd_core.c ****       pdev->classId ++;
 267:Middlewares/ST/STM32_USB_Device_Library/Core/Src/usbd_core.c ****       pdev->NumClasses ++;
 268:Middlewares/ST/STM32_USB_Device_Library/Core/Src/usbd_core.c ****     }
 269:Middlewares/ST/STM32_USB_Device_Library/Core/Src/usbd_core.c ****     else
 270:Middlewares/ST/STM32_USB_Device_Library/Core/Src/usbd_core.c ****     {
 271:Middlewares/ST/STM32_USB_Device_Library/Core/Src/usbd_core.c **** #if (USBD_DEBUG_LEVEL > 1U)
 272:Middlewares/ST/STM32_USB_Device_Library/Core/Src/usbd_core.c ****       USBD_ErrLog("Invalid Class handle");
 273:Middlewares/ST/STM32_USB_Device_Library/Core/Src/usbd_core.c **** #endif /* (USBD_DEBUG_LEVEL > 1U) */
 274:Middlewares/ST/STM32_USB_Device_Library/Core/Src/usbd_core.c ****       ret = USBD_FAIL;
 275:Middlewares/ST/STM32_USB_Device_Library/Core/Src/usbd_core.c ****     }
 276:Middlewares/ST/STM32_USB_Device_Library/Core/Src/usbd_core.c ****   }
 277:Middlewares/ST/STM32_USB_Device_Library/Core/Src/usbd_core.c **** 
 278:Middlewares/ST/STM32_USB_Device_Library/Core/Src/usbd_core.c ****   if (ret == USBD_OK)
 279:Middlewares/ST/STM32_USB_Device_Library/Core/Src/usbd_core.c ****   {
 280:Middlewares/ST/STM32_USB_Device_Library/Core/Src/usbd_core.c ****     /* Get Device Configuration Descriptor */
 281:Middlewares/ST/STM32_USB_Device_Library/Core/Src/usbd_core.c **** #ifdef USE_USB_HS
 282:Middlewares/ST/STM32_USB_Device_Library/Core/Src/usbd_core.c ****     pdev->pConfDesc = USBD_CMPSIT.GetHSConfigDescriptor(&len);
 283:Middlewares/ST/STM32_USB_Device_Library/Core/Src/usbd_core.c **** #else /* Default USE_USB_FS */
 284:Middlewares/ST/STM32_USB_Device_Library/Core/Src/usbd_core.c ****     pdev->pConfDesc = USBD_CMPSIT.GetFSConfigDescriptor(&len);
 285:Middlewares/ST/STM32_USB_Device_Library/Core/Src/usbd_core.c **** #endif /* USE_USB_FS */
 286:Middlewares/ST/STM32_USB_Device_Library/Core/Src/usbd_core.c ****   }
 287:Middlewares/ST/STM32_USB_Device_Library/Core/Src/usbd_core.c **** 
 288:Middlewares/ST/STM32_USB_Device_Library/Core/Src/usbd_core.c ****   return ret;
 289:Middlewares/ST/STM32_USB_Device_Library/Core/Src/usbd_core.c **** }
 290:Middlewares/ST/STM32_USB_Device_Library/Core/Src/usbd_core.c **** 
 291:Middlewares/ST/STM32_USB_Device_Library/Core/Src/usbd_core.c **** /**
 292:Middlewares/ST/STM32_USB_Device_Library/Core/Src/usbd_core.c ****   * @brief  USBD_UnRegisterClassComposite
 293:Middlewares/ST/STM32_USB_Device_Library/Core/Src/usbd_core.c ****   *         UnLink all composite class drivers from Device Core.
 294:Middlewares/ST/STM32_USB_Device_Library/Core/Src/usbd_core.c ****   * @param  pDevice : Device Handle
 295:Middlewares/ST/STM32_USB_Device_Library/Core/Src/usbd_core.c ****   * @retval USBD Status
 296:Middlewares/ST/STM32_USB_Device_Library/Core/Src/usbd_core.c ****   */
 297:Middlewares/ST/STM32_USB_Device_Library/Core/Src/usbd_core.c **** USBD_StatusTypeDef  USBD_UnRegisterClassComposite(USBD_HandleTypeDef *pdev)
 298:Middlewares/ST/STM32_USB_Device_Library/Core/Src/usbd_core.c **** {
 299:Middlewares/ST/STM32_USB_Device_Library/Core/Src/usbd_core.c ****   USBD_StatusTypeDef   ret = USBD_FAIL;
 300:Middlewares/ST/STM32_USB_Device_Library/Core/Src/usbd_core.c ****   uint8_t idx1;
 301:Middlewares/ST/STM32_USB_Device_Library/Core/Src/usbd_core.c ****   uint8_t idx2;
 302:Middlewares/ST/STM32_USB_Device_Library/Core/Src/usbd_core.c **** 
 303:Middlewares/ST/STM32_USB_Device_Library/Core/Src/usbd_core.c ****   /* Unroll all activated classes */
 304:Middlewares/ST/STM32_USB_Device_Library/Core/Src/usbd_core.c ****   for (idx1 = 0; idx1 < pdev->NumClasses; idx1++)
 305:Middlewares/ST/STM32_USB_Device_Library/Core/Src/usbd_core.c ****   {
 306:Middlewares/ST/STM32_USB_Device_Library/Core/Src/usbd_core.c ****     /* Check if the class correspond to the requested type and if it is active */
 307:Middlewares/ST/STM32_USB_Device_Library/Core/Src/usbd_core.c ****     if (pdev->tclasslist[idx1].Active == 1U)
 308:Middlewares/ST/STM32_USB_Device_Library/Core/Src/usbd_core.c ****     {
 309:Middlewares/ST/STM32_USB_Device_Library/Core/Src/usbd_core.c ****       /* Set the new class ID */
 310:Middlewares/ST/STM32_USB_Device_Library/Core/Src/usbd_core.c ****       pdev->classId = idx1;
 311:Middlewares/ST/STM32_USB_Device_Library/Core/Src/usbd_core.c **** 
 312:Middlewares/ST/STM32_USB_Device_Library/Core/Src/usbd_core.c ****       /* Free resources used by the selected class */
 313:Middlewares/ST/STM32_USB_Device_Library/Core/Src/usbd_core.c ****       if (pdev->pClass[pdev->classId] != NULL)
 314:Middlewares/ST/STM32_USB_Device_Library/Core/Src/usbd_core.c ****       {
 315:Middlewares/ST/STM32_USB_Device_Library/Core/Src/usbd_core.c ****         /* Free Class Resources */
 316:Middlewares/ST/STM32_USB_Device_Library/Core/Src/usbd_core.c ****         if (pdev->pClass[pdev->classId]->DeInit(pdev, (uint8_t)pdev->dev_config) != 0U)
 317:Middlewares/ST/STM32_USB_Device_Library/Core/Src/usbd_core.c ****         {
ARM GAS  C:\Users\ADMINI~1\AppData\Local\Temp\ccpCjxJh.s 			page 11


 318:Middlewares/ST/STM32_USB_Device_Library/Core/Src/usbd_core.c **** #if (USBD_DEBUG_LEVEL > 1U)
 319:Middlewares/ST/STM32_USB_Device_Library/Core/Src/usbd_core.c ****           USBD_ErrLog("Class DeInit didn't succeed!, can't unregister selected class");
 320:Middlewares/ST/STM32_USB_Device_Library/Core/Src/usbd_core.c **** #endif /* (USBD_DEBUG_LEVEL > 1U) */
 321:Middlewares/ST/STM32_USB_Device_Library/Core/Src/usbd_core.c **** 
 322:Middlewares/ST/STM32_USB_Device_Library/Core/Src/usbd_core.c ****           ret = USBD_FAIL;
 323:Middlewares/ST/STM32_USB_Device_Library/Core/Src/usbd_core.c ****         }
 324:Middlewares/ST/STM32_USB_Device_Library/Core/Src/usbd_core.c ****       }
 325:Middlewares/ST/STM32_USB_Device_Library/Core/Src/usbd_core.c **** 
 326:Middlewares/ST/STM32_USB_Device_Library/Core/Src/usbd_core.c ****       /* Free the class pointer */
 327:Middlewares/ST/STM32_USB_Device_Library/Core/Src/usbd_core.c ****       pdev->pClass[pdev->classId] = NULL;
 328:Middlewares/ST/STM32_USB_Device_Library/Core/Src/usbd_core.c **** 
 329:Middlewares/ST/STM32_USB_Device_Library/Core/Src/usbd_core.c ****       /* Free the class location in classes table and reset its parameters to zero */
 330:Middlewares/ST/STM32_USB_Device_Library/Core/Src/usbd_core.c ****       pdev->tclasslist[pdev->classId].ClassType = CLASS_TYPE_NONE;
 331:Middlewares/ST/STM32_USB_Device_Library/Core/Src/usbd_core.c ****       pdev->tclasslist[pdev->classId].ClassId = 0U;
 332:Middlewares/ST/STM32_USB_Device_Library/Core/Src/usbd_core.c ****       pdev->tclasslist[pdev->classId].Active = 0U;
 333:Middlewares/ST/STM32_USB_Device_Library/Core/Src/usbd_core.c ****       pdev->tclasslist[pdev->classId].NumEps = 0U;
 334:Middlewares/ST/STM32_USB_Device_Library/Core/Src/usbd_core.c ****       pdev->tclasslist[pdev->classId].NumIf = 0U;
 335:Middlewares/ST/STM32_USB_Device_Library/Core/Src/usbd_core.c ****       pdev->tclasslist[pdev->classId].CurrPcktSze = 0U;
 336:Middlewares/ST/STM32_USB_Device_Library/Core/Src/usbd_core.c **** 
 337:Middlewares/ST/STM32_USB_Device_Library/Core/Src/usbd_core.c ****       for (idx2 = 0U; idx2 < USBD_MAX_CLASS_ENDPOINTS; idx2++)
 338:Middlewares/ST/STM32_USB_Device_Library/Core/Src/usbd_core.c ****       {
 339:Middlewares/ST/STM32_USB_Device_Library/Core/Src/usbd_core.c ****         pdev->tclasslist[pdev->classId].Eps[idx2].add = 0U;
 340:Middlewares/ST/STM32_USB_Device_Library/Core/Src/usbd_core.c ****         pdev->tclasslist[pdev->classId].Eps[idx2].type = 0U;
 341:Middlewares/ST/STM32_USB_Device_Library/Core/Src/usbd_core.c ****         pdev->tclasslist[pdev->classId].Eps[idx2].size = 0U;
 342:Middlewares/ST/STM32_USB_Device_Library/Core/Src/usbd_core.c ****         pdev->tclasslist[pdev->classId].Eps[idx2].is_used = 0U;
 343:Middlewares/ST/STM32_USB_Device_Library/Core/Src/usbd_core.c ****       }
 344:Middlewares/ST/STM32_USB_Device_Library/Core/Src/usbd_core.c **** 
 345:Middlewares/ST/STM32_USB_Device_Library/Core/Src/usbd_core.c ****       for (idx2 = 0U; idx2 < USBD_MAX_CLASS_INTERFACES; idx2++)
 346:Middlewares/ST/STM32_USB_Device_Library/Core/Src/usbd_core.c ****       {
 347:Middlewares/ST/STM32_USB_Device_Library/Core/Src/usbd_core.c ****         pdev->tclasslist[pdev->classId].Ifs[idx2] = 0U;
 348:Middlewares/ST/STM32_USB_Device_Library/Core/Src/usbd_core.c ****       }
 349:Middlewares/ST/STM32_USB_Device_Library/Core/Src/usbd_core.c ****     }
 350:Middlewares/ST/STM32_USB_Device_Library/Core/Src/usbd_core.c ****   }
 351:Middlewares/ST/STM32_USB_Device_Library/Core/Src/usbd_core.c **** 
 352:Middlewares/ST/STM32_USB_Device_Library/Core/Src/usbd_core.c ****   /* Reset the configuration descriptor */
 353:Middlewares/ST/STM32_USB_Device_Library/Core/Src/usbd_core.c ****   (void)USBD_CMPST_ClearConfDesc(pdev);
 354:Middlewares/ST/STM32_USB_Device_Library/Core/Src/usbd_core.c **** 
 355:Middlewares/ST/STM32_USB_Device_Library/Core/Src/usbd_core.c ****   /* Reset the class ID and number of classes */
 356:Middlewares/ST/STM32_USB_Device_Library/Core/Src/usbd_core.c ****   pdev->classId = 0U;
 357:Middlewares/ST/STM32_USB_Device_Library/Core/Src/usbd_core.c ****   pdev->NumClasses = 0U;
 358:Middlewares/ST/STM32_USB_Device_Library/Core/Src/usbd_core.c **** 
 359:Middlewares/ST/STM32_USB_Device_Library/Core/Src/usbd_core.c ****   return ret;
 360:Middlewares/ST/STM32_USB_Device_Library/Core/Src/usbd_core.c **** }
 361:Middlewares/ST/STM32_USB_Device_Library/Core/Src/usbd_core.c **** 
 362:Middlewares/ST/STM32_USB_Device_Library/Core/Src/usbd_core.c **** 
 363:Middlewares/ST/STM32_USB_Device_Library/Core/Src/usbd_core.c **** #endif /* USE_USBD_COMPOSITE */
 364:Middlewares/ST/STM32_USB_Device_Library/Core/Src/usbd_core.c **** 
 365:Middlewares/ST/STM32_USB_Device_Library/Core/Src/usbd_core.c **** /**
 366:Middlewares/ST/STM32_USB_Device_Library/Core/Src/usbd_core.c ****   * @brief  USBD_Start
 367:Middlewares/ST/STM32_USB_Device_Library/Core/Src/usbd_core.c ****   *         Start the USB Device Core.
 368:Middlewares/ST/STM32_USB_Device_Library/Core/Src/usbd_core.c ****   * @param  pdev: Device Handle
 369:Middlewares/ST/STM32_USB_Device_Library/Core/Src/usbd_core.c ****   * @retval USBD Status
 370:Middlewares/ST/STM32_USB_Device_Library/Core/Src/usbd_core.c ****   */
 371:Middlewares/ST/STM32_USB_Device_Library/Core/Src/usbd_core.c **** USBD_StatusTypeDef USBD_Start(USBD_HandleTypeDef *pdev)
 372:Middlewares/ST/STM32_USB_Device_Library/Core/Src/usbd_core.c **** {
 257              		.loc 1 372 1 is_stmt 1 view -0
 258              		.cfi_startproc
ARM GAS  C:\Users\ADMINI~1\AppData\Local\Temp\ccpCjxJh.s 			page 12


 259              		@ args = 0, pretend = 0, frame = 0
 260              		@ frame_needed = 0, uses_anonymous_args = 0
 261              		.loc 1 372 1 is_stmt 0 view .LVU78
 262 0000 08B5     		push	{r3, lr}
 263              	.LCFI7:
 264              		.cfi_def_cfa_offset 8
 265              		.cfi_offset 3, -8
 266              		.cfi_offset 14, -4
 373:Middlewares/ST/STM32_USB_Device_Library/Core/Src/usbd_core.c **** #ifdef USE_USBD_COMPOSITE
 374:Middlewares/ST/STM32_USB_Device_Library/Core/Src/usbd_core.c ****   pdev->classId = 0U;
 375:Middlewares/ST/STM32_USB_Device_Library/Core/Src/usbd_core.c **** #endif /* USE_USBD_COMPOSITE */
 376:Middlewares/ST/STM32_USB_Device_Library/Core/Src/usbd_core.c **** 
 377:Middlewares/ST/STM32_USB_Device_Library/Core/Src/usbd_core.c ****   /* Start the low level driver  */
 378:Middlewares/ST/STM32_USB_Device_Library/Core/Src/usbd_core.c ****   return USBD_LL_Start(pdev);
 267              		.loc 1 378 3 is_stmt 1 view .LVU79
 268              		.loc 1 378 10 is_stmt 0 view .LVU80
 269 0002 FFF7FEFF 		bl	USBD_LL_Start
 270              	.LVL17:
 379:Middlewares/ST/STM32_USB_Device_Library/Core/Src/usbd_core.c **** }
 271              		.loc 1 379 1 view .LVU81
 272 0006 08BD     		pop	{r3, pc}
 273              		.cfi_endproc
 274              	.LFE242:
 276              		.section	.text.USBD_Stop,"ax",%progbits
 277              		.align	1
 278              		.global	USBD_Stop
 279              		.syntax unified
 280              		.thumb
 281              		.thumb_func
 283              	USBD_Stop:
 284              	.LVL18:
 285              	.LFB243:
 380:Middlewares/ST/STM32_USB_Device_Library/Core/Src/usbd_core.c **** 
 381:Middlewares/ST/STM32_USB_Device_Library/Core/Src/usbd_core.c **** /**
 382:Middlewares/ST/STM32_USB_Device_Library/Core/Src/usbd_core.c ****   * @brief  USBD_Stop
 383:Middlewares/ST/STM32_USB_Device_Library/Core/Src/usbd_core.c ****   *         Stop the USB Device Core.
 384:Middlewares/ST/STM32_USB_Device_Library/Core/Src/usbd_core.c ****   * @param  pdev: Device Handle
 385:Middlewares/ST/STM32_USB_Device_Library/Core/Src/usbd_core.c ****   * @retval USBD Status
 386:Middlewares/ST/STM32_USB_Device_Library/Core/Src/usbd_core.c ****   */
 387:Middlewares/ST/STM32_USB_Device_Library/Core/Src/usbd_core.c **** USBD_StatusTypeDef USBD_Stop(USBD_HandleTypeDef *pdev)
 388:Middlewares/ST/STM32_USB_Device_Library/Core/Src/usbd_core.c **** {
 286              		.loc 1 388 1 is_stmt 1 view -0
 287              		.cfi_startproc
 288              		@ args = 0, pretend = 0, frame = 0
 289              		@ frame_needed = 0, uses_anonymous_args = 0
 290              		.loc 1 388 1 is_stmt 0 view .LVU83
 291 0000 10B5     		push	{r4, lr}
 292              	.LCFI8:
 293              		.cfi_def_cfa_offset 8
 294              		.cfi_offset 4, -8
 295              		.cfi_offset 14, -4
 296 0002 0446     		mov	r4, r0
 389:Middlewares/ST/STM32_USB_Device_Library/Core/Src/usbd_core.c ****   /* Disconnect USB Device */
 390:Middlewares/ST/STM32_USB_Device_Library/Core/Src/usbd_core.c ****   (void)USBD_LL_Stop(pdev);
 297              		.loc 1 390 3 is_stmt 1 view .LVU84
 298              		.loc 1 390 9 is_stmt 0 view .LVU85
 299 0004 FFF7FEFF 		bl	USBD_LL_Stop
ARM GAS  C:\Users\ADMINI~1\AppData\Local\Temp\ccpCjxJh.s 			page 13


 300              	.LVL19:
 391:Middlewares/ST/STM32_USB_Device_Library/Core/Src/usbd_core.c **** 
 392:Middlewares/ST/STM32_USB_Device_Library/Core/Src/usbd_core.c ****   /* Free Class Resources */
 393:Middlewares/ST/STM32_USB_Device_Library/Core/Src/usbd_core.c **** #ifdef USE_USBD_COMPOSITE
 394:Middlewares/ST/STM32_USB_Device_Library/Core/Src/usbd_core.c ****   /* Parse the table of classes in use */
 395:Middlewares/ST/STM32_USB_Device_Library/Core/Src/usbd_core.c ****   for (uint32_t i = 0U; i < USBD_MAX_SUPPORTED_CLASS; i++)
 396:Middlewares/ST/STM32_USB_Device_Library/Core/Src/usbd_core.c ****   {
 397:Middlewares/ST/STM32_USB_Device_Library/Core/Src/usbd_core.c ****     /* Check if current class is in use */
 398:Middlewares/ST/STM32_USB_Device_Library/Core/Src/usbd_core.c ****     if ((pdev->tclasslist[i].Active) == 1U)
 399:Middlewares/ST/STM32_USB_Device_Library/Core/Src/usbd_core.c ****     {
 400:Middlewares/ST/STM32_USB_Device_Library/Core/Src/usbd_core.c ****       if (pdev->pClass[i] != NULL)
 401:Middlewares/ST/STM32_USB_Device_Library/Core/Src/usbd_core.c ****       {
 402:Middlewares/ST/STM32_USB_Device_Library/Core/Src/usbd_core.c ****         pdev->classId = i;
 403:Middlewares/ST/STM32_USB_Device_Library/Core/Src/usbd_core.c ****         /* Free Class Resources */
 404:Middlewares/ST/STM32_USB_Device_Library/Core/Src/usbd_core.c ****         (void)pdev->pClass[i]->DeInit(pdev, (uint8_t)pdev->dev_config);
 405:Middlewares/ST/STM32_USB_Device_Library/Core/Src/usbd_core.c ****       }
 406:Middlewares/ST/STM32_USB_Device_Library/Core/Src/usbd_core.c ****     }
 407:Middlewares/ST/STM32_USB_Device_Library/Core/Src/usbd_core.c ****   }
 408:Middlewares/ST/STM32_USB_Device_Library/Core/Src/usbd_core.c **** 
 409:Middlewares/ST/STM32_USB_Device_Library/Core/Src/usbd_core.c ****   /* Reset the class ID */
 410:Middlewares/ST/STM32_USB_Device_Library/Core/Src/usbd_core.c ****   pdev->classId = 0U;
 411:Middlewares/ST/STM32_USB_Device_Library/Core/Src/usbd_core.c **** #else
 412:Middlewares/ST/STM32_USB_Device_Library/Core/Src/usbd_core.c ****   if (pdev->pClass[0] != NULL)
 301              		.loc 1 412 3 is_stmt 1 view .LVU86
 302              		.loc 1 412 19 is_stmt 0 view .LVU87
 303 0008 D4F8B832 		ldr	r3, [r4, #696]
 304              		.loc 1 412 6 view .LVU88
 305 000c 1BB1     		cbz	r3, .L20
 413:Middlewares/ST/STM32_USB_Device_Library/Core/Src/usbd_core.c ****   {
 414:Middlewares/ST/STM32_USB_Device_Library/Core/Src/usbd_core.c ****     (void)pdev->pClass[0]->DeInit(pdev, (uint8_t)pdev->dev_config);
 306              		.loc 1 414 5 is_stmt 1 view .LVU89
 307              		.loc 1 414 26 is_stmt 0 view .LVU90
 308 000e 5B68     		ldr	r3, [r3, #4]
 309              		.loc 1 414 11 view .LVU91
 310 0010 2179     		ldrb	r1, [r4, #4]	@ zero_extendqisi2
 311 0012 2046     		mov	r0, r4
 312 0014 9847     		blx	r3
 313              	.LVL20:
 314              	.L20:
 415:Middlewares/ST/STM32_USB_Device_Library/Core/Src/usbd_core.c ****   }
 416:Middlewares/ST/STM32_USB_Device_Library/Core/Src/usbd_core.c **** #endif /* USE_USBD_COMPOSITE */
 417:Middlewares/ST/STM32_USB_Device_Library/Core/Src/usbd_core.c **** 
 418:Middlewares/ST/STM32_USB_Device_Library/Core/Src/usbd_core.c ****   return USBD_OK;
 315              		.loc 1 418 3 is_stmt 1 view .LVU92
 419:Middlewares/ST/STM32_USB_Device_Library/Core/Src/usbd_core.c **** }
 316              		.loc 1 419 1 is_stmt 0 view .LVU93
 317 0016 0020     		movs	r0, #0
 318 0018 10BD     		pop	{r4, pc}
 319              		.loc 1 419 1 view .LVU94
 320              		.cfi_endproc
 321              	.LFE243:
 323              		.section	.text.USBD_RunTestMode,"ax",%progbits
 324              		.align	1
 325              		.global	USBD_RunTestMode
 326              		.syntax unified
 327              		.thumb
 328              		.thumb_func
ARM GAS  C:\Users\ADMINI~1\AppData\Local\Temp\ccpCjxJh.s 			page 14


 330              	USBD_RunTestMode:
 331              	.LVL21:
 332              	.LFB244:
 420:Middlewares/ST/STM32_USB_Device_Library/Core/Src/usbd_core.c **** 
 421:Middlewares/ST/STM32_USB_Device_Library/Core/Src/usbd_core.c **** /**
 422:Middlewares/ST/STM32_USB_Device_Library/Core/Src/usbd_core.c ****   * @brief  USBD_RunTestMode
 423:Middlewares/ST/STM32_USB_Device_Library/Core/Src/usbd_core.c ****   *         Launch test mode process
 424:Middlewares/ST/STM32_USB_Device_Library/Core/Src/usbd_core.c ****   * @param  pdev: device instance
 425:Middlewares/ST/STM32_USB_Device_Library/Core/Src/usbd_core.c ****   * @retval status
 426:Middlewares/ST/STM32_USB_Device_Library/Core/Src/usbd_core.c ****   */
 427:Middlewares/ST/STM32_USB_Device_Library/Core/Src/usbd_core.c **** USBD_StatusTypeDef USBD_RunTestMode(USBD_HandleTypeDef *pdev)
 428:Middlewares/ST/STM32_USB_Device_Library/Core/Src/usbd_core.c **** {
 333              		.loc 1 428 1 is_stmt 1 view -0
 334              		.cfi_startproc
 335              		@ args = 0, pretend = 0, frame = 0
 336              		@ frame_needed = 0, uses_anonymous_args = 0
 337              		@ link register save eliminated.
 429:Middlewares/ST/STM32_USB_Device_Library/Core/Src/usbd_core.c **** #ifdef USBD_HS_TESTMODE_ENABLE
 430:Middlewares/ST/STM32_USB_Device_Library/Core/Src/usbd_core.c ****   USBD_StatusTypeDef ret;
 431:Middlewares/ST/STM32_USB_Device_Library/Core/Src/usbd_core.c **** 
 432:Middlewares/ST/STM32_USB_Device_Library/Core/Src/usbd_core.c ****   /* Run USB HS test mode */
 433:Middlewares/ST/STM32_USB_Device_Library/Core/Src/usbd_core.c ****   ret = USBD_LL_SetTestMode(pdev, pdev->dev_test_mode);
 434:Middlewares/ST/STM32_USB_Device_Library/Core/Src/usbd_core.c **** 
 435:Middlewares/ST/STM32_USB_Device_Library/Core/Src/usbd_core.c ****   return ret;
 436:Middlewares/ST/STM32_USB_Device_Library/Core/Src/usbd_core.c **** #else
 437:Middlewares/ST/STM32_USB_Device_Library/Core/Src/usbd_core.c ****   /* Prevent unused argument compilation warning */
 438:Middlewares/ST/STM32_USB_Device_Library/Core/Src/usbd_core.c ****   UNUSED(pdev);
 338              		.loc 1 438 3 view .LVU96
 439:Middlewares/ST/STM32_USB_Device_Library/Core/Src/usbd_core.c **** 
 440:Middlewares/ST/STM32_USB_Device_Library/Core/Src/usbd_core.c ****   return USBD_OK;
 339              		.loc 1 440 3 view .LVU97
 441:Middlewares/ST/STM32_USB_Device_Library/Core/Src/usbd_core.c **** #endif /* USBD_HS_TESTMODE_ENABLE */
 442:Middlewares/ST/STM32_USB_Device_Library/Core/Src/usbd_core.c **** }
 340              		.loc 1 442 1 is_stmt 0 view .LVU98
 341 0000 0020     		movs	r0, #0
 342              	.LVL22:
 343              		.loc 1 442 1 view .LVU99
 344 0002 7047     		bx	lr
 345              		.cfi_endproc
 346              	.LFE244:
 348              		.section	.text.USBD_SetClassConfig,"ax",%progbits
 349              		.align	1
 350              		.global	USBD_SetClassConfig
 351              		.syntax unified
 352              		.thumb
 353              		.thumb_func
 355              	USBD_SetClassConfig:
 356              	.LVL23:
 357              	.LFB245:
 443:Middlewares/ST/STM32_USB_Device_Library/Core/Src/usbd_core.c **** 
 444:Middlewares/ST/STM32_USB_Device_Library/Core/Src/usbd_core.c **** /**
 445:Middlewares/ST/STM32_USB_Device_Library/Core/Src/usbd_core.c ****   * @brief  USBD_SetClassConfig
 446:Middlewares/ST/STM32_USB_Device_Library/Core/Src/usbd_core.c ****   *        Configure device and start the interface
 447:Middlewares/ST/STM32_USB_Device_Library/Core/Src/usbd_core.c ****   * @param  pdev: device instance
 448:Middlewares/ST/STM32_USB_Device_Library/Core/Src/usbd_core.c ****   * @param  cfgidx: configuration index
 449:Middlewares/ST/STM32_USB_Device_Library/Core/Src/usbd_core.c ****   * @retval status
 450:Middlewares/ST/STM32_USB_Device_Library/Core/Src/usbd_core.c ****   */
ARM GAS  C:\Users\ADMINI~1\AppData\Local\Temp\ccpCjxJh.s 			page 15


 451:Middlewares/ST/STM32_USB_Device_Library/Core/Src/usbd_core.c **** 
 452:Middlewares/ST/STM32_USB_Device_Library/Core/Src/usbd_core.c **** USBD_StatusTypeDef USBD_SetClassConfig(USBD_HandleTypeDef *pdev, uint8_t cfgidx)
 453:Middlewares/ST/STM32_USB_Device_Library/Core/Src/usbd_core.c **** {
 358              		.loc 1 453 1 is_stmt 1 view -0
 359              		.cfi_startproc
 360              		@ args = 0, pretend = 0, frame = 0
 361              		@ frame_needed = 0, uses_anonymous_args = 0
 362              		.loc 1 453 1 is_stmt 0 view .LVU101
 363 0000 08B5     		push	{r3, lr}
 364              	.LCFI9:
 365              		.cfi_def_cfa_offset 8
 366              		.cfi_offset 3, -8
 367              		.cfi_offset 14, -4
 454:Middlewares/ST/STM32_USB_Device_Library/Core/Src/usbd_core.c ****   USBD_StatusTypeDef ret = USBD_OK;
 368              		.loc 1 454 3 is_stmt 1 view .LVU102
 369              	.LVL24:
 455:Middlewares/ST/STM32_USB_Device_Library/Core/Src/usbd_core.c **** 
 456:Middlewares/ST/STM32_USB_Device_Library/Core/Src/usbd_core.c **** #ifdef USE_USBD_COMPOSITE
 457:Middlewares/ST/STM32_USB_Device_Library/Core/Src/usbd_core.c ****   /* Parse the table of classes in use */
 458:Middlewares/ST/STM32_USB_Device_Library/Core/Src/usbd_core.c ****   for (uint32_t i = 0U; i < USBD_MAX_SUPPORTED_CLASS; i++)
 459:Middlewares/ST/STM32_USB_Device_Library/Core/Src/usbd_core.c ****   {
 460:Middlewares/ST/STM32_USB_Device_Library/Core/Src/usbd_core.c ****     /* Check if current class is in use */
 461:Middlewares/ST/STM32_USB_Device_Library/Core/Src/usbd_core.c ****     if ((pdev->tclasslist[i].Active) == 1U)
 462:Middlewares/ST/STM32_USB_Device_Library/Core/Src/usbd_core.c ****     {
 463:Middlewares/ST/STM32_USB_Device_Library/Core/Src/usbd_core.c ****       if (pdev->pClass[i] != NULL)
 464:Middlewares/ST/STM32_USB_Device_Library/Core/Src/usbd_core.c ****       {
 465:Middlewares/ST/STM32_USB_Device_Library/Core/Src/usbd_core.c ****         pdev->classId = i;
 466:Middlewares/ST/STM32_USB_Device_Library/Core/Src/usbd_core.c ****         /* Set configuration  and Start the Class*/
 467:Middlewares/ST/STM32_USB_Device_Library/Core/Src/usbd_core.c ****         if (pdev->pClass[i]->Init(pdev, cfgidx) != 0U)
 468:Middlewares/ST/STM32_USB_Device_Library/Core/Src/usbd_core.c ****         {
 469:Middlewares/ST/STM32_USB_Device_Library/Core/Src/usbd_core.c ****           ret = USBD_FAIL;
 470:Middlewares/ST/STM32_USB_Device_Library/Core/Src/usbd_core.c ****         }
 471:Middlewares/ST/STM32_USB_Device_Library/Core/Src/usbd_core.c ****       }
 472:Middlewares/ST/STM32_USB_Device_Library/Core/Src/usbd_core.c ****     }
 473:Middlewares/ST/STM32_USB_Device_Library/Core/Src/usbd_core.c ****   }
 474:Middlewares/ST/STM32_USB_Device_Library/Core/Src/usbd_core.c **** #else
 475:Middlewares/ST/STM32_USB_Device_Library/Core/Src/usbd_core.c ****   if (pdev->pClass[0] != NULL)
 370              		.loc 1 475 3 view .LVU103
 371              		.loc 1 475 19 is_stmt 0 view .LVU104
 372 0002 D0F8B832 		ldr	r3, [r0, #696]
 373              		.loc 1 475 6 view .LVU105
 374 0006 13B1     		cbz	r3, .L25
 476:Middlewares/ST/STM32_USB_Device_Library/Core/Src/usbd_core.c ****   {
 477:Middlewares/ST/STM32_USB_Device_Library/Core/Src/usbd_core.c ****     /* Set configuration and Start the Class */
 478:Middlewares/ST/STM32_USB_Device_Library/Core/Src/usbd_core.c ****     ret = (USBD_StatusTypeDef)pdev->pClass[0]->Init(pdev, cfgidx);
 375              		.loc 1 478 5 is_stmt 1 view .LVU106
 376              		.loc 1 478 46 is_stmt 0 view .LVU107
 377 0008 1B68     		ldr	r3, [r3]
 378              		.loc 1 478 31 view .LVU108
 379 000a 9847     		blx	r3
 380              	.LVL25:
 381              	.L24:
 479:Middlewares/ST/STM32_USB_Device_Library/Core/Src/usbd_core.c ****   }
 480:Middlewares/ST/STM32_USB_Device_Library/Core/Src/usbd_core.c **** #endif /* USE_USBD_COMPOSITE */
 481:Middlewares/ST/STM32_USB_Device_Library/Core/Src/usbd_core.c **** 
 482:Middlewares/ST/STM32_USB_Device_Library/Core/Src/usbd_core.c ****   return ret;
 382              		.loc 1 482 3 is_stmt 1 view .LVU109
ARM GAS  C:\Users\ADMINI~1\AppData\Local\Temp\ccpCjxJh.s 			page 16


 483:Middlewares/ST/STM32_USB_Device_Library/Core/Src/usbd_core.c **** }
 383              		.loc 1 483 1 is_stmt 0 view .LVU110
 384 000c 08BD     		pop	{r3, pc}
 385              	.LVL26:
 386              	.L25:
 454:Middlewares/ST/STM32_USB_Device_Library/Core/Src/usbd_core.c **** 
 387              		.loc 1 454 22 view .LVU111
 388 000e 0020     		movs	r0, #0
 389              	.LVL27:
 454:Middlewares/ST/STM32_USB_Device_Library/Core/Src/usbd_core.c **** 
 390              		.loc 1 454 22 view .LVU112
 391 0010 FCE7     		b	.L24
 392              		.cfi_endproc
 393              	.LFE245:
 395              		.section	.text.USBD_ClrClassConfig,"ax",%progbits
 396              		.align	1
 397              		.global	USBD_ClrClassConfig
 398              		.syntax unified
 399              		.thumb
 400              		.thumb_func
 402              	USBD_ClrClassConfig:
 403              	.LVL28:
 404              	.LFB246:
 484:Middlewares/ST/STM32_USB_Device_Library/Core/Src/usbd_core.c **** 
 485:Middlewares/ST/STM32_USB_Device_Library/Core/Src/usbd_core.c **** /**
 486:Middlewares/ST/STM32_USB_Device_Library/Core/Src/usbd_core.c ****   * @brief  USBD_ClrClassConfig
 487:Middlewares/ST/STM32_USB_Device_Library/Core/Src/usbd_core.c ****   *         Clear current configuration
 488:Middlewares/ST/STM32_USB_Device_Library/Core/Src/usbd_core.c ****   * @param  pdev: device instance
 489:Middlewares/ST/STM32_USB_Device_Library/Core/Src/usbd_core.c ****   * @param  cfgidx: configuration index
 490:Middlewares/ST/STM32_USB_Device_Library/Core/Src/usbd_core.c ****   * @retval status: USBD_StatusTypeDef
 491:Middlewares/ST/STM32_USB_Device_Library/Core/Src/usbd_core.c ****   */
 492:Middlewares/ST/STM32_USB_Device_Library/Core/Src/usbd_core.c **** USBD_StatusTypeDef USBD_ClrClassConfig(USBD_HandleTypeDef *pdev, uint8_t cfgidx)
 493:Middlewares/ST/STM32_USB_Device_Library/Core/Src/usbd_core.c **** {
 405              		.loc 1 493 1 is_stmt 1 view -0
 406              		.cfi_startproc
 407              		@ args = 0, pretend = 0, frame = 0
 408              		@ frame_needed = 0, uses_anonymous_args = 0
 409              		.loc 1 493 1 is_stmt 0 view .LVU114
 410 0000 08B5     		push	{r3, lr}
 411              	.LCFI10:
 412              		.cfi_def_cfa_offset 8
 413              		.cfi_offset 3, -8
 414              		.cfi_offset 14, -4
 494:Middlewares/ST/STM32_USB_Device_Library/Core/Src/usbd_core.c ****   USBD_StatusTypeDef ret = USBD_OK;
 415              		.loc 1 494 3 is_stmt 1 view .LVU115
 416              	.LVL29:
 495:Middlewares/ST/STM32_USB_Device_Library/Core/Src/usbd_core.c **** 
 496:Middlewares/ST/STM32_USB_Device_Library/Core/Src/usbd_core.c **** #ifdef USE_USBD_COMPOSITE
 497:Middlewares/ST/STM32_USB_Device_Library/Core/Src/usbd_core.c ****   /* Parse the table of classes in use */
 498:Middlewares/ST/STM32_USB_Device_Library/Core/Src/usbd_core.c ****   for (uint32_t i = 0U; i < USBD_MAX_SUPPORTED_CLASS; i++)
 499:Middlewares/ST/STM32_USB_Device_Library/Core/Src/usbd_core.c ****   {
 500:Middlewares/ST/STM32_USB_Device_Library/Core/Src/usbd_core.c ****     /* Check if current class is in use */
 501:Middlewares/ST/STM32_USB_Device_Library/Core/Src/usbd_core.c ****     if ((pdev->tclasslist[i].Active) == 1U)
 502:Middlewares/ST/STM32_USB_Device_Library/Core/Src/usbd_core.c ****     {
 503:Middlewares/ST/STM32_USB_Device_Library/Core/Src/usbd_core.c ****       if (pdev->pClass[i] != NULL)
 504:Middlewares/ST/STM32_USB_Device_Library/Core/Src/usbd_core.c ****       {
 505:Middlewares/ST/STM32_USB_Device_Library/Core/Src/usbd_core.c ****         pdev->classId = i;
ARM GAS  C:\Users\ADMINI~1\AppData\Local\Temp\ccpCjxJh.s 			page 17


 506:Middlewares/ST/STM32_USB_Device_Library/Core/Src/usbd_core.c ****         /* Clear configuration  and De-initialize the Class process */
 507:Middlewares/ST/STM32_USB_Device_Library/Core/Src/usbd_core.c ****         if (pdev->pClass[i]->DeInit(pdev, cfgidx) != 0U)
 508:Middlewares/ST/STM32_USB_Device_Library/Core/Src/usbd_core.c ****         {
 509:Middlewares/ST/STM32_USB_Device_Library/Core/Src/usbd_core.c ****           ret = USBD_FAIL;
 510:Middlewares/ST/STM32_USB_Device_Library/Core/Src/usbd_core.c ****         }
 511:Middlewares/ST/STM32_USB_Device_Library/Core/Src/usbd_core.c ****       }
 512:Middlewares/ST/STM32_USB_Device_Library/Core/Src/usbd_core.c ****     }
 513:Middlewares/ST/STM32_USB_Device_Library/Core/Src/usbd_core.c ****   }
 514:Middlewares/ST/STM32_USB_Device_Library/Core/Src/usbd_core.c **** #else
 515:Middlewares/ST/STM32_USB_Device_Library/Core/Src/usbd_core.c ****   /* Clear configuration  and De-initialize the Class process */
 516:Middlewares/ST/STM32_USB_Device_Library/Core/Src/usbd_core.c ****   if (pdev->pClass[0]->DeInit(pdev, cfgidx) != 0U)
 417              		.loc 1 516 3 view .LVU116
 418              		.loc 1 516 19 is_stmt 0 view .LVU117
 419 0002 D0F8B832 		ldr	r3, [r0, #696]
 420              		.loc 1 516 22 view .LVU118
 421 0006 5B68     		ldr	r3, [r3, #4]
 422              		.loc 1 516 7 view .LVU119
 423 0008 9847     		blx	r3
 424              	.LVL30:
 425              		.loc 1 516 6 discriminator 1 view .LVU120
 426 000a 00B9     		cbnz	r0, .L31
 427              	.L28:
 428              	.LVL31:
 517:Middlewares/ST/STM32_USB_Device_Library/Core/Src/usbd_core.c ****   {
 518:Middlewares/ST/STM32_USB_Device_Library/Core/Src/usbd_core.c ****     ret = USBD_FAIL;
 519:Middlewares/ST/STM32_USB_Device_Library/Core/Src/usbd_core.c ****   }
 520:Middlewares/ST/STM32_USB_Device_Library/Core/Src/usbd_core.c **** #endif /* USE_USBD_COMPOSITE */
 521:Middlewares/ST/STM32_USB_Device_Library/Core/Src/usbd_core.c **** 
 522:Middlewares/ST/STM32_USB_Device_Library/Core/Src/usbd_core.c ****   return ret;
 429              		.loc 1 522 3 is_stmt 1 view .LVU121
 523:Middlewares/ST/STM32_USB_Device_Library/Core/Src/usbd_core.c **** }
 430              		.loc 1 523 1 is_stmt 0 view .LVU122
 431 000c 08BD     		pop	{r3, pc}
 432              	.LVL32:
 433              	.L31:
 518:Middlewares/ST/STM32_USB_Device_Library/Core/Src/usbd_core.c ****   }
 434              		.loc 1 518 9 view .LVU123
 435 000e 0320     		movs	r0, #3
 436 0010 FCE7     		b	.L28
 437              		.cfi_endproc
 438              	.LFE246:
 440              		.section	.text.USBD_LL_SetupStage,"ax",%progbits
 441              		.align	1
 442              		.global	USBD_LL_SetupStage
 443              		.syntax unified
 444              		.thumb
 445              		.thumb_func
 447              	USBD_LL_SetupStage:
 448              	.LVL33:
 449              	.LFB247:
 524:Middlewares/ST/STM32_USB_Device_Library/Core/Src/usbd_core.c **** 
 525:Middlewares/ST/STM32_USB_Device_Library/Core/Src/usbd_core.c **** 
 526:Middlewares/ST/STM32_USB_Device_Library/Core/Src/usbd_core.c **** /**
 527:Middlewares/ST/STM32_USB_Device_Library/Core/Src/usbd_core.c ****   * @brief  USBD_LL_SetupStage
 528:Middlewares/ST/STM32_USB_Device_Library/Core/Src/usbd_core.c ****   *         Handle the setup stage
 529:Middlewares/ST/STM32_USB_Device_Library/Core/Src/usbd_core.c ****   * @param  pdev: device instance
 530:Middlewares/ST/STM32_USB_Device_Library/Core/Src/usbd_core.c ****   * @retval status
ARM GAS  C:\Users\ADMINI~1\AppData\Local\Temp\ccpCjxJh.s 			page 18


 531:Middlewares/ST/STM32_USB_Device_Library/Core/Src/usbd_core.c ****   */
 532:Middlewares/ST/STM32_USB_Device_Library/Core/Src/usbd_core.c **** USBD_StatusTypeDef USBD_LL_SetupStage(USBD_HandleTypeDef *pdev, uint8_t *psetup)
 533:Middlewares/ST/STM32_USB_Device_Library/Core/Src/usbd_core.c **** {
 450              		.loc 1 533 1 is_stmt 1 view -0
 451              		.cfi_startproc
 452              		@ args = 0, pretend = 0, frame = 0
 453              		@ frame_needed = 0, uses_anonymous_args = 0
 454              		.loc 1 533 1 is_stmt 0 view .LVU125
 455 0000 38B5     		push	{r3, r4, r5, lr}
 456              	.LCFI11:
 457              		.cfi_def_cfa_offset 16
 458              		.cfi_offset 3, -16
 459              		.cfi_offset 4, -12
 460              		.cfi_offset 5, -8
 461              		.cfi_offset 14, -4
 462 0002 0446     		mov	r4, r0
 534:Middlewares/ST/STM32_USB_Device_Library/Core/Src/usbd_core.c ****   USBD_StatusTypeDef ret;
 463              		.loc 1 534 3 is_stmt 1 view .LVU126
 535:Middlewares/ST/STM32_USB_Device_Library/Core/Src/usbd_core.c **** 
 536:Middlewares/ST/STM32_USB_Device_Library/Core/Src/usbd_core.c ****   USBD_ParseSetupRequest(&pdev->request, psetup);
 464              		.loc 1 536 3 view .LVU127
 465 0004 00F2AA25 		addw	r5, r0, #682
 466 0008 2846     		mov	r0, r5
 467              	.LVL34:
 468              		.loc 1 536 3 is_stmt 0 view .LVU128
 469 000a FFF7FEFF 		bl	USBD_ParseSetupRequest
 470              	.LVL35:
 537:Middlewares/ST/STM32_USB_Device_Library/Core/Src/usbd_core.c **** 
 538:Middlewares/ST/STM32_USB_Device_Library/Core/Src/usbd_core.c ****   pdev->ep0_state = USBD_EP0_SETUP;
 471              		.loc 1 538 3 is_stmt 1 view .LVU129
 472              		.loc 1 538 19 is_stmt 0 view .LVU130
 473 000e 0123     		movs	r3, #1
 474 0010 C4F89432 		str	r3, [r4, #660]
 539:Middlewares/ST/STM32_USB_Device_Library/Core/Src/usbd_core.c **** 
 540:Middlewares/ST/STM32_USB_Device_Library/Core/Src/usbd_core.c ****   pdev->ep0_data_len = pdev->request.wLength;
 475              		.loc 1 540 3 is_stmt 1 view .LVU131
 476              		.loc 1 540 37 is_stmt 0 view .LVU132
 477 0014 B4F8B032 		ldrh	r3, [r4, #688]
 478              		.loc 1 540 22 view .LVU133
 479 0018 C4F89832 		str	r3, [r4, #664]
 541:Middlewares/ST/STM32_USB_Device_Library/Core/Src/usbd_core.c **** 
 542:Middlewares/ST/STM32_USB_Device_Library/Core/Src/usbd_core.c ****   switch (pdev->request.bmRequest & 0x1FU)
 480              		.loc 1 542 3 is_stmt 1 view .LVU134
 481              		.loc 1 542 24 is_stmt 0 view .LVU135
 482 001c 94F8AA12 		ldrb	r1, [r4, #682]	@ zero_extendqisi2
 483 0020 01F01F03 		and	r3, r1, #31
 484              		.loc 1 542 3 view .LVU136
 485 0024 012B     		cmp	r3, #1
 486 0026 07D0     		beq	.L33
 487 0028 022B     		cmp	r3, #2
 488 002a 0AD0     		beq	.L34
 489 002c 73B9     		cbnz	r3, .L35
 543:Middlewares/ST/STM32_USB_Device_Library/Core/Src/usbd_core.c ****   {
 544:Middlewares/ST/STM32_USB_Device_Library/Core/Src/usbd_core.c ****     case USB_REQ_RECIPIENT_DEVICE:
 545:Middlewares/ST/STM32_USB_Device_Library/Core/Src/usbd_core.c ****       ret = USBD_StdDevReq(pdev, &pdev->request);
 490              		.loc 1 545 7 is_stmt 1 view .LVU137
 491              		.loc 1 545 13 is_stmt 0 view .LVU138
ARM GAS  C:\Users\ADMINI~1\AppData\Local\Temp\ccpCjxJh.s 			page 19


 492 002e 2946     		mov	r1, r5
 493 0030 2046     		mov	r0, r4
 494 0032 FFF7FEFF 		bl	USBD_StdDevReq
 495              	.LVL36:
 546:Middlewares/ST/STM32_USB_Device_Library/Core/Src/usbd_core.c ****       break;
 496              		.loc 1 546 7 is_stmt 1 view .LVU139
 497              	.L36:
 547:Middlewares/ST/STM32_USB_Device_Library/Core/Src/usbd_core.c **** 
 548:Middlewares/ST/STM32_USB_Device_Library/Core/Src/usbd_core.c ****     case USB_REQ_RECIPIENT_INTERFACE:
 549:Middlewares/ST/STM32_USB_Device_Library/Core/Src/usbd_core.c ****       ret = USBD_StdItfReq(pdev, &pdev->request);
 550:Middlewares/ST/STM32_USB_Device_Library/Core/Src/usbd_core.c ****       break;
 551:Middlewares/ST/STM32_USB_Device_Library/Core/Src/usbd_core.c **** 
 552:Middlewares/ST/STM32_USB_Device_Library/Core/Src/usbd_core.c ****     case USB_REQ_RECIPIENT_ENDPOINT:
 553:Middlewares/ST/STM32_USB_Device_Library/Core/Src/usbd_core.c ****       ret = USBD_StdEPReq(pdev, &pdev->request);
 554:Middlewares/ST/STM32_USB_Device_Library/Core/Src/usbd_core.c ****       break;
 555:Middlewares/ST/STM32_USB_Device_Library/Core/Src/usbd_core.c **** 
 556:Middlewares/ST/STM32_USB_Device_Library/Core/Src/usbd_core.c ****     default:
 557:Middlewares/ST/STM32_USB_Device_Library/Core/Src/usbd_core.c ****       ret = USBD_LL_StallEP(pdev, (pdev->request.bmRequest & 0x80U));
 558:Middlewares/ST/STM32_USB_Device_Library/Core/Src/usbd_core.c ****       break;
 559:Middlewares/ST/STM32_USB_Device_Library/Core/Src/usbd_core.c ****   }
 560:Middlewares/ST/STM32_USB_Device_Library/Core/Src/usbd_core.c **** 
 561:Middlewares/ST/STM32_USB_Device_Library/Core/Src/usbd_core.c ****   return ret;
 498              		.loc 1 561 3 view .LVU140
 562:Middlewares/ST/STM32_USB_Device_Library/Core/Src/usbd_core.c **** }
 499              		.loc 1 562 1 is_stmt 0 view .LVU141
 500 0036 38BD     		pop	{r3, r4, r5, pc}
 501              	.LVL37:
 502              	.L33:
 549:Middlewares/ST/STM32_USB_Device_Library/Core/Src/usbd_core.c ****       break;
 503              		.loc 1 549 7 is_stmt 1 view .LVU142
 549:Middlewares/ST/STM32_USB_Device_Library/Core/Src/usbd_core.c ****       break;
 504              		.loc 1 549 13 is_stmt 0 view .LVU143
 505 0038 2946     		mov	r1, r5
 506 003a 2046     		mov	r0, r4
 507 003c FFF7FEFF 		bl	USBD_StdItfReq
 508              	.LVL38:
 550:Middlewares/ST/STM32_USB_Device_Library/Core/Src/usbd_core.c **** 
 509              		.loc 1 550 7 is_stmt 1 view .LVU144
 510 0040 F9E7     		b	.L36
 511              	.LVL39:
 512              	.L34:
 553:Middlewares/ST/STM32_USB_Device_Library/Core/Src/usbd_core.c ****       break;
 513              		.loc 1 553 7 view .LVU145
 553:Middlewares/ST/STM32_USB_Device_Library/Core/Src/usbd_core.c ****       break;
 514              		.loc 1 553 13 is_stmt 0 view .LVU146
 515 0042 2946     		mov	r1, r5
 516 0044 2046     		mov	r0, r4
 517 0046 FFF7FEFF 		bl	USBD_StdEPReq
 518              	.LVL40:
 554:Middlewares/ST/STM32_USB_Device_Library/Core/Src/usbd_core.c **** 
 519              		.loc 1 554 7 is_stmt 1 view .LVU147
 520 004a F4E7     		b	.L36
 521              	.LVL41:
 522              	.L35:
 557:Middlewares/ST/STM32_USB_Device_Library/Core/Src/usbd_core.c ****       break;
 523              		.loc 1 557 7 view .LVU148
 557:Middlewares/ST/STM32_USB_Device_Library/Core/Src/usbd_core.c ****       break;
ARM GAS  C:\Users\ADMINI~1\AppData\Local\Temp\ccpCjxJh.s 			page 20


 524              		.loc 1 557 13 is_stmt 0 view .LVU149
 525 004c 01F08001 		and	r1, r1, #128
 526 0050 2046     		mov	r0, r4
 527 0052 FFF7FEFF 		bl	USBD_LL_StallEP
 528              	.LVL42:
 558:Middlewares/ST/STM32_USB_Device_Library/Core/Src/usbd_core.c ****   }
 529              		.loc 1 558 7 is_stmt 1 view .LVU150
 530 0056 EEE7     		b	.L36
 531              		.cfi_endproc
 532              	.LFE247:
 534              		.section	.text.USBD_LL_Reset,"ax",%progbits
 535              		.align	1
 536              		.global	USBD_LL_Reset
 537              		.syntax unified
 538              		.thumb
 539              		.thumb_func
 541              	USBD_LL_Reset:
 542              	.LVL43:
 543              	.LFB250:
 563:Middlewares/ST/STM32_USB_Device_Library/Core/Src/usbd_core.c **** 
 564:Middlewares/ST/STM32_USB_Device_Library/Core/Src/usbd_core.c **** /**
 565:Middlewares/ST/STM32_USB_Device_Library/Core/Src/usbd_core.c ****   * @brief  USBD_LL_DataOutStage
 566:Middlewares/ST/STM32_USB_Device_Library/Core/Src/usbd_core.c ****   *         Handle data OUT stage
 567:Middlewares/ST/STM32_USB_Device_Library/Core/Src/usbd_core.c ****   * @param  pdev: device instance
 568:Middlewares/ST/STM32_USB_Device_Library/Core/Src/usbd_core.c ****   * @param  epnum: endpoint index
 569:Middlewares/ST/STM32_USB_Device_Library/Core/Src/usbd_core.c ****   * @param  pdata: data pointer
 570:Middlewares/ST/STM32_USB_Device_Library/Core/Src/usbd_core.c ****   * @retval status
 571:Middlewares/ST/STM32_USB_Device_Library/Core/Src/usbd_core.c ****   */
 572:Middlewares/ST/STM32_USB_Device_Library/Core/Src/usbd_core.c **** USBD_StatusTypeDef USBD_LL_DataOutStage(USBD_HandleTypeDef *pdev,
 573:Middlewares/ST/STM32_USB_Device_Library/Core/Src/usbd_core.c ****                                         uint8_t epnum, uint8_t *pdata)
 574:Middlewares/ST/STM32_USB_Device_Library/Core/Src/usbd_core.c **** {
 575:Middlewares/ST/STM32_USB_Device_Library/Core/Src/usbd_core.c ****   USBD_EndpointTypeDef *pep;
 576:Middlewares/ST/STM32_USB_Device_Library/Core/Src/usbd_core.c ****   USBD_StatusTypeDef ret = USBD_OK;
 577:Middlewares/ST/STM32_USB_Device_Library/Core/Src/usbd_core.c ****   uint8_t idx;
 578:Middlewares/ST/STM32_USB_Device_Library/Core/Src/usbd_core.c **** 
 579:Middlewares/ST/STM32_USB_Device_Library/Core/Src/usbd_core.c ****   if (epnum == 0U)
 580:Middlewares/ST/STM32_USB_Device_Library/Core/Src/usbd_core.c ****   {
 581:Middlewares/ST/STM32_USB_Device_Library/Core/Src/usbd_core.c ****     pep = &pdev->ep_out[0];
 582:Middlewares/ST/STM32_USB_Device_Library/Core/Src/usbd_core.c **** 
 583:Middlewares/ST/STM32_USB_Device_Library/Core/Src/usbd_core.c ****     if (pdev->ep0_state == USBD_EP0_DATA_OUT)
 584:Middlewares/ST/STM32_USB_Device_Library/Core/Src/usbd_core.c ****     {
 585:Middlewares/ST/STM32_USB_Device_Library/Core/Src/usbd_core.c ****       if (pep->rem_length > pep->maxpacket)
 586:Middlewares/ST/STM32_USB_Device_Library/Core/Src/usbd_core.c ****       {
 587:Middlewares/ST/STM32_USB_Device_Library/Core/Src/usbd_core.c ****         pep->rem_length -= pep->maxpacket;
 588:Middlewares/ST/STM32_USB_Device_Library/Core/Src/usbd_core.c **** 
 589:Middlewares/ST/STM32_USB_Device_Library/Core/Src/usbd_core.c ****         (void)USBD_CtlContinueRx(pdev, pdata, MIN(pep->rem_length, pep->maxpacket));
 590:Middlewares/ST/STM32_USB_Device_Library/Core/Src/usbd_core.c ****       }
 591:Middlewares/ST/STM32_USB_Device_Library/Core/Src/usbd_core.c ****       else
 592:Middlewares/ST/STM32_USB_Device_Library/Core/Src/usbd_core.c ****       {
 593:Middlewares/ST/STM32_USB_Device_Library/Core/Src/usbd_core.c ****         /* Find the class ID relative to the current request */
 594:Middlewares/ST/STM32_USB_Device_Library/Core/Src/usbd_core.c ****         switch (pdev->request.bmRequest & 0x1FU)
 595:Middlewares/ST/STM32_USB_Device_Library/Core/Src/usbd_core.c ****         {
 596:Middlewares/ST/STM32_USB_Device_Library/Core/Src/usbd_core.c ****           case USB_REQ_RECIPIENT_DEVICE:
 597:Middlewares/ST/STM32_USB_Device_Library/Core/Src/usbd_core.c ****             /* Device requests must be managed by the first instantiated class
 598:Middlewares/ST/STM32_USB_Device_Library/Core/Src/usbd_core.c ****                (or duplicated by all classes for simplicity) */
 599:Middlewares/ST/STM32_USB_Device_Library/Core/Src/usbd_core.c ****             idx = 0U;
 600:Middlewares/ST/STM32_USB_Device_Library/Core/Src/usbd_core.c ****             break;
ARM GAS  C:\Users\ADMINI~1\AppData\Local\Temp\ccpCjxJh.s 			page 21


 601:Middlewares/ST/STM32_USB_Device_Library/Core/Src/usbd_core.c **** 
 602:Middlewares/ST/STM32_USB_Device_Library/Core/Src/usbd_core.c ****           case USB_REQ_RECIPIENT_INTERFACE:
 603:Middlewares/ST/STM32_USB_Device_Library/Core/Src/usbd_core.c ****             idx = USBD_CoreFindIF(pdev, LOBYTE(pdev->request.wIndex));
 604:Middlewares/ST/STM32_USB_Device_Library/Core/Src/usbd_core.c ****             break;
 605:Middlewares/ST/STM32_USB_Device_Library/Core/Src/usbd_core.c **** 
 606:Middlewares/ST/STM32_USB_Device_Library/Core/Src/usbd_core.c ****           case USB_REQ_RECIPIENT_ENDPOINT:
 607:Middlewares/ST/STM32_USB_Device_Library/Core/Src/usbd_core.c ****             idx = USBD_CoreFindEP(pdev, LOBYTE(pdev->request.wIndex));
 608:Middlewares/ST/STM32_USB_Device_Library/Core/Src/usbd_core.c ****             break;
 609:Middlewares/ST/STM32_USB_Device_Library/Core/Src/usbd_core.c **** 
 610:Middlewares/ST/STM32_USB_Device_Library/Core/Src/usbd_core.c ****           default:
 611:Middlewares/ST/STM32_USB_Device_Library/Core/Src/usbd_core.c ****             /* Back to the first class in case of doubt */
 612:Middlewares/ST/STM32_USB_Device_Library/Core/Src/usbd_core.c ****             idx = 0U;
 613:Middlewares/ST/STM32_USB_Device_Library/Core/Src/usbd_core.c ****             break;
 614:Middlewares/ST/STM32_USB_Device_Library/Core/Src/usbd_core.c ****         }
 615:Middlewares/ST/STM32_USB_Device_Library/Core/Src/usbd_core.c **** 
 616:Middlewares/ST/STM32_USB_Device_Library/Core/Src/usbd_core.c ****         if (idx < USBD_MAX_SUPPORTED_CLASS)
 617:Middlewares/ST/STM32_USB_Device_Library/Core/Src/usbd_core.c ****         {
 618:Middlewares/ST/STM32_USB_Device_Library/Core/Src/usbd_core.c ****           /* Setup the class ID and route the request to the relative class function */
 619:Middlewares/ST/STM32_USB_Device_Library/Core/Src/usbd_core.c ****           if (pdev->dev_state == USBD_STATE_CONFIGURED)
 620:Middlewares/ST/STM32_USB_Device_Library/Core/Src/usbd_core.c ****           {
 621:Middlewares/ST/STM32_USB_Device_Library/Core/Src/usbd_core.c ****             if (pdev->pClass[idx]->EP0_RxReady != NULL)
 622:Middlewares/ST/STM32_USB_Device_Library/Core/Src/usbd_core.c ****             {
 623:Middlewares/ST/STM32_USB_Device_Library/Core/Src/usbd_core.c ****               pdev->classId = idx;
 624:Middlewares/ST/STM32_USB_Device_Library/Core/Src/usbd_core.c ****               pdev->pClass[idx]->EP0_RxReady(pdev);
 625:Middlewares/ST/STM32_USB_Device_Library/Core/Src/usbd_core.c ****             }
 626:Middlewares/ST/STM32_USB_Device_Library/Core/Src/usbd_core.c ****           }
 627:Middlewares/ST/STM32_USB_Device_Library/Core/Src/usbd_core.c ****         }
 628:Middlewares/ST/STM32_USB_Device_Library/Core/Src/usbd_core.c **** 
 629:Middlewares/ST/STM32_USB_Device_Library/Core/Src/usbd_core.c ****         (void)USBD_CtlSendStatus(pdev);
 630:Middlewares/ST/STM32_USB_Device_Library/Core/Src/usbd_core.c ****       }
 631:Middlewares/ST/STM32_USB_Device_Library/Core/Src/usbd_core.c ****     }
 632:Middlewares/ST/STM32_USB_Device_Library/Core/Src/usbd_core.c ****     else
 633:Middlewares/ST/STM32_USB_Device_Library/Core/Src/usbd_core.c ****     {
 634:Middlewares/ST/STM32_USB_Device_Library/Core/Src/usbd_core.c **** #if 0
 635:Middlewares/ST/STM32_USB_Device_Library/Core/Src/usbd_core.c ****       if (pdev->ep0_state == USBD_EP0_STATUS_OUT)
 636:Middlewares/ST/STM32_USB_Device_Library/Core/Src/usbd_core.c ****       {
 637:Middlewares/ST/STM32_USB_Device_Library/Core/Src/usbd_core.c ****         /*
 638:Middlewares/ST/STM32_USB_Device_Library/Core/Src/usbd_core.c ****           * STATUS PHASE completed, update ep0_state to idle
 639:Middlewares/ST/STM32_USB_Device_Library/Core/Src/usbd_core.c ****           */
 640:Middlewares/ST/STM32_USB_Device_Library/Core/Src/usbd_core.c ****         pdev->ep0_state = USBD_EP0_IDLE;
 641:Middlewares/ST/STM32_USB_Device_Library/Core/Src/usbd_core.c ****         (void)USBD_LL_StallEP(pdev, 0U);
 642:Middlewares/ST/STM32_USB_Device_Library/Core/Src/usbd_core.c ****       }
 643:Middlewares/ST/STM32_USB_Device_Library/Core/Src/usbd_core.c **** #endif
 644:Middlewares/ST/STM32_USB_Device_Library/Core/Src/usbd_core.c ****     }
 645:Middlewares/ST/STM32_USB_Device_Library/Core/Src/usbd_core.c ****   }
 646:Middlewares/ST/STM32_USB_Device_Library/Core/Src/usbd_core.c ****   else
 647:Middlewares/ST/STM32_USB_Device_Library/Core/Src/usbd_core.c ****   {
 648:Middlewares/ST/STM32_USB_Device_Library/Core/Src/usbd_core.c ****     /* Get the class index relative to this interface */
 649:Middlewares/ST/STM32_USB_Device_Library/Core/Src/usbd_core.c ****     idx = USBD_CoreFindEP(pdev, (epnum & 0x7FU));
 650:Middlewares/ST/STM32_USB_Device_Library/Core/Src/usbd_core.c **** 
 651:Middlewares/ST/STM32_USB_Device_Library/Core/Src/usbd_core.c ****     if (((uint16_t)idx != 0xFFU) && (idx < USBD_MAX_SUPPORTED_CLASS))
 652:Middlewares/ST/STM32_USB_Device_Library/Core/Src/usbd_core.c ****     {
 653:Middlewares/ST/STM32_USB_Device_Library/Core/Src/usbd_core.c ****       /* Call the class data out function to manage the request */
 654:Middlewares/ST/STM32_USB_Device_Library/Core/Src/usbd_core.c ****       if (pdev->dev_state == USBD_STATE_CONFIGURED)
 655:Middlewares/ST/STM32_USB_Device_Library/Core/Src/usbd_core.c ****       {
 656:Middlewares/ST/STM32_USB_Device_Library/Core/Src/usbd_core.c ****         if (pdev->pClass[idx]->DataOut != NULL)
 657:Middlewares/ST/STM32_USB_Device_Library/Core/Src/usbd_core.c ****         {
ARM GAS  C:\Users\ADMINI~1\AppData\Local\Temp\ccpCjxJh.s 			page 22


 658:Middlewares/ST/STM32_USB_Device_Library/Core/Src/usbd_core.c ****           pdev->classId = idx;
 659:Middlewares/ST/STM32_USB_Device_Library/Core/Src/usbd_core.c ****           ret = (USBD_StatusTypeDef)pdev->pClass[idx]->DataOut(pdev, epnum);
 660:Middlewares/ST/STM32_USB_Device_Library/Core/Src/usbd_core.c ****         }
 661:Middlewares/ST/STM32_USB_Device_Library/Core/Src/usbd_core.c ****       }
 662:Middlewares/ST/STM32_USB_Device_Library/Core/Src/usbd_core.c ****       if (ret != USBD_OK)
 663:Middlewares/ST/STM32_USB_Device_Library/Core/Src/usbd_core.c ****       {
 664:Middlewares/ST/STM32_USB_Device_Library/Core/Src/usbd_core.c ****         return ret;
 665:Middlewares/ST/STM32_USB_Device_Library/Core/Src/usbd_core.c ****       }
 666:Middlewares/ST/STM32_USB_Device_Library/Core/Src/usbd_core.c ****     }
 667:Middlewares/ST/STM32_USB_Device_Library/Core/Src/usbd_core.c ****   }
 668:Middlewares/ST/STM32_USB_Device_Library/Core/Src/usbd_core.c **** 
 669:Middlewares/ST/STM32_USB_Device_Library/Core/Src/usbd_core.c ****   return USBD_OK;
 670:Middlewares/ST/STM32_USB_Device_Library/Core/Src/usbd_core.c **** }
 671:Middlewares/ST/STM32_USB_Device_Library/Core/Src/usbd_core.c **** 
 672:Middlewares/ST/STM32_USB_Device_Library/Core/Src/usbd_core.c **** /**
 673:Middlewares/ST/STM32_USB_Device_Library/Core/Src/usbd_core.c ****   * @brief  USBD_LL_DataInStage
 674:Middlewares/ST/STM32_USB_Device_Library/Core/Src/usbd_core.c ****   *         Handle data in stage
 675:Middlewares/ST/STM32_USB_Device_Library/Core/Src/usbd_core.c ****   * @param  pdev: device instance
 676:Middlewares/ST/STM32_USB_Device_Library/Core/Src/usbd_core.c ****   * @param  epnum: endpoint index
 677:Middlewares/ST/STM32_USB_Device_Library/Core/Src/usbd_core.c ****   * @retval status
 678:Middlewares/ST/STM32_USB_Device_Library/Core/Src/usbd_core.c ****   */
 679:Middlewares/ST/STM32_USB_Device_Library/Core/Src/usbd_core.c **** USBD_StatusTypeDef USBD_LL_DataInStage(USBD_HandleTypeDef *pdev,
 680:Middlewares/ST/STM32_USB_Device_Library/Core/Src/usbd_core.c ****                                        uint8_t epnum, uint8_t *pdata)
 681:Middlewares/ST/STM32_USB_Device_Library/Core/Src/usbd_core.c **** {
 682:Middlewares/ST/STM32_USB_Device_Library/Core/Src/usbd_core.c ****   USBD_EndpointTypeDef *pep;
 683:Middlewares/ST/STM32_USB_Device_Library/Core/Src/usbd_core.c ****   USBD_StatusTypeDef ret;
 684:Middlewares/ST/STM32_USB_Device_Library/Core/Src/usbd_core.c ****   uint8_t idx;
 685:Middlewares/ST/STM32_USB_Device_Library/Core/Src/usbd_core.c **** 
 686:Middlewares/ST/STM32_USB_Device_Library/Core/Src/usbd_core.c ****   if (epnum == 0U)
 687:Middlewares/ST/STM32_USB_Device_Library/Core/Src/usbd_core.c ****   {
 688:Middlewares/ST/STM32_USB_Device_Library/Core/Src/usbd_core.c ****     pep = &pdev->ep_in[0];
 689:Middlewares/ST/STM32_USB_Device_Library/Core/Src/usbd_core.c **** 
 690:Middlewares/ST/STM32_USB_Device_Library/Core/Src/usbd_core.c ****     if (pdev->ep0_state == USBD_EP0_DATA_IN)
 691:Middlewares/ST/STM32_USB_Device_Library/Core/Src/usbd_core.c ****     {
 692:Middlewares/ST/STM32_USB_Device_Library/Core/Src/usbd_core.c ****       if (pep->rem_length > pep->maxpacket)
 693:Middlewares/ST/STM32_USB_Device_Library/Core/Src/usbd_core.c ****       {
 694:Middlewares/ST/STM32_USB_Device_Library/Core/Src/usbd_core.c ****         pep->rem_length -= pep->maxpacket;
 695:Middlewares/ST/STM32_USB_Device_Library/Core/Src/usbd_core.c **** 
 696:Middlewares/ST/STM32_USB_Device_Library/Core/Src/usbd_core.c ****         (void)USBD_CtlContinueSendData(pdev, pdata, pep->rem_length);
 697:Middlewares/ST/STM32_USB_Device_Library/Core/Src/usbd_core.c **** 
 698:Middlewares/ST/STM32_USB_Device_Library/Core/Src/usbd_core.c ****         /* Prepare endpoint for premature end of transfer */
 699:Middlewares/ST/STM32_USB_Device_Library/Core/Src/usbd_core.c ****         (void)USBD_LL_PrepareReceive(pdev, 0U, NULL, 0U);
 700:Middlewares/ST/STM32_USB_Device_Library/Core/Src/usbd_core.c ****       }
 701:Middlewares/ST/STM32_USB_Device_Library/Core/Src/usbd_core.c ****       else
 702:Middlewares/ST/STM32_USB_Device_Library/Core/Src/usbd_core.c ****       {
 703:Middlewares/ST/STM32_USB_Device_Library/Core/Src/usbd_core.c ****         /* last packet is MPS multiple, so send ZLP packet */
 704:Middlewares/ST/STM32_USB_Device_Library/Core/Src/usbd_core.c ****         if ((pep->maxpacket == pep->rem_length) &&
 705:Middlewares/ST/STM32_USB_Device_Library/Core/Src/usbd_core.c ****             (pep->total_length >= pep->maxpacket) &&
 706:Middlewares/ST/STM32_USB_Device_Library/Core/Src/usbd_core.c ****             (pep->total_length < pdev->ep0_data_len))
 707:Middlewares/ST/STM32_USB_Device_Library/Core/Src/usbd_core.c ****         {
 708:Middlewares/ST/STM32_USB_Device_Library/Core/Src/usbd_core.c ****           (void)USBD_CtlContinueSendData(pdev, NULL, 0U);
 709:Middlewares/ST/STM32_USB_Device_Library/Core/Src/usbd_core.c ****           pdev->ep0_data_len = 0U;
 710:Middlewares/ST/STM32_USB_Device_Library/Core/Src/usbd_core.c **** 
 711:Middlewares/ST/STM32_USB_Device_Library/Core/Src/usbd_core.c ****           /* Prepare endpoint for premature end of transfer */
 712:Middlewares/ST/STM32_USB_Device_Library/Core/Src/usbd_core.c ****           (void)USBD_LL_PrepareReceive(pdev, 0U, NULL, 0U);
 713:Middlewares/ST/STM32_USB_Device_Library/Core/Src/usbd_core.c ****         }
 714:Middlewares/ST/STM32_USB_Device_Library/Core/Src/usbd_core.c ****         else
ARM GAS  C:\Users\ADMINI~1\AppData\Local\Temp\ccpCjxJh.s 			page 23


 715:Middlewares/ST/STM32_USB_Device_Library/Core/Src/usbd_core.c ****         {
 716:Middlewares/ST/STM32_USB_Device_Library/Core/Src/usbd_core.c ****           if (pdev->dev_state == USBD_STATE_CONFIGURED)
 717:Middlewares/ST/STM32_USB_Device_Library/Core/Src/usbd_core.c ****           {
 718:Middlewares/ST/STM32_USB_Device_Library/Core/Src/usbd_core.c ****             if (pdev->pClass[0]->EP0_TxSent != NULL)
 719:Middlewares/ST/STM32_USB_Device_Library/Core/Src/usbd_core.c ****             {
 720:Middlewares/ST/STM32_USB_Device_Library/Core/Src/usbd_core.c ****               pdev->classId = 0U;
 721:Middlewares/ST/STM32_USB_Device_Library/Core/Src/usbd_core.c ****               pdev->pClass[0]->EP0_TxSent(pdev);
 722:Middlewares/ST/STM32_USB_Device_Library/Core/Src/usbd_core.c ****             }
 723:Middlewares/ST/STM32_USB_Device_Library/Core/Src/usbd_core.c ****           }
 724:Middlewares/ST/STM32_USB_Device_Library/Core/Src/usbd_core.c ****           (void)USBD_LL_StallEP(pdev, 0x80U);
 725:Middlewares/ST/STM32_USB_Device_Library/Core/Src/usbd_core.c ****           (void)USBD_CtlReceiveStatus(pdev);
 726:Middlewares/ST/STM32_USB_Device_Library/Core/Src/usbd_core.c ****         }
 727:Middlewares/ST/STM32_USB_Device_Library/Core/Src/usbd_core.c ****       }
 728:Middlewares/ST/STM32_USB_Device_Library/Core/Src/usbd_core.c ****     }
 729:Middlewares/ST/STM32_USB_Device_Library/Core/Src/usbd_core.c ****     else
 730:Middlewares/ST/STM32_USB_Device_Library/Core/Src/usbd_core.c ****     {
 731:Middlewares/ST/STM32_USB_Device_Library/Core/Src/usbd_core.c **** #if 0
 732:Middlewares/ST/STM32_USB_Device_Library/Core/Src/usbd_core.c ****       if ((pdev->ep0_state == USBD_EP0_STATUS_IN) ||
 733:Middlewares/ST/STM32_USB_Device_Library/Core/Src/usbd_core.c ****           (pdev->ep0_state == USBD_EP0_IDLE))
 734:Middlewares/ST/STM32_USB_Device_Library/Core/Src/usbd_core.c ****       {
 735:Middlewares/ST/STM32_USB_Device_Library/Core/Src/usbd_core.c ****         (void)USBD_LL_StallEP(pdev, 0x80U);
 736:Middlewares/ST/STM32_USB_Device_Library/Core/Src/usbd_core.c ****       }
 737:Middlewares/ST/STM32_USB_Device_Library/Core/Src/usbd_core.c **** #endif
 738:Middlewares/ST/STM32_USB_Device_Library/Core/Src/usbd_core.c ****     }
 739:Middlewares/ST/STM32_USB_Device_Library/Core/Src/usbd_core.c **** 
 740:Middlewares/ST/STM32_USB_Device_Library/Core/Src/usbd_core.c ****     if (pdev->dev_test_mode != 0U)
 741:Middlewares/ST/STM32_USB_Device_Library/Core/Src/usbd_core.c ****     {
 742:Middlewares/ST/STM32_USB_Device_Library/Core/Src/usbd_core.c ****       (void)USBD_RunTestMode(pdev);
 743:Middlewares/ST/STM32_USB_Device_Library/Core/Src/usbd_core.c ****       pdev->dev_test_mode = 0U;
 744:Middlewares/ST/STM32_USB_Device_Library/Core/Src/usbd_core.c ****     }
 745:Middlewares/ST/STM32_USB_Device_Library/Core/Src/usbd_core.c ****   }
 746:Middlewares/ST/STM32_USB_Device_Library/Core/Src/usbd_core.c ****   else
 747:Middlewares/ST/STM32_USB_Device_Library/Core/Src/usbd_core.c ****   {
 748:Middlewares/ST/STM32_USB_Device_Library/Core/Src/usbd_core.c ****     /* Get the class index relative to this interface */
 749:Middlewares/ST/STM32_USB_Device_Library/Core/Src/usbd_core.c ****     idx = USBD_CoreFindEP(pdev, ((uint8_t)epnum | 0x80U));
 750:Middlewares/ST/STM32_USB_Device_Library/Core/Src/usbd_core.c **** 
 751:Middlewares/ST/STM32_USB_Device_Library/Core/Src/usbd_core.c ****     if (((uint16_t)idx != 0xFFU) && (idx < USBD_MAX_SUPPORTED_CLASS))
 752:Middlewares/ST/STM32_USB_Device_Library/Core/Src/usbd_core.c ****     {
 753:Middlewares/ST/STM32_USB_Device_Library/Core/Src/usbd_core.c ****       /* Call the class data out function to manage the request */
 754:Middlewares/ST/STM32_USB_Device_Library/Core/Src/usbd_core.c ****       if (pdev->dev_state == USBD_STATE_CONFIGURED)
 755:Middlewares/ST/STM32_USB_Device_Library/Core/Src/usbd_core.c ****       {
 756:Middlewares/ST/STM32_USB_Device_Library/Core/Src/usbd_core.c ****         if (pdev->pClass[idx]->DataIn != NULL)
 757:Middlewares/ST/STM32_USB_Device_Library/Core/Src/usbd_core.c ****         {
 758:Middlewares/ST/STM32_USB_Device_Library/Core/Src/usbd_core.c ****           pdev->classId = idx;
 759:Middlewares/ST/STM32_USB_Device_Library/Core/Src/usbd_core.c ****           ret = (USBD_StatusTypeDef)pdev->pClass[idx]->DataIn(pdev, epnum);
 760:Middlewares/ST/STM32_USB_Device_Library/Core/Src/usbd_core.c **** 
 761:Middlewares/ST/STM32_USB_Device_Library/Core/Src/usbd_core.c ****           if (ret != USBD_OK)
 762:Middlewares/ST/STM32_USB_Device_Library/Core/Src/usbd_core.c ****           {
 763:Middlewares/ST/STM32_USB_Device_Library/Core/Src/usbd_core.c ****             return ret;
 764:Middlewares/ST/STM32_USB_Device_Library/Core/Src/usbd_core.c ****           }
 765:Middlewares/ST/STM32_USB_Device_Library/Core/Src/usbd_core.c ****         }
 766:Middlewares/ST/STM32_USB_Device_Library/Core/Src/usbd_core.c ****       }
 767:Middlewares/ST/STM32_USB_Device_Library/Core/Src/usbd_core.c ****     }
 768:Middlewares/ST/STM32_USB_Device_Library/Core/Src/usbd_core.c ****   }
 769:Middlewares/ST/STM32_USB_Device_Library/Core/Src/usbd_core.c **** 
 770:Middlewares/ST/STM32_USB_Device_Library/Core/Src/usbd_core.c ****   return USBD_OK;
 771:Middlewares/ST/STM32_USB_Device_Library/Core/Src/usbd_core.c **** }
ARM GAS  C:\Users\ADMINI~1\AppData\Local\Temp\ccpCjxJh.s 			page 24


 772:Middlewares/ST/STM32_USB_Device_Library/Core/Src/usbd_core.c **** 
 773:Middlewares/ST/STM32_USB_Device_Library/Core/Src/usbd_core.c **** /**
 774:Middlewares/ST/STM32_USB_Device_Library/Core/Src/usbd_core.c ****   * @brief  USBD_LL_Reset
 775:Middlewares/ST/STM32_USB_Device_Library/Core/Src/usbd_core.c ****   *         Handle Reset event
 776:Middlewares/ST/STM32_USB_Device_Library/Core/Src/usbd_core.c ****   * @param  pdev: device instance
 777:Middlewares/ST/STM32_USB_Device_Library/Core/Src/usbd_core.c ****   * @retval status
 778:Middlewares/ST/STM32_USB_Device_Library/Core/Src/usbd_core.c ****   */
 779:Middlewares/ST/STM32_USB_Device_Library/Core/Src/usbd_core.c **** 
 780:Middlewares/ST/STM32_USB_Device_Library/Core/Src/usbd_core.c **** USBD_StatusTypeDef USBD_LL_Reset(USBD_HandleTypeDef *pdev)
 781:Middlewares/ST/STM32_USB_Device_Library/Core/Src/usbd_core.c **** {
 544              		.loc 1 781 1 view -0
 545              		.cfi_startproc
 546              		@ args = 0, pretend = 0, frame = 0
 547              		@ frame_needed = 0, uses_anonymous_args = 0
 548              		.loc 1 781 1 is_stmt 0 view .LVU152
 549 0000 F8B5     		push	{r3, r4, r5, r6, r7, lr}
 550              	.LCFI12:
 551              		.cfi_def_cfa_offset 24
 552              		.cfi_offset 3, -24
 553              		.cfi_offset 4, -20
 554              		.cfi_offset 5, -16
 555              		.cfi_offset 6, -12
 556              		.cfi_offset 7, -8
 557              		.cfi_offset 14, -4
 558 0002 0446     		mov	r4, r0
 782:Middlewares/ST/STM32_USB_Device_Library/Core/Src/usbd_core.c ****   USBD_StatusTypeDef ret = USBD_OK;
 559              		.loc 1 782 3 is_stmt 1 view .LVU153
 560              	.LVL44:
 783:Middlewares/ST/STM32_USB_Device_Library/Core/Src/usbd_core.c **** 
 784:Middlewares/ST/STM32_USB_Device_Library/Core/Src/usbd_core.c ****   /* Upon Reset call user call back */
 785:Middlewares/ST/STM32_USB_Device_Library/Core/Src/usbd_core.c ****   pdev->dev_state = USBD_STATE_DEFAULT;
 561              		.loc 1 785 3 view .LVU154
 562              		.loc 1 785 19 is_stmt 0 view .LVU155
 563 0004 0123     		movs	r3, #1
 564 0006 80F89C32 		strb	r3, [r0, #668]
 786:Middlewares/ST/STM32_USB_Device_Library/Core/Src/usbd_core.c ****   pdev->ep0_state = USBD_EP0_IDLE;
 565              		.loc 1 786 3 is_stmt 1 view .LVU156
 566              		.loc 1 786 19 is_stmt 0 view .LVU157
 567 000a 0023     		movs	r3, #0
 568 000c C0F89432 		str	r3, [r0, #660]
 787:Middlewares/ST/STM32_USB_Device_Library/Core/Src/usbd_core.c ****   pdev->dev_config = 0U;
 569              		.loc 1 787 3 is_stmt 1 view .LVU158
 570              		.loc 1 787 20 is_stmt 0 view .LVU159
 571 0010 4360     		str	r3, [r0, #4]
 788:Middlewares/ST/STM32_USB_Device_Library/Core/Src/usbd_core.c ****   pdev->dev_remote_wakeup = 0U;
 572              		.loc 1 788 3 is_stmt 1 view .LVU160
 573              		.loc 1 788 27 is_stmt 0 view .LVU161
 574 0012 C0F8A432 		str	r3, [r0, #676]
 789:Middlewares/ST/STM32_USB_Device_Library/Core/Src/usbd_core.c ****   pdev->dev_test_mode = 0U;
 575              		.loc 1 789 3 is_stmt 1 view .LVU162
 576              		.loc 1 789 23 is_stmt 0 view .LVU163
 577 0016 80F8A032 		strb	r3, [r0, #672]
 790:Middlewares/ST/STM32_USB_Device_Library/Core/Src/usbd_core.c **** 
 791:Middlewares/ST/STM32_USB_Device_Library/Core/Src/usbd_core.c **** #ifdef USE_USBD_COMPOSITE
 792:Middlewares/ST/STM32_USB_Device_Library/Core/Src/usbd_core.c ****   /* Parse the table of classes in use */
 793:Middlewares/ST/STM32_USB_Device_Library/Core/Src/usbd_core.c ****   for (uint32_t i = 0U; i < USBD_MAX_SUPPORTED_CLASS; i++)
 794:Middlewares/ST/STM32_USB_Device_Library/Core/Src/usbd_core.c ****   {
ARM GAS  C:\Users\ADMINI~1\AppData\Local\Temp\ccpCjxJh.s 			page 25


 795:Middlewares/ST/STM32_USB_Device_Library/Core/Src/usbd_core.c ****     /* Check if current class is in use */
 796:Middlewares/ST/STM32_USB_Device_Library/Core/Src/usbd_core.c ****     if ((pdev->tclasslist[i].Active) == 1U)
 797:Middlewares/ST/STM32_USB_Device_Library/Core/Src/usbd_core.c ****     {
 798:Middlewares/ST/STM32_USB_Device_Library/Core/Src/usbd_core.c ****       if (pdev->pClass[i] != NULL)
 799:Middlewares/ST/STM32_USB_Device_Library/Core/Src/usbd_core.c ****       {
 800:Middlewares/ST/STM32_USB_Device_Library/Core/Src/usbd_core.c ****         pdev->classId = i;
 801:Middlewares/ST/STM32_USB_Device_Library/Core/Src/usbd_core.c ****         /* Clear configuration  and De-initialize the Class process*/
 802:Middlewares/ST/STM32_USB_Device_Library/Core/Src/usbd_core.c **** 
 803:Middlewares/ST/STM32_USB_Device_Library/Core/Src/usbd_core.c ****         if (pdev->pClass[i]->DeInit != NULL)
 804:Middlewares/ST/STM32_USB_Device_Library/Core/Src/usbd_core.c ****         {
 805:Middlewares/ST/STM32_USB_Device_Library/Core/Src/usbd_core.c ****           if (pdev->pClass[i]->DeInit(pdev, (uint8_t)pdev->dev_config) != USBD_OK)
 806:Middlewares/ST/STM32_USB_Device_Library/Core/Src/usbd_core.c ****           {
 807:Middlewares/ST/STM32_USB_Device_Library/Core/Src/usbd_core.c ****             ret = USBD_FAIL;
 808:Middlewares/ST/STM32_USB_Device_Library/Core/Src/usbd_core.c ****           }
 809:Middlewares/ST/STM32_USB_Device_Library/Core/Src/usbd_core.c ****         }
 810:Middlewares/ST/STM32_USB_Device_Library/Core/Src/usbd_core.c ****       }
 811:Middlewares/ST/STM32_USB_Device_Library/Core/Src/usbd_core.c ****     }
 812:Middlewares/ST/STM32_USB_Device_Library/Core/Src/usbd_core.c ****   }
 813:Middlewares/ST/STM32_USB_Device_Library/Core/Src/usbd_core.c **** #else
 814:Middlewares/ST/STM32_USB_Device_Library/Core/Src/usbd_core.c **** 
 815:Middlewares/ST/STM32_USB_Device_Library/Core/Src/usbd_core.c ****   if (pdev->pClass[0] != NULL)
 578              		.loc 1 815 3 is_stmt 1 view .LVU164
 579              		.loc 1 815 19 is_stmt 0 view .LVU165
 580 001a D0F8B832 		ldr	r3, [r0, #696]
 581              		.loc 1 815 6 view .LVU166
 582 001e DBB1     		cbz	r3, .L40
 816:Middlewares/ST/STM32_USB_Device_Library/Core/Src/usbd_core.c ****   {
 817:Middlewares/ST/STM32_USB_Device_Library/Core/Src/usbd_core.c ****     if (pdev->pClass[0]->DeInit != NULL)
 583              		.loc 1 817 5 is_stmt 1 view .LVU167
 584              		.loc 1 817 24 is_stmt 0 view .LVU168
 585 0020 5B68     		ldr	r3, [r3, #4]
 586              		.loc 1 817 8 view .LVU169
 587 0022 DBB1     		cbz	r3, .L41
 818:Middlewares/ST/STM32_USB_Device_Library/Core/Src/usbd_core.c ****     {
 819:Middlewares/ST/STM32_USB_Device_Library/Core/Src/usbd_core.c ****       if (pdev->pClass[0]->DeInit(pdev, (uint8_t)pdev->dev_config) != USBD_OK)
 588              		.loc 1 819 7 is_stmt 1 view .LVU170
 589              		.loc 1 819 11 is_stmt 0 view .LVU171
 590 0024 0021     		movs	r1, #0
 591 0026 9847     		blx	r3
 592              	.LVL45:
 593              		.loc 1 819 10 discriminator 1 view .LVU172
 594 0028 0746     		mov	r7, r0
 595 002a C8B9     		cbnz	r0, .L44
 596              	.L39:
 597              	.LVL46:
 820:Middlewares/ST/STM32_USB_Device_Library/Core/Src/usbd_core.c ****       {
 821:Middlewares/ST/STM32_USB_Device_Library/Core/Src/usbd_core.c ****         ret = USBD_FAIL;
 822:Middlewares/ST/STM32_USB_Device_Library/Core/Src/usbd_core.c ****       }
 823:Middlewares/ST/STM32_USB_Device_Library/Core/Src/usbd_core.c ****     }
 824:Middlewares/ST/STM32_USB_Device_Library/Core/Src/usbd_core.c ****   }
 825:Middlewares/ST/STM32_USB_Device_Library/Core/Src/usbd_core.c **** #endif /* USE_USBD_COMPOSITE */
 826:Middlewares/ST/STM32_USB_Device_Library/Core/Src/usbd_core.c **** 
 827:Middlewares/ST/STM32_USB_Device_Library/Core/Src/usbd_core.c ****   /* Open EP0 OUT */
 828:Middlewares/ST/STM32_USB_Device_Library/Core/Src/usbd_core.c ****   (void)USBD_LL_OpenEP(pdev, 0x00U, USBD_EP_TYPE_CTRL, USB_MAX_EP0_SIZE);
 598              		.loc 1 828 3 is_stmt 1 view .LVU173
 599              		.loc 1 828 9 is_stmt 0 view .LVU174
 600 002c 4023     		movs	r3, #64
ARM GAS  C:\Users\ADMINI~1\AppData\Local\Temp\ccpCjxJh.s 			page 26


 601 002e 0022     		movs	r2, #0
 602 0030 1146     		mov	r1, r2
 603 0032 2046     		mov	r0, r4
 604 0034 FFF7FEFF 		bl	USBD_LL_OpenEP
 605              	.LVL47:
 829:Middlewares/ST/STM32_USB_Device_Library/Core/Src/usbd_core.c ****   pdev->ep_out[0x00U & 0xFU].is_used = 1U;
 606              		.loc 1 829 3 is_stmt 1 view .LVU175
 607              		.loc 1 829 38 is_stmt 0 view .LVU176
 608 0038 0126     		movs	r6, #1
 609 003a A4F86461 		strh	r6, [r4, #356]	@ movhi
 830:Middlewares/ST/STM32_USB_Device_Library/Core/Src/usbd_core.c **** 
 831:Middlewares/ST/STM32_USB_Device_Library/Core/Src/usbd_core.c ****   pdev->ep_out[0].maxpacket = USB_MAX_EP0_SIZE;
 610              		.loc 1 831 3 is_stmt 1 view .LVU177
 611              		.loc 1 831 29 is_stmt 0 view .LVU178
 612 003e 4025     		movs	r5, #64
 613 0040 C4F86051 		str	r5, [r4, #352]
 832:Middlewares/ST/STM32_USB_Device_Library/Core/Src/usbd_core.c **** 
 833:Middlewares/ST/STM32_USB_Device_Library/Core/Src/usbd_core.c ****   /* Open EP0 IN */
 834:Middlewares/ST/STM32_USB_Device_Library/Core/Src/usbd_core.c ****   (void)USBD_LL_OpenEP(pdev, 0x80U, USBD_EP_TYPE_CTRL, USB_MAX_EP0_SIZE);
 614              		.loc 1 834 3 is_stmt 1 view .LVU179
 615              		.loc 1 834 9 is_stmt 0 view .LVU180
 616 0044 2B46     		mov	r3, r5
 617 0046 0022     		movs	r2, #0
 618 0048 8021     		movs	r1, #128
 619 004a 2046     		mov	r0, r4
 620 004c FFF7FEFF 		bl	USBD_LL_OpenEP
 621              	.LVL48:
 835:Middlewares/ST/STM32_USB_Device_Library/Core/Src/usbd_core.c ****   pdev->ep_in[0x80U & 0xFU].is_used = 1U;
 622              		.loc 1 835 3 is_stmt 1 view .LVU181
 623              		.loc 1 835 37 is_stmt 0 view .LVU182
 624 0050 A684     		strh	r6, [r4, #36]	@ movhi
 836:Middlewares/ST/STM32_USB_Device_Library/Core/Src/usbd_core.c **** 
 837:Middlewares/ST/STM32_USB_Device_Library/Core/Src/usbd_core.c ****   pdev->ep_in[0].maxpacket = USB_MAX_EP0_SIZE;
 625              		.loc 1 837 3 is_stmt 1 view .LVU183
 626              		.loc 1 837 28 is_stmt 0 view .LVU184
 627 0052 2562     		str	r5, [r4, #32]
 838:Middlewares/ST/STM32_USB_Device_Library/Core/Src/usbd_core.c **** 
 839:Middlewares/ST/STM32_USB_Device_Library/Core/Src/usbd_core.c ****   return ret;
 628              		.loc 1 839 3 is_stmt 1 view .LVU185
 840:Middlewares/ST/STM32_USB_Device_Library/Core/Src/usbd_core.c **** }
 629              		.loc 1 840 1 is_stmt 0 view .LVU186
 630 0054 3846     		mov	r0, r7
 631 0056 F8BD     		pop	{r3, r4, r5, r6, r7, pc}
 632              	.LVL49:
 633              	.L40:
 782:Middlewares/ST/STM32_USB_Device_Library/Core/Src/usbd_core.c **** 
 634              		.loc 1 782 22 view .LVU187
 635 0058 0027     		movs	r7, #0
 636 005a E7E7     		b	.L39
 637              	.L41:
 638 005c 0027     		movs	r7, #0
 639 005e E5E7     		b	.L39
 640              	.LVL50:
 641              	.L44:
 821:Middlewares/ST/STM32_USB_Device_Library/Core/Src/usbd_core.c ****       }
 642              		.loc 1 821 13 view .LVU188
 643 0060 0327     		movs	r7, #3
ARM GAS  C:\Users\ADMINI~1\AppData\Local\Temp\ccpCjxJh.s 			page 27


 644 0062 E3E7     		b	.L39
 645              		.cfi_endproc
 646              	.LFE250:
 648              		.section	.text.USBD_LL_SetSpeed,"ax",%progbits
 649              		.align	1
 650              		.global	USBD_LL_SetSpeed
 651              		.syntax unified
 652              		.thumb
 653              		.thumb_func
 655              	USBD_LL_SetSpeed:
 656              	.LVL51:
 657              	.LFB251:
 841:Middlewares/ST/STM32_USB_Device_Library/Core/Src/usbd_core.c **** 
 842:Middlewares/ST/STM32_USB_Device_Library/Core/Src/usbd_core.c **** /**
 843:Middlewares/ST/STM32_USB_Device_Library/Core/Src/usbd_core.c ****   * @brief  USBD_LL_SetSpeed
 844:Middlewares/ST/STM32_USB_Device_Library/Core/Src/usbd_core.c ****   *         Handle Reset event
 845:Middlewares/ST/STM32_USB_Device_Library/Core/Src/usbd_core.c ****   * @param  pdev: device instance
 846:Middlewares/ST/STM32_USB_Device_Library/Core/Src/usbd_core.c ****   * @retval status
 847:Middlewares/ST/STM32_USB_Device_Library/Core/Src/usbd_core.c ****   */
 848:Middlewares/ST/STM32_USB_Device_Library/Core/Src/usbd_core.c **** USBD_StatusTypeDef USBD_LL_SetSpeed(USBD_HandleTypeDef *pdev,
 849:Middlewares/ST/STM32_USB_Device_Library/Core/Src/usbd_core.c ****                                     USBD_SpeedTypeDef speed)
 850:Middlewares/ST/STM32_USB_Device_Library/Core/Src/usbd_core.c **** {
 658              		.loc 1 850 1 is_stmt 1 view -0
 659              		.cfi_startproc
 660              		@ args = 0, pretend = 0, frame = 0
 661              		@ frame_needed = 0, uses_anonymous_args = 0
 662              		@ link register save eliminated.
 851:Middlewares/ST/STM32_USB_Device_Library/Core/Src/usbd_core.c ****   pdev->dev_speed = speed;
 663              		.loc 1 851 3 view .LVU190
 664              		.loc 1 851 19 is_stmt 0 view .LVU191
 665 0000 0174     		strb	r1, [r0, #16]
 852:Middlewares/ST/STM32_USB_Device_Library/Core/Src/usbd_core.c **** 
 853:Middlewares/ST/STM32_USB_Device_Library/Core/Src/usbd_core.c ****   return USBD_OK;
 666              		.loc 1 853 3 is_stmt 1 view .LVU192
 854:Middlewares/ST/STM32_USB_Device_Library/Core/Src/usbd_core.c **** }
 667              		.loc 1 854 1 is_stmt 0 view .LVU193
 668 0002 0020     		movs	r0, #0
 669              	.LVL52:
 670              		.loc 1 854 1 view .LVU194
 671 0004 7047     		bx	lr
 672              		.cfi_endproc
 673              	.LFE251:
 675              		.section	.text.USBD_LL_Suspend,"ax",%progbits
 676              		.align	1
 677              		.global	USBD_LL_Suspend
 678              		.syntax unified
 679              		.thumb
 680              		.thumb_func
 682              	USBD_LL_Suspend:
 683              	.LVL53:
 684              	.LFB252:
 855:Middlewares/ST/STM32_USB_Device_Library/Core/Src/usbd_core.c **** 
 856:Middlewares/ST/STM32_USB_Device_Library/Core/Src/usbd_core.c **** /**
 857:Middlewares/ST/STM32_USB_Device_Library/Core/Src/usbd_core.c ****   * @brief  USBD_LL_Suspend
 858:Middlewares/ST/STM32_USB_Device_Library/Core/Src/usbd_core.c ****   *         Handle Suspend event
 859:Middlewares/ST/STM32_USB_Device_Library/Core/Src/usbd_core.c ****   * @param  pdev: device instance
 860:Middlewares/ST/STM32_USB_Device_Library/Core/Src/usbd_core.c ****   * @retval status
ARM GAS  C:\Users\ADMINI~1\AppData\Local\Temp\ccpCjxJh.s 			page 28


 861:Middlewares/ST/STM32_USB_Device_Library/Core/Src/usbd_core.c ****   */
 862:Middlewares/ST/STM32_USB_Device_Library/Core/Src/usbd_core.c **** 
 863:Middlewares/ST/STM32_USB_Device_Library/Core/Src/usbd_core.c **** USBD_StatusTypeDef USBD_LL_Suspend(USBD_HandleTypeDef *pdev)
 864:Middlewares/ST/STM32_USB_Device_Library/Core/Src/usbd_core.c **** {
 685              		.loc 1 864 1 is_stmt 1 view -0
 686              		.cfi_startproc
 687              		@ args = 0, pretend = 0, frame = 0
 688              		@ frame_needed = 0, uses_anonymous_args = 0
 689              		@ link register save eliminated.
 865:Middlewares/ST/STM32_USB_Device_Library/Core/Src/usbd_core.c ****   pdev->dev_old_state = pdev->dev_state;
 690              		.loc 1 865 3 view .LVU196
 691              		.loc 1 865 29 is_stmt 0 view .LVU197
 692 0000 90F89C32 		ldrb	r3, [r0, #668]	@ zero_extendqisi2
 693 0004 DBB2     		uxtb	r3, r3
 694              		.loc 1 865 23 view .LVU198
 695 0006 80F89D32 		strb	r3, [r0, #669]
 866:Middlewares/ST/STM32_USB_Device_Library/Core/Src/usbd_core.c ****   pdev->dev_state = USBD_STATE_SUSPENDED;
 696              		.loc 1 866 3 is_stmt 1 view .LVU199
 697              		.loc 1 866 19 is_stmt 0 view .LVU200
 698 000a 0423     		movs	r3, #4
 699 000c 80F89C32 		strb	r3, [r0, #668]
 867:Middlewares/ST/STM32_USB_Device_Library/Core/Src/usbd_core.c **** 
 868:Middlewares/ST/STM32_USB_Device_Library/Core/Src/usbd_core.c ****   return USBD_OK;
 700              		.loc 1 868 3 is_stmt 1 view .LVU201
 869:Middlewares/ST/STM32_USB_Device_Library/Core/Src/usbd_core.c **** }
 701              		.loc 1 869 1 is_stmt 0 view .LVU202
 702 0010 0020     		movs	r0, #0
 703              	.LVL54:
 704              		.loc 1 869 1 view .LVU203
 705 0012 7047     		bx	lr
 706              		.cfi_endproc
 707              	.LFE252:
 709              		.section	.text.USBD_LL_Resume,"ax",%progbits
 710              		.align	1
 711              		.global	USBD_LL_Resume
 712              		.syntax unified
 713              		.thumb
 714              		.thumb_func
 716              	USBD_LL_Resume:
 717              	.LVL55:
 718              	.LFB253:
 870:Middlewares/ST/STM32_USB_Device_Library/Core/Src/usbd_core.c **** 
 871:Middlewares/ST/STM32_USB_Device_Library/Core/Src/usbd_core.c **** /**
 872:Middlewares/ST/STM32_USB_Device_Library/Core/Src/usbd_core.c ****   * @brief  USBD_LL_Resume
 873:Middlewares/ST/STM32_USB_Device_Library/Core/Src/usbd_core.c ****   *         Handle Resume event
 874:Middlewares/ST/STM32_USB_Device_Library/Core/Src/usbd_core.c ****   * @param  pdev: device instance
 875:Middlewares/ST/STM32_USB_Device_Library/Core/Src/usbd_core.c ****   * @retval status
 876:Middlewares/ST/STM32_USB_Device_Library/Core/Src/usbd_core.c ****   */
 877:Middlewares/ST/STM32_USB_Device_Library/Core/Src/usbd_core.c **** 
 878:Middlewares/ST/STM32_USB_Device_Library/Core/Src/usbd_core.c **** USBD_StatusTypeDef USBD_LL_Resume(USBD_HandleTypeDef *pdev)
 879:Middlewares/ST/STM32_USB_Device_Library/Core/Src/usbd_core.c **** {
 719              		.loc 1 879 1 is_stmt 1 view -0
 720              		.cfi_startproc
 721              		@ args = 0, pretend = 0, frame = 0
 722              		@ frame_needed = 0, uses_anonymous_args = 0
 723              		@ link register save eliminated.
 880:Middlewares/ST/STM32_USB_Device_Library/Core/Src/usbd_core.c ****   if (pdev->dev_state == USBD_STATE_SUSPENDED)
ARM GAS  C:\Users\ADMINI~1\AppData\Local\Temp\ccpCjxJh.s 			page 29


 724              		.loc 1 880 3 view .LVU205
 725              		.loc 1 880 11 is_stmt 0 view .LVU206
 726 0000 90F89C32 		ldrb	r3, [r0, #668]	@ zero_extendqisi2
 727 0004 DBB2     		uxtb	r3, r3
 728              		.loc 1 880 6 view .LVU207
 729 0006 042B     		cmp	r3, #4
 730 0008 01D0     		beq	.L49
 731              	.L48:
 881:Middlewares/ST/STM32_USB_Device_Library/Core/Src/usbd_core.c ****   {
 882:Middlewares/ST/STM32_USB_Device_Library/Core/Src/usbd_core.c ****     pdev->dev_state = pdev->dev_old_state;
 883:Middlewares/ST/STM32_USB_Device_Library/Core/Src/usbd_core.c ****   }
 884:Middlewares/ST/STM32_USB_Device_Library/Core/Src/usbd_core.c **** 
 885:Middlewares/ST/STM32_USB_Device_Library/Core/Src/usbd_core.c ****   return USBD_OK;
 732              		.loc 1 885 3 is_stmt 1 view .LVU208
 886:Middlewares/ST/STM32_USB_Device_Library/Core/Src/usbd_core.c **** }
 733              		.loc 1 886 1 is_stmt 0 view .LVU209
 734 000a 0020     		movs	r0, #0
 735              	.LVL56:
 736              		.loc 1 886 1 view .LVU210
 737 000c 7047     		bx	lr
 738              	.LVL57:
 739              	.L49:
 882:Middlewares/ST/STM32_USB_Device_Library/Core/Src/usbd_core.c ****   }
 740              		.loc 1 882 5 is_stmt 1 view .LVU211
 882:Middlewares/ST/STM32_USB_Device_Library/Core/Src/usbd_core.c ****   }
 741              		.loc 1 882 27 is_stmt 0 view .LVU212
 742 000e 90F89D32 		ldrb	r3, [r0, #669]	@ zero_extendqisi2
 743 0012 DBB2     		uxtb	r3, r3
 882:Middlewares/ST/STM32_USB_Device_Library/Core/Src/usbd_core.c ****   }
 744              		.loc 1 882 21 view .LVU213
 745 0014 80F89C32 		strb	r3, [r0, #668]
 746 0018 F7E7     		b	.L48
 747              		.cfi_endproc
 748              	.LFE253:
 750              		.section	.text.USBD_LL_SOF,"ax",%progbits
 751              		.align	1
 752              		.global	USBD_LL_SOF
 753              		.syntax unified
 754              		.thumb
 755              		.thumb_func
 757              	USBD_LL_SOF:
 758              	.LVL58:
 759              	.LFB254:
 887:Middlewares/ST/STM32_USB_Device_Library/Core/Src/usbd_core.c **** 
 888:Middlewares/ST/STM32_USB_Device_Library/Core/Src/usbd_core.c **** /**
 889:Middlewares/ST/STM32_USB_Device_Library/Core/Src/usbd_core.c ****   * @brief  USBD_LL_SOF
 890:Middlewares/ST/STM32_USB_Device_Library/Core/Src/usbd_core.c ****   *         Handle SOF event
 891:Middlewares/ST/STM32_USB_Device_Library/Core/Src/usbd_core.c ****   * @param  pdev: device instance
 892:Middlewares/ST/STM32_USB_Device_Library/Core/Src/usbd_core.c ****   * @retval status
 893:Middlewares/ST/STM32_USB_Device_Library/Core/Src/usbd_core.c ****   */
 894:Middlewares/ST/STM32_USB_Device_Library/Core/Src/usbd_core.c **** 
 895:Middlewares/ST/STM32_USB_Device_Library/Core/Src/usbd_core.c **** USBD_StatusTypeDef USBD_LL_SOF(USBD_HandleTypeDef *pdev)
 896:Middlewares/ST/STM32_USB_Device_Library/Core/Src/usbd_core.c **** {
 760              		.loc 1 896 1 is_stmt 1 view -0
 761              		.cfi_startproc
 762              		@ args = 0, pretend = 0, frame = 0
 763              		@ frame_needed = 0, uses_anonymous_args = 0
ARM GAS  C:\Users\ADMINI~1\AppData\Local\Temp\ccpCjxJh.s 			page 30


 764              		.loc 1 896 1 is_stmt 0 view .LVU215
 765 0000 08B5     		push	{r3, lr}
 766              	.LCFI13:
 767              		.cfi_def_cfa_offset 8
 768              		.cfi_offset 3, -8
 769              		.cfi_offset 14, -4
 897:Middlewares/ST/STM32_USB_Device_Library/Core/Src/usbd_core.c ****   /* The SOF event can be distributed for all classes that support it */
 898:Middlewares/ST/STM32_USB_Device_Library/Core/Src/usbd_core.c ****   if (pdev->dev_state == USBD_STATE_CONFIGURED)
 770              		.loc 1 898 3 is_stmt 1 view .LVU216
 771              		.loc 1 898 11 is_stmt 0 view .LVU217
 772 0002 90F89C32 		ldrb	r3, [r0, #668]	@ zero_extendqisi2
 773 0006 DBB2     		uxtb	r3, r3
 774              		.loc 1 898 6 view .LVU218
 775 0008 032B     		cmp	r3, #3
 776 000a 01D0     		beq	.L53
 777              	.LVL59:
 778              	.L51:
 899:Middlewares/ST/STM32_USB_Device_Library/Core/Src/usbd_core.c ****   {
 900:Middlewares/ST/STM32_USB_Device_Library/Core/Src/usbd_core.c **** #ifdef USE_USBD_COMPOSITE
 901:Middlewares/ST/STM32_USB_Device_Library/Core/Src/usbd_core.c ****     /* Parse the table of classes in use */
 902:Middlewares/ST/STM32_USB_Device_Library/Core/Src/usbd_core.c ****     for (uint32_t i = 0; i < USBD_MAX_SUPPORTED_CLASS; i++)
 903:Middlewares/ST/STM32_USB_Device_Library/Core/Src/usbd_core.c ****     {
 904:Middlewares/ST/STM32_USB_Device_Library/Core/Src/usbd_core.c ****       /* Check if current class is in use */
 905:Middlewares/ST/STM32_USB_Device_Library/Core/Src/usbd_core.c ****       if ((pdev->tclasslist[i].Active) == 1U)
 906:Middlewares/ST/STM32_USB_Device_Library/Core/Src/usbd_core.c ****       {
 907:Middlewares/ST/STM32_USB_Device_Library/Core/Src/usbd_core.c ****         if (pdev->pClass[i] != NULL)
 908:Middlewares/ST/STM32_USB_Device_Library/Core/Src/usbd_core.c ****         {
 909:Middlewares/ST/STM32_USB_Device_Library/Core/Src/usbd_core.c ****           if (pdev->pClass[i]->SOF != NULL)
 910:Middlewares/ST/STM32_USB_Device_Library/Core/Src/usbd_core.c ****           {
 911:Middlewares/ST/STM32_USB_Device_Library/Core/Src/usbd_core.c ****             pdev->classId = i;
 912:Middlewares/ST/STM32_USB_Device_Library/Core/Src/usbd_core.c ****             (void)pdev->pClass[i]->SOF(pdev);
 913:Middlewares/ST/STM32_USB_Device_Library/Core/Src/usbd_core.c ****           }
 914:Middlewares/ST/STM32_USB_Device_Library/Core/Src/usbd_core.c ****         }
 915:Middlewares/ST/STM32_USB_Device_Library/Core/Src/usbd_core.c ****       }
 916:Middlewares/ST/STM32_USB_Device_Library/Core/Src/usbd_core.c ****     }
 917:Middlewares/ST/STM32_USB_Device_Library/Core/Src/usbd_core.c **** #else
 918:Middlewares/ST/STM32_USB_Device_Library/Core/Src/usbd_core.c ****     if (pdev->pClass[0] != NULL)
 919:Middlewares/ST/STM32_USB_Device_Library/Core/Src/usbd_core.c ****     {
 920:Middlewares/ST/STM32_USB_Device_Library/Core/Src/usbd_core.c ****       if (pdev->pClass[0]->SOF != NULL)
 921:Middlewares/ST/STM32_USB_Device_Library/Core/Src/usbd_core.c ****       {
 922:Middlewares/ST/STM32_USB_Device_Library/Core/Src/usbd_core.c ****         (void)pdev->pClass[0]->SOF(pdev);
 923:Middlewares/ST/STM32_USB_Device_Library/Core/Src/usbd_core.c ****       }
 924:Middlewares/ST/STM32_USB_Device_Library/Core/Src/usbd_core.c ****     }
 925:Middlewares/ST/STM32_USB_Device_Library/Core/Src/usbd_core.c **** #endif /* USE_USBD_COMPOSITE */
 926:Middlewares/ST/STM32_USB_Device_Library/Core/Src/usbd_core.c ****   }
 927:Middlewares/ST/STM32_USB_Device_Library/Core/Src/usbd_core.c **** 
 928:Middlewares/ST/STM32_USB_Device_Library/Core/Src/usbd_core.c ****   return USBD_OK;
 779              		.loc 1 928 3 is_stmt 1 view .LVU219
 929:Middlewares/ST/STM32_USB_Device_Library/Core/Src/usbd_core.c **** }
 780              		.loc 1 929 1 is_stmt 0 view .LVU220
 781 000c 0020     		movs	r0, #0
 782 000e 08BD     		pop	{r3, pc}
 783              	.LVL60:
 784              	.L53:
 918:Middlewares/ST/STM32_USB_Device_Library/Core/Src/usbd_core.c ****     {
 785              		.loc 1 918 5 is_stmt 1 view .LVU221
 918:Middlewares/ST/STM32_USB_Device_Library/Core/Src/usbd_core.c ****     {
ARM GAS  C:\Users\ADMINI~1\AppData\Local\Temp\ccpCjxJh.s 			page 31


 786              		.loc 1 918 21 is_stmt 0 view .LVU222
 787 0010 D0F8B832 		ldr	r3, [r0, #696]
 918:Middlewares/ST/STM32_USB_Device_Library/Core/Src/usbd_core.c ****     {
 788              		.loc 1 918 8 view .LVU223
 789 0014 002B     		cmp	r3, #0
 790 0016 F9D0     		beq	.L51
 920:Middlewares/ST/STM32_USB_Device_Library/Core/Src/usbd_core.c ****       {
 791              		.loc 1 920 7 is_stmt 1 view .LVU224
 920:Middlewares/ST/STM32_USB_Device_Library/Core/Src/usbd_core.c ****       {
 792              		.loc 1 920 26 is_stmt 0 view .LVU225
 793 0018 DB69     		ldr	r3, [r3, #28]
 920:Middlewares/ST/STM32_USB_Device_Library/Core/Src/usbd_core.c ****       {
 794              		.loc 1 920 10 view .LVU226
 795 001a 002B     		cmp	r3, #0
 796 001c F6D0     		beq	.L51
 922:Middlewares/ST/STM32_USB_Device_Library/Core/Src/usbd_core.c ****       }
 797              		.loc 1 922 9 is_stmt 1 view .LVU227
 922:Middlewares/ST/STM32_USB_Device_Library/Core/Src/usbd_core.c ****       }
 798              		.loc 1 922 15 is_stmt 0 view .LVU228
 799 001e 9847     		blx	r3
 800              	.LVL61:
 922:Middlewares/ST/STM32_USB_Device_Library/Core/Src/usbd_core.c ****       }
 801              		.loc 1 922 15 view .LVU229
 802 0020 F4E7     		b	.L51
 803              		.cfi_endproc
 804              	.LFE254:
 806              		.section	.text.USBD_LL_IsoINIncomplete,"ax",%progbits
 807              		.align	1
 808              		.global	USBD_LL_IsoINIncomplete
 809              		.syntax unified
 810              		.thumb
 811              		.thumb_func
 813              	USBD_LL_IsoINIncomplete:
 814              	.LVL62:
 815              	.LFB255:
 930:Middlewares/ST/STM32_USB_Device_Library/Core/Src/usbd_core.c **** 
 931:Middlewares/ST/STM32_USB_Device_Library/Core/Src/usbd_core.c **** /**
 932:Middlewares/ST/STM32_USB_Device_Library/Core/Src/usbd_core.c ****   * @brief  USBD_LL_IsoINIncomplete
 933:Middlewares/ST/STM32_USB_Device_Library/Core/Src/usbd_core.c ****   *         Handle iso in incomplete event
 934:Middlewares/ST/STM32_USB_Device_Library/Core/Src/usbd_core.c ****   * @param  pdev: device instance
 935:Middlewares/ST/STM32_USB_Device_Library/Core/Src/usbd_core.c ****   * @retval status
 936:Middlewares/ST/STM32_USB_Device_Library/Core/Src/usbd_core.c ****   */
 937:Middlewares/ST/STM32_USB_Device_Library/Core/Src/usbd_core.c **** USBD_StatusTypeDef USBD_LL_IsoINIncomplete(USBD_HandleTypeDef *pdev,
 938:Middlewares/ST/STM32_USB_Device_Library/Core/Src/usbd_core.c ****                                            uint8_t epnum)
 939:Middlewares/ST/STM32_USB_Device_Library/Core/Src/usbd_core.c **** {
 816              		.loc 1 939 1 is_stmt 1 view -0
 817              		.cfi_startproc
 818              		@ args = 0, pretend = 0, frame = 0
 819              		@ frame_needed = 0, uses_anonymous_args = 0
 820              		.loc 1 939 1 is_stmt 0 view .LVU231
 821 0000 08B5     		push	{r3, lr}
 822              	.LCFI14:
 823              		.cfi_def_cfa_offset 8
 824              		.cfi_offset 3, -8
 825              		.cfi_offset 14, -4
 940:Middlewares/ST/STM32_USB_Device_Library/Core/Src/usbd_core.c ****   if (pdev->pClass[pdev->classId] == NULL)
 826              		.loc 1 940 3 is_stmt 1 view .LVU232
ARM GAS  C:\Users\ADMINI~1\AppData\Local\Temp\ccpCjxJh.s 			page 32


 827              		.loc 1 940 24 is_stmt 0 view .LVU233
 828 0002 D0F8D432 		ldr	r3, [r0, #724]
 829              		.loc 1 940 19 view .LVU234
 830 0006 AE33     		adds	r3, r3, #174
 831 0008 50F82320 		ldr	r2, [r0, r3, lsl #2]
 832              		.loc 1 940 6 view .LVU235
 833 000c 5AB1     		cbz	r2, .L56
 941:Middlewares/ST/STM32_USB_Device_Library/Core/Src/usbd_core.c ****   {
 942:Middlewares/ST/STM32_USB_Device_Library/Core/Src/usbd_core.c ****     return USBD_FAIL;
 943:Middlewares/ST/STM32_USB_Device_Library/Core/Src/usbd_core.c ****   }
 944:Middlewares/ST/STM32_USB_Device_Library/Core/Src/usbd_core.c **** 
 945:Middlewares/ST/STM32_USB_Device_Library/Core/Src/usbd_core.c ****   if (pdev->dev_state == USBD_STATE_CONFIGURED)
 834              		.loc 1 945 3 is_stmt 1 view .LVU236
 835              		.loc 1 945 11 is_stmt 0 view .LVU237
 836 000e 90F89C32 		ldrb	r3, [r0, #668]	@ zero_extendqisi2
 837 0012 DBB2     		uxtb	r3, r3
 838              		.loc 1 945 6 view .LVU238
 839 0014 032B     		cmp	r3, #3
 840 0016 01D0     		beq	.L60
 946:Middlewares/ST/STM32_USB_Device_Library/Core/Src/usbd_core.c ****   {
 947:Middlewares/ST/STM32_USB_Device_Library/Core/Src/usbd_core.c ****     if (pdev->pClass[pdev->classId]->IsoINIncomplete != NULL)
 948:Middlewares/ST/STM32_USB_Device_Library/Core/Src/usbd_core.c ****     {
 949:Middlewares/ST/STM32_USB_Device_Library/Core/Src/usbd_core.c ****       (void)pdev->pClass[pdev->classId]->IsoINIncomplete(pdev, epnum);
 950:Middlewares/ST/STM32_USB_Device_Library/Core/Src/usbd_core.c ****     }
 951:Middlewares/ST/STM32_USB_Device_Library/Core/Src/usbd_core.c ****   }
 952:Middlewares/ST/STM32_USB_Device_Library/Core/Src/usbd_core.c **** 
 953:Middlewares/ST/STM32_USB_Device_Library/Core/Src/usbd_core.c ****   return USBD_OK;
 841              		.loc 1 953 10 view .LVU239
 842 0018 0020     		movs	r0, #0
 843              	.LVL63:
 844              	.L55:
 954:Middlewares/ST/STM32_USB_Device_Library/Core/Src/usbd_core.c **** }
 845              		.loc 1 954 1 view .LVU240
 846 001a 08BD     		pop	{r3, pc}
 847              	.LVL64:
 848              	.L60:
 947:Middlewares/ST/STM32_USB_Device_Library/Core/Src/usbd_core.c ****     {
 849              		.loc 1 947 5 is_stmt 1 view .LVU241
 947:Middlewares/ST/STM32_USB_Device_Library/Core/Src/usbd_core.c ****     {
 850              		.loc 1 947 36 is_stmt 0 view .LVU242
 851 001c 136A     		ldr	r3, [r2, #32]
 947:Middlewares/ST/STM32_USB_Device_Library/Core/Src/usbd_core.c ****     {
 852              		.loc 1 947 8 view .LVU243
 853 001e 23B1     		cbz	r3, .L58
 949:Middlewares/ST/STM32_USB_Device_Library/Core/Src/usbd_core.c ****     }
 854              		.loc 1 949 7 is_stmt 1 view .LVU244
 949:Middlewares/ST/STM32_USB_Device_Library/Core/Src/usbd_core.c ****     }
 855              		.loc 1 949 13 is_stmt 0 view .LVU245
 856 0020 9847     		blx	r3
 857              	.LVL65:
 953:Middlewares/ST/STM32_USB_Device_Library/Core/Src/usbd_core.c **** }
 858              		.loc 1 953 10 view .LVU246
 859 0022 0020     		movs	r0, #0
 860 0024 F9E7     		b	.L55
 861              	.LVL66:
 862              	.L56:
 942:Middlewares/ST/STM32_USB_Device_Library/Core/Src/usbd_core.c ****   }
ARM GAS  C:\Users\ADMINI~1\AppData\Local\Temp\ccpCjxJh.s 			page 33


 863              		.loc 1 942 12 view .LVU247
 864 0026 0320     		movs	r0, #3
 865              	.LVL67:
 942:Middlewares/ST/STM32_USB_Device_Library/Core/Src/usbd_core.c ****   }
 866              		.loc 1 942 12 view .LVU248
 867 0028 F7E7     		b	.L55
 868              	.LVL68:
 869              	.L58:
 953:Middlewares/ST/STM32_USB_Device_Library/Core/Src/usbd_core.c **** }
 870              		.loc 1 953 10 view .LVU249
 871 002a 0020     		movs	r0, #0
 872              	.LVL69:
 953:Middlewares/ST/STM32_USB_Device_Library/Core/Src/usbd_core.c **** }
 873              		.loc 1 953 10 view .LVU250
 874 002c F5E7     		b	.L55
 875              		.cfi_endproc
 876              	.LFE255:
 878              		.section	.text.USBD_LL_IsoOUTIncomplete,"ax",%progbits
 879              		.align	1
 880              		.global	USBD_LL_IsoOUTIncomplete
 881              		.syntax unified
 882              		.thumb
 883              		.thumb_func
 885              	USBD_LL_IsoOUTIncomplete:
 886              	.LVL70:
 887              	.LFB256:
 955:Middlewares/ST/STM32_USB_Device_Library/Core/Src/usbd_core.c **** 
 956:Middlewares/ST/STM32_USB_Device_Library/Core/Src/usbd_core.c **** /**
 957:Middlewares/ST/STM32_USB_Device_Library/Core/Src/usbd_core.c ****   * @brief  USBD_LL_IsoOUTIncomplete
 958:Middlewares/ST/STM32_USB_Device_Library/Core/Src/usbd_core.c ****   *         Handle iso out incomplete event
 959:Middlewares/ST/STM32_USB_Device_Library/Core/Src/usbd_core.c ****   * @param  pdev: device instance
 960:Middlewares/ST/STM32_USB_Device_Library/Core/Src/usbd_core.c ****   * @retval status
 961:Middlewares/ST/STM32_USB_Device_Library/Core/Src/usbd_core.c ****   */
 962:Middlewares/ST/STM32_USB_Device_Library/Core/Src/usbd_core.c **** USBD_StatusTypeDef USBD_LL_IsoOUTIncomplete(USBD_HandleTypeDef *pdev,
 963:Middlewares/ST/STM32_USB_Device_Library/Core/Src/usbd_core.c ****                                             uint8_t epnum)
 964:Middlewares/ST/STM32_USB_Device_Library/Core/Src/usbd_core.c **** {
 888              		.loc 1 964 1 is_stmt 1 view -0
 889              		.cfi_startproc
 890              		@ args = 0, pretend = 0, frame = 0
 891              		@ frame_needed = 0, uses_anonymous_args = 0
 892              		.loc 1 964 1 is_stmt 0 view .LVU252
 893 0000 08B5     		push	{r3, lr}
 894              	.LCFI15:
 895              		.cfi_def_cfa_offset 8
 896              		.cfi_offset 3, -8
 897              		.cfi_offset 14, -4
 965:Middlewares/ST/STM32_USB_Device_Library/Core/Src/usbd_core.c ****   if (pdev->pClass[pdev->classId] == NULL)
 898              		.loc 1 965 3 is_stmt 1 view .LVU253
 899              		.loc 1 965 24 is_stmt 0 view .LVU254
 900 0002 D0F8D432 		ldr	r3, [r0, #724]
 901              		.loc 1 965 19 view .LVU255
 902 0006 AE33     		adds	r3, r3, #174
 903 0008 50F82320 		ldr	r2, [r0, r3, lsl #2]
 904              		.loc 1 965 6 view .LVU256
 905 000c 5AB1     		cbz	r2, .L63
 966:Middlewares/ST/STM32_USB_Device_Library/Core/Src/usbd_core.c ****   {
 967:Middlewares/ST/STM32_USB_Device_Library/Core/Src/usbd_core.c ****     return USBD_FAIL;
ARM GAS  C:\Users\ADMINI~1\AppData\Local\Temp\ccpCjxJh.s 			page 34


 968:Middlewares/ST/STM32_USB_Device_Library/Core/Src/usbd_core.c ****   }
 969:Middlewares/ST/STM32_USB_Device_Library/Core/Src/usbd_core.c **** 
 970:Middlewares/ST/STM32_USB_Device_Library/Core/Src/usbd_core.c ****   if (pdev->dev_state == USBD_STATE_CONFIGURED)
 906              		.loc 1 970 3 is_stmt 1 view .LVU257
 907              		.loc 1 970 11 is_stmt 0 view .LVU258
 908 000e 90F89C32 		ldrb	r3, [r0, #668]	@ zero_extendqisi2
 909 0012 DBB2     		uxtb	r3, r3
 910              		.loc 1 970 6 view .LVU259
 911 0014 032B     		cmp	r3, #3
 912 0016 01D0     		beq	.L67
 971:Middlewares/ST/STM32_USB_Device_Library/Core/Src/usbd_core.c ****   {
 972:Middlewares/ST/STM32_USB_Device_Library/Core/Src/usbd_core.c ****     if (pdev->pClass[pdev->classId]->IsoOUTIncomplete != NULL)
 973:Middlewares/ST/STM32_USB_Device_Library/Core/Src/usbd_core.c ****     {
 974:Middlewares/ST/STM32_USB_Device_Library/Core/Src/usbd_core.c ****       (void)pdev->pClass[pdev->classId]->IsoOUTIncomplete(pdev, epnum);
 975:Middlewares/ST/STM32_USB_Device_Library/Core/Src/usbd_core.c ****     }
 976:Middlewares/ST/STM32_USB_Device_Library/Core/Src/usbd_core.c ****   }
 977:Middlewares/ST/STM32_USB_Device_Library/Core/Src/usbd_core.c **** 
 978:Middlewares/ST/STM32_USB_Device_Library/Core/Src/usbd_core.c ****   return USBD_OK;
 913              		.loc 1 978 10 view .LVU260
 914 0018 0020     		movs	r0, #0
 915              	.LVL71:
 916              	.L62:
 979:Middlewares/ST/STM32_USB_Device_Library/Core/Src/usbd_core.c **** }
 917              		.loc 1 979 1 view .LVU261
 918 001a 08BD     		pop	{r3, pc}
 919              	.LVL72:
 920              	.L67:
 972:Middlewares/ST/STM32_USB_Device_Library/Core/Src/usbd_core.c ****     {
 921              		.loc 1 972 5 is_stmt 1 view .LVU262
 972:Middlewares/ST/STM32_USB_Device_Library/Core/Src/usbd_core.c ****     {
 922              		.loc 1 972 36 is_stmt 0 view .LVU263
 923 001c 536A     		ldr	r3, [r2, #36]
 972:Middlewares/ST/STM32_USB_Device_Library/Core/Src/usbd_core.c ****     {
 924              		.loc 1 972 8 view .LVU264
 925 001e 23B1     		cbz	r3, .L65
 974:Middlewares/ST/STM32_USB_Device_Library/Core/Src/usbd_core.c ****     }
 926              		.loc 1 974 7 is_stmt 1 view .LVU265
 974:Middlewares/ST/STM32_USB_Device_Library/Core/Src/usbd_core.c ****     }
 927              		.loc 1 974 13 is_stmt 0 view .LVU266
 928 0020 9847     		blx	r3
 929              	.LVL73:
 978:Middlewares/ST/STM32_USB_Device_Library/Core/Src/usbd_core.c **** }
 930              		.loc 1 978 10 view .LVU267
 931 0022 0020     		movs	r0, #0
 932 0024 F9E7     		b	.L62
 933              	.LVL74:
 934              	.L63:
 967:Middlewares/ST/STM32_USB_Device_Library/Core/Src/usbd_core.c ****   }
 935              		.loc 1 967 12 view .LVU268
 936 0026 0320     		movs	r0, #3
 937              	.LVL75:
 967:Middlewares/ST/STM32_USB_Device_Library/Core/Src/usbd_core.c ****   }
 938              		.loc 1 967 12 view .LVU269
 939 0028 F7E7     		b	.L62
 940              	.LVL76:
 941              	.L65:
 978:Middlewares/ST/STM32_USB_Device_Library/Core/Src/usbd_core.c **** }
ARM GAS  C:\Users\ADMINI~1\AppData\Local\Temp\ccpCjxJh.s 			page 35


 942              		.loc 1 978 10 view .LVU270
 943 002a 0020     		movs	r0, #0
 944              	.LVL77:
 978:Middlewares/ST/STM32_USB_Device_Library/Core/Src/usbd_core.c **** }
 945              		.loc 1 978 10 view .LVU271
 946 002c F5E7     		b	.L62
 947              		.cfi_endproc
 948              	.LFE256:
 950              		.section	.text.USBD_LL_DevConnected,"ax",%progbits
 951              		.align	1
 952              		.global	USBD_LL_DevConnected
 953              		.syntax unified
 954              		.thumb
 955              		.thumb_func
 957              	USBD_LL_DevConnected:
 958              	.LVL78:
 959              	.LFB257:
 980:Middlewares/ST/STM32_USB_Device_Library/Core/Src/usbd_core.c **** 
 981:Middlewares/ST/STM32_USB_Device_Library/Core/Src/usbd_core.c **** /**
 982:Middlewares/ST/STM32_USB_Device_Library/Core/Src/usbd_core.c ****   * @brief  USBD_LL_DevConnected
 983:Middlewares/ST/STM32_USB_Device_Library/Core/Src/usbd_core.c ****   *         Handle device connection event
 984:Middlewares/ST/STM32_USB_Device_Library/Core/Src/usbd_core.c ****   * @param  pdev: device instance
 985:Middlewares/ST/STM32_USB_Device_Library/Core/Src/usbd_core.c ****   * @retval status
 986:Middlewares/ST/STM32_USB_Device_Library/Core/Src/usbd_core.c ****   */
 987:Middlewares/ST/STM32_USB_Device_Library/Core/Src/usbd_core.c **** USBD_StatusTypeDef USBD_LL_DevConnected(USBD_HandleTypeDef *pdev)
 988:Middlewares/ST/STM32_USB_Device_Library/Core/Src/usbd_core.c **** {
 960              		.loc 1 988 1 is_stmt 1 view -0
 961              		.cfi_startproc
 962              		@ args = 0, pretend = 0, frame = 0
 963              		@ frame_needed = 0, uses_anonymous_args = 0
 964              		@ link register save eliminated.
 989:Middlewares/ST/STM32_USB_Device_Library/Core/Src/usbd_core.c ****   /* Prevent unused argument compilation warning */
 990:Middlewares/ST/STM32_USB_Device_Library/Core/Src/usbd_core.c ****   UNUSED(pdev);
 965              		.loc 1 990 3 view .LVU273
 991:Middlewares/ST/STM32_USB_Device_Library/Core/Src/usbd_core.c **** 
 992:Middlewares/ST/STM32_USB_Device_Library/Core/Src/usbd_core.c ****   return USBD_OK;
 966              		.loc 1 992 3 view .LVU274
 993:Middlewares/ST/STM32_USB_Device_Library/Core/Src/usbd_core.c **** }
 967              		.loc 1 993 1 is_stmt 0 view .LVU275
 968 0000 0020     		movs	r0, #0
 969              	.LVL79:
 970              		.loc 1 993 1 view .LVU276
 971 0002 7047     		bx	lr
 972              		.cfi_endproc
 973              	.LFE257:
 975              		.section	.text.USBD_LL_DevDisconnected,"ax",%progbits
 976              		.align	1
 977              		.global	USBD_LL_DevDisconnected
 978              		.syntax unified
 979              		.thumb
 980              		.thumb_func
 982              	USBD_LL_DevDisconnected:
 983              	.LVL80:
 984              	.LFB258:
 994:Middlewares/ST/STM32_USB_Device_Library/Core/Src/usbd_core.c **** 
 995:Middlewares/ST/STM32_USB_Device_Library/Core/Src/usbd_core.c **** /**
 996:Middlewares/ST/STM32_USB_Device_Library/Core/Src/usbd_core.c ****   * @brief  USBD_LL_DevDisconnected
ARM GAS  C:\Users\ADMINI~1\AppData\Local\Temp\ccpCjxJh.s 			page 36


 997:Middlewares/ST/STM32_USB_Device_Library/Core/Src/usbd_core.c ****   *         Handle device disconnection event
 998:Middlewares/ST/STM32_USB_Device_Library/Core/Src/usbd_core.c ****   * @param  pdev: device instance
 999:Middlewares/ST/STM32_USB_Device_Library/Core/Src/usbd_core.c ****   * @retval status
1000:Middlewares/ST/STM32_USB_Device_Library/Core/Src/usbd_core.c ****   */
1001:Middlewares/ST/STM32_USB_Device_Library/Core/Src/usbd_core.c **** USBD_StatusTypeDef USBD_LL_DevDisconnected(USBD_HandleTypeDef *pdev)
1002:Middlewares/ST/STM32_USB_Device_Library/Core/Src/usbd_core.c **** {
 985              		.loc 1 1002 1 is_stmt 1 view -0
 986              		.cfi_startproc
 987              		@ args = 0, pretend = 0, frame = 0
 988              		@ frame_needed = 0, uses_anonymous_args = 0
 989              		.loc 1 1002 1 is_stmt 0 view .LVU278
 990 0000 08B5     		push	{r3, lr}
 991              	.LCFI16:
 992              		.cfi_def_cfa_offset 8
 993              		.cfi_offset 3, -8
 994              		.cfi_offset 14, -4
1003:Middlewares/ST/STM32_USB_Device_Library/Core/Src/usbd_core.c ****   USBD_StatusTypeDef   ret = USBD_OK;
 995              		.loc 1 1003 3 is_stmt 1 view .LVU279
 996              	.LVL81:
1004:Middlewares/ST/STM32_USB_Device_Library/Core/Src/usbd_core.c **** 
1005:Middlewares/ST/STM32_USB_Device_Library/Core/Src/usbd_core.c ****   /* Free Class Resources */
1006:Middlewares/ST/STM32_USB_Device_Library/Core/Src/usbd_core.c ****   pdev->dev_state = USBD_STATE_DEFAULT;
 997              		.loc 1 1006 3 view .LVU280
 998              		.loc 1 1006 19 is_stmt 0 view .LVU281
 999 0002 0123     		movs	r3, #1
 1000 0004 80F89C32 		strb	r3, [r0, #668]
1007:Middlewares/ST/STM32_USB_Device_Library/Core/Src/usbd_core.c **** 
1008:Middlewares/ST/STM32_USB_Device_Library/Core/Src/usbd_core.c **** #ifdef USE_USBD_COMPOSITE
1009:Middlewares/ST/STM32_USB_Device_Library/Core/Src/usbd_core.c ****   /* Parse the table of classes in use */
1010:Middlewares/ST/STM32_USB_Device_Library/Core/Src/usbd_core.c ****   for (uint32_t i = 0; i < USBD_MAX_SUPPORTED_CLASS; i++)
1011:Middlewares/ST/STM32_USB_Device_Library/Core/Src/usbd_core.c ****   {
1012:Middlewares/ST/STM32_USB_Device_Library/Core/Src/usbd_core.c ****     /* Check if current class is in use */
1013:Middlewares/ST/STM32_USB_Device_Library/Core/Src/usbd_core.c ****     if ((pdev->tclasslist[i].Active) == 1U)
1014:Middlewares/ST/STM32_USB_Device_Library/Core/Src/usbd_core.c ****     {
1015:Middlewares/ST/STM32_USB_Device_Library/Core/Src/usbd_core.c ****       if (pdev->pClass[i] != NULL)
1016:Middlewares/ST/STM32_USB_Device_Library/Core/Src/usbd_core.c ****       {
1017:Middlewares/ST/STM32_USB_Device_Library/Core/Src/usbd_core.c ****         pdev->classId = i;
1018:Middlewares/ST/STM32_USB_Device_Library/Core/Src/usbd_core.c ****         /* Clear configuration  and De-initialize the Class process*/
1019:Middlewares/ST/STM32_USB_Device_Library/Core/Src/usbd_core.c ****         if (pdev->pClass[i]->DeInit(pdev, (uint8_t)pdev->dev_config) != 0U)
1020:Middlewares/ST/STM32_USB_Device_Library/Core/Src/usbd_core.c ****         {
1021:Middlewares/ST/STM32_USB_Device_Library/Core/Src/usbd_core.c ****           ret = USBD_FAIL;
1022:Middlewares/ST/STM32_USB_Device_Library/Core/Src/usbd_core.c ****         }
1023:Middlewares/ST/STM32_USB_Device_Library/Core/Src/usbd_core.c ****       }
1024:Middlewares/ST/STM32_USB_Device_Library/Core/Src/usbd_core.c ****     }
1025:Middlewares/ST/STM32_USB_Device_Library/Core/Src/usbd_core.c ****   }
1026:Middlewares/ST/STM32_USB_Device_Library/Core/Src/usbd_core.c **** #else
1027:Middlewares/ST/STM32_USB_Device_Library/Core/Src/usbd_core.c ****   if (pdev->pClass[0] != NULL)
 1001              		.loc 1 1027 3 is_stmt 1 view .LVU282
 1002              		.loc 1 1027 19 is_stmt 0 view .LVU283
 1003 0008 D0F8B832 		ldr	r3, [r0, #696]
 1004              		.loc 1 1027 6 view .LVU284
 1005 000c 23B1     		cbz	r3, .L71
1028:Middlewares/ST/STM32_USB_Device_Library/Core/Src/usbd_core.c ****   {
1029:Middlewares/ST/STM32_USB_Device_Library/Core/Src/usbd_core.c ****     if (pdev->pClass[0]->DeInit(pdev, (uint8_t)pdev->dev_config) != 0U)
 1006              		.loc 1 1029 5 is_stmt 1 view .LVU285
 1007              		.loc 1 1029 24 is_stmt 0 view .LVU286
 1008 000e 5B68     		ldr	r3, [r3, #4]
ARM GAS  C:\Users\ADMINI~1\AppData\Local\Temp\ccpCjxJh.s 			page 37


 1009              		.loc 1 1029 9 view .LVU287
 1010 0010 0179     		ldrb	r1, [r0, #4]	@ zero_extendqisi2
 1011 0012 9847     		blx	r3
 1012              	.LVL82:
 1013              		.loc 1 1029 8 discriminator 1 view .LVU288
 1014 0014 10B9     		cbnz	r0, .L74
 1015              	.L70:
 1016              	.LVL83:
1030:Middlewares/ST/STM32_USB_Device_Library/Core/Src/usbd_core.c ****     {
1031:Middlewares/ST/STM32_USB_Device_Library/Core/Src/usbd_core.c ****       ret = USBD_FAIL;
1032:Middlewares/ST/STM32_USB_Device_Library/Core/Src/usbd_core.c ****     }
1033:Middlewares/ST/STM32_USB_Device_Library/Core/Src/usbd_core.c ****   }
1034:Middlewares/ST/STM32_USB_Device_Library/Core/Src/usbd_core.c **** #endif /* USE_USBD_COMPOSITE */
1035:Middlewares/ST/STM32_USB_Device_Library/Core/Src/usbd_core.c **** 
1036:Middlewares/ST/STM32_USB_Device_Library/Core/Src/usbd_core.c ****   return ret;
 1017              		.loc 1 1036 3 is_stmt 1 view .LVU289
1037:Middlewares/ST/STM32_USB_Device_Library/Core/Src/usbd_core.c **** }
 1018              		.loc 1 1037 1 is_stmt 0 view .LVU290
 1019 0016 08BD     		pop	{r3, pc}
 1020              	.LVL84:
 1021              	.L71:
1003:Middlewares/ST/STM32_USB_Device_Library/Core/Src/usbd_core.c **** 
 1022              		.loc 1 1003 24 view .LVU291
 1023 0018 0020     		movs	r0, #0
 1024              	.LVL85:
1003:Middlewares/ST/STM32_USB_Device_Library/Core/Src/usbd_core.c **** 
 1025              		.loc 1 1003 24 view .LVU292
 1026 001a FCE7     		b	.L70
 1027              	.L74:
1031:Middlewares/ST/STM32_USB_Device_Library/Core/Src/usbd_core.c ****     }
 1028              		.loc 1 1031 11 view .LVU293
 1029 001c 0320     		movs	r0, #3
 1030 001e FAE7     		b	.L70
 1031              		.cfi_endproc
 1032              	.LFE258:
 1034              		.section	.text.USBD_CoreFindIF,"ax",%progbits
 1035              		.align	1
 1036              		.global	USBD_CoreFindIF
 1037              		.syntax unified
 1038              		.thumb
 1039              		.thumb_func
 1041              	USBD_CoreFindIF:
 1042              	.LVL86:
 1043              	.LFB259:
1038:Middlewares/ST/STM32_USB_Device_Library/Core/Src/usbd_core.c **** 
1039:Middlewares/ST/STM32_USB_Device_Library/Core/Src/usbd_core.c **** /**
1040:Middlewares/ST/STM32_USB_Device_Library/Core/Src/usbd_core.c ****   * @brief  USBD_CoreFindIF
1041:Middlewares/ST/STM32_USB_Device_Library/Core/Src/usbd_core.c ****   *         return the class index relative to the selected interface
1042:Middlewares/ST/STM32_USB_Device_Library/Core/Src/usbd_core.c ****   * @param  pdev: device instance
1043:Middlewares/ST/STM32_USB_Device_Library/Core/Src/usbd_core.c ****   * @param  index : selected interface number
1044:Middlewares/ST/STM32_USB_Device_Library/Core/Src/usbd_core.c ****   * @retval index of the class using the selected interface number. OxFF if no class found.
1045:Middlewares/ST/STM32_USB_Device_Library/Core/Src/usbd_core.c ****   */
1046:Middlewares/ST/STM32_USB_Device_Library/Core/Src/usbd_core.c **** uint8_t USBD_CoreFindIF(USBD_HandleTypeDef *pdev, uint8_t index)
1047:Middlewares/ST/STM32_USB_Device_Library/Core/Src/usbd_core.c **** {
 1044              		.loc 1 1047 1 is_stmt 1 view -0
 1045              		.cfi_startproc
 1046              		@ args = 0, pretend = 0, frame = 0
ARM GAS  C:\Users\ADMINI~1\AppData\Local\Temp\ccpCjxJh.s 			page 38


 1047              		@ frame_needed = 0, uses_anonymous_args = 0
 1048              		@ link register save eliminated.
1048:Middlewares/ST/STM32_USB_Device_Library/Core/Src/usbd_core.c **** #ifdef USE_USBD_COMPOSITE
1049:Middlewares/ST/STM32_USB_Device_Library/Core/Src/usbd_core.c ****   /* Parse the table of classes in use */
1050:Middlewares/ST/STM32_USB_Device_Library/Core/Src/usbd_core.c ****   for (uint32_t i = 0U; i < USBD_MAX_SUPPORTED_CLASS; i++)
1051:Middlewares/ST/STM32_USB_Device_Library/Core/Src/usbd_core.c ****   {
1052:Middlewares/ST/STM32_USB_Device_Library/Core/Src/usbd_core.c ****     /* Check if current class is in use */
1053:Middlewares/ST/STM32_USB_Device_Library/Core/Src/usbd_core.c ****     if ((pdev->tclasslist[i].Active) == 1U)
1054:Middlewares/ST/STM32_USB_Device_Library/Core/Src/usbd_core.c ****     {
1055:Middlewares/ST/STM32_USB_Device_Library/Core/Src/usbd_core.c ****       /* Parse all interfaces listed in the current class */
1056:Middlewares/ST/STM32_USB_Device_Library/Core/Src/usbd_core.c ****       for (uint32_t j = 0U; j < pdev->tclasslist[i].NumIf; j++)
1057:Middlewares/ST/STM32_USB_Device_Library/Core/Src/usbd_core.c ****       {
1058:Middlewares/ST/STM32_USB_Device_Library/Core/Src/usbd_core.c ****         /* Check if requested Interface matches the current class interface */
1059:Middlewares/ST/STM32_USB_Device_Library/Core/Src/usbd_core.c ****         if (pdev->tclasslist[i].Ifs[j] == index)
1060:Middlewares/ST/STM32_USB_Device_Library/Core/Src/usbd_core.c ****         {
1061:Middlewares/ST/STM32_USB_Device_Library/Core/Src/usbd_core.c ****           if (pdev->pClass[i]->Setup != NULL)
1062:Middlewares/ST/STM32_USB_Device_Library/Core/Src/usbd_core.c ****           {
1063:Middlewares/ST/STM32_USB_Device_Library/Core/Src/usbd_core.c ****             return (uint8_t)i;
1064:Middlewares/ST/STM32_USB_Device_Library/Core/Src/usbd_core.c ****           }
1065:Middlewares/ST/STM32_USB_Device_Library/Core/Src/usbd_core.c ****         }
1066:Middlewares/ST/STM32_USB_Device_Library/Core/Src/usbd_core.c ****       }
1067:Middlewares/ST/STM32_USB_Device_Library/Core/Src/usbd_core.c ****     }
1068:Middlewares/ST/STM32_USB_Device_Library/Core/Src/usbd_core.c ****   }
1069:Middlewares/ST/STM32_USB_Device_Library/Core/Src/usbd_core.c **** 
1070:Middlewares/ST/STM32_USB_Device_Library/Core/Src/usbd_core.c ****   return 0xFFU;
1071:Middlewares/ST/STM32_USB_Device_Library/Core/Src/usbd_core.c **** #else
1072:Middlewares/ST/STM32_USB_Device_Library/Core/Src/usbd_core.c ****   UNUSED(pdev);
 1049              		.loc 1 1072 3 view .LVU295
1073:Middlewares/ST/STM32_USB_Device_Library/Core/Src/usbd_core.c ****   UNUSED(index);
 1050              		.loc 1 1073 3 view .LVU296
1074:Middlewares/ST/STM32_USB_Device_Library/Core/Src/usbd_core.c **** 
1075:Middlewares/ST/STM32_USB_Device_Library/Core/Src/usbd_core.c ****   return 0x00U;
 1051              		.loc 1 1075 3 view .LVU297
1076:Middlewares/ST/STM32_USB_Device_Library/Core/Src/usbd_core.c **** #endif /* USE_USBD_COMPOSITE */
1077:Middlewares/ST/STM32_USB_Device_Library/Core/Src/usbd_core.c **** }
 1052              		.loc 1 1077 1 is_stmt 0 view .LVU298
 1053 0000 0020     		movs	r0, #0
 1054              	.LVL87:
 1055              		.loc 1 1077 1 view .LVU299
 1056 0002 7047     		bx	lr
 1057              		.cfi_endproc
 1058              	.LFE259:
 1060              		.section	.text.USBD_CoreFindEP,"ax",%progbits
 1061              		.align	1
 1062              		.global	USBD_CoreFindEP
 1063              		.syntax unified
 1064              		.thumb
 1065              		.thumb_func
 1067              	USBD_CoreFindEP:
 1068              	.LVL88:
 1069              	.LFB260:
1078:Middlewares/ST/STM32_USB_Device_Library/Core/Src/usbd_core.c **** 
1079:Middlewares/ST/STM32_USB_Device_Library/Core/Src/usbd_core.c **** /**
1080:Middlewares/ST/STM32_USB_Device_Library/Core/Src/usbd_core.c ****   * @brief  USBD_CoreFindEP
1081:Middlewares/ST/STM32_USB_Device_Library/Core/Src/usbd_core.c ****   *         return the class index relative to the selected endpoint
1082:Middlewares/ST/STM32_USB_Device_Library/Core/Src/usbd_core.c ****   * @param  pdev: device instance
1083:Middlewares/ST/STM32_USB_Device_Library/Core/Src/usbd_core.c ****   * @param  index : selected endpoint number
ARM GAS  C:\Users\ADMINI~1\AppData\Local\Temp\ccpCjxJh.s 			page 39


1084:Middlewares/ST/STM32_USB_Device_Library/Core/Src/usbd_core.c ****   * @retval index of the class using the selected endpoint number. 0xFF if no class found.
1085:Middlewares/ST/STM32_USB_Device_Library/Core/Src/usbd_core.c ****   */
1086:Middlewares/ST/STM32_USB_Device_Library/Core/Src/usbd_core.c **** uint8_t USBD_CoreFindEP(USBD_HandleTypeDef *pdev, uint8_t index)
1087:Middlewares/ST/STM32_USB_Device_Library/Core/Src/usbd_core.c **** {
 1070              		.loc 1 1087 1 is_stmt 1 view -0
 1071              		.cfi_startproc
 1072              		@ args = 0, pretend = 0, frame = 0
 1073              		@ frame_needed = 0, uses_anonymous_args = 0
 1074              		@ link register save eliminated.
1088:Middlewares/ST/STM32_USB_Device_Library/Core/Src/usbd_core.c **** #ifdef USE_USBD_COMPOSITE
1089:Middlewares/ST/STM32_USB_Device_Library/Core/Src/usbd_core.c ****   /* Parse the table of classes in use */
1090:Middlewares/ST/STM32_USB_Device_Library/Core/Src/usbd_core.c ****   for (uint32_t i = 0U; i < USBD_MAX_SUPPORTED_CLASS; i++)
1091:Middlewares/ST/STM32_USB_Device_Library/Core/Src/usbd_core.c ****   {
1092:Middlewares/ST/STM32_USB_Device_Library/Core/Src/usbd_core.c ****     /* Check if current class is in use */
1093:Middlewares/ST/STM32_USB_Device_Library/Core/Src/usbd_core.c ****     if ((pdev->tclasslist[i].Active) == 1U)
1094:Middlewares/ST/STM32_USB_Device_Library/Core/Src/usbd_core.c ****     {
1095:Middlewares/ST/STM32_USB_Device_Library/Core/Src/usbd_core.c ****       /* Parse all endpoints listed in the current class */
1096:Middlewares/ST/STM32_USB_Device_Library/Core/Src/usbd_core.c ****       for (uint32_t j = 0U; j < pdev->tclasslist[i].NumEps; j++)
1097:Middlewares/ST/STM32_USB_Device_Library/Core/Src/usbd_core.c ****       {
1098:Middlewares/ST/STM32_USB_Device_Library/Core/Src/usbd_core.c ****         /* Check if requested endpoint matches the current class endpoint */
1099:Middlewares/ST/STM32_USB_Device_Library/Core/Src/usbd_core.c ****         if (pdev->tclasslist[i].Eps[j].add == index)
1100:Middlewares/ST/STM32_USB_Device_Library/Core/Src/usbd_core.c ****         {
1101:Middlewares/ST/STM32_USB_Device_Library/Core/Src/usbd_core.c ****           if (pdev->pClass[i]->Setup != NULL)
1102:Middlewares/ST/STM32_USB_Device_Library/Core/Src/usbd_core.c ****           {
1103:Middlewares/ST/STM32_USB_Device_Library/Core/Src/usbd_core.c ****             return (uint8_t)i;
1104:Middlewares/ST/STM32_USB_Device_Library/Core/Src/usbd_core.c ****           }
1105:Middlewares/ST/STM32_USB_Device_Library/Core/Src/usbd_core.c ****         }
1106:Middlewares/ST/STM32_USB_Device_Library/Core/Src/usbd_core.c ****       }
1107:Middlewares/ST/STM32_USB_Device_Library/Core/Src/usbd_core.c ****     }
1108:Middlewares/ST/STM32_USB_Device_Library/Core/Src/usbd_core.c ****   }
1109:Middlewares/ST/STM32_USB_Device_Library/Core/Src/usbd_core.c **** 
1110:Middlewares/ST/STM32_USB_Device_Library/Core/Src/usbd_core.c ****   return 0xFFU;
1111:Middlewares/ST/STM32_USB_Device_Library/Core/Src/usbd_core.c **** #else
1112:Middlewares/ST/STM32_USB_Device_Library/Core/Src/usbd_core.c ****   UNUSED(pdev);
 1075              		.loc 1 1112 3 view .LVU301
1113:Middlewares/ST/STM32_USB_Device_Library/Core/Src/usbd_core.c ****   UNUSED(index);
 1076              		.loc 1 1113 3 view .LVU302
1114:Middlewares/ST/STM32_USB_Device_Library/Core/Src/usbd_core.c **** 
1115:Middlewares/ST/STM32_USB_Device_Library/Core/Src/usbd_core.c ****   return 0x00U;
 1077              		.loc 1 1115 3 view .LVU303
1116:Middlewares/ST/STM32_USB_Device_Library/Core/Src/usbd_core.c **** #endif /* USE_USBD_COMPOSITE */
1117:Middlewares/ST/STM32_USB_Device_Library/Core/Src/usbd_core.c **** }
 1078              		.loc 1 1117 1 is_stmt 0 view .LVU304
 1079 0000 0020     		movs	r0, #0
 1080              	.LVL89:
 1081              		.loc 1 1117 1 view .LVU305
 1082 0002 7047     		bx	lr
 1083              		.cfi_endproc
 1084              	.LFE260:
 1086              		.section	.text.USBD_LL_DataOutStage,"ax",%progbits
 1087              		.align	1
 1088              		.global	USBD_LL_DataOutStage
 1089              		.syntax unified
 1090              		.thumb
 1091              		.thumb_func
 1093              	USBD_LL_DataOutStage:
 1094              	.LVL90:
ARM GAS  C:\Users\ADMINI~1\AppData\Local\Temp\ccpCjxJh.s 			page 40


 1095              	.LFB248:
 574:Middlewares/ST/STM32_USB_Device_Library/Core/Src/usbd_core.c ****   USBD_EndpointTypeDef *pep;
 1096              		.loc 1 574 1 is_stmt 1 view -0
 1097              		.cfi_startproc
 1098              		@ args = 0, pretend = 0, frame = 0
 1099              		@ frame_needed = 0, uses_anonymous_args = 0
 574:Middlewares/ST/STM32_USB_Device_Library/Core/Src/usbd_core.c ****   USBD_EndpointTypeDef *pep;
 1100              		.loc 1 574 1 is_stmt 0 view .LVU307
 1101 0000 38B5     		push	{r3, r4, r5, lr}
 1102              	.LCFI17:
 1103              		.cfi_def_cfa_offset 16
 1104              		.cfi_offset 3, -16
 1105              		.cfi_offset 4, -12
 1106              		.cfi_offset 5, -8
 1107              		.cfi_offset 14, -4
 1108 0002 0446     		mov	r4, r0
 575:Middlewares/ST/STM32_USB_Device_Library/Core/Src/usbd_core.c ****   USBD_StatusTypeDef ret = USBD_OK;
 1109              		.loc 1 575 3 is_stmt 1 view .LVU308
 576:Middlewares/ST/STM32_USB_Device_Library/Core/Src/usbd_core.c ****   uint8_t idx;
 1110              		.loc 1 576 3 view .LVU309
 1111              	.LVL91:
 577:Middlewares/ST/STM32_USB_Device_Library/Core/Src/usbd_core.c **** 
 1112              		.loc 1 577 3 view .LVU310
 579:Middlewares/ST/STM32_USB_Device_Library/Core/Src/usbd_core.c ****   {
 1113              		.loc 1 579 3 view .LVU311
 579:Middlewares/ST/STM32_USB_Device_Library/Core/Src/usbd_core.c ****   {
 1114              		.loc 1 579 6 is_stmt 0 view .LVU312
 1115 0004 0D46     		mov	r5, r1
 1116 0006 0029     		cmp	r1, #0
 1117 0008 42D1     		bne	.L78
 1118 000a 1346     		mov	r3, r2
 581:Middlewares/ST/STM32_USB_Device_Library/Core/Src/usbd_core.c **** 
 1119              		.loc 1 581 5 is_stmt 1 view .LVU313
 1120              	.LVL92:
 583:Middlewares/ST/STM32_USB_Device_Library/Core/Src/usbd_core.c ****     {
 1121              		.loc 1 583 5 view .LVU314
 583:Middlewares/ST/STM32_USB_Device_Library/Core/Src/usbd_core.c ****     {
 1122              		.loc 1 583 13 is_stmt 0 view .LVU315
 1123 000c D0F89422 		ldr	r2, [r0, #660]
 1124              	.LVL93:
 583:Middlewares/ST/STM32_USB_Device_Library/Core/Src/usbd_core.c ****     {
 1125              		.loc 1 583 8 view .LVU316
 1126 0010 032A     		cmp	r2, #3
 1127 0012 01D0     		beq	.L89
 669:Middlewares/ST/STM32_USB_Device_Library/Core/Src/usbd_core.c **** }
 1128              		.loc 1 669 10 view .LVU317
 1129 0014 0846     		mov	r0, r1
 1130              	.LVL94:
 1131              	.L79:
 670:Middlewares/ST/STM32_USB_Device_Library/Core/Src/usbd_core.c **** 
 1132              		.loc 1 670 1 view .LVU318
 1133 0016 38BD     		pop	{r3, r4, r5, pc}
 1134              	.LVL95:
 1135              	.L89:
 585:Middlewares/ST/STM32_USB_Device_Library/Core/Src/usbd_core.c ****       {
 1136              		.loc 1 585 7 is_stmt 1 view .LVU319
 585:Middlewares/ST/STM32_USB_Device_Library/Core/Src/usbd_core.c ****       {
ARM GAS  C:\Users\ADMINI~1\AppData\Local\Temp\ccpCjxJh.s 			page 41


 1137              		.loc 1 585 14 is_stmt 0 view .LVU320
 1138 0018 D0F85C11 		ldr	r1, [r0, #348]
 1139              	.LVL96:
 585:Middlewares/ST/STM32_USB_Device_Library/Core/Src/usbd_core.c ****       {
 1140              		.loc 1 585 32 view .LVU321
 1141 001c D0F86021 		ldr	r2, [r0, #352]
 585:Middlewares/ST/STM32_USB_Device_Library/Core/Src/usbd_core.c ****       {
 1142              		.loc 1 585 10 view .LVU322
 1143 0020 9142     		cmp	r1, r2
 1144 0022 09D8     		bhi	.L90
 594:Middlewares/ST/STM32_USB_Device_Library/Core/Src/usbd_core.c ****         {
 1145              		.loc 1 594 9 is_stmt 1 view .LVU323
 594:Middlewares/ST/STM32_USB_Device_Library/Core/Src/usbd_core.c ****         {
 1146              		.loc 1 594 30 is_stmt 0 view .LVU324
 1147 0024 90F8AA32 		ldrb	r3, [r0, #682]	@ zero_extendqisi2
 1148              	.LVL97:
 594:Middlewares/ST/STM32_USB_Device_Library/Core/Src/usbd_core.c ****         {
 1149              		.loc 1 594 30 view .LVU325
 1150 0028 03F01F03 		and	r3, r3, #31
 594:Middlewares/ST/STM32_USB_Device_Library/Core/Src/usbd_core.c ****         {
 1151              		.loc 1 594 9 view .LVU326
 1152 002c 012B     		cmp	r3, #1
 1153 002e 0ED0     		beq	.L81
 1154 0030 022B     		cmp	r3, #2
 1155 0032 1BD0     		beq	.L82
 1156 0034 2846     		mov	r0, r5
 1157              	.LVL98:
 594:Middlewares/ST/STM32_USB_Device_Library/Core/Src/usbd_core.c ****         {
 1158              		.loc 1 594 9 view .LVU327
 1159 0036 0FE0     		b	.L83
 1160              	.LVL99:
 1161              	.L90:
 587:Middlewares/ST/STM32_USB_Device_Library/Core/Src/usbd_core.c **** 
 1162              		.loc 1 587 9 is_stmt 1 view .LVU328
 587:Middlewares/ST/STM32_USB_Device_Library/Core/Src/usbd_core.c **** 
 1163              		.loc 1 587 25 is_stmt 0 view .LVU329
 1164 0038 891A     		subs	r1, r1, r2
 1165 003a C0F85C11 		str	r1, [r0, #348]
 589:Middlewares/ST/STM32_USB_Device_Library/Core/Src/usbd_core.c ****       }
 1166              		.loc 1 589 9 is_stmt 1 view .LVU330
 589:Middlewares/ST/STM32_USB_Device_Library/Core/Src/usbd_core.c ****       }
 1167              		.loc 1 589 15 is_stmt 0 view .LVU331
 1168 003e 8A42     		cmp	r2, r1
 1169 0040 28BF     		it	cs
 1170 0042 0A46     		movcs	r2, r1
 1171 0044 1946     		mov	r1, r3
 1172 0046 FFF7FEFF 		bl	USBD_CtlContinueRx
 1173              	.LVL100:
 669:Middlewares/ST/STM32_USB_Device_Library/Core/Src/usbd_core.c **** }
 1174              		.loc 1 669 10 view .LVU332
 1175 004a 2846     		mov	r0, r5
 1176 004c E3E7     		b	.L79
 1177              	.LVL101:
 1178              	.L81:
 603:Middlewares/ST/STM32_USB_Device_Library/Core/Src/usbd_core.c ****             break;
 1179              		.loc 1 603 13 is_stmt 1 view .LVU333
 603:Middlewares/ST/STM32_USB_Device_Library/Core/Src/usbd_core.c ****             break;
ARM GAS  C:\Users\ADMINI~1\AppData\Local\Temp\ccpCjxJh.s 			page 42


 1180              		.loc 1 603 19 is_stmt 0 view .LVU334
 1181 004e 90F8AE12 		ldrb	r1, [r0, #686]	@ zero_extendqisi2
 1182 0052 FFF7FEFF 		bl	USBD_CoreFindIF
 1183              	.LVL102:
 604:Middlewares/ST/STM32_USB_Device_Library/Core/Src/usbd_core.c **** 
 1184              		.loc 1 604 13 is_stmt 1 view .LVU335
 1185              	.L84:
 616:Middlewares/ST/STM32_USB_Device_Library/Core/Src/usbd_core.c ****         {
 1186              		.loc 1 616 9 view .LVU336
 616:Middlewares/ST/STM32_USB_Device_Library/Core/Src/usbd_core.c ****         {
 1187              		.loc 1 616 12 is_stmt 0 view .LVU337
 1188 0056 20B9     		cbnz	r0, .L85
 1189              	.LVL103:
 1190              	.L83:
 619:Middlewares/ST/STM32_USB_Device_Library/Core/Src/usbd_core.c ****           {
 1191              		.loc 1 619 11 is_stmt 1 view .LVU338
 619:Middlewares/ST/STM32_USB_Device_Library/Core/Src/usbd_core.c ****           {
 1192              		.loc 1 619 19 is_stmt 0 view .LVU339
 1193 0058 94F89C32 		ldrb	r3, [r4, #668]	@ zero_extendqisi2
 1194 005c DBB2     		uxtb	r3, r3
 619:Middlewares/ST/STM32_USB_Device_Library/Core/Src/usbd_core.c ****           {
 1195              		.loc 1 619 14 view .LVU340
 1196 005e 032B     		cmp	r3, #3
 1197 0060 09D0     		beq	.L91
 1198              	.L85:
 629:Middlewares/ST/STM32_USB_Device_Library/Core/Src/usbd_core.c ****       }
 1199              		.loc 1 629 9 is_stmt 1 view .LVU341
 629:Middlewares/ST/STM32_USB_Device_Library/Core/Src/usbd_core.c ****       }
 1200              		.loc 1 629 15 is_stmt 0 view .LVU342
 1201 0062 2046     		mov	r0, r4
 1202 0064 FFF7FEFF 		bl	USBD_CtlSendStatus
 1203              	.LVL104:
 669:Middlewares/ST/STM32_USB_Device_Library/Core/Src/usbd_core.c **** }
 1204              		.loc 1 669 10 view .LVU343
 1205 0068 2846     		mov	r0, r5
 1206 006a D4E7     		b	.L79
 1207              	.LVL105:
 1208              	.L82:
 607:Middlewares/ST/STM32_USB_Device_Library/Core/Src/usbd_core.c ****             break;
 1209              		.loc 1 607 13 is_stmt 1 view .LVU344
 607:Middlewares/ST/STM32_USB_Device_Library/Core/Src/usbd_core.c ****             break;
 1210              		.loc 1 607 19 is_stmt 0 view .LVU345
 1211 006c 90F8AE12 		ldrb	r1, [r0, #686]	@ zero_extendqisi2
 1212 0070 FFF7FEFF 		bl	USBD_CoreFindEP
 1213              	.LVL106:
 608:Middlewares/ST/STM32_USB_Device_Library/Core/Src/usbd_core.c **** 
 1214              		.loc 1 608 13 is_stmt 1 view .LVU346
 1215 0074 EFE7     		b	.L84
 1216              	.LVL107:
 1217              	.L91:
 621:Middlewares/ST/STM32_USB_Device_Library/Core/Src/usbd_core.c ****             {
 1218              		.loc 1 621 13 view .LVU347
 621:Middlewares/ST/STM32_USB_Device_Library/Core/Src/usbd_core.c ****             {
 1219              		.loc 1 621 29 is_stmt 0 view .LVU348
 1220 0076 00F1AE03 		add	r3, r0, #174
 1221 007a 54F82330 		ldr	r3, [r4, r3, lsl #2]
 621:Middlewares/ST/STM32_USB_Device_Library/Core/Src/usbd_core.c ****             {
ARM GAS  C:\Users\ADMINI~1\AppData\Local\Temp\ccpCjxJh.s 			page 43


 1222              		.loc 1 621 34 view .LVU349
 1223 007e 1A69     		ldr	r2, [r3, #16]
 621:Middlewares/ST/STM32_USB_Device_Library/Core/Src/usbd_core.c ****             {
 1224              		.loc 1 621 16 view .LVU350
 1225 0080 002A     		cmp	r2, #0
 1226 0082 EED0     		beq	.L85
 623:Middlewares/ST/STM32_USB_Device_Library/Core/Src/usbd_core.c ****               pdev->pClass[idx]->EP0_RxReady(pdev);
 1227              		.loc 1 623 15 is_stmt 1 view .LVU351
 623:Middlewares/ST/STM32_USB_Device_Library/Core/Src/usbd_core.c ****               pdev->pClass[idx]->EP0_RxReady(pdev);
 1228              		.loc 1 623 29 is_stmt 0 view .LVU352
 1229 0084 C4F8D402 		str	r0, [r4, #724]
 624:Middlewares/ST/STM32_USB_Device_Library/Core/Src/usbd_core.c ****             }
 1230              		.loc 1 624 15 is_stmt 1 view .LVU353
 624:Middlewares/ST/STM32_USB_Device_Library/Core/Src/usbd_core.c ****             }
 1231              		.loc 1 624 32 is_stmt 0 view .LVU354
 1232 0088 1B69     		ldr	r3, [r3, #16]
 624:Middlewares/ST/STM32_USB_Device_Library/Core/Src/usbd_core.c ****             }
 1233              		.loc 1 624 15 view .LVU355
 1234 008a 2046     		mov	r0, r4
 1235 008c 9847     		blx	r3
 1236              	.LVL108:
 1237 008e E8E7     		b	.L85
 1238              	.LVL109:
 1239              	.L78:
 649:Middlewares/ST/STM32_USB_Device_Library/Core/Src/usbd_core.c **** 
 1240              		.loc 1 649 5 is_stmt 1 view .LVU356
 649:Middlewares/ST/STM32_USB_Device_Library/Core/Src/usbd_core.c **** 
 1241              		.loc 1 649 11 is_stmt 0 view .LVU357
 1242 0090 01F07F01 		and	r1, r1, #127
 1243              	.LVL110:
 649:Middlewares/ST/STM32_USB_Device_Library/Core/Src/usbd_core.c **** 
 1244              		.loc 1 649 11 view .LVU358
 1245 0094 FFF7FEFF 		bl	USBD_CoreFindEP
 1246              	.LVL111:
 651:Middlewares/ST/STM32_USB_Device_Library/Core/Src/usbd_core.c ****     {
 1247              		.loc 1 651 5 is_stmt 1 view .LVU359
 651:Middlewares/ST/STM32_USB_Device_Library/Core/Src/usbd_core.c ****     {
 1248              		.loc 1 651 8 is_stmt 0 view .LVU360
 1249 0098 90B9     		cbnz	r0, .L87
 654:Middlewares/ST/STM32_USB_Device_Library/Core/Src/usbd_core.c ****       {
 1250              		.loc 1 654 7 is_stmt 1 view .LVU361
 654:Middlewares/ST/STM32_USB_Device_Library/Core/Src/usbd_core.c ****       {
 1251              		.loc 1 654 15 is_stmt 0 view .LVU362
 1252 009a 94F89C32 		ldrb	r3, [r4, #668]	@ zero_extendqisi2
 1253 009e DBB2     		uxtb	r3, r3
 654:Middlewares/ST/STM32_USB_Device_Library/Core/Src/usbd_core.c ****       {
 1254              		.loc 1 654 10 view .LVU363
 1255 00a0 032B     		cmp	r3, #3
 1256 00a2 B8D1     		bne	.L79
 656:Middlewares/ST/STM32_USB_Device_Library/Core/Src/usbd_core.c ****         {
 1257              		.loc 1 656 9 is_stmt 1 view .LVU364
 656:Middlewares/ST/STM32_USB_Device_Library/Core/Src/usbd_core.c ****         {
 1258              		.loc 1 656 25 is_stmt 0 view .LVU365
 1259 00a4 00F1AE03 		add	r3, r0, #174
 1260 00a8 54F82330 		ldr	r3, [r4, r3, lsl #2]
 656:Middlewares/ST/STM32_USB_Device_Library/Core/Src/usbd_core.c ****         {
 1261              		.loc 1 656 30 view .LVU366
ARM GAS  C:\Users\ADMINI~1\AppData\Local\Temp\ccpCjxJh.s 			page 44


 1262 00ac 9A69     		ldr	r2, [r3, #24]
 656:Middlewares/ST/STM32_USB_Device_Library/Core/Src/usbd_core.c ****         {
 1263              		.loc 1 656 12 view .LVU367
 1264 00ae 002A     		cmp	r2, #0
 1265 00b0 B1D0     		beq	.L79
 658:Middlewares/ST/STM32_USB_Device_Library/Core/Src/usbd_core.c ****           ret = (USBD_StatusTypeDef)pdev->pClass[idx]->DataOut(pdev, epnum);
 1266              		.loc 1 658 11 is_stmt 1 view .LVU368
 658:Middlewares/ST/STM32_USB_Device_Library/Core/Src/usbd_core.c ****           ret = (USBD_StatusTypeDef)pdev->pClass[idx]->DataOut(pdev, epnum);
 1267              		.loc 1 658 25 is_stmt 0 view .LVU369
 1268 00b2 C4F8D402 		str	r0, [r4, #724]
 659:Middlewares/ST/STM32_USB_Device_Library/Core/Src/usbd_core.c ****         }
 1269              		.loc 1 659 11 is_stmt 1 view .LVU370
 659:Middlewares/ST/STM32_USB_Device_Library/Core/Src/usbd_core.c ****         }
 1270              		.loc 1 659 54 is_stmt 0 view .LVU371
 1271 00b6 9B69     		ldr	r3, [r3, #24]
 659:Middlewares/ST/STM32_USB_Device_Library/Core/Src/usbd_core.c ****         }
 1272              		.loc 1 659 37 view .LVU372
 1273 00b8 2946     		mov	r1, r5
 1274 00ba 2046     		mov	r0, r4
 1275              	.LVL112:
 659:Middlewares/ST/STM32_USB_Device_Library/Core/Src/usbd_core.c ****         }
 1276              		.loc 1 659 37 view .LVU373
 1277 00bc 9847     		blx	r3
 1278              	.LVL113:
 662:Middlewares/ST/STM32_USB_Device_Library/Core/Src/usbd_core.c ****       {
 1279              		.loc 1 662 7 is_stmt 1 view .LVU374
 1280 00be AAE7     		b	.L79
 1281              	.LVL114:
 1282              	.L87:
 669:Middlewares/ST/STM32_USB_Device_Library/Core/Src/usbd_core.c **** }
 1283              		.loc 1 669 10 is_stmt 0 view .LVU375
 1284 00c0 0020     		movs	r0, #0
 1285              	.LVL115:
 669:Middlewares/ST/STM32_USB_Device_Library/Core/Src/usbd_core.c **** }
 1286              		.loc 1 669 10 view .LVU376
 1287 00c2 A8E7     		b	.L79
 1288              		.cfi_endproc
 1289              	.LFE248:
 1291              		.section	.text.USBD_LL_DataInStage,"ax",%progbits
 1292              		.align	1
 1293              		.global	USBD_LL_DataInStage
 1294              		.syntax unified
 1295              		.thumb
 1296              		.thumb_func
 1298              	USBD_LL_DataInStage:
 1299              	.LVL116:
 1300              	.LFB249:
 681:Middlewares/ST/STM32_USB_Device_Library/Core/Src/usbd_core.c ****   USBD_EndpointTypeDef *pep;
 1301              		.loc 1 681 1 is_stmt 1 view -0
 1302              		.cfi_startproc
 1303              		@ args = 0, pretend = 0, frame = 0
 1304              		@ frame_needed = 0, uses_anonymous_args = 0
 681:Middlewares/ST/STM32_USB_Device_Library/Core/Src/usbd_core.c ****   USBD_EndpointTypeDef *pep;
 1305              		.loc 1 681 1 is_stmt 0 view .LVU378
 1306 0000 38B5     		push	{r3, r4, r5, lr}
 1307              	.LCFI18:
 1308              		.cfi_def_cfa_offset 16
ARM GAS  C:\Users\ADMINI~1\AppData\Local\Temp\ccpCjxJh.s 			page 45


 1309              		.cfi_offset 3, -16
 1310              		.cfi_offset 4, -12
 1311              		.cfi_offset 5, -8
 1312              		.cfi_offset 14, -4
 1313 0002 0446     		mov	r4, r0
 682:Middlewares/ST/STM32_USB_Device_Library/Core/Src/usbd_core.c ****   USBD_StatusTypeDef ret;
 1314              		.loc 1 682 3 is_stmt 1 view .LVU379
 683:Middlewares/ST/STM32_USB_Device_Library/Core/Src/usbd_core.c ****   uint8_t idx;
 1315              		.loc 1 683 3 view .LVU380
 684:Middlewares/ST/STM32_USB_Device_Library/Core/Src/usbd_core.c **** 
 1316              		.loc 1 684 3 view .LVU381
 686:Middlewares/ST/STM32_USB_Device_Library/Core/Src/usbd_core.c ****   {
 1317              		.loc 1 686 3 view .LVU382
 686:Middlewares/ST/STM32_USB_Device_Library/Core/Src/usbd_core.c ****   {
 1318              		.loc 1 686 6 is_stmt 0 view .LVU383
 1319 0004 0D46     		mov	r5, r1
 1320 0006 0029     		cmp	r1, #0
 1321 0008 4BD1     		bne	.L93
 1322 000a 1346     		mov	r3, r2
 688:Middlewares/ST/STM32_USB_Device_Library/Core/Src/usbd_core.c **** 
 1323              		.loc 1 688 5 is_stmt 1 view .LVU384
 1324              	.LVL117:
 690:Middlewares/ST/STM32_USB_Device_Library/Core/Src/usbd_core.c ****     {
 1325              		.loc 1 690 5 view .LVU385
 690:Middlewares/ST/STM32_USB_Device_Library/Core/Src/usbd_core.c ****     {
 1326              		.loc 1 690 13 is_stmt 0 view .LVU386
 1327 000c D0F89422 		ldr	r2, [r0, #660]
 1328              	.LVL118:
 690:Middlewares/ST/STM32_USB_Device_Library/Core/Src/usbd_core.c ****     {
 1329              		.loc 1 690 8 view .LVU387
 1330 0010 022A     		cmp	r2, #2
 1331 0012 07D0     		beq	.L101
 1332              	.LVL119:
 1333              	.L94:
 738:Middlewares/ST/STM32_USB_Device_Library/Core/Src/usbd_core.c **** 
 1334              		.loc 1 738 5 is_stmt 1 view .LVU388
 740:Middlewares/ST/STM32_USB_Device_Library/Core/Src/usbd_core.c ****     {
 1335              		.loc 1 740 5 view .LVU389
 740:Middlewares/ST/STM32_USB_Device_Library/Core/Src/usbd_core.c ****     {
 1336              		.loc 1 740 13 is_stmt 0 view .LVU390
 1337 0014 94F8A002 		ldrb	r0, [r4, #672]	@ zero_extendqisi2
 740:Middlewares/ST/STM32_USB_Device_Library/Core/Src/usbd_core.c ****     {
 1338              		.loc 1 740 8 view .LVU391
 1339 0018 18B1     		cbz	r0, .L98
 742:Middlewares/ST/STM32_USB_Device_Library/Core/Src/usbd_core.c ****       pdev->dev_test_mode = 0U;
 1340              		.loc 1 742 7 is_stmt 1 view .LVU392
 743:Middlewares/ST/STM32_USB_Device_Library/Core/Src/usbd_core.c ****     }
 1341              		.loc 1 743 7 view .LVU393
 743:Middlewares/ST/STM32_USB_Device_Library/Core/Src/usbd_core.c ****     }
 1342              		.loc 1 743 27 is_stmt 0 view .LVU394
 1343 001a 0023     		movs	r3, #0
 1344 001c 84F8A032 		strb	r3, [r4, #672]
 770:Middlewares/ST/STM32_USB_Device_Library/Core/Src/usbd_core.c **** }
 1345              		.loc 1 770 10 view .LVU395
 1346 0020 2846     		mov	r0, r5
 1347              	.LVL120:
 1348              	.L98:
ARM GAS  C:\Users\ADMINI~1\AppData\Local\Temp\ccpCjxJh.s 			page 46


 771:Middlewares/ST/STM32_USB_Device_Library/Core/Src/usbd_core.c **** 
 1349              		.loc 1 771 1 view .LVU396
 1350 0022 38BD     		pop	{r3, r4, r5, pc}
 1351              	.LVL121:
 1352              	.L101:
 692:Middlewares/ST/STM32_USB_Device_Library/Core/Src/usbd_core.c ****       {
 1353              		.loc 1 692 7 is_stmt 1 view .LVU397
 692:Middlewares/ST/STM32_USB_Device_Library/Core/Src/usbd_core.c ****       {
 1354              		.loc 1 692 14 is_stmt 0 view .LVU398
 1355 0024 C269     		ldr	r2, [r0, #28]
 692:Middlewares/ST/STM32_USB_Device_Library/Core/Src/usbd_core.c ****       {
 1356              		.loc 1 692 32 view .LVU399
 1357 0026 016A     		ldr	r1, [r0, #32]
 1358              	.LVL122:
 692:Middlewares/ST/STM32_USB_Device_Library/Core/Src/usbd_core.c ****       {
 1359              		.loc 1 692 10 view .LVU400
 1360 0028 8A42     		cmp	r2, r1
 1361 002a 0ED8     		bhi	.L102
 704:Middlewares/ST/STM32_USB_Device_Library/Core/Src/usbd_core.c ****             (pep->total_length >= pep->maxpacket) &&
 1362              		.loc 1 704 9 is_stmt 1 view .LVU401
 704:Middlewares/ST/STM32_USB_Device_Library/Core/Src/usbd_core.c ****             (pep->total_length >= pep->maxpacket) &&
 1363              		.loc 1 704 12 is_stmt 0 view .LVU402
 1364 002c 8A42     		cmp	r2, r1
 1365 002e 18D0     		beq	.L103
 1366              	.LVL123:
 1367              	.L96:
 716:Middlewares/ST/STM32_USB_Device_Library/Core/Src/usbd_core.c ****           {
 1368              		.loc 1 716 11 is_stmt 1 view .LVU403
 716:Middlewares/ST/STM32_USB_Device_Library/Core/Src/usbd_core.c ****           {
 1369              		.loc 1 716 19 is_stmt 0 view .LVU404
 1370 0030 94F89C32 		ldrb	r3, [r4, #668]	@ zero_extendqisi2
 1371 0034 DBB2     		uxtb	r3, r3
 716:Middlewares/ST/STM32_USB_Device_Library/Core/Src/usbd_core.c ****           {
 1372              		.loc 1 716 14 view .LVU405
 1373 0036 032B     		cmp	r3, #3
 1374 0038 27D0     		beq	.L104
 1375              	.LVL124:
 1376              	.L97:
 724:Middlewares/ST/STM32_USB_Device_Library/Core/Src/usbd_core.c ****           (void)USBD_CtlReceiveStatus(pdev);
 1377              		.loc 1 724 11 is_stmt 1 view .LVU406
 724:Middlewares/ST/STM32_USB_Device_Library/Core/Src/usbd_core.c ****           (void)USBD_CtlReceiveStatus(pdev);
 1378              		.loc 1 724 17 is_stmt 0 view .LVU407
 1379 003a 8021     		movs	r1, #128
 1380 003c 2046     		mov	r0, r4
 1381 003e FFF7FEFF 		bl	USBD_LL_StallEP
 1382              	.LVL125:
 725:Middlewares/ST/STM32_USB_Device_Library/Core/Src/usbd_core.c ****         }
 1383              		.loc 1 725 11 is_stmt 1 view .LVU408
 725:Middlewares/ST/STM32_USB_Device_Library/Core/Src/usbd_core.c ****         }
 1384              		.loc 1 725 17 is_stmt 0 view .LVU409
 1385 0042 2046     		mov	r0, r4
 1386 0044 FFF7FEFF 		bl	USBD_CtlReceiveStatus
 1387              	.LVL126:
 1388 0048 E4E7     		b	.L94
 1389              	.LVL127:
 1390              	.L102:
 694:Middlewares/ST/STM32_USB_Device_Library/Core/Src/usbd_core.c **** 
ARM GAS  C:\Users\ADMINI~1\AppData\Local\Temp\ccpCjxJh.s 			page 47


 1391              		.loc 1 694 9 is_stmt 1 view .LVU410
 694:Middlewares/ST/STM32_USB_Device_Library/Core/Src/usbd_core.c **** 
 1392              		.loc 1 694 25 is_stmt 0 view .LVU411
 1393 004a 521A     		subs	r2, r2, r1
 1394 004c C261     		str	r2, [r0, #28]
 696:Middlewares/ST/STM32_USB_Device_Library/Core/Src/usbd_core.c **** 
 1395              		.loc 1 696 9 is_stmt 1 view .LVU412
 696:Middlewares/ST/STM32_USB_Device_Library/Core/Src/usbd_core.c **** 
 1396              		.loc 1 696 15 is_stmt 0 view .LVU413
 1397 004e 1946     		mov	r1, r3
 1398 0050 FFF7FEFF 		bl	USBD_CtlContinueSendData
 1399              	.LVL128:
 699:Middlewares/ST/STM32_USB_Device_Library/Core/Src/usbd_core.c ****       }
 1400              		.loc 1 699 9 is_stmt 1 view .LVU414
 699:Middlewares/ST/STM32_USB_Device_Library/Core/Src/usbd_core.c ****       }
 1401              		.loc 1 699 15 is_stmt 0 view .LVU415
 1402 0054 0023     		movs	r3, #0
 1403 0056 1A46     		mov	r2, r3
 1404 0058 1946     		mov	r1, r3
 1405 005a 2046     		mov	r0, r4
 1406 005c FFF7FEFF 		bl	USBD_LL_PrepareReceive
 1407              	.LVL129:
 1408 0060 D8E7     		b	.L94
 1409              	.LVL130:
 1410              	.L103:
 705:Middlewares/ST/STM32_USB_Device_Library/Core/Src/usbd_core.c ****             (pep->total_length < pdev->ep0_data_len))
 1411              		.loc 1 705 17 view .LVU416
 1412 0062 8369     		ldr	r3, [r0, #24]
 1413              	.LVL131:
 704:Middlewares/ST/STM32_USB_Device_Library/Core/Src/usbd_core.c ****             (pep->total_length >= pep->maxpacket) &&
 1414              		.loc 1 704 49 discriminator 1 view .LVU417
 1415 0064 9942     		cmp	r1, r3
 1416 0066 E3D8     		bhi	.L96
 706:Middlewares/ST/STM32_USB_Device_Library/Core/Src/usbd_core.c ****         {
 1417              		.loc 1 706 38 view .LVU418
 1418 0068 D0F89822 		ldr	r2, [r0, #664]
 705:Middlewares/ST/STM32_USB_Device_Library/Core/Src/usbd_core.c ****             (pep->total_length < pdev->ep0_data_len))
 1419              		.loc 1 705 51 view .LVU419
 1420 006c 9342     		cmp	r3, r2
 1421 006e DFD2     		bcs	.L96
 708:Middlewares/ST/STM32_USB_Device_Library/Core/Src/usbd_core.c ****           pdev->ep0_data_len = 0U;
 1422              		.loc 1 708 11 is_stmt 1 view .LVU420
 708:Middlewares/ST/STM32_USB_Device_Library/Core/Src/usbd_core.c ****           pdev->ep0_data_len = 0U;
 1423              		.loc 1 708 17 is_stmt 0 view .LVU421
 1424 0070 0022     		movs	r2, #0
 1425 0072 1146     		mov	r1, r2
 1426 0074 FFF7FEFF 		bl	USBD_CtlContinueSendData
 1427              	.LVL132:
 709:Middlewares/ST/STM32_USB_Device_Library/Core/Src/usbd_core.c **** 
 1428              		.loc 1 709 11 is_stmt 1 view .LVU422
 709:Middlewares/ST/STM32_USB_Device_Library/Core/Src/usbd_core.c **** 
 1429              		.loc 1 709 30 is_stmt 0 view .LVU423
 1430 0078 0021     		movs	r1, #0
 1431 007a C4F89812 		str	r1, [r4, #664]
 712:Middlewares/ST/STM32_USB_Device_Library/Core/Src/usbd_core.c ****         }
 1432              		.loc 1 712 11 is_stmt 1 view .LVU424
 712:Middlewares/ST/STM32_USB_Device_Library/Core/Src/usbd_core.c ****         }
ARM GAS  C:\Users\ADMINI~1\AppData\Local\Temp\ccpCjxJh.s 			page 48


 1433              		.loc 1 712 17 is_stmt 0 view .LVU425
 1434 007e 0B46     		mov	r3, r1
 1435 0080 0A46     		mov	r2, r1
 1436 0082 2046     		mov	r0, r4
 1437 0084 FFF7FEFF 		bl	USBD_LL_PrepareReceive
 1438              	.LVL133:
 712:Middlewares/ST/STM32_USB_Device_Library/Core/Src/usbd_core.c ****         }
 1439              		.loc 1 712 11 view .LVU426
 1440 0088 C4E7     		b	.L94
 1441              	.LVL134:
 1442              	.L104:
 718:Middlewares/ST/STM32_USB_Device_Library/Core/Src/usbd_core.c ****             {
 1443              		.loc 1 718 13 is_stmt 1 view .LVU427
 718:Middlewares/ST/STM32_USB_Device_Library/Core/Src/usbd_core.c ****             {
 1444              		.loc 1 718 29 is_stmt 0 view .LVU428
 1445 008a D4F8B832 		ldr	r3, [r4, #696]
 718:Middlewares/ST/STM32_USB_Device_Library/Core/Src/usbd_core.c ****             {
 1446              		.loc 1 718 32 view .LVU429
 1447 008e DA68     		ldr	r2, [r3, #12]
 718:Middlewares/ST/STM32_USB_Device_Library/Core/Src/usbd_core.c ****             {
 1448              		.loc 1 718 16 view .LVU430
 1449 0090 002A     		cmp	r2, #0
 1450 0092 D2D0     		beq	.L97
 720:Middlewares/ST/STM32_USB_Device_Library/Core/Src/usbd_core.c ****               pdev->pClass[0]->EP0_TxSent(pdev);
 1451              		.loc 1 720 15 is_stmt 1 view .LVU431
 720:Middlewares/ST/STM32_USB_Device_Library/Core/Src/usbd_core.c ****               pdev->pClass[0]->EP0_TxSent(pdev);
 1452              		.loc 1 720 29 is_stmt 0 view .LVU432
 1453 0094 0022     		movs	r2, #0
 1454 0096 C4F8D422 		str	r2, [r4, #724]
 721:Middlewares/ST/STM32_USB_Device_Library/Core/Src/usbd_core.c ****             }
 1455              		.loc 1 721 15 is_stmt 1 view .LVU433
 721:Middlewares/ST/STM32_USB_Device_Library/Core/Src/usbd_core.c ****             }
 1456              		.loc 1 721 30 is_stmt 0 view .LVU434
 1457 009a DB68     		ldr	r3, [r3, #12]
 721:Middlewares/ST/STM32_USB_Device_Library/Core/Src/usbd_core.c ****             }
 1458              		.loc 1 721 15 view .LVU435
 1459 009c 2046     		mov	r0, r4
 1460              	.LVL135:
 721:Middlewares/ST/STM32_USB_Device_Library/Core/Src/usbd_core.c ****             }
 1461              		.loc 1 721 15 view .LVU436
 1462 009e 9847     		blx	r3
 1463              	.LVL136:
 1464 00a0 CBE7     		b	.L97
 1465              	.LVL137:
 1466              	.L93:
 749:Middlewares/ST/STM32_USB_Device_Library/Core/Src/usbd_core.c **** 
 1467              		.loc 1 749 5 is_stmt 1 view .LVU437
 749:Middlewares/ST/STM32_USB_Device_Library/Core/Src/usbd_core.c **** 
 1468              		.loc 1 749 11 is_stmt 0 view .LVU438
 1469 00a2 41F08001 		orr	r1, r1, #128
 1470              	.LVL138:
 749:Middlewares/ST/STM32_USB_Device_Library/Core/Src/usbd_core.c **** 
 1471              		.loc 1 749 11 view .LVU439
 1472 00a6 FFF7FEFF 		bl	USBD_CoreFindEP
 1473              	.LVL139:
 751:Middlewares/ST/STM32_USB_Device_Library/Core/Src/usbd_core.c ****     {
 1474              		.loc 1 751 5 is_stmt 1 view .LVU440
ARM GAS  C:\Users\ADMINI~1\AppData\Local\Temp\ccpCjxJh.s 			page 49


 751:Middlewares/ST/STM32_USB_Device_Library/Core/Src/usbd_core.c ****     {
 1475              		.loc 1 751 8 is_stmt 0 view .LVU441
 1476 00aa 90B9     		cbnz	r0, .L99
 754:Middlewares/ST/STM32_USB_Device_Library/Core/Src/usbd_core.c ****       {
 1477              		.loc 1 754 7 is_stmt 1 view .LVU442
 754:Middlewares/ST/STM32_USB_Device_Library/Core/Src/usbd_core.c ****       {
 1478              		.loc 1 754 15 is_stmt 0 view .LVU443
 1479 00ac 94F89C32 		ldrb	r3, [r4, #668]	@ zero_extendqisi2
 1480 00b0 DBB2     		uxtb	r3, r3
 754:Middlewares/ST/STM32_USB_Device_Library/Core/Src/usbd_core.c ****       {
 1481              		.loc 1 754 10 view .LVU444
 1482 00b2 032B     		cmp	r3, #3
 1483 00b4 B5D1     		bne	.L98
 756:Middlewares/ST/STM32_USB_Device_Library/Core/Src/usbd_core.c ****         {
 1484              		.loc 1 756 9 is_stmt 1 view .LVU445
 756:Middlewares/ST/STM32_USB_Device_Library/Core/Src/usbd_core.c ****         {
 1485              		.loc 1 756 25 is_stmt 0 view .LVU446
 1486 00b6 00F1AE03 		add	r3, r0, #174
 1487 00ba 54F82330 		ldr	r3, [r4, r3, lsl #2]
 756:Middlewares/ST/STM32_USB_Device_Library/Core/Src/usbd_core.c ****         {
 1488              		.loc 1 756 30 view .LVU447
 1489 00be 5A69     		ldr	r2, [r3, #20]
 756:Middlewares/ST/STM32_USB_Device_Library/Core/Src/usbd_core.c ****         {
 1490              		.loc 1 756 12 view .LVU448
 1491 00c0 002A     		cmp	r2, #0
 1492 00c2 AED0     		beq	.L98
 758:Middlewares/ST/STM32_USB_Device_Library/Core/Src/usbd_core.c ****           ret = (USBD_StatusTypeDef)pdev->pClass[idx]->DataIn(pdev, epnum);
 1493              		.loc 1 758 11 is_stmt 1 view .LVU449
 758:Middlewares/ST/STM32_USB_Device_Library/Core/Src/usbd_core.c ****           ret = (USBD_StatusTypeDef)pdev->pClass[idx]->DataIn(pdev, epnum);
 1494              		.loc 1 758 25 is_stmt 0 view .LVU450
 1495 00c4 C4F8D402 		str	r0, [r4, #724]
 759:Middlewares/ST/STM32_USB_Device_Library/Core/Src/usbd_core.c **** 
 1496              		.loc 1 759 11 is_stmt 1 view .LVU451
 759:Middlewares/ST/STM32_USB_Device_Library/Core/Src/usbd_core.c **** 
 1497              		.loc 1 759 54 is_stmt 0 view .LVU452
 1498 00c8 5B69     		ldr	r3, [r3, #20]
 759:Middlewares/ST/STM32_USB_Device_Library/Core/Src/usbd_core.c **** 
 1499              		.loc 1 759 37 view .LVU453
 1500 00ca 2946     		mov	r1, r5
 1501 00cc 2046     		mov	r0, r4
 1502              	.LVL140:
 759:Middlewares/ST/STM32_USB_Device_Library/Core/Src/usbd_core.c **** 
 1503              		.loc 1 759 37 view .LVU454
 1504 00ce 9847     		blx	r3
 1505              	.LVL141:
 761:Middlewares/ST/STM32_USB_Device_Library/Core/Src/usbd_core.c ****           {
 1506              		.loc 1 761 11 is_stmt 1 view .LVU455
 1507 00d0 A7E7     		b	.L98
 1508              	.LVL142:
 1509              	.L99:
 770:Middlewares/ST/STM32_USB_Device_Library/Core/Src/usbd_core.c **** }
 1510              		.loc 1 770 10 is_stmt 0 view .LVU456
 1511 00d2 0020     		movs	r0, #0
 1512              	.LVL143:
 770:Middlewares/ST/STM32_USB_Device_Library/Core/Src/usbd_core.c **** }
 1513              		.loc 1 770 10 view .LVU457
 1514 00d4 A5E7     		b	.L98
ARM GAS  C:\Users\ADMINI~1\AppData\Local\Temp\ccpCjxJh.s 			page 50


 1515              		.cfi_endproc
 1516              	.LFE249:
 1518              		.section	.text.USBD_GetNextDesc,"ax",%progbits
 1519              		.align	1
 1520              		.global	USBD_GetNextDesc
 1521              		.syntax unified
 1522              		.thumb
 1523              		.thumb_func
 1525              	USBD_GetNextDesc:
 1526              	.LVL144:
 1527              	.LFB262:
1118:Middlewares/ST/STM32_USB_Device_Library/Core/Src/usbd_core.c **** 
1119:Middlewares/ST/STM32_USB_Device_Library/Core/Src/usbd_core.c **** #ifdef USE_USBD_COMPOSITE
1120:Middlewares/ST/STM32_USB_Device_Library/Core/Src/usbd_core.c **** /**
1121:Middlewares/ST/STM32_USB_Device_Library/Core/Src/usbd_core.c ****   * @brief  USBD_CoreGetEPAdd
1122:Middlewares/ST/STM32_USB_Device_Library/Core/Src/usbd_core.c ****   *         Get the endpoint address relative to a selected class
1123:Middlewares/ST/STM32_USB_Device_Library/Core/Src/usbd_core.c ****   * @param  pdev: device instance
1124:Middlewares/ST/STM32_USB_Device_Library/Core/Src/usbd_core.c ****   * @param  ep_dir: USBD_EP_IN or USBD_EP_OUT
1125:Middlewares/ST/STM32_USB_Device_Library/Core/Src/usbd_core.c ****   * @param  ep_type: USBD_EP_TYPE_CTRL, USBD_EP_TYPE_ISOC, USBD_EP_TYPE_BULK or USBD_EP_TYPE_INTR
1126:Middlewares/ST/STM32_USB_Device_Library/Core/Src/usbd_core.c ****   * @retval Address of the selected endpoint or 0xFFU if no endpoint found.
1127:Middlewares/ST/STM32_USB_Device_Library/Core/Src/usbd_core.c ****   */
1128:Middlewares/ST/STM32_USB_Device_Library/Core/Src/usbd_core.c **** uint8_t USBD_CoreGetEPAdd(USBD_HandleTypeDef *pdev, uint8_t ep_dir, uint8_t ep_type)
1129:Middlewares/ST/STM32_USB_Device_Library/Core/Src/usbd_core.c **** {
1130:Middlewares/ST/STM32_USB_Device_Library/Core/Src/usbd_core.c ****   uint8_t idx;
1131:Middlewares/ST/STM32_USB_Device_Library/Core/Src/usbd_core.c **** 
1132:Middlewares/ST/STM32_USB_Device_Library/Core/Src/usbd_core.c ****   /* Find the EP address in the selected class table */
1133:Middlewares/ST/STM32_USB_Device_Library/Core/Src/usbd_core.c ****   for (idx = 0; idx < pdev->tclasslist[pdev->classId].NumEps; idx++)
1134:Middlewares/ST/STM32_USB_Device_Library/Core/Src/usbd_core.c ****   {
1135:Middlewares/ST/STM32_USB_Device_Library/Core/Src/usbd_core.c ****     if (((pdev->tclasslist[pdev->classId].Eps[idx].add & USBD_EP_IN) == ep_dir) && \
1136:Middlewares/ST/STM32_USB_Device_Library/Core/Src/usbd_core.c ****         (pdev->tclasslist[pdev->classId].Eps[idx].type == ep_type) && \
1137:Middlewares/ST/STM32_USB_Device_Library/Core/Src/usbd_core.c ****         (pdev->tclasslist[pdev->classId].Eps[idx].is_used != 0U))
1138:Middlewares/ST/STM32_USB_Device_Library/Core/Src/usbd_core.c ****     {
1139:Middlewares/ST/STM32_USB_Device_Library/Core/Src/usbd_core.c ****       return (pdev->tclasslist[pdev->classId].Eps[idx].add);
1140:Middlewares/ST/STM32_USB_Device_Library/Core/Src/usbd_core.c ****     }
1141:Middlewares/ST/STM32_USB_Device_Library/Core/Src/usbd_core.c ****   }
1142:Middlewares/ST/STM32_USB_Device_Library/Core/Src/usbd_core.c **** 
1143:Middlewares/ST/STM32_USB_Device_Library/Core/Src/usbd_core.c ****   /* If reaching this point, then no endpoint was found */
1144:Middlewares/ST/STM32_USB_Device_Library/Core/Src/usbd_core.c ****   return 0xFFU;
1145:Middlewares/ST/STM32_USB_Device_Library/Core/Src/usbd_core.c **** }
1146:Middlewares/ST/STM32_USB_Device_Library/Core/Src/usbd_core.c **** #endif /* USE_USBD_COMPOSITE */
1147:Middlewares/ST/STM32_USB_Device_Library/Core/Src/usbd_core.c **** 
1148:Middlewares/ST/STM32_USB_Device_Library/Core/Src/usbd_core.c **** /**
1149:Middlewares/ST/STM32_USB_Device_Library/Core/Src/usbd_core.c ****   * @brief  USBD_GetEpDesc
1150:Middlewares/ST/STM32_USB_Device_Library/Core/Src/usbd_core.c ****   *         This function return the Endpoint descriptor
1151:Middlewares/ST/STM32_USB_Device_Library/Core/Src/usbd_core.c ****   * @param  pdev: device instance
1152:Middlewares/ST/STM32_USB_Device_Library/Core/Src/usbd_core.c ****   * @param  pConfDesc:  pointer to Bos descriptor
1153:Middlewares/ST/STM32_USB_Device_Library/Core/Src/usbd_core.c ****   * @param  EpAddr:  endpoint address
1154:Middlewares/ST/STM32_USB_Device_Library/Core/Src/usbd_core.c ****   * @retval pointer to video endpoint descriptor
1155:Middlewares/ST/STM32_USB_Device_Library/Core/Src/usbd_core.c ****   */
1156:Middlewares/ST/STM32_USB_Device_Library/Core/Src/usbd_core.c **** void *USBD_GetEpDesc(uint8_t *pConfDesc, uint8_t EpAddr)
1157:Middlewares/ST/STM32_USB_Device_Library/Core/Src/usbd_core.c **** {
1158:Middlewares/ST/STM32_USB_Device_Library/Core/Src/usbd_core.c ****   USBD_DescHeaderTypeDef *pdesc = (USBD_DescHeaderTypeDef *)(void *)pConfDesc;
1159:Middlewares/ST/STM32_USB_Device_Library/Core/Src/usbd_core.c ****   USBD_ConfigDescTypeDef *desc = (USBD_ConfigDescTypeDef *)(void *)pConfDesc;
1160:Middlewares/ST/STM32_USB_Device_Library/Core/Src/usbd_core.c ****   USBD_EpDescTypeDef *pEpDesc = NULL;
1161:Middlewares/ST/STM32_USB_Device_Library/Core/Src/usbd_core.c ****   uint16_t ptr;
1162:Middlewares/ST/STM32_USB_Device_Library/Core/Src/usbd_core.c **** 
1163:Middlewares/ST/STM32_USB_Device_Library/Core/Src/usbd_core.c ****   if (desc->wTotalLength > desc->bLength)
ARM GAS  C:\Users\ADMINI~1\AppData\Local\Temp\ccpCjxJh.s 			page 51


1164:Middlewares/ST/STM32_USB_Device_Library/Core/Src/usbd_core.c ****   {
1165:Middlewares/ST/STM32_USB_Device_Library/Core/Src/usbd_core.c ****     ptr = desc->bLength;
1166:Middlewares/ST/STM32_USB_Device_Library/Core/Src/usbd_core.c **** 
1167:Middlewares/ST/STM32_USB_Device_Library/Core/Src/usbd_core.c ****     while (ptr < desc->wTotalLength)
1168:Middlewares/ST/STM32_USB_Device_Library/Core/Src/usbd_core.c ****     {
1169:Middlewares/ST/STM32_USB_Device_Library/Core/Src/usbd_core.c ****       pdesc = USBD_GetNextDesc((uint8_t *)pdesc, &ptr);
1170:Middlewares/ST/STM32_USB_Device_Library/Core/Src/usbd_core.c **** 
1171:Middlewares/ST/STM32_USB_Device_Library/Core/Src/usbd_core.c ****       if (pdesc->bDescriptorType == USB_DESC_TYPE_ENDPOINT)
1172:Middlewares/ST/STM32_USB_Device_Library/Core/Src/usbd_core.c ****       {
1173:Middlewares/ST/STM32_USB_Device_Library/Core/Src/usbd_core.c ****         pEpDesc = (USBD_EpDescTypeDef *)(void *)pdesc;
1174:Middlewares/ST/STM32_USB_Device_Library/Core/Src/usbd_core.c **** 
1175:Middlewares/ST/STM32_USB_Device_Library/Core/Src/usbd_core.c ****         if (pEpDesc->bEndpointAddress == EpAddr)
1176:Middlewares/ST/STM32_USB_Device_Library/Core/Src/usbd_core.c ****         {
1177:Middlewares/ST/STM32_USB_Device_Library/Core/Src/usbd_core.c ****           break;
1178:Middlewares/ST/STM32_USB_Device_Library/Core/Src/usbd_core.c ****         }
1179:Middlewares/ST/STM32_USB_Device_Library/Core/Src/usbd_core.c ****         else
1180:Middlewares/ST/STM32_USB_Device_Library/Core/Src/usbd_core.c ****         {
1181:Middlewares/ST/STM32_USB_Device_Library/Core/Src/usbd_core.c ****           pEpDesc = NULL;
1182:Middlewares/ST/STM32_USB_Device_Library/Core/Src/usbd_core.c ****         }
1183:Middlewares/ST/STM32_USB_Device_Library/Core/Src/usbd_core.c ****       }
1184:Middlewares/ST/STM32_USB_Device_Library/Core/Src/usbd_core.c ****     }
1185:Middlewares/ST/STM32_USB_Device_Library/Core/Src/usbd_core.c ****   }
1186:Middlewares/ST/STM32_USB_Device_Library/Core/Src/usbd_core.c **** 
1187:Middlewares/ST/STM32_USB_Device_Library/Core/Src/usbd_core.c ****   return (void *)pEpDesc;
1188:Middlewares/ST/STM32_USB_Device_Library/Core/Src/usbd_core.c **** }
1189:Middlewares/ST/STM32_USB_Device_Library/Core/Src/usbd_core.c **** 
1190:Middlewares/ST/STM32_USB_Device_Library/Core/Src/usbd_core.c **** /**
1191:Middlewares/ST/STM32_USB_Device_Library/Core/Src/usbd_core.c ****   * @brief  USBD_GetNextDesc
1192:Middlewares/ST/STM32_USB_Device_Library/Core/Src/usbd_core.c ****   *         This function return the next descriptor header
1193:Middlewares/ST/STM32_USB_Device_Library/Core/Src/usbd_core.c ****   * @param  buf: Buffer where the descriptor is available
1194:Middlewares/ST/STM32_USB_Device_Library/Core/Src/usbd_core.c ****   * @param  ptr: data pointer inside the descriptor
1195:Middlewares/ST/STM32_USB_Device_Library/Core/Src/usbd_core.c ****   * @retval next header
1196:Middlewares/ST/STM32_USB_Device_Library/Core/Src/usbd_core.c ****   */
1197:Middlewares/ST/STM32_USB_Device_Library/Core/Src/usbd_core.c **** USBD_DescHeaderTypeDef *USBD_GetNextDesc(uint8_t *pbuf, uint16_t *ptr)
1198:Middlewares/ST/STM32_USB_Device_Library/Core/Src/usbd_core.c **** {
 1528              		.loc 1 1198 1 is_stmt 1 view -0
 1529              		.cfi_startproc
 1530              		@ args = 0, pretend = 0, frame = 0
 1531              		@ frame_needed = 0, uses_anonymous_args = 0
 1532              		@ link register save eliminated.
1199:Middlewares/ST/STM32_USB_Device_Library/Core/Src/usbd_core.c ****   USBD_DescHeaderTypeDef *pnext = (USBD_DescHeaderTypeDef *)(void *)pbuf;
 1533              		.loc 1 1199 3 view .LVU459
1200:Middlewares/ST/STM32_USB_Device_Library/Core/Src/usbd_core.c **** 
1201:Middlewares/ST/STM32_USB_Device_Library/Core/Src/usbd_core.c ****   *ptr += pnext->bLength;
 1534              		.loc 1 1201 3 view .LVU460
 1535 0000 0B88     		ldrh	r3, [r1]
 1536              		.loc 1 1201 16 is_stmt 0 view .LVU461
 1537 0002 0278     		ldrb	r2, [r0]	@ zero_extendqisi2
 1538              		.loc 1 1201 8 view .LVU462
 1539 0004 1344     		add	r3, r3, r2
 1540 0006 0B80     		strh	r3, [r1]	@ movhi
1202:Middlewares/ST/STM32_USB_Device_Library/Core/Src/usbd_core.c ****   pnext = (USBD_DescHeaderTypeDef *)(void *)(pbuf + pnext->bLength);
 1541              		.loc 1 1202 3 is_stmt 1 view .LVU463
 1542              		.loc 1 1202 58 is_stmt 0 view .LVU464
 1543 0008 0378     		ldrb	r3, [r0]	@ zero_extendqisi2
 1544              	.LVL145:
1203:Middlewares/ST/STM32_USB_Device_Library/Core/Src/usbd_core.c **** 
ARM GAS  C:\Users\ADMINI~1\AppData\Local\Temp\ccpCjxJh.s 			page 52


1204:Middlewares/ST/STM32_USB_Device_Library/Core/Src/usbd_core.c ****   return (pnext);
 1545              		.loc 1 1204 3 is_stmt 1 view .LVU465
1205:Middlewares/ST/STM32_USB_Device_Library/Core/Src/usbd_core.c **** }
 1546              		.loc 1 1205 1 is_stmt 0 view .LVU466
 1547 000a 1844     		add	r0, r0, r3
 1548              	.LVL146:
 1549              		.loc 1 1205 1 view .LVU467
 1550 000c 7047     		bx	lr
 1551              		.cfi_endproc
 1552              	.LFE262:
 1554              		.section	.text.USBD_GetEpDesc,"ax",%progbits
 1555              		.align	1
 1556              		.global	USBD_GetEpDesc
 1557              		.syntax unified
 1558              		.thumb
 1559              		.thumb_func
 1561              	USBD_GetEpDesc:
 1562              	.LVL147:
 1563              	.LFB261:
1157:Middlewares/ST/STM32_USB_Device_Library/Core/Src/usbd_core.c ****   USBD_DescHeaderTypeDef *pdesc = (USBD_DescHeaderTypeDef *)(void *)pConfDesc;
 1564              		.loc 1 1157 1 is_stmt 1 view -0
 1565              		.cfi_startproc
 1566              		@ args = 0, pretend = 0, frame = 8
 1567              		@ frame_needed = 0, uses_anonymous_args = 0
1158:Middlewares/ST/STM32_USB_Device_Library/Core/Src/usbd_core.c ****   USBD_ConfigDescTypeDef *desc = (USBD_ConfigDescTypeDef *)(void *)pConfDesc;
 1568              		.loc 1 1158 3 view .LVU469
1159:Middlewares/ST/STM32_USB_Device_Library/Core/Src/usbd_core.c ****   USBD_EpDescTypeDef *pEpDesc = NULL;
 1569              		.loc 1 1159 3 view .LVU470
1160:Middlewares/ST/STM32_USB_Device_Library/Core/Src/usbd_core.c ****   uint16_t ptr;
 1570              		.loc 1 1160 3 view .LVU471
1161:Middlewares/ST/STM32_USB_Device_Library/Core/Src/usbd_core.c **** 
 1571              		.loc 1 1161 3 view .LVU472
1163:Middlewares/ST/STM32_USB_Device_Library/Core/Src/usbd_core.c ****   {
 1572              		.loc 1 1163 3 view .LVU473
1163:Middlewares/ST/STM32_USB_Device_Library/Core/Src/usbd_core.c ****   {
 1573              		.loc 1 1163 11 is_stmt 0 view .LVU474
 1574 0000 4288     		ldrh	r2, [r0, #2]	@ unaligned
1163:Middlewares/ST/STM32_USB_Device_Library/Core/Src/usbd_core.c ****   {
 1575              		.loc 1 1163 32 view .LVU475
 1576 0002 0378     		ldrb	r3, [r0]	@ zero_extendqisi2
1163:Middlewares/ST/STM32_USB_Device_Library/Core/Src/usbd_core.c ****   {
 1577              		.loc 1 1163 6 view .LVU476
 1578 0004 9A42     		cmp	r2, r3
 1579 0006 18D9     		bls	.L110
1157:Middlewares/ST/STM32_USB_Device_Library/Core/Src/usbd_core.c ****   USBD_DescHeaderTypeDef *pdesc = (USBD_DescHeaderTypeDef *)(void *)pConfDesc;
 1580              		.loc 1 1157 1 view .LVU477
 1581 0008 30B5     		push	{r4, r5, lr}
 1582              	.LCFI19:
 1583              		.cfi_def_cfa_offset 12
 1584              		.cfi_offset 4, -12
 1585              		.cfi_offset 5, -8
 1586              		.cfi_offset 14, -4
 1587 000a 83B0     		sub	sp, sp, #12
 1588              	.LCFI20:
 1589              		.cfi_def_cfa_offset 24
 1590 000c 0446     		mov	r4, r0
 1591 000e 0D46     		mov	r5, r1
ARM GAS  C:\Users\ADMINI~1\AppData\Local\Temp\ccpCjxJh.s 			page 53


1165:Middlewares/ST/STM32_USB_Device_Library/Core/Src/usbd_core.c **** 
 1592              		.loc 1 1165 5 is_stmt 1 view .LVU478
1165:Middlewares/ST/STM32_USB_Device_Library/Core/Src/usbd_core.c **** 
 1593              		.loc 1 1165 9 is_stmt 0 view .LVU479
 1594 0010 ADF80630 		strh	r3, [sp, #6]	@ movhi
1167:Middlewares/ST/STM32_USB_Device_Library/Core/Src/usbd_core.c ****     {
 1595              		.loc 1 1167 5 is_stmt 1 view .LVU480
 1596              	.LVL148:
 1597              	.L108:
1167:Middlewares/ST/STM32_USB_Device_Library/Core/Src/usbd_core.c ****     {
 1598              		.loc 1 1167 16 view .LVU481
1167:Middlewares/ST/STM32_USB_Device_Library/Core/Src/usbd_core.c ****     {
 1599              		.loc 1 1167 22 is_stmt 0 view .LVU482
 1600 0014 6388     		ldrh	r3, [r4, #2]	@ unaligned
1167:Middlewares/ST/STM32_USB_Device_Library/Core/Src/usbd_core.c ****     {
 1601              		.loc 1 1167 16 view .LVU483
 1602 0016 BDF80620 		ldrh	r2, [sp, #6]
 1603 001a 9A42     		cmp	r2, r3
 1604 001c 0AD2     		bcs	.L115
1169:Middlewares/ST/STM32_USB_Device_Library/Core/Src/usbd_core.c **** 
 1605              		.loc 1 1169 7 is_stmt 1 view .LVU484
1169:Middlewares/ST/STM32_USB_Device_Library/Core/Src/usbd_core.c **** 
 1606              		.loc 1 1169 15 is_stmt 0 view .LVU485
 1607 001e 0DF10601 		add	r1, sp, #6
 1608 0022 FFF7FEFF 		bl	USBD_GetNextDesc
 1609              	.LVL149:
1171:Middlewares/ST/STM32_USB_Device_Library/Core/Src/usbd_core.c ****       {
 1610              		.loc 1 1171 7 is_stmt 1 view .LVU486
1171:Middlewares/ST/STM32_USB_Device_Library/Core/Src/usbd_core.c ****       {
 1611              		.loc 1 1171 16 is_stmt 0 view .LVU487
 1612 0026 4378     		ldrb	r3, [r0, #1]	@ zero_extendqisi2
1171:Middlewares/ST/STM32_USB_Device_Library/Core/Src/usbd_core.c ****       {
 1613              		.loc 1 1171 10 view .LVU488
 1614 0028 052B     		cmp	r3, #5
 1615 002a F3D1     		bne	.L108
1173:Middlewares/ST/STM32_USB_Device_Library/Core/Src/usbd_core.c **** 
 1616              		.loc 1 1173 9 is_stmt 1 view .LVU489
 1617              	.LVL150:
1175:Middlewares/ST/STM32_USB_Device_Library/Core/Src/usbd_core.c ****         {
 1618              		.loc 1 1175 9 view .LVU490
1175:Middlewares/ST/STM32_USB_Device_Library/Core/Src/usbd_core.c ****         {
 1619              		.loc 1 1175 20 is_stmt 0 view .LVU491
 1620 002c 8378     		ldrb	r3, [r0, #2]	@ zero_extendqisi2
1175:Middlewares/ST/STM32_USB_Device_Library/Core/Src/usbd_core.c ****         {
 1621              		.loc 1 1175 12 view .LVU492
 1622 002e AB42     		cmp	r3, r5
 1623 0030 F0D1     		bne	.L108
 1624 0032 00E0     		b	.L106
 1625              	.LVL151:
 1626              	.L115:
1175:Middlewares/ST/STM32_USB_Device_Library/Core/Src/usbd_core.c ****         {
 1627              		.loc 1 1175 12 view .LVU493
 1628 0034 0020     		movs	r0, #0
 1629              	.LVL152:
 1630              	.L106:
1188:Middlewares/ST/STM32_USB_Device_Library/Core/Src/usbd_core.c **** 
 1631              		.loc 1 1188 1 view .LVU494
ARM GAS  C:\Users\ADMINI~1\AppData\Local\Temp\ccpCjxJh.s 			page 54


 1632 0036 03B0     		add	sp, sp, #12
 1633              	.LCFI21:
 1634              		.cfi_def_cfa_offset 12
 1635              		@ sp needed
 1636 0038 30BD     		pop	{r4, r5, pc}
 1637              	.LVL153:
 1638              	.L110:
 1639              	.LCFI22:
 1640              		.cfi_def_cfa_offset 0
 1641              		.cfi_restore 4
 1642              		.cfi_restore 5
 1643              		.cfi_restore 14
1160:Middlewares/ST/STM32_USB_Device_Library/Core/Src/usbd_core.c ****   uint16_t ptr;
 1644              		.loc 1 1160 23 view .LVU495
 1645 003a 0020     		movs	r0, #0
 1646              	.LVL154:
1187:Middlewares/ST/STM32_USB_Device_Library/Core/Src/usbd_core.c **** }
 1647              		.loc 1 1187 3 is_stmt 1 view .LVU496
1188:Middlewares/ST/STM32_USB_Device_Library/Core/Src/usbd_core.c **** 
 1648              		.loc 1 1188 1 is_stmt 0 view .LVU497
 1649 003c 7047     		bx	lr
 1650              		.cfi_endproc
 1651              	.LFE261:
 1653              		.text
 1654              	.Letext0:
 1655              		.file 2 "D:/Msys2/mingw64/arm-none-eabi/include/machine/_default_types.h"
 1656              		.file 3 "D:/Msys2/mingw64/arm-none-eabi/include/sys/_stdint.h"
 1657              		.file 4 "Middlewares/ST/STM32_USB_Device_Library/Core/Inc/usbd_def.h"
 1658              		.file 5 "Middlewares/ST/STM32_USB_Device_Library/Core/Inc/usbd_core.h"
 1659              		.file 6 "Middlewares/ST/STM32_USB_Device_Library/Core/Inc/usbd_ioreq.h"
 1660              		.file 7 "Middlewares/ST/STM32_USB_Device_Library/Core/Inc/usbd_ctlreq.h"
ARM GAS  C:\Users\ADMINI~1\AppData\Local\Temp\ccpCjxJh.s 			page 55

