ARM GAS  C:\Users\ADMINI~1\AppData\Local\Temp\ccA0BXzZ.s 			page 1


   1              		.cpu cortex-m4
   2              		.arch armv7e-m
   3              		.fpu fpv4-sp-d16
   4              		.eabi_attribute 27, 1
   5              		.eabi_attribute 28, 1
   6              		.eabi_attribute 20, 1
   7              		.eabi_attribute 21, 1
   8              		.eabi_attribute 23, 3
   9              		.eabi_attribute 24, 1
  10              		.eabi_attribute 25, 1
  11              		.eabi_attribute 26, 1
  12              		.eabi_attribute 30, 1
  13              		.eabi_attribute 34, 1
  14              		.eabi_attribute 18, 4
  15              		.file	"xmmotor.c"
  16              		.text
  17              	.Ltext0:
  18              		.cfi_sections	.debug_frame
  19              		.file 1 "modules/motor/XMmotor/xmmotor.c"
  20              		.section	.text.uint16_to_float,"ax",%progbits
  21              		.align	1
  22              		.syntax unified
  23              		.thumb
  24              		.thumb_func
  26              	uint16_to_float:
  27              	.LVL0:
  28              	.LFB277:
   1:modules/motor/XMmotor/xmmotor.c **** #include "xmmotor.h"
   2:modules/motor/XMmotor/xmmotor.c **** #include "memory.h"
   3:modules/motor/XMmotor/xmmotor.c **** #include "general_def.h"
   4:modules/motor/XMmotor/xmmotor.c **** #include "user_lib.h"
   5:modules/motor/XMmotor/xmmotor.c **** #include "cmsis_os.h"
   6:modules/motor/XMmotor/xmmotor.c **** #include "string.h"
   7:modules/motor/XMmotor/xmmotor.c **** #include "daemon.h"
   8:modules/motor/XMmotor/xmmotor.c **** #include "stdlib.h"
   9:modules/motor/XMmotor/xmmotor.c **** #include "bsp_log.h"
  10:modules/motor/XMmotor/xmmotor.c **** 
  11:modules/motor/XMmotor/xmmotor.c **** static uint8_t idx;
  12:modules/motor/XMmotor/xmmotor.c **** static XMMotorInstance *xm_motor_instance[XM_MOTOR_CNT];
  13:modules/motor/XMmotor/xmmotor.c **** static osThreadId xm_task_handle[XM_MOTOR_CNT];
  14:modules/motor/XMmotor/xmmotor.c **** /* šł§šł™ÁĒ®šļéŚįÜuintŚÄľŚíĆfloatŚÄľŤŅõŤ°Ćśė†ŚįĄÁöĄŚáĹśēį,Śú®ŤģĺŚģöŚŹĎťÄĀŚÄľŚíĆŤß£śěźŚŹćť¶ąŚÄľśó∂šĹ
  15:modules/motor/XMmotor/xmmotor.c **** static uint16_t float_to_uint(float x, float x_min, float x_max, uint8_t bits)
  16:modules/motor/XMmotor/xmmotor.c **** {
  17:modules/motor/XMmotor/xmmotor.c ****     float span = x_max - x_min;
  18:modules/motor/XMmotor/xmmotor.c ****     float offset = x_min;
  19:modules/motor/XMmotor/xmmotor.c ****     return (uint16_t)((x - offset) * ((float)((1 << bits) - 1)) / span);
  20:modules/motor/XMmotor/xmmotor.c **** }
  21:modules/motor/XMmotor/xmmotor.c **** static float uint16_to_float(uint16_t x_int, float x_min, float x_max, int bits)
  22:modules/motor/XMmotor/xmmotor.c **** {
  29              		.loc 1 22 1 view -0
  30              		.cfi_startproc
  31              		@ args = 0, pretend = 0, frame = 0
  32              		@ frame_needed = 0, uses_anonymous_args = 0
  33              		@ link register save eliminated.
  34              		.loc 1 22 1 is_stmt 0 view .LVU1
  35 0000 07EE900A 		vmov	s15, r0	@ int
  23:modules/motor/XMmotor/xmmotor.c ****     uint32_t span = (1 << bits) - 1;
ARM GAS  C:\Users\ADMINI~1\AppData\Local\Temp\ccA0BXzZ.s 			page 2


  36              		.loc 1 23 5 is_stmt 1 view .LVU2
  37              		.loc 1 23 24 is_stmt 0 view .LVU3
  38 0004 0123     		movs	r3, #1
  39 0006 8B40     		lsls	r3, r3, r1
  40              		.loc 1 23 33 view .LVU4
  41 0008 013B     		subs	r3, r3, #1
  42              	.LVL1:
  24:modules/motor/XMmotor/xmmotor.c ****     float offset = x_max - x_min;
  43              		.loc 1 24 5 is_stmt 1 view .LVU5
  44              		.loc 1 24 11 is_stmt 0 view .LVU6
  45 000a 70EEC00A 		vsub.f32	s1, s1, s0
  46              	.LVL2:
  25:modules/motor/XMmotor/xmmotor.c ****     return offset * x_int / span + x_min;
  47              		.loc 1 25 5 is_stmt 1 view .LVU7
  48              		.loc 1 25 19 is_stmt 0 view .LVU8
  49 000e F8EEE77A 		vcvt.f32.s32	s15, s15
  50 0012 27EEA07A 		vmul.f32	s14, s15, s1
  51              		.loc 1 25 27 view .LVU9
  52 0016 07EE903A 		vmov	s15, r3	@ int
  53 001a F8EE677A 		vcvt.f32.u32	s15, s15
  54 001e C7EE276A 		vdiv.f32	s13, s14, s15
  26:modules/motor/XMmotor/xmmotor.c **** }
  55              		.loc 1 26 1 view .LVU10
  56 0022 36EE800A 		vadd.f32	s0, s13, s0
  57              	.LVL3:
  58              		.loc 1 26 1 view .LVU11
  59 0026 7047     		bx	lr
  60              		.cfi_endproc
  61              	.LFE277:
  63              		.section	.text.XMMotorLostCallback,"ax",%progbits
  64              		.align	1
  65              		.syntax unified
  66              		.thumb
  67              		.thumb_func
  69              	XMMotorLostCallback:
  70              	.LVL4:
  71              	.LFB280:
  27:modules/motor/XMmotor/xmmotor.c **** 
  28:modules/motor/XMmotor/xmmotor.c **** static void XMMotorSetMode(XMMotor_Mode_e cmd, XMMotorInstance *motor)
  29:modules/motor/XMmotor/xmmotor.c **** {
  30:modules/motor/XMmotor/xmmotor.c ****     // memset(motor->motor_can_instace->tx_buff, 0, 8);  
  31:modules/motor/XMmotor/xmmotor.c **** 
  32:modules/motor/XMmotor/xmmotor.c ****     if (cmd == XM_CMD_MOTOR_MODE)
  33:modules/motor/XMmotor/xmmotor.c ****     {
  34:modules/motor/XMmotor/xmmotor.c ****         memset(motor->motor_can_instace->tx_buff, 0, 8);  
  35:modules/motor/XMmotor/xmmotor.c ****         // motor->motor_can_instace->txconf.ExtId = 0x03 << 24 | 0x0 << 8 | motor->motor_can_instac
  36:modules/motor/XMmotor/xmmotor.c ****         motor->motor_can_instace->txconf.ExtId = 0x0300007f; 
  37:modules/motor/XMmotor/xmmotor.c ****         // motor->motor_can_instace->txconf.ExtId = 0; 
  38:modules/motor/XMmotor/xmmotor.c ****     }
  39:modules/motor/XMmotor/xmmotor.c ****     else if (cmd == XM_CMD_CURRENT_MODE)
  40:modules/motor/XMmotor/xmmotor.c ****     {
  41:modules/motor/XMmotor/xmmotor.c ****         motor->motor_can_instace->txconf.ExtId = 0x12 << 24 | 0x0 << 8 | motor->motor_can_instace->
  42:modules/motor/XMmotor/xmmotor.c ****         motor->motor_can_instace->txconf.ExtId = 0x1200007f; 
  43:modules/motor/XMmotor/xmmotor.c ****         motor->motor_can_instace->tx_buff[0] = (uint8_t)0x05;
  44:modules/motor/XMmotor/xmmotor.c ****         motor->motor_can_instace->tx_buff[1] = (uint8_t)0x70;
  45:modules/motor/XMmotor/xmmotor.c ****         motor->motor_can_instace->tx_buff[4] = (uint8_t)0x03;
  46:modules/motor/XMmotor/xmmotor.c ****     }
ARM GAS  C:\Users\ADMINI~1\AppData\Local\Temp\ccA0BXzZ.s 			page 3


  47:modules/motor/XMmotor/xmmotor.c **** 
  48:modules/motor/XMmotor/xmmotor.c ****     CANTransmit(motor->motor_can_instace, 1);
  49:modules/motor/XMmotor/xmmotor.c **** }
  50:modules/motor/XMmotor/xmmotor.c **** 
  51:modules/motor/XMmotor/xmmotor.c **** 
  52:modules/motor/XMmotor/xmmotor.c **** static void XMMotorDecode(CANInstance *motor_can)
  53:modules/motor/XMmotor/xmmotor.c **** {
  54:modules/motor/XMmotor/xmmotor.c ****     uint16_t tmp; // ÁĒ®šļéśöāŚ≠ėŤß£śěźŚÄľ,Á®ćŚźéŤĹ¨śćĘśąźfloatśēįśćģ,ťĀŅŚÖćŚ§öś¨°ŚąõŚĽļšłīśó∂ŚŹėťá
  55:modules/motor/XMmotor/xmmotor.c ****     uint8_t *rxbuff = motor_can->rx_buff;
  56:modules/motor/XMmotor/xmmotor.c ****     XMMotorInstance *motor = (XMMotorInstance *)motor_can->id;
  57:modules/motor/XMmotor/xmmotor.c ****     XM_Motor_Measure_s *measure = &(motor->measure); // ŚįÜcanŚģěšĺčšł≠šŅĚŚ≠ėÁöĄidŤĹ¨śćĘśąźÁĒĶśúļŚģ
  58:modules/motor/XMmotor/xmmotor.c **** 
  59:modules/motor/XMmotor/xmmotor.c ****     DaemonReload(motor->motor_daemon);
  60:modules/motor/XMmotor/xmmotor.c **** 
  61:modules/motor/XMmotor/xmmotor.c ****     measure->last_position = measure->position;
  62:modules/motor/XMmotor/xmmotor.c ****     tmp = (uint16_t)(rxbuff[0] << 8 | rxbuff[1]);
  63:modules/motor/XMmotor/xmmotor.c ****     measure->position = uint16_to_float(tmp, XM_P_MIN, XM_P_MAX, 16);
  64:modules/motor/XMmotor/xmmotor.c **** 
  65:modules/motor/XMmotor/xmmotor.c ****     tmp = (uint16_t)(rxbuff[2] << 8 | rxbuff[3]);
  66:modules/motor/XMmotor/xmmotor.c ****     measure->velocity = uint16_to_float(tmp, XM_V_MIN, XM_V_MAX, 16);
  67:modules/motor/XMmotor/xmmotor.c **** 
  68:modules/motor/XMmotor/xmmotor.c ****     tmp = (uint16_t)(rxbuff[4] << 8 | rxbuff[5]);
  69:modules/motor/XMmotor/xmmotor.c ****     measure->torque = uint16_to_float(tmp, XM_T_MIN, XM_T_MAX, 16);
  70:modules/motor/XMmotor/xmmotor.c **** 
  71:modules/motor/XMmotor/xmmotor.c ****     measure->temperature = (float)((rxbuff[6] << 8) | rxbuff[7]) * 0.1;
  72:modules/motor/XMmotor/xmmotor.c **** }
  73:modules/motor/XMmotor/xmmotor.c **** 
  74:modules/motor/XMmotor/xmmotor.c **** static void XMMotorLostCallback(void *motor_ptr)
  75:modules/motor/XMmotor/xmmotor.c **** {
  72              		.loc 1 75 1 is_stmt 1 view -0
  73              		.cfi_startproc
  74              		@ args = 0, pretend = 0, frame = 0
  75              		@ frame_needed = 0, uses_anonymous_args = 0
  76              		@ link register save eliminated.
  76:modules/motor/XMmotor/xmmotor.c **** }
  77              		.loc 1 76 1 view .LVU13
  78 0000 7047     		bx	lr
  79              		.cfi_endproc
  80              	.LFE280:
  82              		.global	__aeabi_f2d
  83              		.global	__aeabi_dmul
  84              		.global	__aeabi_d2f
  85              		.section	.text.XMMotorDecode,"ax",%progbits
  86              		.align	1
  87              		.syntax unified
  88              		.thumb
  89              		.thumb_func
  91              	XMMotorDecode:
  92              	.LVL5:
  93              	.LFB279:
  53:modules/motor/XMmotor/xmmotor.c ****     uint16_t tmp; // ÁĒ®šļéśöāŚ≠ėŤß£śěźŚÄľ,Á®ćŚźéŤĹ¨śćĘśąźfloatśēįśćģ,ťĀŅŚÖćŚ§öś¨°ŚąõŚĽļšłīśó∂ŚŹėťá
  94              		.loc 1 53 1 view -0
  95              		.cfi_startproc
  96              		@ args = 0, pretend = 0, frame = 0
  97              		@ frame_needed = 0, uses_anonymous_args = 0
  53:modules/motor/XMmotor/xmmotor.c ****     uint16_t tmp; // ÁĒ®šļéśöāŚ≠ėŤß£śěźŚÄľ,Á®ćŚźéŤĹ¨śćĘśąźfloatśēįśćģ,ťĀŅŚÖćŚ§öś¨°ŚąõŚĽļšłīśó∂ŚŹėťá
  98              		.loc 1 53 1 is_stmt 0 view .LVU15
ARM GAS  C:\Users\ADMINI~1\AppData\Local\Temp\ccA0BXzZ.s 			page 4


  99 0000 38B5     		push	{r3, r4, r5, lr}
 100              	.LCFI0:
 101              		.cfi_def_cfa_offset 16
 102              		.cfi_offset 3, -16
 103              		.cfi_offset 4, -12
 104              		.cfi_offset 5, -8
 105              		.cfi_offset 14, -4
 106 0002 0446     		mov	r4, r0
  54:modules/motor/XMmotor/xmmotor.c ****     uint8_t *rxbuff = motor_can->rx_buff;
 107              		.loc 1 54 5 is_stmt 1 view .LVU16
  55:modules/motor/XMmotor/xmmotor.c ****     XMMotorInstance *motor = (XMMotorInstance *)motor_can->id;
 108              		.loc 1 55 5 view .LVU17
 109              	.LVL6:
  56:modules/motor/XMmotor/xmmotor.c ****     XM_Motor_Measure_s *measure = &(motor->measure); // ŚįÜcanŚģěšĺčšł≠šŅĚŚ≠ėÁöĄidŤĹ¨śćĘśąźÁĒĶśúļŚģ
 110              		.loc 1 56 5 view .LVU18
  56:modules/motor/XMmotor/xmmotor.c ****     XM_Motor_Measure_s *measure = &(motor->measure); // ŚįÜcanŚģěšĺčšł≠šŅĚŚ≠ėÁöĄidŤĹ¨śćĘśąźÁĒĶśúļŚģ
 111              		.loc 1 56 22 is_stmt 0 view .LVU19
 112 0004 D0F84150 		ldr	r5, [r0, #65]	@ unaligned
 113              	.LVL7:
  57:modules/motor/XMmotor/xmmotor.c **** 
 114              		.loc 1 57 5 is_stmt 1 view .LVU20
  59:modules/motor/XMmotor/xmmotor.c **** 
 115              		.loc 1 59 5 view .LVU21
 116 0008 D5F8B801 		ldr	r0, [r5, #440]
 117              	.LVL8:
  59:modules/motor/XMmotor/xmmotor.c **** 
 118              		.loc 1 59 5 is_stmt 0 view .LVU22
 119 000c FFF7FEFF 		bl	DaemonReload
 120              	.LVL9:
  61:modules/motor/XMmotor/xmmotor.c ****     tmp = (uint16_t)(rxbuff[0] << 8 | rxbuff[1]);
 121              		.loc 1 61 5 is_stmt 1 view .LVU23
  61:modules/motor/XMmotor/xmmotor.c ****     tmp = (uint16_t)(rxbuff[0] << 8 | rxbuff[1]);
 122              		.loc 1 61 37 is_stmt 0 view .LVU24
 123 0010 EB68     		ldr	r3, [r5, #12]	@ float
  61:modules/motor/XMmotor/xmmotor.c ****     tmp = (uint16_t)(rxbuff[0] << 8 | rxbuff[1]);
 124              		.loc 1 61 28 view .LVU25
 125 0012 AB60     		str	r3, [r5, #8]	@ float
  62:modules/motor/XMmotor/xmmotor.c ****     measure->position = uint16_to_float(tmp, XM_P_MIN, XM_P_MAX, 16);
 126              		.loc 1 62 5 is_stmt 1 view .LVU26
  62:modules/motor/XMmotor/xmmotor.c ****     measure->position = uint16_to_float(tmp, XM_P_MIN, XM_P_MAX, 16);
 127              		.loc 1 62 28 is_stmt 0 view .LVU27
 128 0014 94F82C00 		ldrb	r0, [r4, #44]	@ zero_extendqisi2
  62:modules/motor/XMmotor/xmmotor.c ****     measure->position = uint16_to_float(tmp, XM_P_MIN, XM_P_MAX, 16);
 129              		.loc 1 62 45 view .LVU28
 130 0018 94F82D30 		ldrb	r3, [r4, #45]	@ zero_extendqisi2
 131              	.LVL10:
  63:modules/motor/XMmotor/xmmotor.c **** 
 132              		.loc 1 63 5 is_stmt 1 view .LVU29
  63:modules/motor/XMmotor/xmmotor.c **** 
 133              		.loc 1 63 25 is_stmt 0 view .LVU30
 134 001c 1021     		movs	r1, #16
 135 001e DFED220A 		vldr.32	s1, .L5+8
 136 0022 9FED220A 		vldr.32	s0, .L5+12
 137 0026 43EA0020 		orr	r0, r3, r0, lsl #8
 138              	.LVL11:
  63:modules/motor/XMmotor/xmmotor.c **** 
 139              		.loc 1 63 25 view .LVU31
ARM GAS  C:\Users\ADMINI~1\AppData\Local\Temp\ccA0BXzZ.s 			page 5


 140 002a FFF7FEFF 		bl	uint16_to_float
 141              	.LVL12:
  63:modules/motor/XMmotor/xmmotor.c **** 
 142              		.loc 1 63 23 discriminator 1 view .LVU32
 143 002e 85ED030A 		vstr.32	s0, [r5, #12]
  65:modules/motor/XMmotor/xmmotor.c ****     measure->velocity = uint16_to_float(tmp, XM_V_MIN, XM_V_MAX, 16);
 144              		.loc 1 65 5 is_stmt 1 view .LVU33
  65:modules/motor/XMmotor/xmmotor.c ****     measure->velocity = uint16_to_float(tmp, XM_V_MIN, XM_V_MAX, 16);
 145              		.loc 1 65 28 is_stmt 0 view .LVU34
 146 0032 94F82E00 		ldrb	r0, [r4, #46]	@ zero_extendqisi2
  65:modules/motor/XMmotor/xmmotor.c ****     measure->velocity = uint16_to_float(tmp, XM_V_MIN, XM_V_MAX, 16);
 147              		.loc 1 65 45 view .LVU35
 148 0036 94F82F30 		ldrb	r3, [r4, #47]	@ zero_extendqisi2
 149              	.LVL13:
  66:modules/motor/XMmotor/xmmotor.c **** 
 150              		.loc 1 66 5 is_stmt 1 view .LVU36
  66:modules/motor/XMmotor/xmmotor.c **** 
 151              		.loc 1 66 25 is_stmt 0 view .LVU37
 152 003a 1021     		movs	r1, #16
 153 003c F3EE0E0A 		vmov.f32	s1, #3.0e+1
 154 0040 BBEE0E0A 		vmov.f32	s0, #-3.0e+1
 155 0044 43EA0020 		orr	r0, r3, r0, lsl #8
 156              	.LVL14:
  66:modules/motor/XMmotor/xmmotor.c **** 
 157              		.loc 1 66 25 view .LVU38
 158 0048 FFF7FEFF 		bl	uint16_to_float
 159              	.LVL15:
  66:modules/motor/XMmotor/xmmotor.c **** 
 160              		.loc 1 66 23 discriminator 1 view .LVU39
 161 004c 85ED010A 		vstr.32	s0, [r5, #4]
  68:modules/motor/XMmotor/xmmotor.c ****     measure->torque = uint16_to_float(tmp, XM_T_MIN, XM_T_MAX, 16);
 162              		.loc 1 68 5 is_stmt 1 view .LVU40
  68:modules/motor/XMmotor/xmmotor.c ****     measure->torque = uint16_to_float(tmp, XM_T_MIN, XM_T_MAX, 16);
 163              		.loc 1 68 28 is_stmt 0 view .LVU41
 164 0050 94F83000 		ldrb	r0, [r4, #48]	@ zero_extendqisi2
  68:modules/motor/XMmotor/xmmotor.c ****     measure->torque = uint16_to_float(tmp, XM_T_MIN, XM_T_MAX, 16);
 165              		.loc 1 68 45 view .LVU42
 166 0054 94F83130 		ldrb	r3, [r4, #49]	@ zero_extendqisi2
 167              	.LVL16:
  69:modules/motor/XMmotor/xmmotor.c **** 
 168              		.loc 1 69 5 is_stmt 1 view .LVU43
  69:modules/motor/XMmotor/xmmotor.c **** 
 169              		.loc 1 69 23 is_stmt 0 view .LVU44
 170 0058 1021     		movs	r1, #16
 171 005a F2EE080A 		vmov.f32	s1, #1.2e+1
 172 005e BAEE080A 		vmov.f32	s0, #-1.2e+1
 173 0062 43EA0020 		orr	r0, r3, r0, lsl #8
 174              	.LVL17:
  69:modules/motor/XMmotor/xmmotor.c **** 
 175              		.loc 1 69 23 view .LVU45
 176 0066 FFF7FEFF 		bl	uint16_to_float
 177              	.LVL18:
  69:modules/motor/XMmotor/xmmotor.c **** 
 178              		.loc 1 69 21 discriminator 1 view .LVU46
 179 006a 85ED040A 		vstr.32	s0, [r5, #16]
  71:modules/motor/XMmotor/xmmotor.c **** }
 180              		.loc 1 71 5 is_stmt 1 view .LVU47
ARM GAS  C:\Users\ADMINI~1\AppData\Local\Temp\ccA0BXzZ.s 			page 6


  71:modules/motor/XMmotor/xmmotor.c **** }
 181              		.loc 1 71 43 is_stmt 0 view .LVU48
 182 006e 94F83230 		ldrb	r3, [r4, #50]	@ zero_extendqisi2
  71:modules/motor/XMmotor/xmmotor.c **** }
 183              		.loc 1 71 61 view .LVU49
 184 0072 94F83300 		ldrb	r0, [r4, #51]	@ zero_extendqisi2
  71:modules/motor/XMmotor/xmmotor.c **** }
 185              		.loc 1 71 53 view .LVU50
 186 0076 40EA0320 		orr	r0, r0, r3, lsl #8
  71:modules/motor/XMmotor/xmmotor.c **** }
 187              		.loc 1 71 28 view .LVU51
 188 007a 07EE900A 		vmov	s15, r0	@ int
 189 007e F8EEE77A 		vcvt.f32.s32	s15, s15
 190 0082 17EE900A 		vmov	r0, s15
 191 0086 FFF7FEFF 		bl	__aeabi_f2d
 192              	.LVL19:
  71:modules/motor/XMmotor/xmmotor.c **** }
 193              		.loc 1 71 66 view .LVU52
 194 008a 05A3     		adr	r3, .L5
 195 008c D3E90023 		ldrd	r2, [r3]
 196 0090 FFF7FEFF 		bl	__aeabi_dmul
 197              	.LVL20:
 198 0094 FFF7FEFF 		bl	__aeabi_d2f
 199              	.LVL21:
  71:modules/motor/XMmotor/xmmotor.c **** }
 200              		.loc 1 71 26 view .LVU53
 201 0098 E861     		str	r0, [r5, #28]	@ float
  72:modules/motor/XMmotor/xmmotor.c **** 
 202              		.loc 1 72 1 view .LVU54
 203 009a 38BD     		pop	{r3, r4, r5, pc}
 204              	.LVL22:
 205              	.L6:
  72:modules/motor/XMmotor/xmmotor.c **** 
 206              		.loc 1 72 1 view .LVU55
 207 009c AFF30080 		.align	3
 208              	.L5:
 209 00a0 9A999999 		.word	-1717986918
 210 00a4 9999B93F 		.word	1069128089
 211 00a8 00003444 		.word	1144258560
 212 00ac 000034C4 		.word	-1003225088
 213              		.cfi_endproc
 214              	.LFE279:
 216              		.section	.text.XMMotorSetMode,"ax",%progbits
 217              		.align	1
 218              		.syntax unified
 219              		.thumb
 220              		.thumb_func
 222              	XMMotorSetMode:
 223              	.LVL23:
 224              	.LFB278:
  29:modules/motor/XMmotor/xmmotor.c ****     // memset(motor->motor_can_instace->tx_buff, 0, 8);  
 225              		.loc 1 29 1 is_stmt 1 view -0
 226              		.cfi_startproc
 227              		@ args = 0, pretend = 0, frame = 0
 228              		@ frame_needed = 0, uses_anonymous_args = 0
  29:modules/motor/XMmotor/xmmotor.c ****     // memset(motor->motor_can_instace->tx_buff, 0, 8);  
 229              		.loc 1 29 1 is_stmt 0 view .LVU57
ARM GAS  C:\Users\ADMINI~1\AppData\Local\Temp\ccA0BXzZ.s 			page 7


 230 0000 08B5     		push	{r3, lr}
 231              	.LCFI1:
 232              		.cfi_def_cfa_offset 8
 233              		.cfi_offset 3, -8
 234              		.cfi_offset 14, -4
  32:modules/motor/XMmotor/xmmotor.c ****     {
 235              		.loc 1 32 5 is_stmt 1 view .LVU58
  32:modules/motor/XMmotor/xmmotor.c ****     {
 236              		.loc 1 32 8 is_stmt 0 view .LVU59
 237 0002 0328     		cmp	r0, #3
 238 0004 08D0     		beq	.L11
  39:modules/motor/XMmotor/xmmotor.c ****     {
 239              		.loc 1 39 10 is_stmt 1 view .LVU60
  39:modules/motor/XMmotor/xmmotor.c ****     {
 240              		.loc 1 39 13 is_stmt 0 view .LVU61
 241 0006 1228     		cmp	r0, #18
 242 0008 14D0     		beq	.L12
 243              	.LVL24:
 244              	.L9:
  48:modules/motor/XMmotor/xmmotor.c **** }
 245              		.loc 1 48 5 is_stmt 1 view .LVU62
 246 000a B7EE000A 		vmov.f32	s0, #1.0e+0
 247 000e D1F8B401 		ldr	r0, [r1, #436]
 248 0012 FFF7FEFF 		bl	CANTransmit
 249              	.LVL25:
  49:modules/motor/XMmotor/xmmotor.c **** 
 250              		.loc 1 49 1 is_stmt 0 view .LVU63
 251 0016 08BD     		pop	{r3, pc}
 252              	.LVL26:
 253              	.L11:
  34:modules/motor/XMmotor/xmmotor.c ****         // motor->motor_can_instace->txconf.ExtId = 0x03 << 24 | 0x0 << 8 | motor->motor_can_instac
 254              		.loc 1 34 9 is_stmt 1 view .LVU64
  34:modules/motor/XMmotor/xmmotor.c ****         // motor->motor_can_instace->txconf.ExtId = 0x03 << 24 | 0x0 << 8 | motor->motor_can_instac
 255              		.loc 1 34 21 is_stmt 0 view .LVU65
 256 0018 D1F8B431 		ldr	r3, [r1, #436]
  34:modules/motor/XMmotor/xmmotor.c ****         // motor->motor_can_instace->txconf.ExtId = 0x03 << 24 | 0x0 << 8 | motor->motor_can_instac
 257              		.loc 1 34 9 view .LVU66
 258 001c 0022     		movs	r2, #0
 259 001e 5A62     		str	r2, [r3, #36]	@ unaligned
 260 0020 9A62     		str	r2, [r3, #40]	@ unaligned
  36:modules/motor/XMmotor/xmmotor.c ****         // motor->motor_can_instace->txconf.ExtId = 0; 
 261              		.loc 1 36 9 is_stmt 1 view .LVU67
  36:modules/motor/XMmotor/xmmotor.c ****         // motor->motor_can_instace->txconf.ExtId = 0; 
 262              		.loc 1 36 14 is_stmt 0 view .LVU68
 263 0022 D1F8B431 		ldr	r3, [r1, #436]
  36:modules/motor/XMmotor/xmmotor.c ****         // motor->motor_can_instace->txconf.ExtId = 0; 
 264              		.loc 1 36 48 view .LVU69
 265 0026 7F20     		movs	r0, #127
 266              	.LVL27:
  36:modules/motor/XMmotor/xmmotor.c ****         // motor->motor_can_instace->txconf.ExtId = 0; 
 267              		.loc 1 36 48 view .LVU70
 268 0028 1872     		strb	r0, [r3, #8]
 269 002a 5A72     		strb	r2, [r3, #9]
 270 002c 9A72     		strb	r2, [r3, #10]
 271 002e 0322     		movs	r2, #3
 272 0030 DA72     		strb	r2, [r3, #11]
 273 0032 EAE7     		b	.L9
ARM GAS  C:\Users\ADMINI~1\AppData\Local\Temp\ccA0BXzZ.s 			page 8


 274              	.LVL28:
 275              	.L12:
  41:modules/motor/XMmotor/xmmotor.c ****         motor->motor_can_instace->txconf.ExtId = 0x1200007f; 
 276              		.loc 1 41 9 is_stmt 1 view .LVU71
  41:modules/motor/XMmotor/xmmotor.c ****         motor->motor_can_instace->txconf.ExtId = 0x1200007f; 
 277              		.loc 1 41 79 is_stmt 0 view .LVU72
 278 0034 D1F8B421 		ldr	r2, [r1, #436]
  41:modules/motor/XMmotor/xmmotor.c ****         motor->motor_can_instace->txconf.ExtId = 0x1200007f; 
 279              		.loc 1 41 98 view .LVU73
 280 0038 D369     		ldr	r3, [r2, #28]	@ unaligned
  41:modules/motor/XMmotor/xmmotor.c ****         motor->motor_can_instace->txconf.ExtId = 0x1200007f; 
 281              		.loc 1 41 72 view .LVU74
 282 003a 43F09053 		orr	r3, r3, #301989888
  41:modules/motor/XMmotor/xmmotor.c ****         motor->motor_can_instace->txconf.ExtId = 0x1200007f; 
 283              		.loc 1 41 48 view .LVU75
 284 003e 9360     		str	r3, [r2, #8]	@ unaligned
  42:modules/motor/XMmotor/xmmotor.c ****         motor->motor_can_instace->tx_buff[0] = (uint8_t)0x05;
 285              		.loc 1 42 9 is_stmt 1 view .LVU76
  42:modules/motor/XMmotor/xmmotor.c ****         motor->motor_can_instace->tx_buff[0] = (uint8_t)0x05;
 286              		.loc 1 42 14 is_stmt 0 view .LVU77
 287 0040 D1F8B431 		ldr	r3, [r1, #436]
  42:modules/motor/XMmotor/xmmotor.c ****         motor->motor_can_instace->tx_buff[0] = (uint8_t)0x05;
 288              		.loc 1 42 48 view .LVU78
 289 0044 0022     		movs	r2, #0
 290 0046 7F20     		movs	r0, #127
 291              	.LVL29:
  42:modules/motor/XMmotor/xmmotor.c ****         motor->motor_can_instace->tx_buff[0] = (uint8_t)0x05;
 292              		.loc 1 42 48 view .LVU79
 293 0048 1872     		strb	r0, [r3, #8]
 294 004a 5A72     		strb	r2, [r3, #9]
 295 004c 9A72     		strb	r2, [r3, #10]
 296 004e 1222     		movs	r2, #18
 297 0050 DA72     		strb	r2, [r3, #11]
  43:modules/motor/XMmotor/xmmotor.c ****         motor->motor_can_instace->tx_buff[1] = (uint8_t)0x70;
 298              		.loc 1 43 9 is_stmt 1 view .LVU80
  43:modules/motor/XMmotor/xmmotor.c ****         motor->motor_can_instace->tx_buff[1] = (uint8_t)0x70;
 299              		.loc 1 43 14 is_stmt 0 view .LVU81
 300 0052 D1F8B431 		ldr	r3, [r1, #436]
  43:modules/motor/XMmotor/xmmotor.c ****         motor->motor_can_instace->tx_buff[1] = (uint8_t)0x70;
 301              		.loc 1 43 46 view .LVU82
 302 0056 0522     		movs	r2, #5
 303 0058 83F82420 		strb	r2, [r3, #36]
  44:modules/motor/XMmotor/xmmotor.c ****         motor->motor_can_instace->tx_buff[4] = (uint8_t)0x03;
 304              		.loc 1 44 9 is_stmt 1 view .LVU83
  44:modules/motor/XMmotor/xmmotor.c ****         motor->motor_can_instace->tx_buff[4] = (uint8_t)0x03;
 305              		.loc 1 44 14 is_stmt 0 view .LVU84
 306 005c D1F8B431 		ldr	r3, [r1, #436]
  44:modules/motor/XMmotor/xmmotor.c ****         motor->motor_can_instace->tx_buff[4] = (uint8_t)0x03;
 307              		.loc 1 44 46 view .LVU85
 308 0060 7022     		movs	r2, #112
 309 0062 83F82520 		strb	r2, [r3, #37]
  45:modules/motor/XMmotor/xmmotor.c ****     }
 310              		.loc 1 45 9 is_stmt 1 view .LVU86
  45:modules/motor/XMmotor/xmmotor.c ****     }
 311              		.loc 1 45 14 is_stmt 0 view .LVU87
 312 0066 D1F8B431 		ldr	r3, [r1, #436]
  45:modules/motor/XMmotor/xmmotor.c ****     }
ARM GAS  C:\Users\ADMINI~1\AppData\Local\Temp\ccA0BXzZ.s 			page 9


 313              		.loc 1 45 46 view .LVU88
 314 006a 0322     		movs	r2, #3
 315 006c 83F82820 		strb	r2, [r3, #40]
 316 0070 CBE7     		b	.L9
 317              		.cfi_endproc
 318              	.LFE278:
 320              		.section	.text.XMMotorTask,"ax",%progbits
 321              		.align	1
 322              		.global	XMMotorTask
 323              		.syntax unified
 324              		.thumb
 325              		.thumb_func
 327              	XMMotorTask:
 328              	.LVL30:
 329              	.LFB288:
  77:modules/motor/XMmotor/xmmotor.c **** 
  78:modules/motor/XMmotor/xmmotor.c **** void XMMotorCaliEncoder(XMMotorInstance *motor)
  79:modules/motor/XMmotor/xmmotor.c **** {
  80:modules/motor/XMmotor/xmmotor.c ****     // XMMotorSetMode(DM_CMD_ZERO_POSITION, motor);
  81:modules/motor/XMmotor/xmmotor.c ****     // DWT_Delay(0.1);
  82:modules/motor/XMmotor/xmmotor.c **** }
  83:modules/motor/XMmotor/xmmotor.c **** XMMotorInstance *XMMotorInit(Motor_Init_Config_s *config)
  84:modules/motor/XMmotor/xmmotor.c **** {
  85:modules/motor/XMmotor/xmmotor.c ****     XMMotorInstance *motor = (XMMotorInstance *)malloc(sizeof(XMMotorInstance));
  86:modules/motor/XMmotor/xmmotor.c ****     memset(motor, 0, sizeof(XMMotorInstance));
  87:modules/motor/XMmotor/xmmotor.c ****     
  88:modules/motor/XMmotor/xmmotor.c ****     motor->motor_settings = config->controller_setting_init_config;
  89:modules/motor/XMmotor/xmmotor.c ****     PIDInit(&motor->motor_controller.current_PID, &config->controller_param_init_config.current_PID
  90:modules/motor/XMmotor/xmmotor.c ****     PIDInit(&motor->motor_controller.speed_PID, &config->controller_param_init_config.speed_PID);
  91:modules/motor/XMmotor/xmmotor.c ****     PIDInit(&motor->motor_controller.angle_PID, &config->controller_param_init_config.angle_PID);
  92:modules/motor/XMmotor/xmmotor.c ****     motor->motor_controller.other_angle_feedback_ptr = config->controller_param_init_config.other_a
  93:modules/motor/XMmotor/xmmotor.c ****     motor->motor_controller.other_speed_feedback_ptr = config->controller_param_init_config.other_s
  94:modules/motor/XMmotor/xmmotor.c **** 
  95:modules/motor/XMmotor/xmmotor.c ****     config->can_init_config.can_module_callback = XMMotorDecode;
  96:modules/motor/XMmotor/xmmotor.c ****     config->can_init_config.id = motor;
  97:modules/motor/XMmotor/xmmotor.c ****     config->can_init_config.mode = CAN_ID_EXT; // ŚľÄŚźĮśčďŚĪēŚłß
  98:modules/motor/XMmotor/xmmotor.c ****     motor->motor_can_instace = CANRegister(&config->can_init_config);
  99:modules/motor/XMmotor/xmmotor.c **** 
 100:modules/motor/XMmotor/xmmotor.c ****     XMMotorEnable(motor);
 101:modules/motor/XMmotor/xmmotor.c **** 
 102:modules/motor/XMmotor/xmmotor.c ****     XMMotorSetMode(XM_CMD_CURRENT_MODE, motor);     // ŤģĺÁĹģÁĒĶśĶĀÁéĮś®°ŚľŹ
 103:modules/motor/XMmotor/xmmotor.c ****     DWT_Delay(0.1);
 104:modules/motor/XMmotor/xmmotor.c ****     XMMotorSetMode(XM_CMD_MOTOR_MODE, motor);       // šĹŅŤÉĹÁĒĶśúļ    
 105:modules/motor/XMmotor/xmmotor.c ****     DWT_Delay(0.1);
 106:modules/motor/XMmotor/xmmotor.c **** 
 107:modules/motor/XMmotor/xmmotor.c ****     Daemon_Init_Config_s conf = {
 108:modules/motor/XMmotor/xmmotor.c ****         .callback = XMMotorLostCallback,   
 109:modules/motor/XMmotor/xmmotor.c ****         .owner_id = motor,
 110:modules/motor/XMmotor/xmmotor.c ****         .reload_count = 5, // 50ms
 111:modules/motor/XMmotor/xmmotor.c ****     };
 112:modules/motor/XMmotor/xmmotor.c ****     motor->motor_daemon = DaemonRegister(&conf);
 113:modules/motor/XMmotor/xmmotor.c **** 
 114:modules/motor/XMmotor/xmmotor.c ****     xm_motor_instance[idx++] = motor;
 115:modules/motor/XMmotor/xmmotor.c ****     return motor;
 116:modules/motor/XMmotor/xmmotor.c **** }
 117:modules/motor/XMmotor/xmmotor.c **** 
 118:modules/motor/XMmotor/xmmotor.c **** void XMMotorSetRef(XMMotorInstance *motor, float ref)
ARM GAS  C:\Users\ADMINI~1\AppData\Local\Temp\ccA0BXzZ.s 			page 10


 119:modules/motor/XMmotor/xmmotor.c **** {
 120:modules/motor/XMmotor/xmmotor.c ****     motor->motor_controller.pid_ref = ref;
 121:modules/motor/XMmotor/xmmotor.c **** }
 122:modules/motor/XMmotor/xmmotor.c **** 
 123:modules/motor/XMmotor/xmmotor.c **** void XMMotorChangeFeed(XMMotorInstance *motor, Closeloop_Type_e loop, Feedback_Source_e type)
 124:modules/motor/XMmotor/xmmotor.c **** {
 125:modules/motor/XMmotor/xmmotor.c ****     if (loop == ANGLE_LOOP)
 126:modules/motor/XMmotor/xmmotor.c ****         motor->motor_settings.angle_feedback_source = type;
 127:modules/motor/XMmotor/xmmotor.c ****     else if (loop == SPEED_LOOP)
 128:modules/motor/XMmotor/xmmotor.c ****         motor->motor_settings.speed_feedback_source = type;
 129:modules/motor/XMmotor/xmmotor.c ****     else
 130:modules/motor/XMmotor/xmmotor.c ****         LOGERROR("[dji_motor] loop type error, check memory access and func param"); // ś£Äśü•śėĮŚź
 131:modules/motor/XMmotor/xmmotor.c **** }
 132:modules/motor/XMmotor/xmmotor.c **** 
 133:modules/motor/XMmotor/xmmotor.c **** 
 134:modules/motor/XMmotor/xmmotor.c **** void XMMotorEnable(XMMotorInstance *motor)
 135:modules/motor/XMmotor/xmmotor.c **** {
 136:modules/motor/XMmotor/xmmotor.c ****     motor->stop_flag = MOTOR_ENALBED;
 137:modules/motor/XMmotor/xmmotor.c **** }
 138:modules/motor/XMmotor/xmmotor.c **** 
 139:modules/motor/XMmotor/xmmotor.c **** void XMMotorStop(XMMotorInstance *motor)//šłćšĹŅÁĒ®šĹŅŤÉĹś®°ŚľŹśėĮŚõ†šłļťúÄŤ¶ĀśĒ∂ŚąįŚŹćť¶ą
 140:modules/motor/XMmotor/xmmotor.c **** {
 141:modules/motor/XMmotor/xmmotor.c ****     motor->stop_flag = MOTOR_STOP;
 142:modules/motor/XMmotor/xmmotor.c **** }
 143:modules/motor/XMmotor/xmmotor.c **** 
 144:modules/motor/XMmotor/xmmotor.c **** void XMMotorOuterLoop(XMMotorInstance *motor, Closeloop_Type_e type)
 145:modules/motor/XMmotor/xmmotor.c **** {
 146:modules/motor/XMmotor/xmmotor.c ****     motor->motor_settings.outer_loop_type = type;
 147:modules/motor/XMmotor/xmmotor.c **** }
 148:modules/motor/XMmotor/xmmotor.c **** 
 149:modules/motor/XMmotor/xmmotor.c **** //@Todo: ÁõģŚČćšłćšĹŅÁĒ®Ťá™Śł¶śéßŚą∂ś®°ŚľŹÔľĆťÄöŤŅáÁĒĶśĶĀŚŹćť¶ąŤŅõŤ°ĆPIDśéßŚą∂ 
 150:modules/motor/XMmotor/xmmotor.c **** float pid_ref, pid_measure, set;
 151:modules/motor/XMmotor/xmmotor.c **** void XMMotorTask(void const *argument)
 152:modules/motor/XMmotor/xmmotor.c **** {
 330              		.loc 1 152 1 is_stmt 1 view -0
 331              		.cfi_startproc
 332              		@ args = 0, pretend = 0, frame = 0
 333              		@ frame_needed = 0, uses_anonymous_args = 0
 334              		.loc 1 152 1 is_stmt 0 view .LVU90
 335 0000 38B5     		push	{r3, r4, r5, lr}
 336              	.LCFI2:
 337              		.cfi_def_cfa_offset 16
 338              		.cfi_offset 3, -16
 339              		.cfi_offset 4, -12
 340              		.cfi_offset 5, -8
 341              		.cfi_offset 14, -4
 342 0002 0446     		mov	r4, r0
 153:modules/motor/XMmotor/xmmotor.c ****     XMMotorInstance *motor = (XMMotorInstance *)argument;
 343              		.loc 1 153 5 is_stmt 1 view .LVU91
 344              	.LVL31:
 345              		.loc 1 153 5 is_stmt 0 view .LVU92
 346 0004 81E0     		b	.L26
 347              	.LVL32:
 348              	.L31:
 154:modules/motor/XMmotor/xmmotor.c ****     Motor_Control_Setting_s *motor_setting; // ÁĒĶśúļśéßŚą∂ŚŹāśēį
 155:modules/motor/XMmotor/xmmotor.c ****     Motor_Controller_s *motor_controller;   // ÁĒĶśúļśéßŚą∂Śô®
 156:modules/motor/XMmotor/xmmotor.c ****     XM_Motor_Measure_s *measure;
ARM GAS  C:\Users\ADMINI~1\AppData\Local\Temp\ccA0BXzZ.s 			page 11


 157:modules/motor/XMmotor/xmmotor.c **** 
 158:modules/motor/XMmotor/xmmotor.c ****     while (1)
 159:modules/motor/XMmotor/xmmotor.c ****     {
 160:modules/motor/XMmotor/xmmotor.c ****         motor_setting = &motor->motor_settings;
 161:modules/motor/XMmotor/xmmotor.c ****         motor_controller = &motor->motor_controller;
 162:modules/motor/XMmotor/xmmotor.c ****         measure = &motor->measure;
 163:modules/motor/XMmotor/xmmotor.c ****         pid_ref = motor_controller->pid_ref;
 164:modules/motor/XMmotor/xmmotor.c **** 
 165:modules/motor/XMmotor/xmmotor.c ****         if (motor_setting->motor_reverse_flag == MOTOR_DIRECTION_REVERSE && (motor_setting->outer_l
 349              		.loc 1 165 91 discriminator 1 view .LVU93
 350 0006 94F82430 		ldrb	r3, [r4, #36]	@ zero_extendqisi2
 351              		.loc 1 165 74 discriminator 1 view .LVU94
 352 000a 13F0060F 		tst	r3, #6
 353 000e 00F08680 		beq	.L14
 166:modules/motor/XMmotor/xmmotor.c ****             pid_ref *= -1; // ŤģĺÁĹģŚŹćŤĹ¨
 354              		.loc 1 166 13 is_stmt 1 view .LVU95
 355              		.loc 1 166 21 is_stmt 0 view .LVU96
 356 0012 F1EE677A 		vneg.f32	s15, s15
 357 0016 6C4B     		ldr	r3, .L35
 358 0018 C3ED007A 		vstr.32	s15, [r3]
 359 001c 7FE0     		b	.L14
 360              	.L32:
 167:modules/motor/XMmotor/xmmotor.c **** 
 168:modules/motor/XMmotor/xmmotor.c ****         // pid_refšľöť°ļś¨°ťÄöŤŅáŤĘęŚźĮÁĒ®ÁöĄťó≠ÁéĮŚÖÖŚĹďśēįśćģÁöĄŤĹĹšĹď
 169:modules/motor/XMmotor/xmmotor.c ****         // Ťģ°ÁģóšĹćÁĹģÁéĮ,ŚŹ™śúČŚźĮÁĒ®šĹćÁĹģÁéĮšłĒŚ§ĖŚĪāťó≠ÁéĮšłļšĹćÁĹģśó∂šľöŤģ°ÁģóťÄüŚļ¶ÁéĮŤĺďŚáļ
 170:modules/motor/XMmotor/xmmotor.c ****         if ((motor_setting->close_loop_type & ANGLE_LOOP) && motor_setting->outer_loop_type == ANGL
 171:modules/motor/XMmotor/xmmotor.c ****         {
 172:modules/motor/XMmotor/xmmotor.c ****             if (motor_setting->angle_feedback_source == OTHER_FEED)
 361              		.loc 1 172 13 is_stmt 1 view .LVU97
 362              		.loc 1 172 30 is_stmt 0 view .LVU98
 363 001e 94F82830 		ldrb	r3, [r4, #40]	@ zero_extendqisi2
 364              		.loc 1 172 16 view .LVU99
 365 0022 012B     		cmp	r3, #1
 366 0024 13D0     		beq	.L30
 173:modules/motor/XMmotor/xmmotor.c ****                 pid_measure = *motor_controller->other_angle_feedback_ptr;
 174:modules/motor/XMmotor/xmmotor.c ****             else
 175:modules/motor/XMmotor/xmmotor.c ****                 pid_measure = measure->total_round; // MOTOR_FEED,ŚĮĻtotal_roundťó≠ÁéĮ,ťė≤ś≠ĘŚú®ŤĺĻ
 367              		.loc 1 175 17 is_stmt 1 view .LVU100
 368              		.loc 1 175 29 is_stmt 0 view .LVU101
 369 0026 D4ED087A 		vldr.32	s15, [r4, #32]	@ int
 370 002a F8EEE77A 		vcvt.f32.s32	s15, s15
 371 002e 674B     		ldr	r3, .L35+4
 372 0030 C3ED007A 		vstr.32	s15, [r3]
 373              	.L17:
 176:modules/motor/XMmotor/xmmotor.c ****             // śõīśĖįpid_refŤŅõŚÖ•šłčšłÄšł™ÁéĮ
 177:modules/motor/XMmotor/xmmotor.c ****             pid_ref = PIDCalculate(&motor_controller->angle_PID, pid_measure, pid_ref);
 374              		.loc 1 177 13 is_stmt 1 view .LVU102
 375              		.loc 1 177 23 is_stmt 0 view .LVU103
 376 0034 644D     		ldr	r5, .L35
 377 0036 D5ED000A 		vldr.32	s1, [r5]
 378 003a 644B     		ldr	r3, .L35+4
 379 003c 93ED000A 		vldr.32	s0, [r3]
 380 0040 04F59870 		add	r0, r4, #304
 381 0044 FFF7FEFF 		bl	PIDCalculate
 382              	.LVL33:
 383              		.loc 1 177 21 discriminator 1 view .LVU104
 384 0048 85ED000A 		vstr.32	s0, [r5]
ARM GAS  C:\Users\ADMINI~1\AppData\Local\Temp\ccA0BXzZ.s 			page 12


 385 004c 71E0     		b	.L15
 386              	.L30:
 173:modules/motor/XMmotor/xmmotor.c ****                 pid_measure = *motor_controller->other_angle_feedback_ptr;
 387              		.loc 1 173 17 is_stmt 1 view .LVU105
 173:modules/motor/XMmotor/xmmotor.c ****                 pid_measure = *motor_controller->other_angle_feedback_ptr;
 388              		.loc 1 173 48 is_stmt 0 view .LVU106
 389 004e 236B     		ldr	r3, [r4, #48]
 173:modules/motor/XMmotor/xmmotor.c ****                 pid_measure = *motor_controller->other_angle_feedback_ptr;
 390              		.loc 1 173 31 view .LVU107
 391 0050 1A68     		ldr	r2, [r3]	@ float
 173:modules/motor/XMmotor/xmmotor.c ****                 pid_measure = *motor_controller->other_angle_feedback_ptr;
 392              		.loc 1 173 29 view .LVU108
 393 0052 5E4B     		ldr	r3, .L35+4
 394 0054 1A60     		str	r2, [r3]	@ float
 395 0056 EDE7     		b	.L17
 396              	.L33:
 178:modules/motor/XMmotor/xmmotor.c ****         }
 179:modules/motor/XMmotor/xmmotor.c **** 
 180:modules/motor/XMmotor/xmmotor.c ****         // Ťģ°ÁģóťÄüŚļ¶ÁéĮ,(Ś§ĖŚĪāťó≠ÁéĮšłļťÄüŚļ¶śąĖšĹćÁĹģ)šłĒ(ŚźĮÁĒ®ťÄüŚļ¶ÁéĮ)śó∂šľöŤģ°ÁģóťÄüŚļ¶Áé
 181:modules/motor/XMmotor/xmmotor.c ****         if ((motor_setting->close_loop_type & SPEED_LOOP) && (motor_setting->outer_loop_type & (ANG
 182:modules/motor/XMmotor/xmmotor.c ****         {
 183:modules/motor/XMmotor/xmmotor.c ****             if (motor_setting->feedforward_flag & SPEED_FEEDFORWARD)
 184:modules/motor/XMmotor/xmmotor.c ****                 pid_ref += *motor_controller->speed_feedforward_ptr;
 185:modules/motor/XMmotor/xmmotor.c **** 
 186:modules/motor/XMmotor/xmmotor.c ****             if (motor_setting->speed_feedback_source == OTHER_FEED)
 187:modules/motor/XMmotor/xmmotor.c ****                 pid_measure = *motor_controller->other_speed_feedback_ptr;
 397              		.loc 1 187 17 is_stmt 1 view .LVU109
 398              		.loc 1 187 48 is_stmt 0 view .LVU110
 399 0058 636B     		ldr	r3, [r4, #52]
 400              		.loc 1 187 31 view .LVU111
 401 005a 1A68     		ldr	r2, [r3]	@ float
 402              		.loc 1 187 29 view .LVU112
 403 005c 5B4B     		ldr	r3, .L35+4
 404 005e 1A60     		str	r2, [r3]	@ float
 405 0060 88E0     		b	.L21
 406              	.L34:
 188:modules/motor/XMmotor/xmmotor.c ****             else // MOTOR_FEED
 189:modules/motor/XMmotor/xmmotor.c ****                 pid_measure = measure->velocity;
 190:modules/motor/XMmotor/xmmotor.c ****             // śõīśĖįpid_ref
 191:modules/motor/XMmotor/xmmotor.c ****             pid_ref = PIDCalculate(&motor_controller->speed_PID, pid_measure, pid_ref);
 192:modules/motor/XMmotor/xmmotor.c ****         }
 193:modules/motor/XMmotor/xmmotor.c **** 
 194:modules/motor/XMmotor/xmmotor.c ****         if (motor_setting->feedback_reverse_flag == FEEDBACK_DIRECTION_REVERSE && (motor_setting->o
 407              		.loc 1 194 97 discriminator 1 view .LVU113
 408 0062 94F82430 		ldrb	r3, [r4, #36]	@ zero_extendqisi2
 409              		.loc 1 194 80 discriminator 1 view .LVU114
 410 0066 13F0060F 		tst	r3, #6
 411 006a 00F09480 		beq	.L22
 195:modules/motor/XMmotor/xmmotor.c ****             pid_ref *= -1;
 412              		.loc 1 195 13 is_stmt 1 view .LVU115
 413              		.loc 1 195 21 is_stmt 0 view .LVU116
 414 006e 564B     		ldr	r3, .L35
 415 0070 D3ED007A 		vldr.32	s15, [r3]
 416 0074 F1EE677A 		vneg.f32	s15, s15
 417 0078 C3ED007A 		vstr.32	s15, [r3]
 418 007c 8BE0     		b	.L22
 419              	.L27:
ARM GAS  C:\Users\ADMINI~1\AppData\Local\Temp\ccA0BXzZ.s 			page 13


 196:modules/motor/XMmotor/xmmotor.c **** 
 197:modules/motor/XMmotor/xmmotor.c ****         // Ťé∑ŚŹĖśúÄÁĽąŤĺďŚáļ,ŚäüÁéáťôźŚą∂śó∂Áõīśé•ŤĺďŚáļÁĒĶśĶĀŚÄľ
 198:modules/motor/XMmotor/xmmotor.c ****         set = pid_ref;
 199:modules/motor/XMmotor/xmmotor.c ****         
 200:modules/motor/XMmotor/xmmotor.c ****         LIMIT_MIN_MAX(set, XM_I_MIN, XM_I_MAX); 
 420              		.loc 1 200 9 discriminator 1 view .LVU117
 421 007e FAEE047A 		vmov.f32	s15, #-1.0e+1
 422              	.L23:
 423              		.loc 1 200 9 discriminator 8 view .LVU118
 424 0082 534B     		ldr	r3, .L35+8
 425 0084 C3ED007A 		vstr.32	s15, [r3]
 201:modules/motor/XMmotor/xmmotor.c **** 
 202:modules/motor/XMmotor/xmmotor.c ****         if (motor->stop_flag == MOTOR_STOP)
 426              		.loc 1 202 9 is_stmt 1 view .LVU119
 427              		.loc 1 202 18 is_stmt 0 view .LVU120
 428 0088 94F8B031 		ldrb	r3, [r4, #432]	@ zero_extendqisi2
 429              		.loc 1 202 12 view .LVU121
 430 008c 13B9     		cbnz	r3, .L25
 203:modules/motor/XMmotor/xmmotor.c ****             set = 0;
 431              		.loc 1 203 13 is_stmt 1 view .LVU122
 432              		.loc 1 203 17 is_stmt 0 view .LVU123
 433 008e 504B     		ldr	r3, .L35+8
 434 0090 0022     		movs	r2, #0
 435 0092 1A60     		str	r2, [r3]	@ float
 436              	.L25:
 204:modules/motor/XMmotor/xmmotor.c **** 
 205:modules/motor/XMmotor/xmmotor.c ****         // śčďŚĪēŚłß
 206:modules/motor/XMmotor/xmmotor.c ****         motor->motor_can_instace->txconf.ExtId = 0x12 << 24 | 0x0 << 8 | motor->motor_can_instace->
 437              		.loc 1 206 9 is_stmt 1 view .LVU124
 438              		.loc 1 206 79 is_stmt 0 view .LVU125
 439 0094 D4F8B421 		ldr	r2, [r4, #436]
 440              		.loc 1 206 98 view .LVU126
 441 0098 D369     		ldr	r3, [r2, #28]	@ unaligned
 442              		.loc 1 206 72 view .LVU127
 443 009a 43F09053 		orr	r3, r3, #301989888
 444              		.loc 1 206 48 view .LVU128
 445 009e 9360     		str	r3, [r2, #8]	@ unaligned
 207:modules/motor/XMmotor/xmmotor.c ****         motor->motor_can_instace->txconf.StdId = 0; 
 446              		.loc 1 207 9 is_stmt 1 view .LVU129
 447              		.loc 1 207 14 is_stmt 0 view .LVU130
 448 00a0 D4F8B421 		ldr	r2, [r4, #436]
 449              		.loc 1 207 48 view .LVU131
 450 00a4 0023     		movs	r3, #0
 451 00a6 1371     		strb	r3, [r2, #4]
 452 00a8 5371     		strb	r3, [r2, #5]
 453 00aa 9371     		strb	r3, [r2, #6]
 454 00ac D371     		strb	r3, [r2, #7]
 208:modules/motor/XMmotor/xmmotor.c **** 
 209:modules/motor/XMmotor/xmmotor.c ****         memset(motor->motor_can_instace->tx_buff, 0, 8);  
 455              		.loc 1 209 9 is_stmt 1 view .LVU132
 456              		.loc 1 209 21 is_stmt 0 view .LVU133
 457 00ae D4F8B421 		ldr	r2, [r4, #436]
 458              		.loc 1 209 9 view .LVU134
 459 00b2 5362     		str	r3, [r2, #36]	@ unaligned
 460 00b4 9362     		str	r3, [r2, #40]	@ unaligned
 210:modules/motor/XMmotor/xmmotor.c ****         motor->motor_can_instace->tx_buff[0] = (uint8_t)(0x06);
 461              		.loc 1 210 9 is_stmt 1 view .LVU135
ARM GAS  C:\Users\ADMINI~1\AppData\Local\Temp\ccA0BXzZ.s 			page 14


 462              		.loc 1 210 14 is_stmt 0 view .LVU136
 463 00b6 D4F8B431 		ldr	r3, [r4, #436]
 464              		.loc 1 210 46 view .LVU137
 465 00ba 0622     		movs	r2, #6
 466 00bc 83F82420 		strb	r2, [r3, #36]
 211:modules/motor/XMmotor/xmmotor.c ****         motor->motor_can_instace->tx_buff[1] = (uint8_t)(0x70);
 467              		.loc 1 211 9 is_stmt 1 view .LVU138
 468              		.loc 1 211 14 is_stmt 0 view .LVU139
 469 00c0 D4F8B431 		ldr	r3, [r4, #436]
 470              		.loc 1 211 46 view .LVU140
 471 00c4 7022     		movs	r2, #112
 472 00c6 83F82520 		strb	r2, [r3, #37]
 212:modules/motor/XMmotor/xmmotor.c ****         motor->motor_can_instace->tx_buff[4] = (uint8_t)((*(unsigned long*)&set & 0x000000FF));
 473              		.loc 1 212 9 is_stmt 1 view .LVU141
 474              		.loc 1 212 59 is_stmt 0 view .LVU142
 475 00ca 414B     		ldr	r3, .L35+8
 476 00cc 1B68     		ldr	r3, [r3]
 477              		.loc 1 212 14 view .LVU143
 478 00ce D4F8B421 		ldr	r2, [r4, #436]
 479              		.loc 1 212 46 view .LVU144
 480 00d2 82F82830 		strb	r3, [r2, #40]
 213:modules/motor/XMmotor/xmmotor.c ****         motor->motor_can_instace->tx_buff[5] = (uint8_t)((*(unsigned long*)&set & 0x0000FF00) >> 8)
 481              		.loc 1 213 9 is_stmt 1 view .LVU145
 482              		.loc 1 213 14 is_stmt 0 view .LVU146
 483 00d6 D4F8B421 		ldr	r2, [r4, #436]
 484              		.loc 1 213 48 view .LVU147
 485 00da C3F30721 		ubfx	r1, r3, #8, #8
 486              		.loc 1 213 46 view .LVU148
 487 00de 82F82910 		strb	r1, [r2, #41]
 214:modules/motor/XMmotor/xmmotor.c ****         motor->motor_can_instace->tx_buff[6] = (uint8_t)((*(unsigned long*)&set & 0x00FF0000) >> 16
 488              		.loc 1 214 9 is_stmt 1 view .LVU149
 489              		.loc 1 214 14 is_stmt 0 view .LVU150
 490 00e2 D4F8B421 		ldr	r2, [r4, #436]
 491              		.loc 1 214 48 view .LVU151
 492 00e6 C3F30741 		ubfx	r1, r3, #16, #8
 493              		.loc 1 214 46 view .LVU152
 494 00ea 82F82A10 		strb	r1, [r2, #42]
 215:modules/motor/XMmotor/xmmotor.c ****         motor->motor_can_instace->tx_buff[7] = (uint8_t)((*(unsigned long*)&set & 0xFF000000) >> 24
 495              		.loc 1 215 9 is_stmt 1 view .LVU153
 496              		.loc 1 215 14 is_stmt 0 view .LVU154
 497 00ee D4F8B421 		ldr	r2, [r4, #436]
 498              		.loc 1 215 48 view .LVU155
 499 00f2 1B0E     		lsrs	r3, r3, #24
 500              		.loc 1 215 46 view .LVU156
 501 00f4 82F82B30 		strb	r3, [r2, #43]
 216:modules/motor/XMmotor/xmmotor.c **** 
 217:modules/motor/XMmotor/xmmotor.c ****         CANTransmit(motor->motor_can_instace, 1);
 502              		.loc 1 217 9 is_stmt 1 view .LVU157
 503 00f8 B7EE000A 		vmov.f32	s0, #1.0e+0
 504 00fc D4F8B401 		ldr	r0, [r4, #436]
 505 0100 FFF7FEFF 		bl	CANTransmit
 506              	.LVL34:
 218:modules/motor/XMmotor/xmmotor.c **** 
 219:modules/motor/XMmotor/xmmotor.c ****         osDelay(2);
 507              		.loc 1 219 9 view .LVU158
 508 0104 0220     		movs	r0, #2
 509 0106 FFF7FEFF 		bl	osDelay
ARM GAS  C:\Users\ADMINI~1\AppData\Local\Temp\ccA0BXzZ.s 			page 15


 510              	.LVL35:
 158:modules/motor/XMmotor/xmmotor.c ****     {
 511              		.loc 1 158 11 view .LVU159
 512              	.L26:
 154:modules/motor/XMmotor/xmmotor.c ****     Motor_Controller_s *motor_controller;   // ÁĒĶśúļśéßŚą∂Śô®
 513              		.loc 1 154 5 view .LVU160
 155:modules/motor/XMmotor/xmmotor.c ****     XM_Motor_Measure_s *measure;
 514              		.loc 1 155 5 view .LVU161
 156:modules/motor/XMmotor/xmmotor.c **** 
 515              		.loc 1 156 5 view .LVU162
 158:modules/motor/XMmotor/xmmotor.c ****     {
 516              		.loc 1 158 5 view .LVU163
 160:modules/motor/XMmotor/xmmotor.c ****         motor_controller = &motor->motor_controller;
 517              		.loc 1 160 9 view .LVU164
 161:modules/motor/XMmotor/xmmotor.c ****         measure = &motor->measure;
 518              		.loc 1 161 9 view .LVU165
 162:modules/motor/XMmotor/xmmotor.c ****         pid_ref = motor_controller->pid_ref;
 519              		.loc 1 162 9 view .LVU166
 163:modules/motor/XMmotor/xmmotor.c **** 
 520              		.loc 1 163 9 view .LVU167
 163:modules/motor/XMmotor/xmmotor.c **** 
 521              		.loc 1 163 35 is_stmt 0 view .LVU168
 522 010a D4ED6A7A 		vldr.32	s15, [r4, #424]
 163:modules/motor/XMmotor/xmmotor.c **** 
 523              		.loc 1 163 17 view .LVU169
 524 010e 2E4B     		ldr	r3, .L35
 525 0110 C3ED007A 		vstr.32	s15, [r3]
 165:modules/motor/XMmotor/xmmotor.c ****             pid_ref *= -1; // ŤģĺÁĹģŚŹćŤĹ¨
 526              		.loc 1 165 9 is_stmt 1 view .LVU170
 165:modules/motor/XMmotor/xmmotor.c ****             pid_ref *= -1; // ŤģĺÁĹģŚŹćŤĹ¨
 527              		.loc 1 165 26 is_stmt 0 view .LVU171
 528 0114 94F82630 		ldrb	r3, [r4, #38]	@ zero_extendqisi2
 165:modules/motor/XMmotor/xmmotor.c ****             pid_ref *= -1; // ŤģĺÁĹģŚŹćŤĹ¨
 529              		.loc 1 165 12 view .LVU172
 530 0118 012B     		cmp	r3, #1
 531 011a 3FF474AF 		beq	.L31
 532              	.L14:
 170:modules/motor/XMmotor/xmmotor.c ****         {
 533              		.loc 1 170 9 is_stmt 1 view .LVU173
 170:modules/motor/XMmotor/xmmotor.c ****         {
 534              		.loc 1 170 27 is_stmt 0 view .LVU174
 535 011e 94F82530 		ldrb	r3, [r4, #37]	@ zero_extendqisi2
 170:modules/motor/XMmotor/xmmotor.c ****         {
 536              		.loc 1 170 12 view .LVU175
 537 0122 13F0040F 		tst	r3, #4
 538 0126 04D0     		beq	.L15
 170:modules/motor/XMmotor/xmmotor.c ****         {
 539              		.loc 1 170 75 discriminator 1 view .LVU176
 540 0128 94F82430 		ldrb	r3, [r4, #36]	@ zero_extendqisi2
 170:modules/motor/XMmotor/xmmotor.c ****         {
 541              		.loc 1 170 59 discriminator 1 view .LVU177
 542 012c 042B     		cmp	r3, #4
 543 012e 3FF476AF 		beq	.L32
 544              	.L15:
 181:modules/motor/XMmotor/xmmotor.c ****         {
 545              		.loc 1 181 9 is_stmt 1 view .LVU178
 181:modules/motor/XMmotor/xmmotor.c ****         {
ARM GAS  C:\Users\ADMINI~1\AppData\Local\Temp\ccA0BXzZ.s 			page 16


 546              		.loc 1 181 27 is_stmt 0 view .LVU179
 547 0132 94F82530 		ldrb	r3, [r4, #37]	@ zero_extendqisi2
 181:modules/motor/XMmotor/xmmotor.c ****         {
 548              		.loc 1 181 12 view .LVU180
 549 0136 13F0020F 		tst	r3, #2
 550 013a 27D0     		beq	.L18
 181:modules/motor/XMmotor/xmmotor.c ****         {
 551              		.loc 1 181 76 discriminator 1 view .LVU181
 552 013c 94F82430 		ldrb	r3, [r4, #36]	@ zero_extendqisi2
 181:modules/motor/XMmotor/xmmotor.c ****         {
 553              		.loc 1 181 59 discriminator 1 view .LVU182
 554 0140 13F0060F 		tst	r3, #6
 555 0144 22D0     		beq	.L18
 183:modules/motor/XMmotor/xmmotor.c ****                 pid_ref += *motor_controller->speed_feedforward_ptr;
 556              		.loc 1 183 13 is_stmt 1 view .LVU183
 183:modules/motor/XMmotor/xmmotor.c ****                 pid_ref += *motor_controller->speed_feedforward_ptr;
 557              		.loc 1 183 30 is_stmt 0 view .LVU184
 558 0146 94F82A30 		ldrb	r3, [r4, #42]	@ zero_extendqisi2
 183:modules/motor/XMmotor/xmmotor.c ****                 pid_ref += *motor_controller->speed_feedforward_ptr;
 559              		.loc 1 183 16 view .LVU185
 560 014a 13F0020F 		tst	r3, #2
 561 014e 09D0     		beq	.L19
 184:modules/motor/XMmotor/xmmotor.c **** 
 562              		.loc 1 184 17 is_stmt 1 view .LVU186
 184:modules/motor/XMmotor/xmmotor.c **** 
 563              		.loc 1 184 45 is_stmt 0 view .LVU187
 564 0150 A36B     		ldr	r3, [r4, #56]
 184:modules/motor/XMmotor/xmmotor.c **** 
 565              		.loc 1 184 28 view .LVU188
 566 0152 93ED007A 		vldr.32	s14, [r3]
 184:modules/motor/XMmotor/xmmotor.c **** 
 567              		.loc 1 184 25 view .LVU189
 568 0156 1C4B     		ldr	r3, .L35
 569 0158 D3ED007A 		vldr.32	s15, [r3]
 570 015c 77EE877A 		vadd.f32	s15, s15, s14
 571 0160 C3ED007A 		vstr.32	s15, [r3]
 572              	.L19:
 186:modules/motor/XMmotor/xmmotor.c ****                 pid_measure = *motor_controller->other_speed_feedback_ptr;
 573              		.loc 1 186 13 is_stmt 1 view .LVU190
 186:modules/motor/XMmotor/xmmotor.c ****                 pid_measure = *motor_controller->other_speed_feedback_ptr;
 574              		.loc 1 186 30 is_stmt 0 view .LVU191
 575 0164 94F82930 		ldrb	r3, [r4, #41]	@ zero_extendqisi2
 186:modules/motor/XMmotor/xmmotor.c ****                 pid_measure = *motor_controller->other_speed_feedback_ptr;
 576              		.loc 1 186 16 view .LVU192
 577 0168 012B     		cmp	r3, #1
 578 016a 3FF475AF 		beq	.L33
 189:modules/motor/XMmotor/xmmotor.c ****             // śõīśĖįpid_ref
 579              		.loc 1 189 17 is_stmt 1 view .LVU193
 189:modules/motor/XMmotor/xmmotor.c ****             // śõīśĖįpid_ref
 580              		.loc 1 189 38 is_stmt 0 view .LVU194
 581 016e 6268     		ldr	r2, [r4, #4]	@ float
 189:modules/motor/XMmotor/xmmotor.c ****             // śõīśĖįpid_ref
 582              		.loc 1 189 29 view .LVU195
 583 0170 164B     		ldr	r3, .L35+4
 584 0172 1A60     		str	r2, [r3]	@ float
 585              	.L21:
 191:modules/motor/XMmotor/xmmotor.c ****         }
ARM GAS  C:\Users\ADMINI~1\AppData\Local\Temp\ccA0BXzZ.s 			page 17


 586              		.loc 1 191 13 is_stmt 1 view .LVU196
 191:modules/motor/XMmotor/xmmotor.c ****         }
 587              		.loc 1 191 23 is_stmt 0 view .LVU197
 588 0174 144D     		ldr	r5, .L35
 589 0176 D5ED000A 		vldr.32	s1, [r5]
 590 017a 144B     		ldr	r3, .L35+4
 591 017c 93ED000A 		vldr.32	s0, [r3]
 592 0180 04F1B800 		add	r0, r4, #184
 593 0184 FFF7FEFF 		bl	PIDCalculate
 594              	.LVL36:
 191:modules/motor/XMmotor/xmmotor.c ****         }
 595              		.loc 1 191 21 discriminator 1 view .LVU198
 596 0188 85ED000A 		vstr.32	s0, [r5]
 597              	.L18:
 194:modules/motor/XMmotor/xmmotor.c ****             pid_ref *= -1;
 598              		.loc 1 194 9 is_stmt 1 view .LVU199
 194:modules/motor/XMmotor/xmmotor.c ****             pid_ref *= -1;
 599              		.loc 1 194 26 is_stmt 0 view .LVU200
 600 018c 94F82730 		ldrb	r3, [r4, #39]	@ zero_extendqisi2
 194:modules/motor/XMmotor/xmmotor.c ****             pid_ref *= -1;
 601              		.loc 1 194 12 view .LVU201
 602 0190 012B     		cmp	r3, #1
 603 0192 3FF466AF 		beq	.L34
 604              	.L22:
 198:modules/motor/XMmotor/xmmotor.c ****         
 605              		.loc 1 198 9 is_stmt 1 view .LVU202
 198:modules/motor/XMmotor/xmmotor.c ****         
 606              		.loc 1 198 13 is_stmt 0 view .LVU203
 607 0196 0C4B     		ldr	r3, .L35
 608 0198 D3ED007A 		vldr.32	s15, [r3]
 609 019c 0C4B     		ldr	r3, .L35+8
 610 019e C3ED007A 		vstr.32	s15, [r3]
 200:modules/motor/XMmotor/xmmotor.c **** 
 611              		.loc 1 200 9 is_stmt 1 view .LVU204
 612 01a2 BAEE047A 		vmov.f32	s14, #-1.0e+1
 613 01a6 F4EEC77A 		vcmpe.f32	s15, s14
 614 01aa F1EE10FA 		vmrs	APSR_nzcv, FPSCR
 615 01ae 7FF666AF 		bls	.L27
 200:modules/motor/XMmotor/xmmotor.c **** 
 616              		.loc 1 200 9 is_stmt 0 discriminator 2 view .LVU205
 617 01b2 B2EE047A 		vmov.f32	s14, #1.0e+1
 618 01b6 F4EEC77A 		vcmpe.f32	s15, s14
 619 01ba F1EE10FA 		vmrs	APSR_nzcv, FPSCR
 620 01be FFF660AF 		blt	.L23
 200:modules/motor/XMmotor/xmmotor.c **** 
 621              		.loc 1 200 9 discriminator 4 view .LVU206
 622 01c2 F0EE477A 		vmov.f32	s15, s14
 623 01c6 5CE7     		b	.L23
 624              	.L36:
 625              		.align	2
 626              	.L35:
 627 01c8 00000000 		.word	pid_ref
 628 01cc 00000000 		.word	pid_measure
 629 01d0 00000000 		.word	set
 630              		.cfi_endproc
 631              	.LFE288:
 633              		.section	.text.XMMotorCaliEncoder,"ax",%progbits
ARM GAS  C:\Users\ADMINI~1\AppData\Local\Temp\ccA0BXzZ.s 			page 18


 634              		.align	1
 635              		.global	XMMotorCaliEncoder
 636              		.syntax unified
 637              		.thumb
 638              		.thumb_func
 640              	XMMotorCaliEncoder:
 641              	.LVL37:
 642              	.LFB281:
  79:modules/motor/XMmotor/xmmotor.c ****     // XMMotorSetMode(DM_CMD_ZERO_POSITION, motor);
 643              		.loc 1 79 1 is_stmt 1 view -0
 644              		.cfi_startproc
 645              		@ args = 0, pretend = 0, frame = 0
 646              		@ frame_needed = 0, uses_anonymous_args = 0
 647              		@ link register save eliminated.
  82:modules/motor/XMmotor/xmmotor.c **** XMMotorInstance *XMMotorInit(Motor_Init_Config_s *config)
 648              		.loc 1 82 1 view .LVU208
 649 0000 7047     		bx	lr
 650              		.cfi_endproc
 651              	.LFE281:
 653              		.section	.text.XMMotorSetRef,"ax",%progbits
 654              		.align	1
 655              		.global	XMMotorSetRef
 656              		.syntax unified
 657              		.thumb
 658              		.thumb_func
 660              	XMMotorSetRef:
 661              	.LVL38:
 662              	.LFB283:
 119:modules/motor/XMmotor/xmmotor.c ****     motor->motor_controller.pid_ref = ref;
 663              		.loc 1 119 1 view -0
 664              		.cfi_startproc
 665              		@ args = 0, pretend = 0, frame = 0
 666              		@ frame_needed = 0, uses_anonymous_args = 0
 667              		@ link register save eliminated.
 120:modules/motor/XMmotor/xmmotor.c **** }
 668              		.loc 1 120 5 view .LVU210
 120:modules/motor/XMmotor/xmmotor.c **** }
 669              		.loc 1 120 37 is_stmt 0 view .LVU211
 670 0000 80ED6A0A 		vstr.32	s0, [r0, #424]
 121:modules/motor/XMmotor/xmmotor.c **** 
 671              		.loc 1 121 1 view .LVU212
 672 0004 7047     		bx	lr
 673              		.cfi_endproc
 674              	.LFE283:
 676              		.section	.text.XMMotorChangeFeed,"ax",%progbits
 677              		.align	1
 678              		.global	XMMotorChangeFeed
 679              		.syntax unified
 680              		.thumb
 681              		.thumb_func
 683              	XMMotorChangeFeed:
 684              	.LVL39:
 685              	.LFB284:
 124:modules/motor/XMmotor/xmmotor.c ****     if (loop == ANGLE_LOOP)
 686              		.loc 1 124 1 is_stmt 1 view -0
 687              		.cfi_startproc
 688              		@ args = 0, pretend = 0, frame = 0
ARM GAS  C:\Users\ADMINI~1\AppData\Local\Temp\ccA0BXzZ.s 			page 19


 689              		@ frame_needed = 0, uses_anonymous_args = 0
 690              		@ link register save eliminated.
 125:modules/motor/XMmotor/xmmotor.c ****         motor->motor_settings.angle_feedback_source = type;
 691              		.loc 1 125 5 view .LVU214
 125:modules/motor/XMmotor/xmmotor.c ****         motor->motor_settings.angle_feedback_source = type;
 692              		.loc 1 125 8 is_stmt 0 view .LVU215
 693 0000 0429     		cmp	r1, #4
 694 0002 02D0     		beq	.L42
 127:modules/motor/XMmotor/xmmotor.c ****         motor->motor_settings.speed_feedback_source = type;
 695              		.loc 1 127 10 is_stmt 1 view .LVU216
 127:modules/motor/XMmotor/xmmotor.c ****         motor->motor_settings.speed_feedback_source = type;
 696              		.loc 1 127 13 is_stmt 0 view .LVU217
 697 0004 0229     		cmp	r1, #2
 698 0006 03D0     		beq	.L43
 699              	.L39:
 131:modules/motor/XMmotor/xmmotor.c **** 
 700              		.loc 1 131 1 view .LVU218
 701 0008 7047     		bx	lr
 702              	.L42:
 126:modules/motor/XMmotor/xmmotor.c ****     else if (loop == SPEED_LOOP)
 703              		.loc 1 126 9 is_stmt 1 view .LVU219
 126:modules/motor/XMmotor/xmmotor.c ****     else if (loop == SPEED_LOOP)
 704              		.loc 1 126 53 is_stmt 0 view .LVU220
 705 000a 80F82820 		strb	r2, [r0, #40]
 706 000e 7047     		bx	lr
 707              	.L43:
 128:modules/motor/XMmotor/xmmotor.c ****     else
 708              		.loc 1 128 9 is_stmt 1 view .LVU221
 128:modules/motor/XMmotor/xmmotor.c ****     else
 709              		.loc 1 128 53 is_stmt 0 view .LVU222
 710 0010 80F82920 		strb	r2, [r0, #41]
 131:modules/motor/XMmotor/xmmotor.c **** 
 711              		.loc 1 131 1 view .LVU223
 712 0014 F8E7     		b	.L39
 713              		.cfi_endproc
 714              	.LFE284:
 716              		.section	.text.XMMotorEnable,"ax",%progbits
 717              		.align	1
 718              		.global	XMMotorEnable
 719              		.syntax unified
 720              		.thumb
 721              		.thumb_func
 723              	XMMotorEnable:
 724              	.LVL40:
 725              	.LFB285:
 135:modules/motor/XMmotor/xmmotor.c ****     motor->stop_flag = MOTOR_ENALBED;
 726              		.loc 1 135 1 is_stmt 1 view -0
 727              		.cfi_startproc
 728              		@ args = 0, pretend = 0, frame = 0
 729              		@ frame_needed = 0, uses_anonymous_args = 0
 730              		@ link register save eliminated.
 136:modules/motor/XMmotor/xmmotor.c **** }
 731              		.loc 1 136 5 view .LVU225
 136:modules/motor/XMmotor/xmmotor.c **** }
 732              		.loc 1 136 22 is_stmt 0 view .LVU226
 733 0000 0123     		movs	r3, #1
 734 0002 80F8B031 		strb	r3, [r0, #432]
ARM GAS  C:\Users\ADMINI~1\AppData\Local\Temp\ccA0BXzZ.s 			page 20


 137:modules/motor/XMmotor/xmmotor.c **** 
 735              		.loc 1 137 1 view .LVU227
 736 0006 7047     		bx	lr
 737              		.cfi_endproc
 738              	.LFE285:
 740              		.section	.text.XMMotorInit,"ax",%progbits
 741              		.align	1
 742              		.global	XMMotorInit
 743              		.syntax unified
 744              		.thumb
 745              		.thumb_func
 747              	XMMotorInit:
 748              	.LVL41:
 749              	.LFB282:
  84:modules/motor/XMmotor/xmmotor.c ****     XMMotorInstance *motor = (XMMotorInstance *)malloc(sizeof(XMMotorInstance));
 750              		.loc 1 84 1 is_stmt 1 view -0
 751              		.cfi_startproc
 752              		@ args = 0, pretend = 0, frame = 16
 753              		@ frame_needed = 0, uses_anonymous_args = 0
  84:modules/motor/XMmotor/xmmotor.c ****     XMMotorInstance *motor = (XMMotorInstance *)malloc(sizeof(XMMotorInstance));
 754              		.loc 1 84 1 is_stmt 0 view .LVU229
 755 0000 30B5     		push	{r4, r5, lr}
 756              	.LCFI3:
 757              		.cfi_def_cfa_offset 12
 758              		.cfi_offset 4, -12
 759              		.cfi_offset 5, -8
 760              		.cfi_offset 14, -4
 761 0002 2DED028B 		vpush.64	{d8}
 762              	.LCFI4:
 763              		.cfi_def_cfa_offset 20
 764              		.cfi_offset 80, -20
 765              		.cfi_offset 81, -16
 766 0006 85B0     		sub	sp, sp, #20
 767              	.LCFI5:
 768              		.cfi_def_cfa_offset 40
 769 0008 0546     		mov	r5, r0
  85:modules/motor/XMmotor/xmmotor.c ****     memset(motor, 0, sizeof(XMMotorInstance));
 770              		.loc 1 85 5 is_stmt 1 view .LVU230
  85:modules/motor/XMmotor/xmmotor.c ****     memset(motor, 0, sizeof(XMMotorInstance));
 771              		.loc 1 85 49 is_stmt 0 view .LVU231
 772 000a 4FF4E070 		mov	r0, #448
 773              	.LVL42:
  85:modules/motor/XMmotor/xmmotor.c ****     memset(motor, 0, sizeof(XMMotorInstance));
 774              		.loc 1 85 49 view .LVU232
 775 000e FFF7FEFF 		bl	malloc
 776              	.LVL43:
 777 0012 0446     		mov	r4, r0
 778              	.LVL44:
  86:modules/motor/XMmotor/xmmotor.c ****     
 779              		.loc 1 86 5 is_stmt 1 view .LVU233
 780 0014 4FF4E072 		mov	r2, #448
 781 0018 0021     		movs	r1, #0
 782 001a FFF7FEFF 		bl	memset
 783              	.LVL45:
  88:modules/motor/XMmotor/xmmotor.c ****     PIDInit(&motor->motor_controller.current_PID, &config->controller_param_init_config.current_PID
 784              		.loc 1 88 5 view .LVU234
  88:modules/motor/XMmotor/xmmotor.c ****     PIDInit(&motor->motor_controller.current_PID, &config->controller_param_init_config.current_PID
ARM GAS  C:\Users\ADMINI~1\AppData\Local\Temp\ccA0BXzZ.s 			page 21


 785              		.loc 1 88 27 is_stmt 0 view .LVU235
 786 001e 04F12403 		add	r3, r4, #36
 787 0022 05F19402 		add	r2, r5, #148
 788 0026 92E80300 		ldm	r2, {r0, r1}
 789 002a 83E80300 		stm	r3, {r0, r1}
  89:modules/motor/XMmotor/xmmotor.c ****     PIDInit(&motor->motor_controller.speed_PID, &config->controller_param_init_config.speed_PID);
 790              		.loc 1 89 5 is_stmt 1 view .LVU236
 791 002e 05F11001 		add	r1, r5, #16
 792 0032 04F14000 		add	r0, r4, #64
 793 0036 FFF7FEFF 		bl	PIDInit
 794              	.LVL46:
  90:modules/motor/XMmotor/xmmotor.c ****     PIDInit(&motor->motor_controller.angle_PID, &config->controller_param_init_config.angle_PID);
 795              		.loc 1 90 5 view .LVU237
 796 003a 05F13C01 		add	r1, r5, #60
 797 003e 04F1B800 		add	r0, r4, #184
 798 0042 FFF7FEFF 		bl	PIDInit
 799              	.LVL47:
  91:modules/motor/XMmotor/xmmotor.c ****     motor->motor_controller.other_angle_feedback_ptr = config->controller_param_init_config.other_a
 800              		.loc 1 91 5 view .LVU238
 801 0046 05F16801 		add	r1, r5, #104
 802 004a 04F59870 		add	r0, r4, #304
 803 004e FFF7FEFF 		bl	PIDInit
 804              	.LVL48:
  92:modules/motor/XMmotor/xmmotor.c ****     motor->motor_controller.other_speed_feedback_ptr = config->controller_param_init_config.other_s
 805              		.loc 1 92 5 view .LVU239
  92:modules/motor/XMmotor/xmmotor.c ****     motor->motor_controller.other_speed_feedback_ptr = config->controller_param_init_config.other_s
 806              		.loc 1 92 92 is_stmt 0 view .LVU240
 807 0052 2B68     		ldr	r3, [r5]
  92:modules/motor/XMmotor/xmmotor.c ****     motor->motor_controller.other_speed_feedback_ptr = config->controller_param_init_config.other_s
 808              		.loc 1 92 54 view .LVU241
 809 0054 2363     		str	r3, [r4, #48]
  93:modules/motor/XMmotor/xmmotor.c **** 
 810              		.loc 1 93 5 is_stmt 1 view .LVU242
  93:modules/motor/XMmotor/xmmotor.c **** 
 811              		.loc 1 93 92 is_stmt 0 view .LVU243
 812 0056 6B68     		ldr	r3, [r5, #4]
  93:modules/motor/XMmotor/xmmotor.c **** 
 813              		.loc 1 93 54 view .LVU244
 814 0058 6363     		str	r3, [r4, #52]
  95:modules/motor/XMmotor/xmmotor.c ****     config->can_init_config.id = motor;
 815              		.loc 1 95 5 is_stmt 1 view .LVU245
  95:modules/motor/XMmotor/xmmotor.c ****     config->can_init_config.id = motor;
 816              		.loc 1 95 49 is_stmt 0 view .LVU246
 817 005a 1F4B     		ldr	r3, .L47
 818 005c C5F8B430 		str	r3, [r5, #180]
  96:modules/motor/XMmotor/xmmotor.c ****     config->can_init_config.mode = CAN_ID_EXT; // ŚľÄŚźĮśčďŚĪēŚłß
 819              		.loc 1 96 5 is_stmt 1 view .LVU247
  96:modules/motor/XMmotor/xmmotor.c ****     config->can_init_config.mode = CAN_ID_EXT; // ŚľÄŚźĮśčďŚĪēŚłß
 820              		.loc 1 96 32 is_stmt 0 view .LVU248
 821 0060 C5F8B840 		str	r4, [r5, #184]
  97:modules/motor/XMmotor/xmmotor.c ****     motor->motor_can_instace = CANRegister(&config->can_init_config);
 822              		.loc 1 97 5 is_stmt 1 view .LVU249
  97:modules/motor/XMmotor/xmmotor.c ****     motor->motor_can_instace = CANRegister(&config->can_init_config);
 823              		.loc 1 97 34 is_stmt 0 view .LVU250
 824 0064 0423     		movs	r3, #4
 825 0066 C5F8B030 		str	r3, [r5, #176]
  98:modules/motor/XMmotor/xmmotor.c **** 
ARM GAS  C:\Users\ADMINI~1\AppData\Local\Temp\ccA0BXzZ.s 			page 22


 826              		.loc 1 98 5 is_stmt 1 view .LVU251
  98:modules/motor/XMmotor/xmmotor.c **** 
 827              		.loc 1 98 32 is_stmt 0 view .LVU252
 828 006a 05F1A000 		add	r0, r5, #160
 829 006e FFF7FEFF 		bl	CANRegister
 830              	.LVL49:
  98:modules/motor/XMmotor/xmmotor.c **** 
 831              		.loc 1 98 30 discriminator 1 view .LVU253
 832 0072 C4F8B401 		str	r0, [r4, #436]
 100:modules/motor/XMmotor/xmmotor.c **** 
 833              		.loc 1 100 5 is_stmt 1 view .LVU254
 834 0076 2046     		mov	r0, r4
 835 0078 FFF7FEFF 		bl	XMMotorEnable
 836              	.LVL50:
 102:modules/motor/XMmotor/xmmotor.c ****     DWT_Delay(0.1);
 837              		.loc 1 102 5 view .LVU255
 838 007c 2146     		mov	r1, r4
 839 007e 1220     		movs	r0, #18
 840 0080 FFF7FEFF 		bl	XMMotorSetMode
 841              	.LVL51:
 103:modules/motor/XMmotor/xmmotor.c ****     XMMotorSetMode(XM_CMD_MOTOR_MODE, motor);       // šĹŅŤÉĹÁĒĶśúļ    
 842              		.loc 1 103 5 view .LVU256
 843 0084 9FED158A 		vldr.32	s16, .L47+4
 844 0088 B0EE480A 		vmov.f32	s0, s16
 845 008c FFF7FEFF 		bl	DWT_Delay
 846              	.LVL52:
 104:modules/motor/XMmotor/xmmotor.c ****     DWT_Delay(0.1);
 847              		.loc 1 104 5 view .LVU257
 848 0090 2146     		mov	r1, r4
 849 0092 0320     		movs	r0, #3
 850 0094 FFF7FEFF 		bl	XMMotorSetMode
 851              	.LVL53:
 105:modules/motor/XMmotor/xmmotor.c **** 
 852              		.loc 1 105 5 view .LVU258
 853 0098 B0EE480A 		vmov.f32	s0, s16
 854 009c FFF7FEFF 		bl	DWT_Delay
 855              	.LVL54:
 107:modules/motor/XMmotor/xmmotor.c ****         .callback = XMMotorLostCallback,   
 856              		.loc 1 107 5 view .LVU259
 107:modules/motor/XMmotor/xmmotor.c ****         .callback = XMMotorLostCallback,   
 857              		.loc 1 107 26 is_stmt 0 view .LVU260
 858 00a0 0023     		movs	r3, #0
 859 00a2 0193     		str	r3, [sp, #4]
 860 00a4 0293     		str	r3, [sp, #8]
 861 00a6 0393     		str	r3, [sp, #12]
 862 00a8 0523     		movs	r3, #5
 863 00aa ADF80430 		strh	r3, [sp, #4]	@ movhi
 864 00ae 0C4B     		ldr	r3, .L47+8
 865 00b0 0293     		str	r3, [sp, #8]
 866 00b2 0394     		str	r4, [sp, #12]
 112:modules/motor/XMmotor/xmmotor.c **** 
 867              		.loc 1 112 5 is_stmt 1 view .LVU261
 112:modules/motor/XMmotor/xmmotor.c **** 
 868              		.loc 1 112 27 is_stmt 0 view .LVU262
 869 00b4 01A8     		add	r0, sp, #4
 870 00b6 FFF7FEFF 		bl	DaemonRegister
 871              	.LVL55:
ARM GAS  C:\Users\ADMINI~1\AppData\Local\Temp\ccA0BXzZ.s 			page 23


 112:modules/motor/XMmotor/xmmotor.c **** 
 872              		.loc 1 112 25 discriminator 1 view .LVU263
 873 00ba C4F8B801 		str	r0, [r4, #440]
 114:modules/motor/XMmotor/xmmotor.c ****     return motor;
 874              		.loc 1 114 5 is_stmt 1 view .LVU264
 114:modules/motor/XMmotor/xmmotor.c ****     return motor;
 875              		.loc 1 114 26 is_stmt 0 view .LVU265
 876 00be 094A     		ldr	r2, .L47+12
 877 00c0 1378     		ldrb	r3, [r2]	@ zero_extendqisi2
 878 00c2 591C     		adds	r1, r3, #1
 879 00c4 1170     		strb	r1, [r2]
 114:modules/motor/XMmotor/xmmotor.c ****     return motor;
 880              		.loc 1 114 30 view .LVU266
 881 00c6 084A     		ldr	r2, .L47+16
 882 00c8 42F82340 		str	r4, [r2, r3, lsl #2]
 115:modules/motor/XMmotor/xmmotor.c **** }
 883              		.loc 1 115 5 is_stmt 1 view .LVU267
 116:modules/motor/XMmotor/xmmotor.c **** 
 884              		.loc 1 116 1 is_stmt 0 view .LVU268
 885 00cc 2046     		mov	r0, r4
 886 00ce 05B0     		add	sp, sp, #20
 887              	.LCFI6:
 888              		.cfi_def_cfa_offset 20
 889              		@ sp needed
 890 00d0 BDEC028B 		vldm	sp!, {d8}
 891              	.LCFI7:
 892              		.cfi_restore 80
 893              		.cfi_restore 81
 894              		.cfi_def_cfa_offset 12
 895 00d4 30BD     		pop	{r4, r5, pc}
 896              	.LVL56:
 897              	.L48:
 116:modules/motor/XMmotor/xmmotor.c **** 
 898              		.loc 1 116 1 view .LVU269
 899 00d6 00BF     		.align	2
 900              	.L47:
 901 00d8 00000000 		.word	XMMotorDecode
 902 00dc CDCCCC3D 		.word	1036831949
 903 00e0 00000000 		.word	XMMotorLostCallback
 904 00e4 00000000 		.word	idx
 905 00e8 00000000 		.word	xm_motor_instance
 906              		.cfi_endproc
 907              	.LFE282:
 909              		.section	.text.XMMotorStop,"ax",%progbits
 910              		.align	1
 911              		.global	XMMotorStop
 912              		.syntax unified
 913              		.thumb
 914              		.thumb_func
 916              	XMMotorStop:
 917              	.LVL57:
 918              	.LFB286:
 140:modules/motor/XMmotor/xmmotor.c ****     motor->stop_flag = MOTOR_STOP;
 919              		.loc 1 140 1 is_stmt 1 view -0
 920              		.cfi_startproc
 921              		@ args = 0, pretend = 0, frame = 0
 922              		@ frame_needed = 0, uses_anonymous_args = 0
ARM GAS  C:\Users\ADMINI~1\AppData\Local\Temp\ccA0BXzZ.s 			page 24


 923              		@ link register save eliminated.
 141:modules/motor/XMmotor/xmmotor.c **** }
 924              		.loc 1 141 5 view .LVU271
 141:modules/motor/XMmotor/xmmotor.c **** }
 925              		.loc 1 141 22 is_stmt 0 view .LVU272
 926 0000 0023     		movs	r3, #0
 927 0002 80F8B031 		strb	r3, [r0, #432]
 142:modules/motor/XMmotor/xmmotor.c **** 
 928              		.loc 1 142 1 view .LVU273
 929 0006 7047     		bx	lr
 930              		.cfi_endproc
 931              	.LFE286:
 933              		.section	.text.XMMotorOuterLoop,"ax",%progbits
 934              		.align	1
 935              		.global	XMMotorOuterLoop
 936              		.syntax unified
 937              		.thumb
 938              		.thumb_func
 940              	XMMotorOuterLoop:
 941              	.LVL58:
 942              	.LFB287:
 145:modules/motor/XMmotor/xmmotor.c ****     motor->motor_settings.outer_loop_type = type;
 943              		.loc 1 145 1 is_stmt 1 view -0
 944              		.cfi_startproc
 945              		@ args = 0, pretend = 0, frame = 0
 946              		@ frame_needed = 0, uses_anonymous_args = 0
 947              		@ link register save eliminated.
 146:modules/motor/XMmotor/xmmotor.c **** }
 948              		.loc 1 146 5 view .LVU275
 146:modules/motor/XMmotor/xmmotor.c **** }
 949              		.loc 1 146 43 is_stmt 0 view .LVU276
 950 0000 80F82410 		strb	r1, [r0, #36]
 147:modules/motor/XMmotor/xmmotor.c **** 
 951              		.loc 1 147 1 view .LVU277
 952 0004 7047     		bx	lr
 953              		.cfi_endproc
 954              	.LFE287:
 956              		.section	.text.XMMotorControlInit,"ax",%progbits
 957              		.align	1
 958              		.global	XMMotorControlInit
 959              		.syntax unified
 960              		.thumb
 961              		.thumb_func
 963              	XMMotorControlInit:
 964              	.LFB289:
 220:modules/motor/XMmotor/xmmotor.c ****     }
 221:modules/motor/XMmotor/xmmotor.c **** }
 222:modules/motor/XMmotor/xmmotor.c **** void XMMotorControlInit()
 223:modules/motor/XMmotor/xmmotor.c **** {
 965              		.loc 1 223 1 is_stmt 1 view -0
 966              		.cfi_startproc
 967              		@ args = 0, pretend = 0, frame = 40
 968              		@ frame_needed = 0, uses_anonymous_args = 0
 969 0000 30B5     		push	{r4, r5, lr}
 970              	.LCFI8:
 971              		.cfi_def_cfa_offset 12
 972              		.cfi_offset 4, -12
ARM GAS  C:\Users\ADMINI~1\AppData\Local\Temp\ccA0BXzZ.s 			page 25


 973              		.cfi_offset 5, -8
 974              		.cfi_offset 14, -4
 975 0002 8BB0     		sub	sp, sp, #44
 976              	.LCFI9:
 977              		.cfi_def_cfa_offset 56
 224:modules/motor/XMmotor/xmmotor.c ****     char xm_task_name[5] = "xm";
 978              		.loc 1 224 5 view .LVU279
 979              		.loc 1 224 10 is_stmt 0 view .LVU280
 980 0004 46F67853 		movw	r3, #28024
 981 0008 0893     		str	r3, [sp, #32]
 982 000a 0023     		movs	r3, #0
 983 000c 8DF82430 		strb	r3, [sp, #36]
 225:modules/motor/XMmotor/xmmotor.c ****     // ťĀćŚéÜśČÄśúČÁĒĶśúļŚģěšĺč,ŚąõŚĽļšĽĽŚä°
 226:modules/motor/XMmotor/xmmotor.c ****     if (!idx)
 984              		.loc 1 226 5 is_stmt 1 view .LVU281
 985              		.loc 1 226 9 is_stmt 0 view .LVU282
 986 0010 154B     		ldr	r3, .L57
 987 0012 1B78     		ldrb	r3, [r3]	@ zero_extendqisi2
 988              		.loc 1 226 8 view .LVU283
 989 0014 2BB3     		cbz	r3, .L51
 990              	.LBB2:
 227:modules/motor/XMmotor/xmmotor.c ****         return;
 228:modules/motor/XMmotor/xmmotor.c ****     for (size_t i = 0; i < idx; i++)
 991              		.loc 1 228 17 view .LVU284
 992 0016 0025     		movs	r5, #0
 993 0018 1FE0     		b	.L52
 994              	.LVL59:
 995              	.L54:
 996              	.LBB3:
 229:modules/motor/XMmotor/xmmotor.c ****     {
 230:modules/motor/XMmotor/xmmotor.c ****         char xm_id_buff[2] = {0};
 997              		.loc 1 230 9 is_stmt 1 view .LVU285
 998              		.loc 1 230 14 is_stmt 0 view .LVU286
 999 001a 0023     		movs	r3, #0
 1000 001c ADF80030 		strh	r3, [sp]	@ movhi
 231:modules/motor/XMmotor/xmmotor.c ****         __itoa(i, xm_id_buff, 10);
 1001              		.loc 1 231 9 is_stmt 1 view .LVU287
 1002 0020 0A22     		movs	r2, #10
 1003 0022 6946     		mov	r1, sp
 1004 0024 2846     		mov	r0, r5
 1005 0026 FFF7FEFF 		bl	__itoa
 1006              	.LVL60:
 232:modules/motor/XMmotor/xmmotor.c ****         strcat(xm_task_name, xm_id_buff);
 1007              		.loc 1 232 9 view .LVU288
 1008 002a 6946     		mov	r1, sp
 1009 002c 08A8     		add	r0, sp, #32
 1010 002e FFF7FEFF 		bl	strcat
 1011              	.LVL61:
 233:modules/motor/XMmotor/xmmotor.c ****         osThreadDef(xm_task_name, XMMotorTask, osPriorityNormal, 0, 128);
 1012              		.loc 1 233 9 view .LVU289
 1013 0032 0DF1040C 		add	ip, sp, #4
 1014 0036 0D4C     		ldr	r4, .L57+4
 1015 0038 0FCC     		ldmia	r4!, {r0, r1, r2, r3}
 1016 003a ACE80F00 		stmia	ip!, {r0, r1, r2, r3}
 1017 003e 94E80700 		ldm	r4, {r0, r1, r2}
 1018 0042 8CE80700 		stm	ip, {r0, r1, r2}
 234:modules/motor/XMmotor/xmmotor.c ****         xm_task_handle[i] = osThreadCreate(osThread(xm_task_name), xm_motor_instance[i]);
ARM GAS  C:\Users\ADMINI~1\AppData\Local\Temp\ccA0BXzZ.s 			page 26


 1019              		.loc 1 234 9 view .LVU290
 1020              		.loc 1 234 29 is_stmt 0 view .LVU291
 1021 0046 0A4B     		ldr	r3, .L57+8
 1022 0048 53F82510 		ldr	r1, [r3, r5, lsl #2]
 1023 004c 01A8     		add	r0, sp, #4
 1024 004e FFF7FEFF 		bl	osThreadCreate
 1025              	.LVL62:
 1026              		.loc 1 234 27 discriminator 1 view .LVU292
 1027 0052 084B     		ldr	r3, .L57+12
 1028 0054 43F82500 		str	r0, [r3, r5, lsl #2]
 1029              	.LBE3:
 228:modules/motor/XMmotor/xmmotor.c ****     {
 1030              		.loc 1 228 34 is_stmt 1 discriminator 3 view .LVU293
 1031 0058 0135     		adds	r5, r5, #1
 1032              	.LVL63:
 1033              	.L52:
 228:modules/motor/XMmotor/xmmotor.c ****     {
 1034              		.loc 1 228 26 discriminator 1 view .LVU294
 1035 005a 034B     		ldr	r3, .L57
 1036 005c 1B78     		ldrb	r3, [r3]	@ zero_extendqisi2
 1037 005e AB42     		cmp	r3, r5
 1038 0060 DBD8     		bhi	.L54
 1039              	.LVL64:
 1040              	.L51:
 228:modules/motor/XMmotor/xmmotor.c ****     {
 1041              		.loc 1 228 26 is_stmt 0 discriminator 1 view .LVU295
 1042              	.LBE2:
 235:modules/motor/XMmotor/xmmotor.c ****     }
 236:modules/motor/XMmotor/xmmotor.c **** }...
 1043              		.loc 1 236 1 view .LVU296
 1044 0062 0BB0     		add	sp, sp, #44
 1045              	.LCFI10:
 1046              		.cfi_def_cfa_offset 12
 1047              		@ sp needed
 1048 0064 30BD     		pop	{r4, r5, pc}
 1049              	.L58:
 1050 0066 00BF     		.align	2
 1051              	.L57:
 1052 0068 00000000 		.word	idx
 1053 006c 00000000 		.word	.LANCHOR0
 1054 0070 00000000 		.word	xm_motor_instance
 1055 0074 00000000 		.word	xm_task_handle
 1056              		.cfi_endproc
 1057              	.LFE289:
 1059              		.section	.rodata.str1.4,"aMS",%progbits,1
 1060              		.align	2
 1061              	.LC0:
 1062 0000 786D5F74 		.ascii	"xm_task_name\000"
 1062      61736B5F 
 1062      6E616D65 
 1062      00
 1063              		.global	set
 1064              		.section	.bss.set,"aw",%nobits
 1065              		.align	2
 1068              	set:
 1069 0000 00000000 		.space	4
 1070              		.global	pid_measure
ARM GAS  C:\Users\ADMINI~1\AppData\Local\Temp\ccA0BXzZ.s 			page 27


 1071              		.section	.bss.pid_measure,"aw",%nobits
 1072              		.align	2
 1075              	pid_measure:
 1076 0000 00000000 		.space	4
 1077              		.global	pid_ref
 1078              		.section	.bss.pid_ref,"aw",%nobits
 1079              		.align	2
 1082              	pid_ref:
 1083 0000 00000000 		.space	4
 1084              		.section	.bss.xm_task_handle,"aw",%nobits
 1085              		.align	2
 1088              	xm_task_handle:
 1089 0000 00000000 		.space	16
 1089      00000000 
 1089      00000000 
 1089      00000000 
 1090              		.section	.bss.xm_motor_instance,"aw",%nobits
 1091              		.align	2
 1094              	xm_motor_instance:
 1095 0000 00000000 		.space	16
 1095      00000000 
 1095      00000000 
 1095      00000000 
 1096              		.section	.bss.idx,"aw",%nobits
 1099              	idx:
 1100 0000 00       		.space	1
 1101              		.section	.rodata
 1102              		.align	2
 1103              		.set	.LANCHOR0,. + 0
 1104              	.LC2:
 1105 0000 00000000 		.word	.LC0
 1106 0004 00000000 		.word	XMMotorTask
 1107 0008 0000     		.short	0
 1108 000a 0000     		.space	2
 1109 000c 00000000 		.word	0
 1110 0010 80000000 		.word	128
 1111 0014 00000000 		.word	0
 1112 0018 00000000 		.word	0
 1113              		.text
 1114              	.Letext0:
 1115              		.file 2 "D:/Msys2/mingw64/arm-none-eabi/include/machine/_default_types.h"
 1116              		.file 3 "D:/Msys2/mingw64/arm-none-eabi/include/sys/_stdint.h"
 1117              		.file 4 "Drivers/CMSIS/Device/ST/STM32F4xx/Include/stm32f407xx.h"
 1118              		.file 5 "Drivers/CMSIS/Device/ST/STM32F4xx/Include/stm32f4xx.h"
 1119              		.file 6 "D:/Msys2/mingw64/lib/gcc/arm-none-eabi/13.3.0/include/stddef.h"
 1120              		.file 7 "Drivers/STM32F4xx_HAL_Driver/Inc/stm32f4xx_hal_can.h"
 1121              		.file 8 "bsp/can/bsp_can.h"
 1122              		.file 9 "modules/algorithm/controller.h"
 1123              		.file 10 "modules/motor/motor_def.h"
 1124              		.file 11 "modules/daemon/daemon.h"
 1125              		.file 12 "modules/motor/XMmotor/xmmotor.h"
 1126              		.file 13 "Middlewares/Third_Party/FreeRTOS/Source/portable/GCC/ARM_CM4F/portmacro.h"
 1127              		.file 14 "Middlewares/Third_Party/FreeRTOS/Source/include/FreeRTOS.h"
 1128              		.file 15 "Middlewares/Third_Party/FreeRTOS/Source/include/task.h"
 1129              		.file 16 "Middlewares/Third_Party/FreeRTOS/Source/CMSIS_RTOS/cmsis_os.h"
 1130              		.file 17 "D:/Msys2/mingw64/arm-none-eabi/include/string.h"
 1131              		.file 18 "D:/Msys2/mingw64/arm-none-eabi/include/stdlib.h"
ARM GAS  C:\Users\ADMINI~1\AppData\Local\Temp\ccA0BXzZ.s 			page 28


 1132              		.file 19 "bsp/dwt/bsp_dwt.h"
 1133              		.file 20 "<built-in>"
ARM GAS  C:\Users\ADMINI~1\AppData\Local\Temp\ccA0BXzZ.s 			page 29

